
_interrupt:

;FirmV_0_7_0.c,208 :: 		void interrupt()
;FirmV_0_7_0.c,210 :: 		if(TMR0IF_bit)
	BTFSS       TMR0IF_bit+0, 2 
	GOTO        L_interrupt0
;FirmV_0_7_0.c,212 :: 		msCounter=msCounter+1;
	INCF        _msCounter+0, 1 
;FirmV_0_7_0.c,213 :: 		LCDBackLight=1;
	BSF         PORTA+0, 4 
;FirmV_0_7_0.c,214 :: 		Flag20ms=1;
	MOVLW       1
	MOVWF       _Flag20ms+0 
;FirmV_0_7_0.c,215 :: 		if(ms20A==255)
	MOVF        _ms20A+0, 0 
	XORLW       255
	BTFSS       STATUS+0, 2 
	GOTO        L_interrupt1
;FirmV_0_7_0.c,216 :: 		{ms20A=0;RemotePulse1=0;}
	CLRF        _ms20A+0 
	CLRF        _RemotePulse1+0 
	GOTO        L_interrupt2
L_interrupt1:
;FirmV_0_7_0.c,218 :: 		ms20A=ms20A+1;
	INCF        _ms20A+0, 1 
L_interrupt2:
;FirmV_0_7_0.c,220 :: 		if(ms20B==255)
	MOVF        _ms20B+0, 0 
	XORLW       255
	BTFSS       STATUS+0, 2 
	GOTO        L_interrupt3
;FirmV_0_7_0.c,221 :: 		{ms20B=0;RemotePulse2=0;}
	CLRF        _ms20B+0 
	CLRF        _RemotePulse2+0 
	GOTO        L_interrupt4
L_interrupt3:
;FirmV_0_7_0.c,223 :: 		ms20B=ms20B+1;
	INCF        _ms20B+0, 1 
L_interrupt4:
;FirmV_0_7_0.c,225 :: 		if(msCounter>=25)
	MOVLW       25
	SUBWF       _msCounter+0, 0 
	BTFSS       STATUS+0, 0 
	GOTO        L_interrupt5
;FirmV_0_7_0.c,227 :: 		msCounter=0;
	CLRF        _msCounter+0 
;FirmV_0_7_0.c,228 :: 		ms500=ms500+1;
	MOVLW       1
	ADDWF       _ms500+0, 1 
	MOVLW       0
	ADDWFC      _ms500+1, 1 
	ADDWFC      _ms500+2, 1 
	ADDWFC      _ms500+3, 1 
;FirmV_0_7_0.c,229 :: 		LCDFlashFlag=!LCDFlashFlag;
	MOVF        _LCDFlashFlag+0, 1 
	MOVLW       1
	BTFSS       STATUS+0, 2 
	MOVLW       0
	MOVWF       _LCDFlashFlag+0 
;FirmV_0_7_0.c,230 :: 		LCDBackLight=0;
	BCF         PORTA+0, 4 
;FirmV_0_7_0.c,231 :: 		Flag500ms=1;
	MOVLW       1
	MOVWF       _Flag500ms+0 
;FirmV_0_7_0.c,232 :: 		}
L_interrupt5:
;FirmV_0_7_0.c,233 :: 		tmr0h=0xF3;
	MOVLW       243
	MOVWF       TMR0H+0 
;FirmV_0_7_0.c,234 :: 		tmr0l=0xCA;
	MOVLW       202
	MOVWF       TMR0L+0 
;FirmV_0_7_0.c,235 :: 		TMR0IF_bit=0;
	BCF         TMR0IF_bit+0, 2 
;FirmV_0_7_0.c,236 :: 		}
L_interrupt0:
;FirmV_0_7_0.c,239 :: 		if(INT1F_bit)
	BTFSS       INT1F_bit+0, 0 
	GOTO        L_interrupt6
;FirmV_0_7_0.c,241 :: 		if(RemotePulse1==0)
	MOVF        _RemotePulse1+0, 0 
	XORLW       0
	BTFSS       STATUS+0, 2 
	GOTO        L_interrupt7
;FirmV_0_7_0.c,242 :: 		{ RemotePulse1=RemotePulse1+1;ms20A=0;}
	INCF        _RemotePulse1+0, 1 
	CLRF        _ms20A+0 
	GOTO        L_interrupt8
L_interrupt7:
;FirmV_0_7_0.c,244 :: 		{ RemotePulse1=RemotePulse1+1;}
	INCF        _RemotePulse1+0, 1 
L_interrupt8:
;FirmV_0_7_0.c,245 :: 		if(RemotePulse1>=5)
	MOVLW       5
	SUBWF       _RemotePulse1+0, 0 
	BTFSS       STATUS+0, 0 
	GOTO        L_interrupt9
;FirmV_0_7_0.c,246 :: 		if((ms20A>=19)&&(ms20A<=21))
	MOVLW       19
	SUBWF       _ms20A+0, 0 
	BTFSS       STATUS+0, 0 
	GOTO        L_interrupt12
	MOVF        _ms20A+0, 0 
	SUBLW       21
	BTFSS       STATUS+0, 0 
	GOTO        L_interrupt12
L__interrupt696:
;FirmV_0_7_0.c,247 :: 		{RemoteAFlag=1;RemotePulse1=0;}
	MOVLW       1
	MOVWF       _RemoteAFlag+0 
	CLRF        _RemotePulse1+0 
	GOTO        L_interrupt13
L_interrupt12:
;FirmV_0_7_0.c,249 :: 		RemotePulse1=0;
	CLRF        _RemotePulse1+0 
L_interrupt13:
L_interrupt9:
;FirmV_0_7_0.c,250 :: 		INT1IF_bit=0;
	BCF         INT1IF_bit+0, 0 
;FirmV_0_7_0.c,251 :: 		}
L_interrupt6:
;FirmV_0_7_0.c,255 :: 		if(INT2IF_bit)
	BTFSS       INT2IF_bit+0, 1 
	GOTO        L_interrupt14
;FirmV_0_7_0.c,257 :: 		if(RemotePulse2==0)
	MOVF        _RemotePulse2+0, 0 
	XORLW       0
	BTFSS       STATUS+0, 2 
	GOTO        L_interrupt15
;FirmV_0_7_0.c,258 :: 		{ RemotePulse2=RemotePulse2+1;ms20B=0;}
	INCF        _RemotePulse2+0, 1 
	CLRF        _ms20B+0 
	GOTO        L_interrupt16
L_interrupt15:
;FirmV_0_7_0.c,260 :: 		{ RemotePulse2=RemotePulse2+1;}
	INCF        _RemotePulse2+0, 1 
L_interrupt16:
;FirmV_0_7_0.c,261 :: 		if(RemotePulse2>=5)
	MOVLW       5
	SUBWF       _RemotePulse2+0, 0 
	BTFSS       STATUS+0, 0 
	GOTO        L_interrupt17
;FirmV_0_7_0.c,262 :: 		if((ms20B>=19)&&(ms20B<=21))
	MOVLW       19
	SUBWF       _ms20B+0, 0 
	BTFSS       STATUS+0, 0 
	GOTO        L_interrupt20
	MOVF        _ms20B+0, 0 
	SUBLW       21
	BTFSS       STATUS+0, 0 
	GOTO        L_interrupt20
L__interrupt695:
;FirmV_0_7_0.c,263 :: 		{RemoteBFlag=1;RemotePulse2=0;}
	MOVLW       1
	MOVWF       _RemoteBFlag+0 
	CLRF        _RemotePulse2+0 
	GOTO        L_interrupt21
L_interrupt20:
;FirmV_0_7_0.c,265 :: 		RemotePulse2=0;
	CLRF        _RemotePulse2+0 
L_interrupt21:
L_interrupt17:
;FirmV_0_7_0.c,266 :: 		INT2IF_bit=0;
	BCF         INT2IF_bit+0, 1 
;FirmV_0_7_0.c,267 :: 		}
L_interrupt14:
;FirmV_0_7_0.c,272 :: 		if(INT0F_bit==1)
	BTFSS       INT0F_bit+0, 1 
	GOTO        L_interrupt22
;FirmV_0_7_0.c,274 :: 		ZCCounter=ZCCounter+1;
	INCF        _ZCCounter+0, 1 
;FirmV_0_7_0.c,275 :: 		if(ZCCounter==255)
	MOVF        _ZCCounter+0, 0 
	XORLW       255
	BTFSS       STATUS+0, 2 
	GOTO        L_interrupt23
;FirmV_0_7_0.c,276 :: 		ZCCounter=2;
	MOVLW       2
	MOVWF       _ZCCounter+0 
L_interrupt23:
;FirmV_0_7_0.c,277 :: 		if(ZCCounter%3==1)
	MOVLW       3
	MOVWF       R4 
	MOVF        _ZCCounter+0, 0 
	MOVWF       R0 
	CALL        _Div_8x8_U+0, 0
	MOVF        R8, 0 
	MOVWF       R0 
	MOVF        R0, 0 
	XORLW       1
	BTFSS       STATUS+0, 2 
	GOTO        L_interrupt24
;FirmV_0_7_0.c,279 :: 		if(Motor1Start)
	MOVF        _Motor1Start+0, 1 
	BTFSC       STATUS+0, 2 
	GOTO        L_interrupt25
;FirmV_0_7_0.c,280 :: 		if(Motor1FullSpeed)
	MOVF        _Motor1FullSpeed+0, 1 
	BTFSC       STATUS+0, 2 
	GOTO        L_interrupt26
;FirmV_0_7_0.c,281 :: 		Motor1=1;
	BSF         PORTB+0, 3 
	GOTO        L_interrupt27
L_interrupt26:
;FirmV_0_7_0.c,283 :: 		Motor1=0;
	BCF         PORTB+0, 3 
L_interrupt27:
L_interrupt25:
;FirmV_0_7_0.c,285 :: 		if(Motor2Start)
	MOVF        _Motor2Start+0, 1 
	BTFSC       STATUS+0, 2 
	GOTO        L_interrupt28
;FirmV_0_7_0.c,286 :: 		if(Motor2FullSpeed)
	MOVF        _Motor2FullSpeed+0, 1 
	BTFSC       STATUS+0, 2 
	GOTO        L_interrupt29
;FirmV_0_7_0.c,287 :: 		Motor2=1;
	BSF         PORTB+0, 4 
	GOTO        L_interrupt30
L_interrupt29:
;FirmV_0_7_0.c,289 :: 		Motor2=0;
	BCF         PORTB+0, 4 
L_interrupt30:
L_interrupt28:
;FirmV_0_7_0.c,290 :: 		}
L_interrupt24:
;FirmV_0_7_0.c,291 :: 		if(ZCCounter%3==0)
	MOVLW       3
	MOVWF       R4 
	MOVF        _ZCCounter+0, 0 
	MOVWF       R0 
	CALL        _Div_8x8_U+0, 0
	MOVF        R8, 0 
	MOVWF       R0 
	MOVF        R0, 0 
	XORLW       0
	BTFSS       STATUS+0, 2 
	GOTO        L_interrupt31
;FirmV_0_7_0.c,293 :: 		if(Motor1Start)
	MOVF        _Motor1Start+0, 1 
	BTFSC       STATUS+0, 2 
	GOTO        L_interrupt32
;FirmV_0_7_0.c,294 :: 		Motor1=1;
	BSF         PORTB+0, 3 
L_interrupt32:
;FirmV_0_7_0.c,296 :: 		if(Motor2Start)
	MOVF        _Motor2Start+0, 1 
	BTFSC       STATUS+0, 2 
	GOTO        L_interrupt33
;FirmV_0_7_0.c,297 :: 		Motor2=1;
	BSF         PORTB+0, 4 
L_interrupt33:
;FirmV_0_7_0.c,298 :: 		}
L_interrupt31:
;FirmV_0_7_0.c,299 :: 		INT0F_bit=0;
	BCF         INT0F_bit+0, 1 
;FirmV_0_7_0.c,300 :: 		}
L_interrupt22:
;FirmV_0_7_0.c,301 :: 		}
L__interrupt804:
	RETFIE      1
; end of _interrupt

_ResetTaskEvents:

;FirmV_0_7_0.c,314 :: 		void ResetTaskEvents()
;FirmV_0_7_0.c,316 :: 		Events.Task1=0;
	CLRF        _Events+1 
;FirmV_0_7_0.c,317 :: 		Events.Task2=0;
	CLRF        _Events+2 
;FirmV_0_7_0.c,318 :: 		Events.Task3=0;
	CLRF        _Events+3 
;FirmV_0_7_0.c,319 :: 		}
	RETURN      0
; end of _ResetTaskEvents

_Decrypt:

;FirmV_0_7_0.c,328 :: 		void Decrypt()
;FirmV_0_7_0.c,330 :: 		Sipher[0]=Crypto[1][0]+0x0D;
	MOVLW       13
	ADDWF       _crypto+16, 0 
	MOVWF       _Sipher+0 
;FirmV_0_7_0.c,331 :: 		Sipher[1]=Crypto[1][1]+0x0D;
	MOVLW       13
	ADDWF       _crypto+17, 0 
	MOVWF       _Sipher+1 
;FirmV_0_7_0.c,332 :: 		Sipher[2]=Crypto[1][2]+0x0D;
	MOVLW       13
	ADDWF       _crypto+18, 0 
	MOVWF       _Sipher+2 
;FirmV_0_7_0.c,333 :: 		Sipher[3]=Crypto[1][3]-0x26;
	MOVLW       38
	SUBWF       _crypto+19, 0 
	MOVWF       _Sipher+3 
;FirmV_0_7_0.c,334 :: 		Sipher[4]=Crypto[1][4]-0x3C;
	MOVLW       60
	SUBWF       _crypto+20, 0 
	MOVWF       _Sipher+4 
;FirmV_0_7_0.c,335 :: 		Sipher[5]=Crypto[1][5]-0x41;
	MOVLW       65
	SUBWF       _crypto+21, 0 
	MOVWF       _Sipher+5 
;FirmV_0_7_0.c,336 :: 		Sipher[6]=Crypto[1][6]-0x0C;
	MOVLW       12
	SUBWF       _crypto+22, 0 
	MOVWF       _Sipher+6 
;FirmV_0_7_0.c,337 :: 		Sipher[7]=Crypto[1][7]+0x34;
	MOVLW       52
	ADDWF       _crypto+23, 0 
	MOVWF       _Sipher+7 
;FirmV_0_7_0.c,338 :: 		Sipher[8]=Crypto[1][8]-0x01;
	DECF        _crypto+24, 0 
	MOVWF       _Sipher+8 
;FirmV_0_7_0.c,339 :: 		Sipher[9]=Crypto[1][9]-0x1F;
	MOVLW       31
	SUBWF       _crypto+25, 0 
	MOVWF       _Sipher+9 
;FirmV_0_7_0.c,340 :: 		Sipher[10]=Crypto[1][10]-0x3A;
	MOVLW       58
	SUBWF       _crypto+26, 0 
	MOVWF       _Sipher+10 
;FirmV_0_7_0.c,341 :: 		Sipher[11]=Crypto[1][11]-0x3B;
	MOVLW       59
	SUBWF       _crypto+27, 0 
	MOVWF       _Sipher+11 
;FirmV_0_7_0.c,342 :: 		Sipher[12]=Crypto[1][12]-0x3C;
	MOVLW       60
	SUBWF       _crypto+28, 0 
	MOVWF       _Sipher+12 
;FirmV_0_7_0.c,343 :: 		Sipher[13]=Crypto[1][13]+0x0D;
	MOVLW       13
	ADDWF       _crypto+29, 0 
	MOVWF       _Sipher+13 
;FirmV_0_7_0.c,344 :: 		Sipher[14]=Crypto[1][14]+0x0D;
	MOVLW       13
	ADDWF       _crypto+30, 0 
	MOVWF       _Sipher+14 
;FirmV_0_7_0.c,345 :: 		Sipher[15]=Crypto[1][15]+0x0D;
	MOVLW       13
	ADDWF       _crypto+31, 0 
	MOVWF       _Sipher+15 
;FirmV_0_7_0.c,346 :: 		}
	RETURN      0
; end of _Decrypt

_Logger:

;FirmV_0_7_0.c,358 :: 		void Logger(char* text)
;FirmV_0_7_0.c,361 :: 		longwordtostrwithzeros(ms500,time);
	MOVF        _ms500+0, 0 
	MOVWF       FARG_LongWordToStrWithZeros_input+0 
	MOVF        _ms500+1, 0 
	MOVWF       FARG_LongWordToStrWithZeros_input+1 
	MOVF        _ms500+2, 0 
	MOVWF       FARG_LongWordToStrWithZeros_input+2 
	MOVF        _ms500+3, 0 
	MOVWF       FARG_LongWordToStrWithZeros_input+3 
	MOVLW       Logger_time_L0+0
	MOVWF       FARG_LongWordToStrWithZeros_output+0 
	MOVLW       hi_addr(Logger_time_L0+0)
	MOVWF       FARG_LongWordToStrWithZeros_output+1 
	CALL        _LongWordToStrWithZeros+0, 0
;FirmV_0_7_0.c,362 :: 		uart_write_text(time);
	MOVLW       Logger_time_L0+0
	MOVWF       FARG_UART_Write_Text_uart_text+0 
	MOVLW       hi_addr(Logger_time_L0+0)
	MOVWF       FARG_UART_Write_Text_uart_text+1 
	CALL        _UART_Write_Text+0, 0
;FirmV_0_7_0.c,363 :: 		uart1_write_text(": ");
	MOVLW       58
	MOVWF       ?lstr1_FirmV_0_7_0+0 
	MOVLW       32
	MOVWF       ?lstr1_FirmV_0_7_0+1 
	CLRF        ?lstr1_FirmV_0_7_0+2 
	MOVLW       ?lstr1_FirmV_0_7_0+0
	MOVWF       FARG_UART1_Write_Text_uart_text+0 
	MOVLW       hi_addr(?lstr1_FirmV_0_7_0+0)
	MOVWF       FARG_UART1_Write_Text_uart_text+1 
	CALL        _UART1_Write_Text+0, 0
;FirmV_0_7_0.c,364 :: 		uart1_write_text(text);
	MOVF        FARG_Logger_text+0, 0 
	MOVWF       FARG_UART1_Write_Text_uart_text+0 
	MOVF        FARG_Logger_text+1, 0 
	MOVWF       FARG_UART1_Write_Text_uart_text+1 
	CALL        _UART1_Write_Text+0, 0
;FirmV_0_7_0.c,365 :: 		uart1_write(10);
	MOVLW       10
	MOVWF       FARG_UART1_Write_data_+0 
	CALL        _UART1_Write+0, 0
;FirmV_0_7_0.c,366 :: 		uart1_write(13);
	MOVLW       13
	MOVWF       FARG_UART1_Write_data_+0 
	CALL        _UART1_Write+0, 0
;FirmV_0_7_0.c,367 :: 		}
	RETURN      0
; end of _Logger

_main:

;FirmV_0_7_0.c,384 :: 		void main() {
;FirmV_0_7_0.c,387 :: 		PhotocellRel=1;
	BSF         PORTC+0, 5 
;FirmV_0_7_0.c,389 :: 		Init();
	CALL        _Init+0, 0
;FirmV_0_7_0.c,391 :: 		Decrypt();
	CALL        _Decrypt+0, 0
;FirmV_0_7_0.c,393 :: 		Buzzer=1;
	BSF         PORTB+0, 5 
;FirmV_0_7_0.c,394 :: 		Logger("Start ...");
	MOVLW       83
	MOVWF       ?lstr2_FirmV_0_7_0+0 
	MOVLW       116
	MOVWF       ?lstr2_FirmV_0_7_0+1 
	MOVLW       97
	MOVWF       ?lstr2_FirmV_0_7_0+2 
	MOVLW       114
	MOVWF       ?lstr2_FirmV_0_7_0+3 
	MOVLW       116
	MOVWF       ?lstr2_FirmV_0_7_0+4 
	MOVLW       32
	MOVWF       ?lstr2_FirmV_0_7_0+5 
	MOVLW       46
	MOVWF       ?lstr2_FirmV_0_7_0+6 
	MOVLW       46
	MOVWF       ?lstr2_FirmV_0_7_0+7 
	MOVLW       46
	MOVWF       ?lstr2_FirmV_0_7_0+8 
	CLRF        ?lstr2_FirmV_0_7_0+9 
	MOVLW       ?lstr2_FirmV_0_7_0+0
	MOVWF       FARG_Logger_text+0 
	MOVLW       hi_addr(?lstr2_FirmV_0_7_0+0)
	MOVWF       FARG_Logger_text+1 
	CALL        _Logger+0, 0
;FirmV_0_7_0.c,395 :: 		memcpy(LCDLine1,Sipher,16);
	MOVLW       _LCDLine1+0
	MOVWF       FARG_memcpy_d1+0 
	MOVLW       hi_addr(_LCDLine1+0)
	MOVWF       FARG_memcpy_d1+1 
	MOVLW       _Sipher+0
	MOVWF       FARG_memcpy_s1+0 
	MOVLW       hi_addr(_Sipher+0)
	MOVWF       FARG_memcpy_s1+1 
	MOVLW       16
	MOVWF       FARG_memcpy_n+0 
	MOVLW       0
	MOVWF       FARG_memcpy_n+1 
	CALL        _memcpy+0, 0
;FirmV_0_7_0.c,396 :: 		LCDLines=1;
	MOVLW       1
	MOVWF       _LCDLines+0 
;FirmV_0_7_0.c,397 :: 		LCDUpdateFlag=1;
	MOVLW       1
	MOVWF       _LCDUpdateFlag+0 
;FirmV_0_7_0.c,398 :: 		Buzzer=0;
	BCF         PORTB+0, 5 
;FirmV_0_7_0.c,400 :: 		while(1)
L_main34:
;FirmV_0_7_0.c,402 :: 		if(Flag20ms==1)
	MOVF        _Flag20ms+0, 0 
	XORLW       1
	BTFSS       STATUS+0, 2 
	GOTO        L_main36
;FirmV_0_7_0.c,404 :: 		if((Buzzer==1)&&(BuzzCounter<100))
	BTFSS       PORTB+0, 5 
	GOTO        L_main39
	MOVLW       100
	SUBWF       _BuzzCounter+0, 0 
	BTFSC       STATUS+0, 0 
	GOTO        L_main39
L__main702:
;FirmV_0_7_0.c,405 :: 		{BuzzCounter=BuzzCounter+1;}
	INCF        _BuzzCounter+0, 1 
L_main39:
;FirmV_0_7_0.c,407 :: 		if((Buzzer==1)&&(LongBuzzFlag))
	BTFSS       PORTB+0, 5 
	GOTO        L_main42
	MOVF        _LongBuzzFlag+0, 1 
	BTFSC       STATUS+0, 2 
	GOTO        L_main42
L__main701:
;FirmV_0_7_0.c,408 :: 		if(BuzzCounter>=25){BuzzFlag=0;LongBuzzFlag=0;Buzzer=0;}
	MOVLW       25
	SUBWF       _BuzzCounter+0, 0 
	BTFSS       STATUS+0, 0 
	GOTO        L_main43
	CLRF        _BuzzFlag+0 
	CLRF        _LongBuzzFlag+0 
	BCF         PORTB+0, 5 
L_main43:
L_main42:
;FirmV_0_7_0.c,410 :: 		if((Buzzer==1)&&(BuzzFlag)&&(!LongBuzzFlag))
	BTFSS       PORTB+0, 5 
	GOTO        L_main46
	MOVF        _BuzzFlag+0, 1 
	BTFSC       STATUS+0, 2 
	GOTO        L_main46
	MOVF        _LongBuzzFlag+0, 1 
	BTFSS       STATUS+0, 2 
	GOTO        L_main46
L__main700:
;FirmV_0_7_0.c,411 :: 		{BuzzFlag=0;LongBuzzFlag=0;Buzzer=0;}
	CLRF        _BuzzFlag+0 
	CLRF        _LongBuzzFlag+0 
	BCF         PORTB+0, 5 
L_main46:
;FirmV_0_7_0.c,413 :: 		if(((BuzzFlag)||(LongBuzzFlag))&&(!Buzzer))
	MOVF        _BuzzFlag+0, 1 
	BTFSS       STATUS+0, 2 
	GOTO        L__main699
	MOVF        _LongBuzzFlag+0, 1 
	BTFSS       STATUS+0, 2 
	GOTO        L__main699
	GOTO        L_main51
L__main699:
	BTFSC       PORTB+0, 5 
	GOTO        L_main51
L__main698:
;FirmV_0_7_0.c,414 :: 		{Buzzer=1;BuzzCounter=0;}
	BSF         PORTB+0, 5 
	CLRF        _BuzzCounter+0 
L_main51:
;FirmV_0_7_0.c,417 :: 		if(DebouncingDelay<DebouncingFix)
	MOVLW       5
	SUBWF       _DebouncingDelay+0, 0 
	BTFSC       STATUS+0, 0 
	GOTO        L_main52
;FirmV_0_7_0.c,418 :: 		DebouncingDelay=DebouncingDelay+1;
	INCF        _DebouncingDelay+0, 1 
L_main52:
;FirmV_0_7_0.c,419 :: 		LCDUpdater();
	CALL        _LCDUpdater+0, 0
;FirmV_0_7_0.c,420 :: 		if(KeyFlag<200)
	MOVLW       200
	SUBWF       _KeyFlag+0, 0 
	BTFSC       STATUS+0, 0 
	GOTO        L_main53
;FirmV_0_7_0.c,421 :: 		KeyFlag=KeyFlag+1;
	INCF        _KeyFlag+0, 1 
L_main53:
;FirmV_0_7_0.c,422 :: 		Flag20ms=0;
	CLRF        _Flag20ms+0 
;FirmV_0_7_0.c,423 :: 		}
L_main36:
;FirmV_0_7_0.c,425 :: 		if(Flag500ms==1)
	MOVF        _Flag500ms+0, 0 
	XORLW       1
	BTFSS       STATUS+0, 2 
	GOTO        L_main54
;FirmV_0_7_0.c,427 :: 		if(FlashFlag)
	MOVF        _FlashFlag+0, 1 
	BTFSC       STATUS+0, 2 
	GOTO        L_main55
;FirmV_0_7_0.c,428 :: 		Buzzer=!Buzzer;
	BTG         PORTB+0, 5 
	GOTO        L_main56
L_main55:
;FirmV_0_7_0.c,430 :: 		if((!BuzzFlag)&&(!LongBuzzFlag))Buzzer=0;
	MOVF        _BuzzFlag+0, 1 
	BTFSS       STATUS+0, 2 
	GOTO        L_main59
	MOVF        _LongBuzzFlag+0, 1 
	BTFSS       STATUS+0, 2 
	GOTO        L_main59
L__main697:
	BCF         PORTB+0, 5 
L_main59:
L_main56:
;FirmV_0_7_0.c,431 :: 		ResetTaskEvents();
	CALL        _ResetTaskEvents+0, 0
;FirmV_0_7_0.c,432 :: 		TaskManager();
	CALL        _TaskManager+0, 0
;FirmV_0_7_0.c,433 :: 		Flag500ms=0;
	CLRF        _Flag500ms+0 
;FirmV_0_7_0.c,434 :: 		}
L_main54:
;FirmV_0_7_0.c,435 :: 		EventHandler();
	CALL        _EventHandler+0, 0
;FirmV_0_7_0.c,436 :: 		StateManager();
	CALL        _StateManager+0, 0
;FirmV_0_7_0.c,437 :: 		}
	GOTO        L_main34
;FirmV_0_7_0.c,439 :: 		}
	GOTO        $+0
; end of _main

_StateManager:

;FirmV_0_7_0.c,464 :: 		void StateManager()
;FirmV_0_7_0.c,467 :: 		switch(State)
	GOTO        L_StateManager60
;FirmV_0_7_0.c,470 :: 		case 0: State1(); break;
L_StateManager62:
	CALL        _State1+0, 0
	GOTO        L_StateManager61
;FirmV_0_7_0.c,472 :: 		case 1: State1(); break;
L_StateManager63:
	CALL        _State1+0, 0
	GOTO        L_StateManager61
;FirmV_0_7_0.c,474 :: 		case 2: State2(); break;
L_StateManager64:
	CALL        _State2+0, 0
	GOTO        L_StateManager61
;FirmV_0_7_0.c,476 :: 		case 3: State3(); break;
L_StateManager65:
	CALL        _State3+0, 0
	GOTO        L_StateManager61
;FirmV_0_7_0.c,478 :: 		case 4: State4(); break;
L_StateManager66:
	CALL        _State4+0, 0
	GOTO        L_StateManager61
;FirmV_0_7_0.c,480 :: 		case 5: State5(); break;
L_StateManager67:
	CALL        _State5+0, 0
	GOTO        L_StateManager61
;FirmV_0_7_0.c,482 :: 		case 6: State6(); break;
L_StateManager68:
	CALL        _State6+0, 0
	GOTO        L_StateManager61
;FirmV_0_7_0.c,484 :: 		case 7: State7(); break;
L_StateManager69:
	CALL        _State7+0, 0
	GOTO        L_StateManager61
;FirmV_0_7_0.c,486 :: 		case 8: State8(); break;
L_StateManager70:
	CALL        _State8+0, 0
	GOTO        L_StateManager61
;FirmV_0_7_0.c,488 :: 		case 10:State00(); break;
L_StateManager71:
	CALL        _State00+0, 0
	GOTO        L_StateManager61
;FirmV_0_7_0.c,490 :: 		case 100:Menu0(); break;
L_StateManager72:
	CALL        _Menu0+0, 0
	GOTO        L_StateManager61
;FirmV_0_7_0.c,492 :: 		case 101:Menu1(); break;
L_StateManager73:
	CALL        _Menu1+0, 0
	GOTO        L_StateManager61
;FirmV_0_7_0.c,494 :: 		case 102:Menu2(); break;
L_StateManager74:
	CALL        _Menu2+0, 0
	GOTO        L_StateManager61
;FirmV_0_7_0.c,496 :: 		case 103:Menu3(); break;
L_StateManager75:
	CALL        _Menu3+0, 0
	GOTO        L_StateManager61
;FirmV_0_7_0.c,498 :: 		case 200:LearnAuto(); break;
L_StateManager76:
	CALL        _LearnAuto+0, 0
	GOTO        L_StateManager61
;FirmV_0_7_0.c,500 :: 		case 201:LearnManual(); break;
L_StateManager77:
	CALL        _LearnManual+0, 0
	GOTO        L_StateManager61
;FirmV_0_7_0.c,502 :: 		case 250:About(); break;
L_StateManager78:
	CALL        _About+0, 0
	GOTO        L_StateManager61
;FirmV_0_7_0.c,504 :: 		}
L_StateManager60:
	MOVF        _State+0, 0 
	XORLW       0
	BTFSC       STATUS+0, 2 
	GOTO        L_StateManager62
	MOVF        _State+0, 0 
	XORLW       1
	BTFSC       STATUS+0, 2 
	GOTO        L_StateManager63
	MOVF        _State+0, 0 
	XORLW       2
	BTFSC       STATUS+0, 2 
	GOTO        L_StateManager64
	MOVF        _State+0, 0 
	XORLW       3
	BTFSC       STATUS+0, 2 
	GOTO        L_StateManager65
	MOVF        _State+0, 0 
	XORLW       4
	BTFSC       STATUS+0, 2 
	GOTO        L_StateManager66
	MOVF        _State+0, 0 
	XORLW       5
	BTFSC       STATUS+0, 2 
	GOTO        L_StateManager67
	MOVF        _State+0, 0 
	XORLW       6
	BTFSC       STATUS+0, 2 
	GOTO        L_StateManager68
	MOVF        _State+0, 0 
	XORLW       7
	BTFSC       STATUS+0, 2 
	GOTO        L_StateManager69
	MOVF        _State+0, 0 
	XORLW       8
	BTFSC       STATUS+0, 2 
	GOTO        L_StateManager70
	MOVF        _State+0, 0 
	XORLW       10
	BTFSC       STATUS+0, 2 
	GOTO        L_StateManager71
	MOVF        _State+0, 0 
	XORLW       100
	BTFSC       STATUS+0, 2 
	GOTO        L_StateManager72
	MOVF        _State+0, 0 
	XORLW       101
	BTFSC       STATUS+0, 2 
	GOTO        L_StateManager73
	MOVF        _State+0, 0 
	XORLW       102
	BTFSC       STATUS+0, 2 
	GOTO        L_StateManager74
	MOVF        _State+0, 0 
	XORLW       103
	BTFSC       STATUS+0, 2 
	GOTO        L_StateManager75
	MOVF        _State+0, 0 
	XORLW       200
	BTFSC       STATUS+0, 2 
	GOTO        L_StateManager76
	MOVF        _State+0, 0 
	XORLW       201
	BTFSC       STATUS+0, 2 
	GOTO        L_StateManager77
	MOVF        _State+0, 0 
	XORLW       250
	BTFSC       STATUS+0, 2 
	GOTO        L_StateManager78
L_StateManager61:
;FirmV_0_7_0.c,505 :: 		}
	RETURN      0
; end of _StateManager

_StateTest:

;FirmV_0_7_0.c,509 :: 		void StateTest()
;FirmV_0_7_0.c,511 :: 		if (Events.Photocell==1)
	MOVF        _Events+6, 0 
	XORLW       1
	BTFSS       STATUS+0, 2 
	GOTO        L_StateTest79
;FirmV_0_7_0.c,512 :: 		LCDLine1[0]='1';
	MOVLW       49
	MOVWF       _LCDLine1+0 
	GOTO        L_StateTest80
L_StateTest79:
;FirmV_0_7_0.c,514 :: 		LCDLine1[0]='0';
	MOVLW       48
	MOVWF       _LCDLine1+0 
L_StateTest80:
;FirmV_0_7_0.c,516 :: 		LCDUpdateFlag=1;
	MOVLW       1
	MOVWF       _LCDUpdateFlag+0 
;FirmV_0_7_0.c,518 :: 		}
	RETURN      0
; end of _StateTest

_State00:

;FirmV_0_7_0.c,522 :: 		void State00()
;FirmV_0_7_0.c,527 :: 		Flasher=1;
	BSF         PORTD+0, 7 
;FirmV_0_7_0.c,528 :: 		FlashFlag=1;
	MOVLW       1
	MOVWF       _FlashFlag+0 
;FirmV_0_7_0.c,529 :: 		StartMotor(1,_Close);
	MOVLW       1
	MOVWF       FARG_StartMotor+0 
	CLRF        FARG_StartMotor+0 
	CALL        _StartMotor+0, 0
;FirmV_0_7_0.c,530 :: 		StartMotor(2,_Close);
	MOVLW       2
	MOVWF       FARG_StartMotor+0 
	CLRF        FARG_StartMotor+0 
	CALL        _StartMotor+0, 0
;FirmV_0_7_0.c,532 :: 		if(Events.Remote.b0==1)
	BTFSS       _Events+4, 0 
	GOTO        L_State0081
;FirmV_0_7_0.c,533 :: 		{Flasher=0;FlashFlag=0;StopMotor(1);StopMotor(2);
	BCF         PORTD+0, 7 
	CLRF        _FlashFlag+0 
	MOVLW       1
	MOVWF       FARG_StopMotor+0 
	CALL        _StopMotor+0, 0
	MOVLW       2
	MOVWF       FARG_StopMotor+0 
	CALL        _StopMotor+0, 0
;FirmV_0_7_0.c,534 :: 		State=1;                }
	MOVLW       1
	MOVWF       _State+0 
L_State0081:
;FirmV_0_7_0.c,535 :: 		}
	RETURN      0
; end of _State00

_State1:

;FirmV_0_7_0.c,544 :: 		void State1()
;FirmV_0_7_0.c,546 :: 		char delay=3;
	MOVLW       3
	MOVWF       State1_delay_L0+0 
;FirmV_0_7_0.c,547 :: 		unsigned long AutoCloseTemp=0;
	CLRF        State1_AutoCloseTemp_L0+0 
	CLRF        State1_AutoCloseTemp_L0+1 
	CLRF        State1_AutoCloseTemp_L0+2 
	CLRF        State1_AutoCloseTemp_L0+3 
;FirmV_0_7_0.c,548 :: 		Flasher=0;
	BCF         PORTD+0, 7 
;FirmV_0_7_0.c,549 :: 		FlashFlag=0;
	CLRF        _FlashFlag+0 
;FirmV_0_7_0.c,551 :: 		if(Events.Keys==2)
	MOVF        _Events+0, 0 
	XORLW       2
	BTFSS       STATUS+0, 2 
	GOTO        L_State182
;FirmV_0_7_0.c,552 :: 		{State=100;MenuPointer=0;}
	MOVLW       100
	MOVWF       _State+0 
	CLRF        _MenuPointer+0 
L_State182:
;FirmV_0_7_0.c,554 :: 		ActiveDoors=3-Events.Remote;
	MOVF        _Events+4, 0 
	SUBLW       3
	MOVWF       _ActiveDoors+0 
;FirmV_0_7_0.c,558 :: 		if(Events.Remote!=0)
	MOVF        _Events+4, 0 
	XORLW       0
	BTFSC       STATUS+0, 2 
	GOTO        L_State183
;FirmV_0_7_0.c,561 :: 		ClearTasks(9);
	MOVLW       9
	MOVWF       FARG_ClearTasks+0 
	CALL        _ClearTasks+0, 0
;FirmV_0_7_0.c,562 :: 		Flasher=1;
	BSF         PORTD+0, 7 
;FirmV_0_7_0.c,563 :: 		FlashFlag=1;
	MOVLW       1
	MOVWF       _FlashFlag+0 
;FirmV_0_7_0.c,564 :: 		AddTask(ms500+1,12);
	MOVLW       1
	ADDWF       _ms500+0, 0 
	MOVWF       FARG_AddTask+0 
	MOVLW       0
	ADDWFC      _ms500+1, 0 
	MOVWF       FARG_AddTask+1 
	MOVLW       0
	ADDWFC      _ms500+2, 0 
	MOVWF       FARG_AddTask+2 
	MOVLW       0
	ADDWFC      _ms500+3, 0 
	MOVWF       FARG_AddTask+3 
	MOVLW       12
	MOVWF       FARG_AddTask+0 
	CALL        _AddTask+0, 0
;FirmV_0_7_0.c,565 :: 		temp=ms500+delay;
	MOVF        State1_delay_L0+0, 0 
	ADDWF       _ms500+0, 0 
	MOVWF       R0 
	MOVLW       0
	ADDWFC      _ms500+1, 0 
	MOVWF       R1 
	MOVLW       0
	ADDWFC      _ms500+2, 0 
	MOVWF       R2 
	MOVLW       0
	ADDWFC      _ms500+3, 0 
	MOVWF       R3 
	MOVF        R0, 0 
	MOVWF       _temp+0 
	MOVF        R1, 0 
	MOVWF       _temp+1 
	MOVF        R2, 0 
	MOVWF       _temp+2 
	MOVF        R3, 0 
	MOVWF       _temp+3 
;FirmV_0_7_0.c,566 :: 		AddTask(temp,1);
	MOVF        R0, 0 
	MOVWF       FARG_AddTask+0 
	MOVF        R1, 0 
	MOVWF       FARG_AddTask+1 
	MOVF        R2, 0 
	MOVWF       FARG_AddTask+2 
	MOVF        R3, 0 
	MOVWF       FARG_AddTask+3 
	MOVLW       1
	MOVWF       FARG_AddTask+0 
	CALL        _AddTask+0, 0
;FirmV_0_7_0.c,567 :: 		if(OpenSoftStartTime!=0)
	MOVF        _OpenSoftStartTime+0, 0 
	XORLW       0
	BTFSC       STATUS+0, 2 
	GOTO        L_State184
;FirmV_0_7_0.c,568 :: 		{AddTask(temp,7); M1isSlow=1;}//speed down
	MOVF        _temp+0, 0 
	MOVWF       FARG_AddTask+0 
	MOVF        _temp+1, 0 
	MOVWF       FARG_AddTask+1 
	MOVF        _temp+2, 0 
	MOVWF       FARG_AddTask+2 
	MOVF        _temp+3, 0 
	MOVWF       FARG_AddTask+3 
	MOVLW       7
	MOVWF       FARG_AddTask+0 
	CALL        _AddTask+0, 0
	MOVLW       1
	MOVWF       _M1isSlow+0 
	GOTO        L_State185
L_State184:
;FirmV_0_7_0.c,570 :: 		{AddTask(temp,5); M1isSlow=0;}//speed up
	MOVF        _temp+0, 0 
	MOVWF       FARG_AddTask+0 
	MOVF        _temp+1, 0 
	MOVWF       FARG_AddTask+1 
	MOVF        _temp+2, 0 
	MOVWF       FARG_AddTask+2 
	MOVF        _temp+3, 0 
	MOVWF       FARG_AddTask+3 
	MOVLW       5
	MOVWF       FARG_AddTask+0 
	CALL        _AddTask+0, 0
	CLRF        _M1isSlow+0 
L_State185:
;FirmV_0_7_0.c,571 :: 		temp=ms500+OpenSoftStartTime+OverloadDelay+delay;
	MOVF        _OpenSoftStartTime+0, 0 
	ADDWF       _ms500+0, 0 
	MOVWF       R0 
	MOVLW       0
	ADDWFC      _ms500+1, 0 
	MOVWF       R1 
	MOVLW       0
	ADDWFC      _ms500+2, 0 
	MOVWF       R2 
	MOVLW       0
	ADDWFC      _ms500+3, 0 
	MOVWF       R3 
	MOVLW       6
	ADDWF       R0, 1 
	MOVLW       0
	ADDWFC      R1, 1 
	ADDWFC      R2, 1 
	ADDWFC      R3, 1 
	MOVF        State1_delay_L0+0, 0 
	ADDWF       R0, 1 
	MOVLW       0
	ADDWFC      R1, 1 
	ADDWFC      R2, 1 
	ADDWFC      R3, 1 
	MOVF        R0, 0 
	MOVWF       _temp+0 
	MOVF        R1, 0 
	MOVWF       _temp+1 
	MOVF        R2, 0 
	MOVWF       _temp+2 
	MOVF        R3, 0 
	MOVWF       _temp+3 
;FirmV_0_7_0.c,572 :: 		AddTask(temp,10); //overload check
	MOVF        R0, 0 
	MOVWF       FARG_AddTask+0 
	MOVF        R1, 0 
	MOVWF       FARG_AddTask+1 
	MOVF        R2, 0 
	MOVWF       FARG_AddTask+2 
	MOVF        R3, 0 
	MOVWF       FARG_AddTask+3 
	MOVLW       10
	MOVWF       FARG_AddTask+0 
	CALL        _AddTask+0, 0
;FirmV_0_7_0.c,573 :: 		temp=ms500+OpenSoftStartTime+delay;
	MOVF        _OpenSoftStartTime+0, 0 
	ADDWF       _ms500+0, 0 
	MOVWF       R0 
	MOVLW       0
	ADDWFC      _ms500+1, 0 
	MOVWF       R1 
	MOVLW       0
	ADDWFC      _ms500+2, 0 
	MOVWF       R2 
	MOVLW       0
	ADDWFC      _ms500+3, 0 
	MOVWF       R3 
	MOVF        State1_delay_L0+0, 0 
	ADDWF       R0, 1 
	MOVLW       0
	ADDWFC      R1, 1 
	ADDWFC      R2, 1 
	ADDWFC      R3, 1 
	MOVF        R0, 0 
	MOVWF       _temp+0 
	MOVF        R1, 0 
	MOVWF       _temp+1 
	MOVF        R2, 0 
	MOVWF       _temp+2 
	MOVF        R3, 0 
	MOVWF       _temp+3 
;FirmV_0_7_0.c,574 :: 		AddTask(temp,5);//Speed up after soft start
	MOVF        R0, 0 
	MOVWF       FARG_AddTask+0 
	MOVF        R1, 0 
	MOVWF       FARG_AddTask+1 
	MOVF        R2, 0 
	MOVWF       FARG_AddTask+2 
	MOVF        R3, 0 
	MOVWF       FARG_AddTask+3 
	MOVLW       5
	MOVWF       FARG_AddTask+0 
	CALL        _AddTask+0, 0
;FirmV_0_7_0.c,575 :: 		if(OpenSoftStopTime!=0)
	MOVF        _OpenSoftStopTime+0, 0 
	XORLW       0
	BTFSC       STATUS+0, 2 
	GOTO        L_State186
;FirmV_0_7_0.c,576 :: 		{temp=ms500+Door1OpenTime-OpenSoftStopTime+delay;AddTask(temp,7);}//Speed down for soft stop
	MOVF        _Door1OpenTime+0, 0 
	ADDWF       _ms500+0, 0 
	MOVWF       R0 
	MOVLW       0
	ADDWFC      _ms500+1, 0 
	MOVWF       R1 
	MOVLW       0
	ADDWFC      _ms500+2, 0 
	MOVWF       R2 
	MOVLW       0
	ADDWFC      _ms500+3, 0 
	MOVWF       R3 
	MOVF        _OpenSoftStopTime+0, 0 
	SUBWF       R0, 1 
	MOVLW       0
	SUBWFB      R1, 1 
	SUBWFB      R2, 1 
	SUBWFB      R3, 1 
	MOVF        State1_delay_L0+0, 0 
	ADDWF       R0, 1 
	MOVLW       0
	ADDWFC      R1, 1 
	ADDWFC      R2, 1 
	ADDWFC      R3, 1 
	MOVF        R0, 0 
	MOVWF       _temp+0 
	MOVF        R1, 0 
	MOVWF       _temp+1 
	MOVF        R2, 0 
	MOVWF       _temp+2 
	MOVF        R3, 0 
	MOVWF       _temp+3 
	MOVF        R0, 0 
	MOVWF       FARG_AddTask+0 
	MOVF        R1, 0 
	MOVWF       FARG_AddTask+1 
	MOVF        R2, 0 
	MOVWF       FARG_AddTask+2 
	MOVF        R3, 0 
	MOVWF       FARG_AddTask+3 
	MOVLW       7
	MOVWF       FARG_AddTask+0 
	CALL        _AddTask+0, 0
L_State186:
;FirmV_0_7_0.c,577 :: 		temp=ms500+Door1OpenTime+delay;
	MOVF        _Door1OpenTime+0, 0 
	ADDWF       _ms500+0, 0 
	MOVWF       R0 
	MOVLW       0
	ADDWFC      _ms500+1, 0 
	MOVWF       R1 
	MOVLW       0
	ADDWFC      _ms500+2, 0 
	MOVWF       R2 
	MOVLW       0
	ADDWFC      _ms500+3, 0 
	MOVWF       R3 
	MOVF        State1_delay_L0+0, 0 
	ADDWF       R0, 1 
	MOVLW       0
	ADDWFC      R1, 1 
	ADDWFC      R2, 1 
	ADDWFC      R3, 1 
	MOVF        R0, 0 
	MOVWF       _temp+0 
	MOVF        R1, 0 
	MOVWF       _temp+1 
	MOVF        R2, 0 
	MOVWF       _temp+2 
	MOVF        R3, 0 
	MOVWF       _temp+3 
;FirmV_0_7_0.c,578 :: 		AddTask(temp,3);//Stop motor
	MOVF        R0, 0 
	MOVWF       FARG_AddTask+0 
	MOVF        R1, 0 
	MOVWF       FARG_AddTask+1 
	MOVF        R2, 0 
	MOVWF       FARG_AddTask+2 
	MOVF        R3, 0 
	MOVWF       FARG_AddTask+3 
	MOVLW       3
	MOVWF       FARG_AddTask+0 
	CALL        _AddTask+0, 0
;FirmV_0_7_0.c,579 :: 		AutoCloseTemp=ms500+Door1OpenTime+delay;
	MOVF        _Door1OpenTime+0, 0 
	ADDWF       _ms500+0, 0 
	MOVWF       State1_AutoCloseTemp_L0+0 
	MOVLW       0
	ADDWFC      _ms500+1, 0 
	MOVWF       State1_AutoCloseTemp_L0+1 
	MOVLW       0
	ADDWFC      _ms500+2, 0 
	MOVWF       State1_AutoCloseTemp_L0+2 
	MOVLW       0
	ADDWFC      _ms500+3, 0 
	MOVWF       State1_AutoCloseTemp_L0+3 
	MOVF        State1_delay_L0+0, 0 
	ADDWF       State1_AutoCloseTemp_L0+0, 1 
	MOVLW       0
	ADDWFC      State1_AutoCloseTemp_L0+1, 1 
	ADDWFC      State1_AutoCloseTemp_L0+2, 1 
	ADDWFC      State1_AutoCloseTemp_L0+3, 1 
;FirmV_0_7_0.c,581 :: 		if((Door2OpenTime!=0)&&(ActiveDoors==2))
	MOVF        _Door2OpenTime+0, 0 
	XORLW       0
	BTFSC       STATUS+0, 2 
	GOTO        L_State189
	MOVF        _ActiveDoors+0, 0 
	XORLW       2
	BTFSS       STATUS+0, 2 
	GOTO        L_State189
L__State1703:
;FirmV_0_7_0.c,583 :: 		temp=ms500+ActionTimeDiff+delay;
	MOVF        _ActionTimeDiff+0, 0 
	ADDWF       _ms500+0, 0 
	MOVWF       R0 
	MOVLW       0
	ADDWFC      _ms500+1, 0 
	MOVWF       R1 
	MOVLW       0
	ADDWFC      _ms500+2, 0 
	MOVWF       R2 
	MOVLW       0
	ADDWFC      _ms500+3, 0 
	MOVWF       R3 
	MOVF        State1_delay_L0+0, 0 
	ADDWF       R0, 1 
	MOVLW       0
	ADDWFC      R1, 1 
	ADDWFC      R2, 1 
	ADDWFC      R3, 1 
	MOVF        R0, 0 
	MOVWF       _temp+0 
	MOVF        R1, 0 
	MOVWF       _temp+1 
	MOVF        R2, 0 
	MOVWF       _temp+2 
	MOVF        R3, 0 
	MOVWF       _temp+3 
;FirmV_0_7_0.c,584 :: 		AddTask(temp,2);
	MOVF        R0, 0 
	MOVWF       FARG_AddTask+0 
	MOVF        R1, 0 
	MOVWF       FARG_AddTask+1 
	MOVF        R2, 0 
	MOVWF       FARG_AddTask+2 
	MOVF        R3, 0 
	MOVWF       FARG_AddTask+3 
	MOVLW       2
	MOVWF       FARG_AddTask+0 
	CALL        _AddTask+0, 0
;FirmV_0_7_0.c,585 :: 		if(OpenSoftStartTime!=0)
	MOVF        _OpenSoftStartTime+0, 0 
	XORLW       0
	BTFSC       STATUS+0, 2 
	GOTO        L_State190
;FirmV_0_7_0.c,586 :: 		{temp=ms500+ActionTimeDiff+delay;AddTask(temp,8); M2isSlow=1;}//speed down
	MOVF        _ActionTimeDiff+0, 0 
	ADDWF       _ms500+0, 0 
	MOVWF       R0 
	MOVLW       0
	ADDWFC      _ms500+1, 0 
	MOVWF       R1 
	MOVLW       0
	ADDWFC      _ms500+2, 0 
	MOVWF       R2 
	MOVLW       0
	ADDWFC      _ms500+3, 0 
	MOVWF       R3 
	MOVF        State1_delay_L0+0, 0 
	ADDWF       R0, 1 
	MOVLW       0
	ADDWFC      R1, 1 
	ADDWFC      R2, 1 
	ADDWFC      R3, 1 
	MOVF        R0, 0 
	MOVWF       _temp+0 
	MOVF        R1, 0 
	MOVWF       _temp+1 
	MOVF        R2, 0 
	MOVWF       _temp+2 
	MOVF        R3, 0 
	MOVWF       _temp+3 
	MOVF        R0, 0 
	MOVWF       FARG_AddTask+0 
	MOVF        R1, 0 
	MOVWF       FARG_AddTask+1 
	MOVF        R2, 0 
	MOVWF       FARG_AddTask+2 
	MOVF        R3, 0 
	MOVWF       FARG_AddTask+3 
	MOVLW       8
	MOVWF       FARG_AddTask+0 
	CALL        _AddTask+0, 0
	MOVLW       1
	MOVWF       _M2isSlow+0 
	GOTO        L_State191
L_State190:
;FirmV_0_7_0.c,588 :: 		{temp=ms500+ActionTimeDiff+delay;AddTask(temp,6); M2isSlow=0;}//speed up
	MOVF        _ActionTimeDiff+0, 0 
	ADDWF       _ms500+0, 0 
	MOVWF       R0 
	MOVLW       0
	ADDWFC      _ms500+1, 0 
	MOVWF       R1 
	MOVLW       0
	ADDWFC      _ms500+2, 0 
	MOVWF       R2 
	MOVLW       0
	ADDWFC      _ms500+3, 0 
	MOVWF       R3 
	MOVF        State1_delay_L0+0, 0 
	ADDWF       R0, 1 
	MOVLW       0
	ADDWFC      R1, 1 
	ADDWFC      R2, 1 
	ADDWFC      R3, 1 
	MOVF        R0, 0 
	MOVWF       _temp+0 
	MOVF        R1, 0 
	MOVWF       _temp+1 
	MOVF        R2, 0 
	MOVWF       _temp+2 
	MOVF        R3, 0 
	MOVWF       _temp+3 
	MOVF        R0, 0 
	MOVWF       FARG_AddTask+0 
	MOVF        R1, 0 
	MOVWF       FARG_AddTask+1 
	MOVF        R2, 0 
	MOVWF       FARG_AddTask+2 
	MOVF        R3, 0 
	MOVWF       FARG_AddTask+3 
	MOVLW       6
	MOVWF       FARG_AddTask+0 
	CALL        _AddTask+0, 0
	CLRF        _M2isSlow+0 
L_State191:
;FirmV_0_7_0.c,589 :: 		temp=ms500+ActionTimeDiff+OpenSoftStartTime+OverloadDelay+delay;
	MOVF        _ActionTimeDiff+0, 0 
	ADDWF       _ms500+0, 0 
	MOVWF       R0 
	MOVLW       0
	ADDWFC      _ms500+1, 0 
	MOVWF       R1 
	MOVLW       0
	ADDWFC      _ms500+2, 0 
	MOVWF       R2 
	MOVLW       0
	ADDWFC      _ms500+3, 0 
	MOVWF       R3 
	MOVF        _OpenSoftStartTime+0, 0 
	ADDWF       R0, 1 
	MOVLW       0
	ADDWFC      R1, 1 
	ADDWFC      R2, 1 
	ADDWFC      R3, 1 
	MOVLW       6
	ADDWF       R0, 1 
	MOVLW       0
	ADDWFC      R1, 1 
	ADDWFC      R2, 1 
	ADDWFC      R3, 1 
	MOVF        State1_delay_L0+0, 0 
	ADDWF       R0, 1 
	MOVLW       0
	ADDWFC      R1, 1 
	ADDWFC      R2, 1 
	ADDWFC      R3, 1 
	MOVF        R0, 0 
	MOVWF       _temp+0 
	MOVF        R1, 0 
	MOVWF       _temp+1 
	MOVF        R2, 0 
	MOVWF       _temp+2 
	MOVF        R3, 0 
	MOVWF       _temp+3 
;FirmV_0_7_0.c,590 :: 		AddTask(temp,11); //overload check
	MOVF        R0, 0 
	MOVWF       FARG_AddTask+0 
	MOVF        R1, 0 
	MOVWF       FARG_AddTask+1 
	MOVF        R2, 0 
	MOVWF       FARG_AddTask+2 
	MOVF        R3, 0 
	MOVWF       FARG_AddTask+3 
	MOVLW       11
	MOVWF       FARG_AddTask+0 
	CALL        _AddTask+0, 0
;FirmV_0_7_0.c,591 :: 		temp=ms500+ActionTimeDiff+OpenSoftStartTime+delay;
	MOVF        _ActionTimeDiff+0, 0 
	ADDWF       _ms500+0, 0 
	MOVWF       R0 
	MOVLW       0
	ADDWFC      _ms500+1, 0 
	MOVWF       R1 
	MOVLW       0
	ADDWFC      _ms500+2, 0 
	MOVWF       R2 
	MOVLW       0
	ADDWFC      _ms500+3, 0 
	MOVWF       R3 
	MOVF        _OpenSoftStartTime+0, 0 
	ADDWF       R0, 1 
	MOVLW       0
	ADDWFC      R1, 1 
	ADDWFC      R2, 1 
	ADDWFC      R3, 1 
	MOVF        State1_delay_L0+0, 0 
	ADDWF       R0, 1 
	MOVLW       0
	ADDWFC      R1, 1 
	ADDWFC      R2, 1 
	ADDWFC      R3, 1 
	MOVF        R0, 0 
	MOVWF       _temp+0 
	MOVF        R1, 0 
	MOVWF       _temp+1 
	MOVF        R2, 0 
	MOVWF       _temp+2 
	MOVF        R3, 0 
	MOVWF       _temp+3 
;FirmV_0_7_0.c,592 :: 		AddTask(temp,6);//Speed up after soft start
	MOVF        R0, 0 
	MOVWF       FARG_AddTask+0 
	MOVF        R1, 0 
	MOVWF       FARG_AddTask+1 
	MOVF        R2, 0 
	MOVWF       FARG_AddTask+2 
	MOVF        R3, 0 
	MOVWF       FARG_AddTask+3 
	MOVLW       6
	MOVWF       FARG_AddTask+0 
	CALL        _AddTask+0, 0
;FirmV_0_7_0.c,593 :: 		if(OpenSoftStopTime!=0)
	MOVF        _OpenSoftStopTime+0, 0 
	XORLW       0
	BTFSC       STATUS+0, 2 
	GOTO        L_State192
;FirmV_0_7_0.c,594 :: 		{temp=ms500+ActionTimeDiff+Door2OpenTime-OpenSoftStopTime+delay;AddTask(temp,8);}//Speed down for soft stop
	MOVF        _ActionTimeDiff+0, 0 
	ADDWF       _ms500+0, 0 
	MOVWF       R0 
	MOVLW       0
	ADDWFC      _ms500+1, 0 
	MOVWF       R1 
	MOVLW       0
	ADDWFC      _ms500+2, 0 
	MOVWF       R2 
	MOVLW       0
	ADDWFC      _ms500+3, 0 
	MOVWF       R3 
	MOVF        _Door2OpenTime+0, 0 
	ADDWF       R0, 1 
	MOVLW       0
	ADDWFC      R1, 1 
	ADDWFC      R2, 1 
	ADDWFC      R3, 1 
	MOVF        _OpenSoftStopTime+0, 0 
	SUBWF       R0, 1 
	MOVLW       0
	SUBWFB      R1, 1 
	SUBWFB      R2, 1 
	SUBWFB      R3, 1 
	MOVF        State1_delay_L0+0, 0 
	ADDWF       R0, 1 
	MOVLW       0
	ADDWFC      R1, 1 
	ADDWFC      R2, 1 
	ADDWFC      R3, 1 
	MOVF        R0, 0 
	MOVWF       _temp+0 
	MOVF        R1, 0 
	MOVWF       _temp+1 
	MOVF        R2, 0 
	MOVWF       _temp+2 
	MOVF        R3, 0 
	MOVWF       _temp+3 
	MOVF        R0, 0 
	MOVWF       FARG_AddTask+0 
	MOVF        R1, 0 
	MOVWF       FARG_AddTask+1 
	MOVF        R2, 0 
	MOVWF       FARG_AddTask+2 
	MOVF        R3, 0 
	MOVWF       FARG_AddTask+3 
	MOVLW       8
	MOVWF       FARG_AddTask+0 
	CALL        _AddTask+0, 0
L_State192:
;FirmV_0_7_0.c,595 :: 		temp=ms500+Door2OpenTime+ActionTimeDiff+delay;
	MOVF        _Door2OpenTime+0, 0 
	ADDWF       _ms500+0, 0 
	MOVWF       R0 
	MOVLW       0
	ADDWFC      _ms500+1, 0 
	MOVWF       R1 
	MOVLW       0
	ADDWFC      _ms500+2, 0 
	MOVWF       R2 
	MOVLW       0
	ADDWFC      _ms500+3, 0 
	MOVWF       R3 
	MOVF        _ActionTimeDiff+0, 0 
	ADDWF       R0, 1 
	MOVLW       0
	ADDWFC      R1, 1 
	ADDWFC      R2, 1 
	ADDWFC      R3, 1 
	MOVF        State1_delay_L0+0, 0 
	ADDWF       R0, 1 
	MOVLW       0
	ADDWFC      R1, 1 
	ADDWFC      R2, 1 
	ADDWFC      R3, 1 
	MOVF        R0, 0 
	MOVWF       _temp+0 
	MOVF        R1, 0 
	MOVWF       _temp+1 
	MOVF        R2, 0 
	MOVWF       _temp+2 
	MOVF        R3, 0 
	MOVWF       _temp+3 
;FirmV_0_7_0.c,596 :: 		AddTask(temp,4);//Stop motor
	MOVF        R0, 0 
	MOVWF       FARG_AddTask+0 
	MOVF        R1, 0 
	MOVWF       FARG_AddTask+1 
	MOVF        R2, 0 
	MOVWF       FARG_AddTask+2 
	MOVF        R3, 0 
	MOVWF       FARG_AddTask+3 
	MOVLW       4
	MOVWF       FARG_AddTask+0 
	CALL        _AddTask+0, 0
;FirmV_0_7_0.c,597 :: 		AutoCloseTemp=ms500+Door2OpenTime+ActionTimeDiff+delay;
	MOVF        _Door2OpenTime+0, 0 
	ADDWF       _ms500+0, 0 
	MOVWF       State1_AutoCloseTemp_L0+0 
	MOVLW       0
	ADDWFC      _ms500+1, 0 
	MOVWF       State1_AutoCloseTemp_L0+1 
	MOVLW       0
	ADDWFC      _ms500+2, 0 
	MOVWF       State1_AutoCloseTemp_L0+2 
	MOVLW       0
	ADDWFC      _ms500+3, 0 
	MOVWF       State1_AutoCloseTemp_L0+3 
	MOVF        _ActionTimeDiff+0, 0 
	ADDWF       State1_AutoCloseTemp_L0+0, 1 
	MOVLW       0
	ADDWFC      State1_AutoCloseTemp_L0+1, 1 
	ADDWFC      State1_AutoCloseTemp_L0+2, 1 
	ADDWFC      State1_AutoCloseTemp_L0+3, 1 
	MOVF        State1_delay_L0+0, 0 
	ADDWF       State1_AutoCloseTemp_L0+0, 1 
	MOVLW       0
	ADDWFC      State1_AutoCloseTemp_L0+1, 1 
	ADDWFC      State1_AutoCloseTemp_L0+2, 1 
	ADDWFC      State1_AutoCloseTemp_L0+3, 1 
;FirmV_0_7_0.c,598 :: 		}
L_State189:
;FirmV_0_7_0.c,600 :: 		if(AutoCloseTime!=0)
	MOVLW       0
	XORWF       _AutoCloseTime+1, 0 
	BTFSS       STATUS+0, 2 
	GOTO        L__State1805
	MOVLW       0
	XORWF       _AutoCloseTime+0, 0 
L__State1805:
	BTFSC       STATUS+0, 2 
	GOTO        L_State193
;FirmV_0_7_0.c,601 :: 		{temp=AutoCloseTemp+AutoCloseTime;AddTask(temp,9);}
	MOVF        _AutoCloseTime+0, 0 
	ADDWF       State1_AutoCloseTemp_L0+0, 0 
	MOVWF       R0 
	MOVF        _AutoCloseTime+1, 0 
	ADDWFC      State1_AutoCloseTemp_L0+1, 0 
	MOVWF       R1 
	MOVLW       0
	ADDWFC      State1_AutoCloseTemp_L0+2, 0 
	MOVWF       R2 
	MOVLW       0
	ADDWFC      State1_AutoCloseTemp_L0+3, 0 
	MOVWF       R3 
	MOVF        R0, 0 
	MOVWF       _temp+0 
	MOVF        R1, 0 
	MOVWF       _temp+1 
	MOVF        R2, 0 
	MOVWF       _temp+2 
	MOVF        R3, 0 
	MOVWF       _temp+3 
	MOVF        R0, 0 
	MOVWF       FARG_AddTask+0 
	MOVF        R1, 0 
	MOVWF       FARG_AddTask+1 
	MOVF        R2, 0 
	MOVWF       FARG_AddTask+2 
	MOVF        R3, 0 
	MOVWF       FARG_AddTask+3 
	MOVLW       9
	MOVWF       FARG_AddTask+0 
	CALL        _AddTask+0, 0
L_State193:
;FirmV_0_7_0.c,603 :: 		OpenDone=3;
	MOVLW       3
	MOVWF       _OpenDone+0 
;FirmV_0_7_0.c,604 :: 		OverloadCheckFlag1=0;
	CLRF        _OverloadCheckFlag1+0 
;FirmV_0_7_0.c,605 :: 		OverloadCheckFlag2=0;
	CLRF        _OverloadCheckFlag2+0 
;FirmV_0_7_0.c,606 :: 		State=3;
	MOVLW       3
	MOVWF       _State+0 
;FirmV_0_7_0.c,607 :: 		PassFlag=0;
	CLRF        _PassFlag+0 
;FirmV_0_7_0.c,608 :: 		}
L_State183:
;FirmV_0_7_0.c,609 :: 		}
	RETURN      0
; end of _State1

_State2:

;FirmV_0_7_0.c,623 :: 		void State2()
;FirmV_0_7_0.c,625 :: 		char delay=2,PrevAC=0;
	MOVLW       2
	MOVWF       State2_delay_L0+0 
	CLRF        State2_PrevAC_L0+0 
;FirmV_0_7_0.c,627 :: 		Flasher=0;
	BCF         PORTD+0, 7 
;FirmV_0_7_0.c,628 :: 		FlashFlag=0;
	CLRF        _FlashFlag+0 
;FirmV_0_7_0.c,631 :: 		if(ReturnAutoclose()!=PrevAC)
	CALL        _ReturnAutoclose+0, 0
	MOVF        R0, 0 
	XORWF       State2_PrevAC_L0+0, 0 
	BTFSC       STATUS+0, 2 
	GOTO        L_State294
;FirmV_0_7_0.c,633 :: 		LCDFlashFlag=0;
	CLRF        _LCDFlashFlag+0 
;FirmV_0_7_0.c,634 :: 		PrevAC=ReturnAutoclose();
	CALL        _ReturnAutoclose+0, 0
	MOVF        R0, 0 
	MOVWF       State2_PrevAC_L0+0 
;FirmV_0_7_0.c,635 :: 		charValueToStr_AC(PrevAC,LCDLine2+11);
	MOVF        R0, 0 
	MOVWF       FARG_charValueToStr_AC+0 
	MOVLW       _LCDLine2+11
	MOVWF       FARG_charValueToStr_AC+0 
	MOVLW       hi_addr(_LCDLine2+11)
	MOVWF       FARG_charValueToStr_AC+1 
	CALL        _charValueToStr_AC+0, 0
;FirmV_0_7_0.c,636 :: 		memcpy(LCDLine2,"Close after",11);
	MOVLW       _LCDLine2+0
	MOVWF       FARG_memcpy_d1+0 
	MOVLW       hi_addr(_LCDLine2+0)
	MOVWF       FARG_memcpy_d1+1 
	MOVLW       67
	MOVWF       ?lstr3_FirmV_0_7_0+0 
	MOVLW       108
	MOVWF       ?lstr3_FirmV_0_7_0+1 
	MOVLW       111
	MOVWF       ?lstr3_FirmV_0_7_0+2 
	MOVLW       115
	MOVWF       ?lstr3_FirmV_0_7_0+3 
	MOVLW       101
	MOVWF       ?lstr3_FirmV_0_7_0+4 
	MOVLW       32
	MOVWF       ?lstr3_FirmV_0_7_0+5 
	MOVLW       97
	MOVWF       ?lstr3_FirmV_0_7_0+6 
	MOVLW       102
	MOVWF       ?lstr3_FirmV_0_7_0+7 
	MOVLW       116
	MOVWF       ?lstr3_FirmV_0_7_0+8 
	MOVLW       101
	MOVWF       ?lstr3_FirmV_0_7_0+9 
	MOVLW       114
	MOVWF       ?lstr3_FirmV_0_7_0+10 
	CLRF        ?lstr3_FirmV_0_7_0+11 
	MOVLW       ?lstr3_FirmV_0_7_0+0
	MOVWF       FARG_memcpy_s1+0 
	MOVLW       hi_addr(?lstr3_FirmV_0_7_0+0)
	MOVWF       FARG_memcpy_s1+1 
	MOVLW       11
	MOVWF       FARG_memcpy_n+0 
	MOVLW       0
	MOVWF       FARG_memcpy_n+1 
	CALL        _memcpy+0, 0
;FirmV_0_7_0.c,637 :: 		LCDUpdateFlag=1;
	MOVLW       1
	MOVWF       _LCDUpdateFlag+0 
;FirmV_0_7_0.c,638 :: 		}
L_State294:
;FirmV_0_7_0.c,641 :: 		if((Events.Remote!=0)||(CheckTask(9)))
	MOVF        _Events+4, 0 
	XORLW       0
	BTFSS       STATUS+0, 2 
	GOTO        L__State2708
	MOVLW       9
	MOVWF       FARG_CheckTask+0 
	CALL        _CheckTask+0, 0
	MOVF        R0, 1 
	BTFSS       STATUS+0, 2 
	GOTO        L__State2708
	GOTO        L_State297
L__State2708:
;FirmV_0_7_0.c,644 :: 		ClearTasks(0);
	CLRF        FARG_ClearTasks+0 
	CALL        _ClearTasks+0, 0
;FirmV_0_7_0.c,645 :: 		if((Door2CloseTime==0)||(ActiveDoors==1))
	MOVF        _Door2CloseTime+0, 0 
	XORLW       0
	BTFSC       STATUS+0, 2 
	GOTO        L__State2707
	MOVF        _ActiveDoors+0, 0 
	XORLW       1
	BTFSC       STATUS+0, 2 
	GOTO        L__State2707
	GOTO        L_State2100
L__State2707:
;FirmV_0_7_0.c,647 :: 		temp=ms500+delay;
	MOVF        State2_delay_L0+0, 0 
	ADDWF       _ms500+0, 0 
	MOVWF       R0 
	MOVLW       0
	ADDWFC      _ms500+1, 0 
	MOVWF       R1 
	MOVLW       0
	ADDWFC      _ms500+2, 0 
	MOVWF       R2 
	MOVLW       0
	ADDWFC      _ms500+3, 0 
	MOVWF       R3 
	MOVF        R0, 0 
	MOVWF       _temp+0 
	MOVF        R1, 0 
	MOVWF       _temp+1 
	MOVF        R2, 0 
	MOVWF       _temp+2 
	MOVF        R3, 0 
	MOVWF       _temp+3 
;FirmV_0_7_0.c,648 :: 		AddTask(temp,1);
	MOVF        R0, 0 
	MOVWF       FARG_AddTask+0 
	MOVF        R1, 0 
	MOVWF       FARG_AddTask+1 
	MOVF        R2, 0 
	MOVWF       FARG_AddTask+2 
	MOVF        R3, 0 
	MOVWF       FARG_AddTask+3 
	MOVLW       1
	MOVWF       FARG_AddTask+0 
	CALL        _AddTask+0, 0
;FirmV_0_7_0.c,649 :: 		if(CloseSoftStartTime!=0)
	MOVF        _CloseSoftStartTime+0, 0 
	XORLW       0
	BTFSC       STATUS+0, 2 
	GOTO        L_State2101
;FirmV_0_7_0.c,650 :: 		{AddTask(temp,7); M1isSlow=1;}//speed down
	MOVF        _temp+0, 0 
	MOVWF       FARG_AddTask+0 
	MOVF        _temp+1, 0 
	MOVWF       FARG_AddTask+1 
	MOVF        _temp+2, 0 
	MOVWF       FARG_AddTask+2 
	MOVF        _temp+3, 0 
	MOVWF       FARG_AddTask+3 
	MOVLW       7
	MOVWF       FARG_AddTask+0 
	CALL        _AddTask+0, 0
	MOVLW       1
	MOVWF       _M1isSlow+0 
	GOTO        L_State2102
L_State2101:
;FirmV_0_7_0.c,652 :: 		{AddTask(temp,5); M1isSlow=0;}//speed up
	MOVF        _temp+0, 0 
	MOVWF       FARG_AddTask+0 
	MOVF        _temp+1, 0 
	MOVWF       FARG_AddTask+1 
	MOVF        _temp+2, 0 
	MOVWF       FARG_AddTask+2 
	MOVF        _temp+3, 0 
	MOVWF       FARG_AddTask+3 
	MOVLW       5
	MOVWF       FARG_AddTask+0 
	CALL        _AddTask+0, 0
	CLRF        _M1isSlow+0 
L_State2102:
;FirmV_0_7_0.c,653 :: 		temp=ms500+CloseSoftStartTime+OverloadDelay+delay;
	MOVF        _CloseSoftStartTime+0, 0 
	ADDWF       _ms500+0, 0 
	MOVWF       R0 
	MOVLW       0
	ADDWFC      _ms500+1, 0 
	MOVWF       R1 
	MOVLW       0
	ADDWFC      _ms500+2, 0 
	MOVWF       R2 
	MOVLW       0
	ADDWFC      _ms500+3, 0 
	MOVWF       R3 
	MOVLW       6
	ADDWF       R0, 1 
	MOVLW       0
	ADDWFC      R1, 1 
	ADDWFC      R2, 1 
	ADDWFC      R3, 1 
	MOVF        State2_delay_L0+0, 0 
	ADDWF       R0, 1 
	MOVLW       0
	ADDWFC      R1, 1 
	ADDWFC      R2, 1 
	ADDWFC      R3, 1 
	MOVF        R0, 0 
	MOVWF       _temp+0 
	MOVF        R1, 0 
	MOVWF       _temp+1 
	MOVF        R2, 0 
	MOVWF       _temp+2 
	MOVF        R3, 0 
	MOVWF       _temp+3 
;FirmV_0_7_0.c,654 :: 		AddTask(temp,10); //overload check
	MOVF        R0, 0 
	MOVWF       FARG_AddTask+0 
	MOVF        R1, 0 
	MOVWF       FARG_AddTask+1 
	MOVF        R2, 0 
	MOVWF       FARG_AddTask+2 
	MOVF        R3, 0 
	MOVWF       FARG_AddTask+3 
	MOVLW       10
	MOVWF       FARG_AddTask+0 
	CALL        _AddTask+0, 0
;FirmV_0_7_0.c,655 :: 		temp=ms500+CloseSoftStartTime+delay;
	MOVF        _CloseSoftStartTime+0, 0 
	ADDWF       _ms500+0, 0 
	MOVWF       R0 
	MOVLW       0
	ADDWFC      _ms500+1, 0 
	MOVWF       R1 
	MOVLW       0
	ADDWFC      _ms500+2, 0 
	MOVWF       R2 
	MOVLW       0
	ADDWFC      _ms500+3, 0 
	MOVWF       R3 
	MOVF        State2_delay_L0+0, 0 
	ADDWF       R0, 1 
	MOVLW       0
	ADDWFC      R1, 1 
	ADDWFC      R2, 1 
	ADDWFC      R3, 1 
	MOVF        R0, 0 
	MOVWF       _temp+0 
	MOVF        R1, 0 
	MOVWF       _temp+1 
	MOVF        R2, 0 
	MOVWF       _temp+2 
	MOVF        R3, 0 
	MOVWF       _temp+3 
;FirmV_0_7_0.c,656 :: 		AddTask(temp,5);//Speed up after soft start
	MOVF        R0, 0 
	MOVWF       FARG_AddTask+0 
	MOVF        R1, 0 
	MOVWF       FARG_AddTask+1 
	MOVF        R2, 0 
	MOVWF       FARG_AddTask+2 
	MOVF        R3, 0 
	MOVWF       FARG_AddTask+3 
	MOVLW       5
	MOVWF       FARG_AddTask+0 
	CALL        _AddTask+0, 0
;FirmV_0_7_0.c,657 :: 		if(CloseSoftStopTime!=0)
	MOVF        _CloseSoftStopTime+0, 0 
	XORLW       0
	BTFSC       STATUS+0, 2 
	GOTO        L_State2103
;FirmV_0_7_0.c,658 :: 		{temp=ms500+Door1CloseTime-CloseSoftStopTime+delay;AddTask(temp,7);}//Speed down for soft stop
	MOVF        _Door1CloseTime+0, 0 
	ADDWF       _ms500+0, 0 
	MOVWF       R0 
	MOVLW       0
	ADDWFC      _ms500+1, 0 
	MOVWF       R1 
	MOVLW       0
	ADDWFC      _ms500+2, 0 
	MOVWF       R2 
	MOVLW       0
	ADDWFC      _ms500+3, 0 
	MOVWF       R3 
	MOVF        _CloseSoftStopTime+0, 0 
	SUBWF       R0, 1 
	MOVLW       0
	SUBWFB      R1, 1 
	SUBWFB      R2, 1 
	SUBWFB      R3, 1 
	MOVF        State2_delay_L0+0, 0 
	ADDWF       R0, 1 
	MOVLW       0
	ADDWFC      R1, 1 
	ADDWFC      R2, 1 
	ADDWFC      R3, 1 
	MOVF        R0, 0 
	MOVWF       _temp+0 
	MOVF        R1, 0 
	MOVWF       _temp+1 
	MOVF        R2, 0 
	MOVWF       _temp+2 
	MOVF        R3, 0 
	MOVWF       _temp+3 
	MOVF        R0, 0 
	MOVWF       FARG_AddTask+0 
	MOVF        R1, 0 
	MOVWF       FARG_AddTask+1 
	MOVF        R2, 0 
	MOVWF       FARG_AddTask+2 
	MOVF        R3, 0 
	MOVWF       FARG_AddTask+3 
	MOVLW       7
	MOVWF       FARG_AddTask+0 
	CALL        _AddTask+0, 0
L_State2103:
;FirmV_0_7_0.c,659 :: 		if(LockForce!=0)
	MOVF        _LockForce+0, 0 
	XORLW       0
	BTFSC       STATUS+0, 2 
	GOTO        L_State2104
;FirmV_0_7_0.c,660 :: 		{temp=ms500+Door1CloseTime+delay;AddTask(temp,5);AddTask(temp+LockForceTime,3);}
	MOVF        _Door1CloseTime+0, 0 
	ADDWF       _ms500+0, 0 
	MOVWF       R0 
	MOVLW       0
	ADDWFC      _ms500+1, 0 
	MOVWF       R1 
	MOVLW       0
	ADDWFC      _ms500+2, 0 
	MOVWF       R2 
	MOVLW       0
	ADDWFC      _ms500+3, 0 
	MOVWF       R3 
	MOVF        State2_delay_L0+0, 0 
	ADDWF       R0, 1 
	MOVLW       0
	ADDWFC      R1, 1 
	ADDWFC      R2, 1 
	ADDWFC      R3, 1 
	MOVF        R0, 0 
	MOVWF       _temp+0 
	MOVF        R1, 0 
	MOVWF       _temp+1 
	MOVF        R2, 0 
	MOVWF       _temp+2 
	MOVF        R3, 0 
	MOVWF       _temp+3 
	MOVF        R0, 0 
	MOVWF       FARG_AddTask+0 
	MOVF        R1, 0 
	MOVWF       FARG_AddTask+1 
	MOVF        R2, 0 
	MOVWF       FARG_AddTask+2 
	MOVF        R3, 0 
	MOVWF       FARG_AddTask+3 
	MOVLW       5
	MOVWF       FARG_AddTask+0 
	CALL        _AddTask+0, 0
	MOVLW       2
	ADDWF       _temp+0, 0 
	MOVWF       FARG_AddTask+0 
	MOVLW       0
	ADDWFC      _temp+1, 0 
	MOVWF       FARG_AddTask+1 
	MOVLW       0
	ADDWFC      _temp+2, 0 
	MOVWF       FARG_AddTask+2 
	MOVLW       0
	ADDWFC      _temp+3, 0 
	MOVWF       FARG_AddTask+3 
	MOVLW       3
	MOVWF       FARG_AddTask+0 
	CALL        _AddTask+0, 0
	GOTO        L_State2105
L_State2104:
;FirmV_0_7_0.c,662 :: 		{temp=ms500+Door1CloseTime+delay;AddTask(temp,3);}
	MOVF        _Door1CloseTime+0, 0 
	ADDWF       _ms500+0, 0 
	MOVWF       R0 
	MOVLW       0
	ADDWFC      _ms500+1, 0 
	MOVWF       R1 
	MOVLW       0
	ADDWFC      _ms500+2, 0 
	MOVWF       R2 
	MOVLW       0
	ADDWFC      _ms500+3, 0 
	MOVWF       R3 
	MOVF        State2_delay_L0+0, 0 
	ADDWF       R0, 1 
	MOVLW       0
	ADDWFC      R1, 1 
	ADDWFC      R2, 1 
	ADDWFC      R3, 1 
	MOVF        R0, 0 
	MOVWF       _temp+0 
	MOVF        R1, 0 
	MOVWF       _temp+1 
	MOVF        R2, 0 
	MOVWF       _temp+2 
	MOVF        R3, 0 
	MOVWF       _temp+3 
	MOVF        R0, 0 
	MOVWF       FARG_AddTask+0 
	MOVF        R1, 0 
	MOVWF       FARG_AddTask+1 
	MOVF        R2, 0 
	MOVWF       FARG_AddTask+2 
	MOVF        R3, 0 
	MOVWF       FARG_AddTask+3 
	MOVLW       3
	MOVWF       FARG_AddTask+0 
	CALL        _AddTask+0, 0
L_State2105:
;FirmV_0_7_0.c,664 :: 		}
L_State2100:
;FirmV_0_7_0.c,666 :: 		if((Door2CloseTime!=0)&&(ActiveDoors==2))
	MOVF        _Door2CloseTime+0, 0 
	XORLW       0
	BTFSC       STATUS+0, 2 
	GOTO        L_State2108
	MOVF        _ActiveDoors+0, 0 
	XORLW       2
	BTFSS       STATUS+0, 2 
	GOTO        L_State2108
L__State2706:
;FirmV_0_7_0.c,668 :: 		temp=ms500+delay;
	MOVF        State2_delay_L0+0, 0 
	ADDWF       _ms500+0, 0 
	MOVWF       R0 
	MOVLW       0
	ADDWFC      _ms500+1, 0 
	MOVWF       R1 
	MOVLW       0
	ADDWFC      _ms500+2, 0 
	MOVWF       R2 
	MOVLW       0
	ADDWFC      _ms500+3, 0 
	MOVWF       R3 
	MOVF        R0, 0 
	MOVWF       _temp+0 
	MOVF        R1, 0 
	MOVWF       _temp+1 
	MOVF        R2, 0 
	MOVWF       _temp+2 
	MOVF        R3, 0 
	MOVWF       _temp+3 
;FirmV_0_7_0.c,669 :: 		AddTask(temp,2);
	MOVF        R0, 0 
	MOVWF       FARG_AddTask+0 
	MOVF        R1, 0 
	MOVWF       FARG_AddTask+1 
	MOVF        R2, 0 
	MOVWF       FARG_AddTask+2 
	MOVF        R3, 0 
	MOVWF       FARG_AddTask+3 
	MOVLW       2
	MOVWF       FARG_AddTask+0 
	CALL        _AddTask+0, 0
;FirmV_0_7_0.c,670 :: 		if(CloseSoftStartTime!=0)
	MOVF        _CloseSoftStartTime+0, 0 
	XORLW       0
	BTFSC       STATUS+0, 2 
	GOTO        L_State2109
;FirmV_0_7_0.c,671 :: 		{AddTask(temp,8); M2isSlow=1;}//speed down
	MOVF        _temp+0, 0 
	MOVWF       FARG_AddTask+0 
	MOVF        _temp+1, 0 
	MOVWF       FARG_AddTask+1 
	MOVF        _temp+2, 0 
	MOVWF       FARG_AddTask+2 
	MOVF        _temp+3, 0 
	MOVWF       FARG_AddTask+3 
	MOVLW       8
	MOVWF       FARG_AddTask+0 
	CALL        _AddTask+0, 0
	MOVLW       1
	MOVWF       _M2isSlow+0 
	GOTO        L_State2110
L_State2109:
;FirmV_0_7_0.c,673 :: 		{AddTask(temp,6); M2isSlow=0;}//speed up
	MOVF        _temp+0, 0 
	MOVWF       FARG_AddTask+0 
	MOVF        _temp+1, 0 
	MOVWF       FARG_AddTask+1 
	MOVF        _temp+2, 0 
	MOVWF       FARG_AddTask+2 
	MOVF        _temp+3, 0 
	MOVWF       FARG_AddTask+3 
	MOVLW       6
	MOVWF       FARG_AddTask+0 
	CALL        _AddTask+0, 0
	CLRF        _M2isSlow+0 
L_State2110:
;FirmV_0_7_0.c,674 :: 		temp=ms500+CloseSoftStartTime+OverloadDelay+delay;
	MOVF        _CloseSoftStartTime+0, 0 
	ADDWF       _ms500+0, 0 
	MOVWF       R0 
	MOVLW       0
	ADDWFC      _ms500+1, 0 
	MOVWF       R1 
	MOVLW       0
	ADDWFC      _ms500+2, 0 
	MOVWF       R2 
	MOVLW       0
	ADDWFC      _ms500+3, 0 
	MOVWF       R3 
	MOVLW       6
	ADDWF       R0, 1 
	MOVLW       0
	ADDWFC      R1, 1 
	ADDWFC      R2, 1 
	ADDWFC      R3, 1 
	MOVF        State2_delay_L0+0, 0 
	ADDWF       R0, 1 
	MOVLW       0
	ADDWFC      R1, 1 
	ADDWFC      R2, 1 
	ADDWFC      R3, 1 
	MOVF        R0, 0 
	MOVWF       _temp+0 
	MOVF        R1, 0 
	MOVWF       _temp+1 
	MOVF        R2, 0 
	MOVWF       _temp+2 
	MOVF        R3, 0 
	MOVWF       _temp+3 
;FirmV_0_7_0.c,675 :: 		AddTask(temp,11); //overload check
	MOVF        R0, 0 
	MOVWF       FARG_AddTask+0 
	MOVF        R1, 0 
	MOVWF       FARG_AddTask+1 
	MOVF        R2, 0 
	MOVWF       FARG_AddTask+2 
	MOVF        R3, 0 
	MOVWF       FARG_AddTask+3 
	MOVLW       11
	MOVWF       FARG_AddTask+0 
	CALL        _AddTask+0, 0
;FirmV_0_7_0.c,676 :: 		temp=ms500+CloseSoftStartTime+delay;
	MOVF        _CloseSoftStartTime+0, 0 
	ADDWF       _ms500+0, 0 
	MOVWF       R0 
	MOVLW       0
	ADDWFC      _ms500+1, 0 
	MOVWF       R1 
	MOVLW       0
	ADDWFC      _ms500+2, 0 
	MOVWF       R2 
	MOVLW       0
	ADDWFC      _ms500+3, 0 
	MOVWF       R3 
	MOVF        State2_delay_L0+0, 0 
	ADDWF       R0, 1 
	MOVLW       0
	ADDWFC      R1, 1 
	ADDWFC      R2, 1 
	ADDWFC      R3, 1 
	MOVF        R0, 0 
	MOVWF       _temp+0 
	MOVF        R1, 0 
	MOVWF       _temp+1 
	MOVF        R2, 0 
	MOVWF       _temp+2 
	MOVF        R3, 0 
	MOVWF       _temp+3 
;FirmV_0_7_0.c,677 :: 		AddTask(temp,6);//Speed up after soft start
	MOVF        R0, 0 
	MOVWF       FARG_AddTask+0 
	MOVF        R1, 0 
	MOVWF       FARG_AddTask+1 
	MOVF        R2, 0 
	MOVWF       FARG_AddTask+2 
	MOVF        R3, 0 
	MOVWF       FARG_AddTask+3 
	MOVLW       6
	MOVWF       FARG_AddTask+0 
	CALL        _AddTask+0, 0
;FirmV_0_7_0.c,678 :: 		if(CloseSoftStopTime!=0)
	MOVF        _CloseSoftStopTime+0, 0 
	XORLW       0
	BTFSC       STATUS+0, 2 
	GOTO        L_State2111
;FirmV_0_7_0.c,679 :: 		{temp=ms500+Door2CloseTime-CloseSoftStopTime+delay;AddTask(temp,8);}//Speed down for soft stop
	MOVF        _Door2CloseTime+0, 0 
	ADDWF       _ms500+0, 0 
	MOVWF       R0 
	MOVLW       0
	ADDWFC      _ms500+1, 0 
	MOVWF       R1 
	MOVLW       0
	ADDWFC      _ms500+2, 0 
	MOVWF       R2 
	MOVLW       0
	ADDWFC      _ms500+3, 0 
	MOVWF       R3 
	MOVF        _CloseSoftStopTime+0, 0 
	SUBWF       R0, 1 
	MOVLW       0
	SUBWFB      R1, 1 
	SUBWFB      R2, 1 
	SUBWFB      R3, 1 
	MOVF        State2_delay_L0+0, 0 
	ADDWF       R0, 1 
	MOVLW       0
	ADDWFC      R1, 1 
	ADDWFC      R2, 1 
	ADDWFC      R3, 1 
	MOVF        R0, 0 
	MOVWF       _temp+0 
	MOVF        R1, 0 
	MOVWF       _temp+1 
	MOVF        R2, 0 
	MOVWF       _temp+2 
	MOVF        R3, 0 
	MOVWF       _temp+3 
	MOVF        R0, 0 
	MOVWF       FARG_AddTask+0 
	MOVF        R1, 0 
	MOVWF       FARG_AddTask+1 
	MOVF        R2, 0 
	MOVWF       FARG_AddTask+2 
	MOVF        R3, 0 
	MOVWF       FARG_AddTask+3 
	MOVLW       8
	MOVWF       FARG_AddTask+0 
	CALL        _AddTask+0, 0
L_State2111:
;FirmV_0_7_0.c,681 :: 		temp=ms500+Door2CloseTime+delay;
	MOVF        _Door2CloseTime+0, 0 
	ADDWF       _ms500+0, 0 
	MOVWF       R0 
	MOVLW       0
	ADDWFC      _ms500+1, 0 
	MOVWF       R1 
	MOVLW       0
	ADDWFC      _ms500+2, 0 
	MOVWF       R2 
	MOVLW       0
	ADDWFC      _ms500+3, 0 
	MOVWF       R3 
	MOVF        State2_delay_L0+0, 0 
	ADDWF       R0, 1 
	MOVLW       0
	ADDWFC      R1, 1 
	ADDWFC      R2, 1 
	ADDWFC      R3, 1 
	MOVF        R0, 0 
	MOVWF       _temp+0 
	MOVF        R1, 0 
	MOVWF       _temp+1 
	MOVF        R2, 0 
	MOVWF       _temp+2 
	MOVF        R3, 0 
	MOVWF       _temp+3 
;FirmV_0_7_0.c,682 :: 		AddTask(temp,4);//Stop motor
	MOVF        R0, 0 
	MOVWF       FARG_AddTask+0 
	MOVF        R1, 0 
	MOVWF       FARG_AddTask+1 
	MOVF        R2, 0 
	MOVWF       FARG_AddTask+2 
	MOVF        R3, 0 
	MOVWF       FARG_AddTask+3 
	MOVLW       4
	MOVWF       FARG_AddTask+0 
	CALL        _AddTask+0, 0
;FirmV_0_7_0.c,686 :: 		temp=ms500+ActionTimeDiff+delay;
	MOVF        _ActionTimeDiff+0, 0 
	ADDWF       _ms500+0, 0 
	MOVWF       R0 
	MOVLW       0
	ADDWFC      _ms500+1, 0 
	MOVWF       R1 
	MOVLW       0
	ADDWFC      _ms500+2, 0 
	MOVWF       R2 
	MOVLW       0
	ADDWFC      _ms500+3, 0 
	MOVWF       R3 
	MOVF        State2_delay_L0+0, 0 
	ADDWF       R0, 1 
	MOVLW       0
	ADDWFC      R1, 1 
	ADDWFC      R2, 1 
	ADDWFC      R3, 1 
	MOVF        R0, 0 
	MOVWF       _temp+0 
	MOVF        R1, 0 
	MOVWF       _temp+1 
	MOVF        R2, 0 
	MOVWF       _temp+2 
	MOVF        R3, 0 
	MOVWF       _temp+3 
;FirmV_0_7_0.c,687 :: 		AddTask(temp,1);
	MOVF        R0, 0 
	MOVWF       FARG_AddTask+0 
	MOVF        R1, 0 
	MOVWF       FARG_AddTask+1 
	MOVF        R2, 0 
	MOVWF       FARG_AddTask+2 
	MOVF        R3, 0 
	MOVWF       FARG_AddTask+3 
	MOVLW       1
	MOVWF       FARG_AddTask+0 
	CALL        _AddTask+0, 0
;FirmV_0_7_0.c,688 :: 		if(CloseSoftStartTime!=0)
	MOVF        _CloseSoftStartTime+0, 0 
	XORLW       0
	BTFSC       STATUS+0, 2 
	GOTO        L_State2112
;FirmV_0_7_0.c,689 :: 		{AddTask(temp,7); M1isSlow=1;}//speed down
	MOVF        _temp+0, 0 
	MOVWF       FARG_AddTask+0 
	MOVF        _temp+1, 0 
	MOVWF       FARG_AddTask+1 
	MOVF        _temp+2, 0 
	MOVWF       FARG_AddTask+2 
	MOVF        _temp+3, 0 
	MOVWF       FARG_AddTask+3 
	MOVLW       7
	MOVWF       FARG_AddTask+0 
	CALL        _AddTask+0, 0
	MOVLW       1
	MOVWF       _M1isSlow+0 
	GOTO        L_State2113
L_State2112:
;FirmV_0_7_0.c,691 :: 		{AddTask(temp,5); M1isSlow=0;}//speed up
	MOVF        _temp+0, 0 
	MOVWF       FARG_AddTask+0 
	MOVF        _temp+1, 0 
	MOVWF       FARG_AddTask+1 
	MOVF        _temp+2, 0 
	MOVWF       FARG_AddTask+2 
	MOVF        _temp+3, 0 
	MOVWF       FARG_AddTask+3 
	MOVLW       5
	MOVWF       FARG_AddTask+0 
	CALL        _AddTask+0, 0
	CLRF        _M1isSlow+0 
L_State2113:
;FirmV_0_7_0.c,692 :: 		temp=ms500+ActionTimeDiff+CloseSoftStartTime+OverloadDelay+delay;
	MOVF        _ActionTimeDiff+0, 0 
	ADDWF       _ms500+0, 0 
	MOVWF       R0 
	MOVLW       0
	ADDWFC      _ms500+1, 0 
	MOVWF       R1 
	MOVLW       0
	ADDWFC      _ms500+2, 0 
	MOVWF       R2 
	MOVLW       0
	ADDWFC      _ms500+3, 0 
	MOVWF       R3 
	MOVF        _CloseSoftStartTime+0, 0 
	ADDWF       R0, 1 
	MOVLW       0
	ADDWFC      R1, 1 
	ADDWFC      R2, 1 
	ADDWFC      R3, 1 
	MOVLW       6
	ADDWF       R0, 1 
	MOVLW       0
	ADDWFC      R1, 1 
	ADDWFC      R2, 1 
	ADDWFC      R3, 1 
	MOVF        State2_delay_L0+0, 0 
	ADDWF       R0, 1 
	MOVLW       0
	ADDWFC      R1, 1 
	ADDWFC      R2, 1 
	ADDWFC      R3, 1 
	MOVF        R0, 0 
	MOVWF       _temp+0 
	MOVF        R1, 0 
	MOVWF       _temp+1 
	MOVF        R2, 0 
	MOVWF       _temp+2 
	MOVF        R3, 0 
	MOVWF       _temp+3 
;FirmV_0_7_0.c,693 :: 		AddTask(temp,10); //overload check
	MOVF        R0, 0 
	MOVWF       FARG_AddTask+0 
	MOVF        R1, 0 
	MOVWF       FARG_AddTask+1 
	MOVF        R2, 0 
	MOVWF       FARG_AddTask+2 
	MOVF        R3, 0 
	MOVWF       FARG_AddTask+3 
	MOVLW       10
	MOVWF       FARG_AddTask+0 
	CALL        _AddTask+0, 0
;FirmV_0_7_0.c,694 :: 		temp=ms500+ActionTimeDiff+CloseSoftStartTime+delay;
	MOVF        _ActionTimeDiff+0, 0 
	ADDWF       _ms500+0, 0 
	MOVWF       R0 
	MOVLW       0
	ADDWFC      _ms500+1, 0 
	MOVWF       R1 
	MOVLW       0
	ADDWFC      _ms500+2, 0 
	MOVWF       R2 
	MOVLW       0
	ADDWFC      _ms500+3, 0 
	MOVWF       R3 
	MOVF        _CloseSoftStartTime+0, 0 
	ADDWF       R0, 1 
	MOVLW       0
	ADDWFC      R1, 1 
	ADDWFC      R2, 1 
	ADDWFC      R3, 1 
	MOVF        State2_delay_L0+0, 0 
	ADDWF       R0, 1 
	MOVLW       0
	ADDWFC      R1, 1 
	ADDWFC      R2, 1 
	ADDWFC      R3, 1 
	MOVF        R0, 0 
	MOVWF       _temp+0 
	MOVF        R1, 0 
	MOVWF       _temp+1 
	MOVF        R2, 0 
	MOVWF       _temp+2 
	MOVF        R3, 0 
	MOVWF       _temp+3 
;FirmV_0_7_0.c,695 :: 		AddTask(temp,5);//Speed up after soft start
	MOVF        R0, 0 
	MOVWF       FARG_AddTask+0 
	MOVF        R1, 0 
	MOVWF       FARG_AddTask+1 
	MOVF        R2, 0 
	MOVWF       FARG_AddTask+2 
	MOVF        R3, 0 
	MOVWF       FARG_AddTask+3 
	MOVLW       5
	MOVWF       FARG_AddTask+0 
	CALL        _AddTask+0, 0
;FirmV_0_7_0.c,696 :: 		if(CloseSoftStopTime!=0)
	MOVF        _CloseSoftStopTime+0, 0 
	XORLW       0
	BTFSC       STATUS+0, 2 
	GOTO        L_State2114
;FirmV_0_7_0.c,697 :: 		{temp=ms500+ActionTimeDiff+Door1CloseTime-CloseSoftStopTime+delay;AddTask(temp,7);}//Speed down for soft stop
	MOVF        _ActionTimeDiff+0, 0 
	ADDWF       _ms500+0, 0 
	MOVWF       R0 
	MOVLW       0
	ADDWFC      _ms500+1, 0 
	MOVWF       R1 
	MOVLW       0
	ADDWFC      _ms500+2, 0 
	MOVWF       R2 
	MOVLW       0
	ADDWFC      _ms500+3, 0 
	MOVWF       R3 
	MOVF        _Door1CloseTime+0, 0 
	ADDWF       R0, 1 
	MOVLW       0
	ADDWFC      R1, 1 
	ADDWFC      R2, 1 
	ADDWFC      R3, 1 
	MOVF        _CloseSoftStopTime+0, 0 
	SUBWF       R0, 1 
	MOVLW       0
	SUBWFB      R1, 1 
	SUBWFB      R2, 1 
	SUBWFB      R3, 1 
	MOVF        State2_delay_L0+0, 0 
	ADDWF       R0, 1 
	MOVLW       0
	ADDWFC      R1, 1 
	ADDWFC      R2, 1 
	ADDWFC      R3, 1 
	MOVF        R0, 0 
	MOVWF       _temp+0 
	MOVF        R1, 0 
	MOVWF       _temp+1 
	MOVF        R2, 0 
	MOVWF       _temp+2 
	MOVF        R3, 0 
	MOVWF       _temp+3 
	MOVF        R0, 0 
	MOVWF       FARG_AddTask+0 
	MOVF        R1, 0 
	MOVWF       FARG_AddTask+1 
	MOVF        R2, 0 
	MOVWF       FARG_AddTask+2 
	MOVF        R3, 0 
	MOVWF       FARG_AddTask+3 
	MOVLW       7
	MOVWF       FARG_AddTask+0 
	CALL        _AddTask+0, 0
L_State2114:
;FirmV_0_7_0.c,698 :: 		if(LockForce!=0)
	MOVF        _LockForce+0, 0 
	XORLW       0
	BTFSC       STATUS+0, 2 
	GOTO        L_State2115
;FirmV_0_7_0.c,699 :: 		{temp=ms500+Door1CloseTime+ActionTimeDiff+delay;AddTask(temp,5);AddTask(temp+LockForceTime,3);}
	MOVF        _Door1CloseTime+0, 0 
	ADDWF       _ms500+0, 0 
	MOVWF       R0 
	MOVLW       0
	ADDWFC      _ms500+1, 0 
	MOVWF       R1 
	MOVLW       0
	ADDWFC      _ms500+2, 0 
	MOVWF       R2 
	MOVLW       0
	ADDWFC      _ms500+3, 0 
	MOVWF       R3 
	MOVF        _ActionTimeDiff+0, 0 
	ADDWF       R0, 1 
	MOVLW       0
	ADDWFC      R1, 1 
	ADDWFC      R2, 1 
	ADDWFC      R3, 1 
	MOVF        State2_delay_L0+0, 0 
	ADDWF       R0, 1 
	MOVLW       0
	ADDWFC      R1, 1 
	ADDWFC      R2, 1 
	ADDWFC      R3, 1 
	MOVF        R0, 0 
	MOVWF       _temp+0 
	MOVF        R1, 0 
	MOVWF       _temp+1 
	MOVF        R2, 0 
	MOVWF       _temp+2 
	MOVF        R3, 0 
	MOVWF       _temp+3 
	MOVF        R0, 0 
	MOVWF       FARG_AddTask+0 
	MOVF        R1, 0 
	MOVWF       FARG_AddTask+1 
	MOVF        R2, 0 
	MOVWF       FARG_AddTask+2 
	MOVF        R3, 0 
	MOVWF       FARG_AddTask+3 
	MOVLW       5
	MOVWF       FARG_AddTask+0 
	CALL        _AddTask+0, 0
	MOVLW       2
	ADDWF       _temp+0, 0 
	MOVWF       FARG_AddTask+0 
	MOVLW       0
	ADDWFC      _temp+1, 0 
	MOVWF       FARG_AddTask+1 
	MOVLW       0
	ADDWFC      _temp+2, 0 
	MOVWF       FARG_AddTask+2 
	MOVLW       0
	ADDWFC      _temp+3, 0 
	MOVWF       FARG_AddTask+3 
	MOVLW       3
	MOVWF       FARG_AddTask+0 
	CALL        _AddTask+0, 0
	GOTO        L_State2116
L_State2115:
;FirmV_0_7_0.c,701 :: 		{temp=ms500+Door1CloseTime+ActionTimeDiff+delay;AddTask(temp,3);}
	MOVF        _Door1CloseTime+0, 0 
	ADDWF       _ms500+0, 0 
	MOVWF       R0 
	MOVLW       0
	ADDWFC      _ms500+1, 0 
	MOVWF       R1 
	MOVLW       0
	ADDWFC      _ms500+2, 0 
	MOVWF       R2 
	MOVLW       0
	ADDWFC      _ms500+3, 0 
	MOVWF       R3 
	MOVF        _ActionTimeDiff+0, 0 
	ADDWF       R0, 1 
	MOVLW       0
	ADDWFC      R1, 1 
	ADDWFC      R2, 1 
	ADDWFC      R3, 1 
	MOVF        State2_delay_L0+0, 0 
	ADDWF       R0, 1 
	MOVLW       0
	ADDWFC      R1, 1 
	ADDWFC      R2, 1 
	ADDWFC      R3, 1 
	MOVF        R0, 0 
	MOVWF       _temp+0 
	MOVF        R1, 0 
	MOVWF       _temp+1 
	MOVF        R2, 0 
	MOVWF       _temp+2 
	MOVF        R3, 0 
	MOVWF       _temp+3 
	MOVF        R0, 0 
	MOVWF       FARG_AddTask+0 
	MOVF        R1, 0 
	MOVWF       FARG_AddTask+1 
	MOVF        R2, 0 
	MOVWF       FARG_AddTask+2 
	MOVF        R3, 0 
	MOVWF       FARG_AddTask+3 
	MOVLW       3
	MOVWF       FARG_AddTask+0 
	CALL        _AddTask+0, 0
L_State2116:
;FirmV_0_7_0.c,703 :: 		}
L_State2108:
;FirmV_0_7_0.c,706 :: 		CloseDone=3;
	MOVLW       3
	MOVWF       _CloseDone+0 
;FirmV_0_7_0.c,707 :: 		OverloadCheckFlag1=0;
	CLRF        _OverloadCheckFlag1+0 
;FirmV_0_7_0.c,708 :: 		OverloadCheckFlag2=0;
	CLRF        _OverloadCheckFlag2+0 
;FirmV_0_7_0.c,709 :: 		State=4;
	MOVLW       4
	MOVWF       _State+0 
;FirmV_0_7_0.c,710 :: 		}
L_State297:
;FirmV_0_7_0.c,712 :: 		if((Events.Photocell.b0==1)&&(AutoCloseTime!=0)&&(PassFlag==0))
	BTFSS       _Events+6, 0 
	GOTO        L_State2119
	MOVLW       0
	XORWF       _AutoCloseTime+1, 0 
	BTFSS       STATUS+0, 2 
	GOTO        L__State2806
	MOVLW       0
	XORWF       _AutoCloseTime+0, 0 
L__State2806:
	BTFSC       STATUS+0, 2 
	GOTO        L_State2119
	MOVF        _PassFlag+0, 0 
	XORLW       0
	BTFSS       STATUS+0, 2 
	GOTO        L_State2119
L__State2705:
;FirmV_0_7_0.c,713 :: 		{PassFlag=1; _AC=GetAutocloseTime();Logger("S2 Auto Close Deleted");}
	MOVLW       1
	MOVWF       _PassFlag+0 
	CALL        _GetAutocloseTime+0, 0
	MOVF        R0, 0 
	MOVWF       __AC+0 
	MOVLW       ?ICS?lstr4_FirmV_0_7_0+0
	MOVWF       TBLPTRL 
	MOVLW       hi_addr(?ICS?lstr4_FirmV_0_7_0+0)
	MOVWF       TBLPTRH 
	MOVLW       higher_addr(?ICS?lstr4_FirmV_0_7_0+0)
	MOVWF       TBLPTRU 
	MOVLW       ?lstr4_FirmV_0_7_0+0
	MOVWF       FSR1L 
	MOVLW       hi_addr(?lstr4_FirmV_0_7_0+0)
	MOVWF       FSR1H 
	MOVLW       22
	MOVWF       R0 
	MOVLW       1
	MOVWF       R1 
	CALL        ___CC2DW+0, 0
	MOVLW       ?lstr4_FirmV_0_7_0+0
	MOVWF       FARG_Logger_text+0 
	MOVLW       hi_addr(?lstr4_FirmV_0_7_0+0)
	MOVWF       FARG_Logger_text+1 
	CALL        _Logger+0, 0
L_State2119:
;FirmV_0_7_0.c,715 :: 		if((PassFlag==1)&&(Events.Photocell.b0==0)&&(AutoCloseTime!=0))
	MOVF        _PassFlag+0, 0 
	XORLW       1
	BTFSS       STATUS+0, 2 
	GOTO        L_State2122
	BTFSC       _Events+6, 0 
	GOTO        L_State2122
	MOVLW       0
	XORWF       _AutoCloseTime+1, 0 
	BTFSS       STATUS+0, 2 
	GOTO        L__State2807
	MOVLW       0
	XORWF       _AutoCloseTime+0, 0 
L__State2807:
	BTFSC       STATUS+0, 2 
	GOTO        L_State2122
L__State2704:
;FirmV_0_7_0.c,716 :: 		if(CloseAfterPass==0)
	MOVF        _CloseAfterPass+0, 0 
	XORLW       0
	BTFSS       STATUS+0, 2 
	GOTO        L_State2123
;FirmV_0_7_0.c,717 :: 		{temp=ms500+_AC;AddTask(temp,9);PassFlag=0;longwordtostrwithzeros(temp,t);Logger("S2 Insert 9 at:");Logger(t);}
	MOVF        __AC+0, 0 
	ADDWF       _ms500+0, 0 
	MOVWF       R0 
	MOVLW       0
	ADDWFC      _ms500+1, 0 
	MOVWF       R1 
	MOVLW       0
	ADDWFC      _ms500+2, 0 
	MOVWF       R2 
	MOVLW       0
	ADDWFC      _ms500+3, 0 
	MOVWF       R3 
	MOVF        R0, 0 
	MOVWF       _temp+0 
	MOVF        R1, 0 
	MOVWF       _temp+1 
	MOVF        R2, 0 
	MOVWF       _temp+2 
	MOVF        R3, 0 
	MOVWF       _temp+3 
	MOVF        R0, 0 
	MOVWF       FARG_AddTask+0 
	MOVF        R1, 0 
	MOVWF       FARG_AddTask+1 
	MOVF        R2, 0 
	MOVWF       FARG_AddTask+2 
	MOVF        R3, 0 
	MOVWF       FARG_AddTask+3 
	MOVLW       9
	MOVWF       FARG_AddTask+0 
	CALL        _AddTask+0, 0
	CLRF        _PassFlag+0 
	MOVF        _temp+0, 0 
	MOVWF       FARG_LongWordToStrWithZeros_input+0 
	MOVF        _temp+1, 0 
	MOVWF       FARG_LongWordToStrWithZeros_input+1 
	MOVF        _temp+2, 0 
	MOVWF       FARG_LongWordToStrWithZeros_input+2 
	MOVF        _temp+3, 0 
	MOVWF       FARG_LongWordToStrWithZeros_input+3 
	MOVLW       _t+0
	MOVWF       FARG_LongWordToStrWithZeros_output+0 
	MOVLW       hi_addr(_t+0)
	MOVWF       FARG_LongWordToStrWithZeros_output+1 
	CALL        _LongWordToStrWithZeros+0, 0
	MOVLW       ?ICS?lstr5_FirmV_0_7_0+0
	MOVWF       TBLPTRL 
	MOVLW       hi_addr(?ICS?lstr5_FirmV_0_7_0+0)
	MOVWF       TBLPTRH 
	MOVLW       higher_addr(?ICS?lstr5_FirmV_0_7_0+0)
	MOVWF       TBLPTRU 
	MOVLW       ?lstr5_FirmV_0_7_0+0
	MOVWF       FSR1L 
	MOVLW       hi_addr(?lstr5_FirmV_0_7_0+0)
	MOVWF       FSR1H 
	MOVLW       16
	MOVWF       R0 
	MOVLW       1
	MOVWF       R1 
	CALL        ___CC2DW+0, 0
	MOVLW       ?lstr5_FirmV_0_7_0+0
	MOVWF       FARG_Logger_text+0 
	MOVLW       hi_addr(?lstr5_FirmV_0_7_0+0)
	MOVWF       FARG_Logger_text+1 
	CALL        _Logger+0, 0
	MOVLW       _t+0
	MOVWF       FARG_Logger_text+0 
	MOVLW       hi_addr(_t+0)
	MOVWF       FARG_Logger_text+1 
	CALL        _Logger+0, 0
	GOTO        L_State2124
L_State2123:
;FirmV_0_7_0.c,719 :: 		{temp=ms500+CloseAfterPass;AddTask(temp,9);PassFlag=0;longwordtostrwithzeros(temp,t);Logger("S2 Insert 9 at:");Logger(t);}
	MOVF        _CloseAfterPass+0, 0 
	ADDWF       _ms500+0, 0 
	MOVWF       R0 
	MOVLW       0
	ADDWFC      _ms500+1, 0 
	MOVWF       R1 
	MOVLW       0
	ADDWFC      _ms500+2, 0 
	MOVWF       R2 
	MOVLW       0
	ADDWFC      _ms500+3, 0 
	MOVWF       R3 
	MOVF        R0, 0 
	MOVWF       _temp+0 
	MOVF        R1, 0 
	MOVWF       _temp+1 
	MOVF        R2, 0 
	MOVWF       _temp+2 
	MOVF        R3, 0 
	MOVWF       _temp+3 
	MOVF        R0, 0 
	MOVWF       FARG_AddTask+0 
	MOVF        R1, 0 
	MOVWF       FARG_AddTask+1 
	MOVF        R2, 0 
	MOVWF       FARG_AddTask+2 
	MOVF        R3, 0 
	MOVWF       FARG_AddTask+3 
	MOVLW       9
	MOVWF       FARG_AddTask+0 
	CALL        _AddTask+0, 0
	CLRF        _PassFlag+0 
	MOVF        _temp+0, 0 
	MOVWF       FARG_LongWordToStrWithZeros_input+0 
	MOVF        _temp+1, 0 
	MOVWF       FARG_LongWordToStrWithZeros_input+1 
	MOVF        _temp+2, 0 
	MOVWF       FARG_LongWordToStrWithZeros_input+2 
	MOVF        _temp+3, 0 
	MOVWF       FARG_LongWordToStrWithZeros_input+3 
	MOVLW       _t+0
	MOVWF       FARG_LongWordToStrWithZeros_output+0 
	MOVLW       hi_addr(_t+0)
	MOVWF       FARG_LongWordToStrWithZeros_output+1 
	CALL        _LongWordToStrWithZeros+0, 0
	MOVLW       ?ICS?lstr6_FirmV_0_7_0+0
	MOVWF       TBLPTRL 
	MOVLW       hi_addr(?ICS?lstr6_FirmV_0_7_0+0)
	MOVWF       TBLPTRH 
	MOVLW       higher_addr(?ICS?lstr6_FirmV_0_7_0+0)
	MOVWF       TBLPTRU 
	MOVLW       ?lstr6_FirmV_0_7_0+0
	MOVWF       FSR1L 
	MOVLW       hi_addr(?lstr6_FirmV_0_7_0+0)
	MOVWF       FSR1H 
	MOVLW       16
	MOVWF       R0 
	MOVLW       1
	MOVWF       R1 
	CALL        ___CC2DW+0, 0
	MOVLW       ?lstr6_FirmV_0_7_0+0
	MOVWF       FARG_Logger_text+0 
	MOVLW       hi_addr(?lstr6_FirmV_0_7_0+0)
	MOVWF       FARG_Logger_text+1 
	CALL        _Logger+0, 0
	MOVLW       _t+0
	MOVWF       FARG_Logger_text+0 
	MOVLW       hi_addr(_t+0)
	MOVWF       FARG_Logger_text+1 
	CALL        _Logger+0, 0
L_State2124:
L_State2122:
;FirmV_0_7_0.c,721 :: 		}
	RETURN      0
; end of _State2

_State3:

;FirmV_0_7_0.c,736 :: 		void State3()
;FirmV_0_7_0.c,738 :: 		Flasher=1;
	BSF         PORTD+0, 7 
;FirmV_0_7_0.c,739 :: 		FlashFlag=1;
	MOVLW       1
	MOVWF       _FlashFlag+0 
;FirmV_0_7_0.c,741 :: 		if(CheckTask(1))
	MOVLW       1
	MOVWF       FARG_CheckTask+0 
	CALL        _CheckTask+0, 0
	MOVF        R0, 1 
	BTFSC       STATUS+0, 2 
	GOTO        L_State3125
;FirmV_0_7_0.c,742 :: 		{StartMotor(1,_Open);Logger("S3 Motor1Start"); Lock=0;memcpy(LCDLine1,_opening,16);memcpy(LCDLine2,_Blank,16);LCDUpdateFlag=1;LCDLines=1;}
	MOVLW       1
	MOVWF       FARG_StartMotor+0 
	MOVLW       1
	MOVWF       FARG_StartMotor+0 
	CALL        _StartMotor+0, 0
	MOVLW       83
	MOVWF       ?lstr7_FirmV_0_7_0+0 
	MOVLW       51
	MOVWF       ?lstr7_FirmV_0_7_0+1 
	MOVLW       32
	MOVWF       ?lstr7_FirmV_0_7_0+2 
	MOVLW       77
	MOVWF       ?lstr7_FirmV_0_7_0+3 
	MOVLW       111
	MOVWF       ?lstr7_FirmV_0_7_0+4 
	MOVLW       116
	MOVWF       ?lstr7_FirmV_0_7_0+5 
	MOVLW       111
	MOVWF       ?lstr7_FirmV_0_7_0+6 
	MOVLW       114
	MOVWF       ?lstr7_FirmV_0_7_0+7 
	MOVLW       49
	MOVWF       ?lstr7_FirmV_0_7_0+8 
	MOVLW       83
	MOVWF       ?lstr7_FirmV_0_7_0+9 
	MOVLW       116
	MOVWF       ?lstr7_FirmV_0_7_0+10 
	MOVLW       97
	MOVWF       ?lstr7_FirmV_0_7_0+11 
	MOVLW       114
	MOVWF       ?lstr7_FirmV_0_7_0+12 
	MOVLW       116
	MOVWF       ?lstr7_FirmV_0_7_0+13 
	CLRF        ?lstr7_FirmV_0_7_0+14 
	MOVLW       ?lstr7_FirmV_0_7_0+0
	MOVWF       FARG_Logger_text+0 
	MOVLW       hi_addr(?lstr7_FirmV_0_7_0+0)
	MOVWF       FARG_Logger_text+1 
	CALL        _Logger+0, 0
	BCF         PORTD+0, 6 
	MOVLW       _LCDLine1+0
	MOVWF       FARG_memcpy_d1+0 
	MOVLW       hi_addr(_LCDLine1+0)
	MOVWF       FARG_memcpy_d1+1 
	MOVLW       __opening+0
	MOVWF       FARG_memcpy_s1+0 
	MOVLW       hi_addr(__opening+0)
	MOVWF       FARG_memcpy_s1+1 
	MOVLW       16
	MOVWF       FARG_memcpy_n+0 
	MOVLW       0
	MOVWF       FARG_memcpy_n+1 
	CALL        _memcpy+0, 0
	MOVLW       _LCDLine2+0
	MOVWF       FARG_memcpy_d1+0 
	MOVLW       hi_addr(_LCDLine2+0)
	MOVWF       FARG_memcpy_d1+1 
	MOVLW       __Blank+0
	MOVWF       FARG_memcpy_s1+0 
	MOVLW       hi_addr(__Blank+0)
	MOVWF       FARG_memcpy_s1+1 
	MOVLW       16
	MOVWF       FARG_memcpy_n+0 
	MOVLW       0
	MOVWF       FARG_memcpy_n+1 
	CALL        _memcpy+0, 0
	MOVLW       1
	MOVWF       _LCDUpdateFlag+0 
	MOVLW       1
	MOVWF       _LCDLines+0 
L_State3125:
;FirmV_0_7_0.c,744 :: 		if(CheckTask(2))
	MOVLW       2
	MOVWF       FARG_CheckTask+0 
	CALL        _CheckTask+0, 0
	MOVF        R0, 1 
	BTFSC       STATUS+0, 2 
	GOTO        L_State3126
;FirmV_0_7_0.c,745 :: 		{StartMotor(2,_Open);Logger("S3 Motor2Start"); Lock=0;}
	MOVLW       2
	MOVWF       FARG_StartMotor+0 
	MOVLW       1
	MOVWF       FARG_StartMotor+0 
	CALL        _StartMotor+0, 0
	MOVLW       83
	MOVWF       ?lstr8_FirmV_0_7_0+0 
	MOVLW       51
	MOVWF       ?lstr8_FirmV_0_7_0+1 
	MOVLW       32
	MOVWF       ?lstr8_FirmV_0_7_0+2 
	MOVLW       77
	MOVWF       ?lstr8_FirmV_0_7_0+3 
	MOVLW       111
	MOVWF       ?lstr8_FirmV_0_7_0+4 
	MOVLW       116
	MOVWF       ?lstr8_FirmV_0_7_0+5 
	MOVLW       111
	MOVWF       ?lstr8_FirmV_0_7_0+6 
	MOVLW       114
	MOVWF       ?lstr8_FirmV_0_7_0+7 
	MOVLW       50
	MOVWF       ?lstr8_FirmV_0_7_0+8 
	MOVLW       83
	MOVWF       ?lstr8_FirmV_0_7_0+9 
	MOVLW       116
	MOVWF       ?lstr8_FirmV_0_7_0+10 
	MOVLW       97
	MOVWF       ?lstr8_FirmV_0_7_0+11 
	MOVLW       114
	MOVWF       ?lstr8_FirmV_0_7_0+12 
	MOVLW       116
	MOVWF       ?lstr8_FirmV_0_7_0+13 
	CLRF        ?lstr8_FirmV_0_7_0+14 
	MOVLW       ?lstr8_FirmV_0_7_0+0
	MOVWF       FARG_Logger_text+0 
	MOVLW       hi_addr(?lstr8_FirmV_0_7_0+0)
	MOVWF       FARG_Logger_text+1 
	CALL        _Logger+0, 0
	BCF         PORTD+0, 6 
L_State3126:
;FirmV_0_7_0.c,747 :: 		if(CheckTask(5))
	MOVLW       5
	MOVWF       FARG_CheckTask+0 
	CALL        _CheckTask+0, 0
	MOVF        R0, 1 
	BTFSC       STATUS+0, 2 
	GOTO        L_State3127
;FirmV_0_7_0.c,748 :: 		{SetMotorSpeed(1,Motor2FullSpeed);OverloadCheckFlag1=0; M1isSlow=0;Logger("S3 Motor1 Fast");}
	MOVLW       1
	MOVWF       FARG_SetMotorSpeed+0 
	MOVF        _Motor2FullSpeed+0, 0 
	MOVWF       FARG_SetMotorSpeed+0 
	CALL        _SetMotorSpeed+0, 0
	CLRF        _OverloadCheckFlag1+0 
	CLRF        _M1isSlow+0 
	MOVLW       83
	MOVWF       ?lstr9_FirmV_0_7_0+0 
	MOVLW       51
	MOVWF       ?lstr9_FirmV_0_7_0+1 
	MOVLW       32
	MOVWF       ?lstr9_FirmV_0_7_0+2 
	MOVLW       77
	MOVWF       ?lstr9_FirmV_0_7_0+3 
	MOVLW       111
	MOVWF       ?lstr9_FirmV_0_7_0+4 
	MOVLW       116
	MOVWF       ?lstr9_FirmV_0_7_0+5 
	MOVLW       111
	MOVWF       ?lstr9_FirmV_0_7_0+6 
	MOVLW       114
	MOVWF       ?lstr9_FirmV_0_7_0+7 
	MOVLW       49
	MOVWF       ?lstr9_FirmV_0_7_0+8 
	MOVLW       32
	MOVWF       ?lstr9_FirmV_0_7_0+9 
	MOVLW       70
	MOVWF       ?lstr9_FirmV_0_7_0+10 
	MOVLW       97
	MOVWF       ?lstr9_FirmV_0_7_0+11 
	MOVLW       115
	MOVWF       ?lstr9_FirmV_0_7_0+12 
	MOVLW       116
	MOVWF       ?lstr9_FirmV_0_7_0+13 
	CLRF        ?lstr9_FirmV_0_7_0+14 
	MOVLW       ?lstr9_FirmV_0_7_0+0
	MOVWF       FARG_Logger_text+0 
	MOVLW       hi_addr(?lstr9_FirmV_0_7_0+0)
	MOVWF       FARG_Logger_text+1 
	CALL        _Logger+0, 0
L_State3127:
;FirmV_0_7_0.c,750 :: 		if(CheckTask(7))
	MOVLW       7
	MOVWF       FARG_CheckTask+0 
	CALL        _CheckTask+0, 0
	MOVF        R0, 1 
	BTFSC       STATUS+0, 2 
	GOTO        L_State3128
;FirmV_0_7_0.c,751 :: 		{SetMotorSpeed(0,Motor2FullSpeed); M1isSlow=1;Logger("S3 Motor1 Slow");}
	CLRF        FARG_SetMotorSpeed+0 
	MOVF        _Motor2FullSpeed+0, 0 
	MOVWF       FARG_SetMotorSpeed+0 
	CALL        _SetMotorSpeed+0, 0
	MOVLW       1
	MOVWF       _M1isSlow+0 
	MOVLW       83
	MOVWF       ?lstr10_FirmV_0_7_0+0 
	MOVLW       51
	MOVWF       ?lstr10_FirmV_0_7_0+1 
	MOVLW       32
	MOVWF       ?lstr10_FirmV_0_7_0+2 
	MOVLW       77
	MOVWF       ?lstr10_FirmV_0_7_0+3 
	MOVLW       111
	MOVWF       ?lstr10_FirmV_0_7_0+4 
	MOVLW       116
	MOVWF       ?lstr10_FirmV_0_7_0+5 
	MOVLW       111
	MOVWF       ?lstr10_FirmV_0_7_0+6 
	MOVLW       114
	MOVWF       ?lstr10_FirmV_0_7_0+7 
	MOVLW       49
	MOVWF       ?lstr10_FirmV_0_7_0+8 
	MOVLW       32
	MOVWF       ?lstr10_FirmV_0_7_0+9 
	MOVLW       83
	MOVWF       ?lstr10_FirmV_0_7_0+10 
	MOVLW       108
	MOVWF       ?lstr10_FirmV_0_7_0+11 
	MOVLW       111
	MOVWF       ?lstr10_FirmV_0_7_0+12 
	MOVLW       119
	MOVWF       ?lstr10_FirmV_0_7_0+13 
	CLRF        ?lstr10_FirmV_0_7_0+14 
	MOVLW       ?lstr10_FirmV_0_7_0+0
	MOVWF       FARG_Logger_text+0 
	MOVLW       hi_addr(?lstr10_FirmV_0_7_0+0)
	MOVWF       FARG_Logger_text+1 
	CALL        _Logger+0, 0
L_State3128:
;FirmV_0_7_0.c,753 :: 		if(CheckTask(6))
	MOVLW       6
	MOVWF       FARG_CheckTask+0 
	CALL        _CheckTask+0, 0
	MOVF        R0, 1 
	BTFSC       STATUS+0, 2 
	GOTO        L_State3129
;FirmV_0_7_0.c,754 :: 		{SetMotorSpeed(Motor1FullSpeed,1);OverloadCheckFlag2=0; M2isSlow=0;Logger("S3 Motor2 Fast");}
	MOVF        _Motor1FullSpeed+0, 0 
	MOVWF       FARG_SetMotorSpeed+0 
	MOVLW       1
	MOVWF       FARG_SetMotorSpeed+0 
	CALL        _SetMotorSpeed+0, 0
	CLRF        _OverloadCheckFlag2+0 
	CLRF        _M2isSlow+0 
	MOVLW       83
	MOVWF       ?lstr11_FirmV_0_7_0+0 
	MOVLW       51
	MOVWF       ?lstr11_FirmV_0_7_0+1 
	MOVLW       32
	MOVWF       ?lstr11_FirmV_0_7_0+2 
	MOVLW       77
	MOVWF       ?lstr11_FirmV_0_7_0+3 
	MOVLW       111
	MOVWF       ?lstr11_FirmV_0_7_0+4 
	MOVLW       116
	MOVWF       ?lstr11_FirmV_0_7_0+5 
	MOVLW       111
	MOVWF       ?lstr11_FirmV_0_7_0+6 
	MOVLW       114
	MOVWF       ?lstr11_FirmV_0_7_0+7 
	MOVLW       50
	MOVWF       ?lstr11_FirmV_0_7_0+8 
	MOVLW       32
	MOVWF       ?lstr11_FirmV_0_7_0+9 
	MOVLW       70
	MOVWF       ?lstr11_FirmV_0_7_0+10 
	MOVLW       97
	MOVWF       ?lstr11_FirmV_0_7_0+11 
	MOVLW       115
	MOVWF       ?lstr11_FirmV_0_7_0+12 
	MOVLW       116
	MOVWF       ?lstr11_FirmV_0_7_0+13 
	CLRF        ?lstr11_FirmV_0_7_0+14 
	MOVLW       ?lstr11_FirmV_0_7_0+0
	MOVWF       FARG_Logger_text+0 
	MOVLW       hi_addr(?lstr11_FirmV_0_7_0+0)
	MOVWF       FARG_Logger_text+1 
	CALL        _Logger+0, 0
L_State3129:
;FirmV_0_7_0.c,756 :: 		if(CheckTask(8))
	MOVLW       8
	MOVWF       FARG_CheckTask+0 
	CALL        _CheckTask+0, 0
	MOVF        R0, 1 
	BTFSC       STATUS+0, 2 
	GOTO        L_State3130
;FirmV_0_7_0.c,757 :: 		{SetMotorSpeed(Motor1FullSpeed,0); M2isSlow=1;Logger("S3 Motor2 Slow");}
	MOVF        _Motor1FullSpeed+0, 0 
	MOVWF       FARG_SetMotorSpeed+0 
	CLRF        FARG_SetMotorSpeed+0 
	CALL        _SetMotorSpeed+0, 0
	MOVLW       1
	MOVWF       _M2isSlow+0 
	MOVLW       83
	MOVWF       ?lstr12_FirmV_0_7_0+0 
	MOVLW       51
	MOVWF       ?lstr12_FirmV_0_7_0+1 
	MOVLW       32
	MOVWF       ?lstr12_FirmV_0_7_0+2 
	MOVLW       77
	MOVWF       ?lstr12_FirmV_0_7_0+3 
	MOVLW       111
	MOVWF       ?lstr12_FirmV_0_7_0+4 
	MOVLW       116
	MOVWF       ?lstr12_FirmV_0_7_0+5 
	MOVLW       111
	MOVWF       ?lstr12_FirmV_0_7_0+6 
	MOVLW       114
	MOVWF       ?lstr12_FirmV_0_7_0+7 
	MOVLW       50
	MOVWF       ?lstr12_FirmV_0_7_0+8 
	MOVLW       32
	MOVWF       ?lstr12_FirmV_0_7_0+9 
	MOVLW       83
	MOVWF       ?lstr12_FirmV_0_7_0+10 
	MOVLW       108
	MOVWF       ?lstr12_FirmV_0_7_0+11 
	MOVLW       111
	MOVWF       ?lstr12_FirmV_0_7_0+12 
	MOVLW       119
	MOVWF       ?lstr12_FirmV_0_7_0+13 
	CLRF        ?lstr12_FirmV_0_7_0+14 
	MOVLW       ?lstr12_FirmV_0_7_0+0
	MOVWF       FARG_Logger_text+0 
	MOVLW       hi_addr(?lstr12_FirmV_0_7_0+0)
	MOVWF       FARG_Logger_text+1 
	CALL        _Logger+0, 0
L_State3130:
;FirmV_0_7_0.c,759 :: 		if(CheckTask(10))
	MOVLW       10
	MOVWF       FARG_CheckTask+0 
	CALL        _CheckTask+0, 0
	MOVF        R0, 1 
	BTFSC       STATUS+0, 2 
	GOTO        L_State3131
;FirmV_0_7_0.c,760 :: 		{OverloadCheckFlag1=1; OverloadInit(1);Logger("S3 Overflow Flag1 Set");}
	MOVLW       1
	MOVWF       _OverloadCheckFlag1+0 
	MOVLW       1
	MOVWF       FARG_OverloadInit+0 
	CALL        _OverloadInit+0, 0
	MOVLW       ?ICS?lstr13_FirmV_0_7_0+0
	MOVWF       TBLPTRL 
	MOVLW       hi_addr(?ICS?lstr13_FirmV_0_7_0+0)
	MOVWF       TBLPTRH 
	MOVLW       higher_addr(?ICS?lstr13_FirmV_0_7_0+0)
	MOVWF       TBLPTRU 
	MOVLW       ?lstr13_FirmV_0_7_0+0
	MOVWF       FSR1L 
	MOVLW       hi_addr(?lstr13_FirmV_0_7_0+0)
	MOVWF       FSR1H 
	MOVLW       22
	MOVWF       R0 
	MOVLW       1
	MOVWF       R1 
	CALL        ___CC2DW+0, 0
	MOVLW       ?lstr13_FirmV_0_7_0+0
	MOVWF       FARG_Logger_text+0 
	MOVLW       hi_addr(?lstr13_FirmV_0_7_0+0)
	MOVWF       FARG_Logger_text+1 
	CALL        _Logger+0, 0
L_State3131:
;FirmV_0_7_0.c,762 :: 		if(CheckTask(11))
	MOVLW       11
	MOVWF       FARG_CheckTask+0 
	CALL        _CheckTask+0, 0
	MOVF        R0, 1 
	BTFSC       STATUS+0, 2 
	GOTO        L_State3132
;FirmV_0_7_0.c,763 :: 		{OverloadCheckFlag2=1; OverloadInit(2);Logger("S3 Overflow Flag2 Set");}
	MOVLW       1
	MOVWF       _OverloadCheckFlag2+0 
	MOVLW       2
	MOVWF       FARG_OverloadInit+0 
	CALL        _OverloadInit+0, 0
	MOVLW       ?ICS?lstr14_FirmV_0_7_0+0
	MOVWF       TBLPTRL 
	MOVLW       hi_addr(?ICS?lstr14_FirmV_0_7_0+0)
	MOVWF       TBLPTRH 
	MOVLW       higher_addr(?ICS?lstr14_FirmV_0_7_0+0)
	MOVWF       TBLPTRU 
	MOVLW       ?lstr14_FirmV_0_7_0+0
	MOVWF       FSR1L 
	MOVLW       hi_addr(?lstr14_FirmV_0_7_0+0)
	MOVWF       FSR1H 
	MOVLW       22
	MOVWF       R0 
	MOVLW       1
	MOVWF       R1 
	CALL        ___CC2DW+0, 0
	MOVLW       ?lstr14_FirmV_0_7_0+0
	MOVWF       FARG_Logger_text+0 
	MOVLW       hi_addr(?lstr14_FirmV_0_7_0+0)
	MOVWF       FARG_Logger_text+1 
	CALL        _Logger+0, 0
L_State3132:
;FirmV_0_7_0.c,765 :: 		if(CheckTask(3))
	MOVLW       3
	MOVWF       FARG_CheckTask+0 
	CALL        _CheckTask+0, 0
	MOVF        R0, 1 
	BTFSC       STATUS+0, 2 
	GOTO        L_State3133
;FirmV_0_7_0.c,766 :: 		{OpenDone.b0=0; StopMotor(1);Logger("S3 Motor1 Stop");}
	BCF         _OpenDone+0, 0 
	MOVLW       1
	MOVWF       FARG_StopMotor+0 
	CALL        _StopMotor+0, 0
	MOVLW       83
	MOVWF       ?lstr15_FirmV_0_7_0+0 
	MOVLW       51
	MOVWF       ?lstr15_FirmV_0_7_0+1 
	MOVLW       32
	MOVWF       ?lstr15_FirmV_0_7_0+2 
	MOVLW       77
	MOVWF       ?lstr15_FirmV_0_7_0+3 
	MOVLW       111
	MOVWF       ?lstr15_FirmV_0_7_0+4 
	MOVLW       116
	MOVWF       ?lstr15_FirmV_0_7_0+5 
	MOVLW       111
	MOVWF       ?lstr15_FirmV_0_7_0+6 
	MOVLW       114
	MOVWF       ?lstr15_FirmV_0_7_0+7 
	MOVLW       49
	MOVWF       ?lstr15_FirmV_0_7_0+8 
	MOVLW       32
	MOVWF       ?lstr15_FirmV_0_7_0+9 
	MOVLW       83
	MOVWF       ?lstr15_FirmV_0_7_0+10 
	MOVLW       116
	MOVWF       ?lstr15_FirmV_0_7_0+11 
	MOVLW       111
	MOVWF       ?lstr15_FirmV_0_7_0+12 
	MOVLW       112
	MOVWF       ?lstr15_FirmV_0_7_0+13 
	CLRF        ?lstr15_FirmV_0_7_0+14 
	MOVLW       ?lstr15_FirmV_0_7_0+0
	MOVWF       FARG_Logger_text+0 
	MOVLW       hi_addr(?lstr15_FirmV_0_7_0+0)
	MOVWF       FARG_Logger_text+1 
	CALL        _Logger+0, 0
L_State3133:
;FirmV_0_7_0.c,768 :: 		if(CheckTask(4))
	MOVLW       4
	MOVWF       FARG_CheckTask+0 
	CALL        _CheckTask+0, 0
	MOVF        R0, 1 
	BTFSC       STATUS+0, 2 
	GOTO        L_State3134
;FirmV_0_7_0.c,769 :: 		{OpenDone.b1=0; StopMotor(2);Logger("S3 Motor2 Stop");}
	BCF         _OpenDone+0, 1 
	MOVLW       2
	MOVWF       FARG_StopMotor+0 
	CALL        _StopMotor+0, 0
	MOVLW       83
	MOVWF       ?lstr16_FirmV_0_7_0+0 
	MOVLW       51
	MOVWF       ?lstr16_FirmV_0_7_0+1 
	MOVLW       32
	MOVWF       ?lstr16_FirmV_0_7_0+2 
	MOVLW       77
	MOVWF       ?lstr16_FirmV_0_7_0+3 
	MOVLW       111
	MOVWF       ?lstr16_FirmV_0_7_0+4 
	MOVLW       116
	MOVWF       ?lstr16_FirmV_0_7_0+5 
	MOVLW       111
	MOVWF       ?lstr16_FirmV_0_7_0+6 
	MOVLW       114
	MOVWF       ?lstr16_FirmV_0_7_0+7 
	MOVLW       50
	MOVWF       ?lstr16_FirmV_0_7_0+8 
	MOVLW       32
	MOVWF       ?lstr16_FirmV_0_7_0+9 
	MOVLW       83
	MOVWF       ?lstr16_FirmV_0_7_0+10 
	MOVLW       116
	MOVWF       ?lstr16_FirmV_0_7_0+11 
	MOVLW       111
	MOVWF       ?lstr16_FirmV_0_7_0+12 
	MOVLW       112
	MOVWF       ?lstr16_FirmV_0_7_0+13 
	CLRF        ?lstr16_FirmV_0_7_0+14 
	MOVLW       ?lstr16_FirmV_0_7_0+0
	MOVWF       FARG_Logger_text+0 
	MOVLW       hi_addr(?lstr16_FirmV_0_7_0+0)
	MOVWF       FARG_Logger_text+1 
	CALL        _Logger+0, 0
L_State3134:
;FirmV_0_7_0.c,771 :: 		if(CheckTask(12))
	MOVLW       12
	MOVWF       FARG_CheckTask+0 
	CALL        _CheckTask+0, 0
	MOVF        R0, 1 
	BTFSC       STATUS+0, 2 
	GOTO        L_State3135
;FirmV_0_7_0.c,772 :: 		{Lock=1;}
	BSF         PORTD+0, 6 
L_State3135:
;FirmV_0_7_0.c,774 :: 		if((OverloadCheckFlag1==1)&&(Events.Overload.b0==1)&&(M1isSlow==0))
	MOVF        _OverloadCheckFlag1+0, 0 
	XORLW       1
	BTFSS       STATUS+0, 2 
	GOTO        L_State3138
	BTFSS       _Events+5, 0 
	GOTO        L_State3138
	MOVF        _M1isSlow+0, 0 
	XORLW       0
	BTFSS       STATUS+0, 2 
	GOTO        L_State3138
L__State3714:
;FirmV_0_7_0.c,775 :: 		{StopMotor(1); StopMotor(2); State=5;OverloadCheckFlag1=0;OverloadCheckFlag2=0;Logger("S3 Motor1 Collision");ClearTasks(9);
	MOVLW       1
	MOVWF       FARG_StopMotor+0 
	CALL        _StopMotor+0, 0
	MOVLW       2
	MOVWF       FARG_StopMotor+0 
	CALL        _StopMotor+0, 0
	MOVLW       5
	MOVWF       _State+0 
	CLRF        _OverloadCheckFlag1+0 
	CLRF        _OverloadCheckFlag2+0 
	MOVLW       ?ICS?lstr17_FirmV_0_7_0+0
	MOVWF       TBLPTRL 
	MOVLW       hi_addr(?ICS?lstr17_FirmV_0_7_0+0)
	MOVWF       TBLPTRH 
	MOVLW       higher_addr(?ICS?lstr17_FirmV_0_7_0+0)
	MOVWF       TBLPTRU 
	MOVLW       ?lstr17_FirmV_0_7_0+0
	MOVWF       FSR1L 
	MOVLW       hi_addr(?lstr17_FirmV_0_7_0+0)
	MOVWF       FSR1H 
	MOVLW       20
	MOVWF       R0 
	MOVLW       1
	MOVWF       R1 
	CALL        ___CC2DW+0, 0
	MOVLW       ?lstr17_FirmV_0_7_0+0
	MOVWF       FARG_Logger_text+0 
	MOVLW       hi_addr(?lstr17_FirmV_0_7_0+0)
	MOVWF       FARG_Logger_text+1 
	CALL        _Logger+0, 0
	MOVLW       9
	MOVWF       FARG_ClearTasks+0 
	CALL        _ClearTasks+0, 0
;FirmV_0_7_0.c,776 :: 		memcpy(LCDLine1,_stop,16);memcpy(LCDLine2,_ErrOverload,16);LCDUpdateFlag=1;LCDLines=2;}
	MOVLW       _LCDLine1+0
	MOVWF       FARG_memcpy_d1+0 
	MOVLW       hi_addr(_LCDLine1+0)
	MOVWF       FARG_memcpy_d1+1 
	MOVLW       __stop+0
	MOVWF       FARG_memcpy_s1+0 
	MOVLW       hi_addr(__stop+0)
	MOVWF       FARG_memcpy_s1+1 
	MOVLW       16
	MOVWF       FARG_memcpy_n+0 
	MOVLW       0
	MOVWF       FARG_memcpy_n+1 
	CALL        _memcpy+0, 0
	MOVLW       _LCDLine2+0
	MOVWF       FARG_memcpy_d1+0 
	MOVLW       hi_addr(_LCDLine2+0)
	MOVWF       FARG_memcpy_d1+1 
	MOVLW       __errOverload+0
	MOVWF       FARG_memcpy_s1+0 
	MOVLW       hi_addr(__errOverload+0)
	MOVWF       FARG_memcpy_s1+1 
	MOVLW       16
	MOVWF       FARG_memcpy_n+0 
	MOVLW       0
	MOVWF       FARG_memcpy_n+1 
	CALL        _memcpy+0, 0
	MOVLW       1
	MOVWF       _LCDUpdateFlag+0 
	MOVLW       2
	MOVWF       _LCDLines+0 
L_State3138:
;FirmV_0_7_0.c,778 :: 		if((OverloadCheckFlag2==1)&&(Events.Overload.b1==1)&&(M2isSlow==0))
	MOVF        _OverloadCheckFlag2+0, 0 
	XORLW       1
	BTFSS       STATUS+0, 2 
	GOTO        L_State3141
	BTFSS       _Events+5, 1 
	GOTO        L_State3141
	MOVF        _M2isSlow+0, 0 
	XORLW       0
	BTFSS       STATUS+0, 2 
	GOTO        L_State3141
L__State3713:
;FirmV_0_7_0.c,779 :: 		{StopMotor(1); StopMotor(2); State=5;OverloadCheckFlag1=0;OverloadCheckFlag2=0;Logger("S3 Motor2 Collision");ClearTasks(9);
	MOVLW       1
	MOVWF       FARG_StopMotor+0 
	CALL        _StopMotor+0, 0
	MOVLW       2
	MOVWF       FARG_StopMotor+0 
	CALL        _StopMotor+0, 0
	MOVLW       5
	MOVWF       _State+0 
	CLRF        _OverloadCheckFlag1+0 
	CLRF        _OverloadCheckFlag2+0 
	MOVLW       ?ICS?lstr18_FirmV_0_7_0+0
	MOVWF       TBLPTRL 
	MOVLW       hi_addr(?ICS?lstr18_FirmV_0_7_0+0)
	MOVWF       TBLPTRH 
	MOVLW       higher_addr(?ICS?lstr18_FirmV_0_7_0+0)
	MOVWF       TBLPTRU 
	MOVLW       ?lstr18_FirmV_0_7_0+0
	MOVWF       FSR1L 
	MOVLW       hi_addr(?lstr18_FirmV_0_7_0+0)
	MOVWF       FSR1H 
	MOVLW       20
	MOVWF       R0 
	MOVLW       1
	MOVWF       R1 
	CALL        ___CC2DW+0, 0
	MOVLW       ?lstr18_FirmV_0_7_0+0
	MOVWF       FARG_Logger_text+0 
	MOVLW       hi_addr(?lstr18_FirmV_0_7_0+0)
	MOVWF       FARG_Logger_text+1 
	CALL        _Logger+0, 0
	MOVLW       9
	MOVWF       FARG_ClearTasks+0 
	CALL        _ClearTasks+0, 0
;FirmV_0_7_0.c,780 :: 		memcpy(LCDLine1,_stop,16);memcpy(LCDLine2,_ErrOverload,16);LCDUpdateFlag=1;LCDLines=2;}
	MOVLW       _LCDLine1+0
	MOVWF       FARG_memcpy_d1+0 
	MOVLW       hi_addr(_LCDLine1+0)
	MOVWF       FARG_memcpy_d1+1 
	MOVLW       __stop+0
	MOVWF       FARG_memcpy_s1+0 
	MOVLW       hi_addr(__stop+0)
	MOVWF       FARG_memcpy_s1+1 
	MOVLW       16
	MOVWF       FARG_memcpy_n+0 
	MOVLW       0
	MOVWF       FARG_memcpy_n+1 
	CALL        _memcpy+0, 0
	MOVLW       _LCDLine2+0
	MOVWF       FARG_memcpy_d1+0 
	MOVLW       hi_addr(_LCDLine2+0)
	MOVWF       FARG_memcpy_d1+1 
	MOVLW       __errOverload+0
	MOVWF       FARG_memcpy_s1+0 
	MOVLW       hi_addr(__errOverload+0)
	MOVWF       FARG_memcpy_s1+1 
	MOVLW       16
	MOVWF       FARG_memcpy_n+0 
	MOVLW       0
	MOVWF       FARG_memcpy_n+1 
	CALL        _memcpy+0, 0
	MOVLW       1
	MOVWF       _LCDUpdateFlag+0 
	MOVLW       2
	MOVWF       _LCDLines+0 
L_State3141:
;FirmV_0_7_0.c,782 :: 		if((Door2OpenTime==0)||(ActiveDoors==1))
	MOVF        _Door2OpenTime+0, 0 
	XORLW       0
	BTFSC       STATUS+0, 2 
	GOTO        L__State3712
	MOVF        _ActiveDoors+0, 0 
	XORLW       1
	BTFSC       STATUS+0, 2 
	GOTO        L__State3712
	GOTO        L_State3144
L__State3712:
;FirmV_0_7_0.c,783 :: 		OpenDone.b1=0;
	BCF         _OpenDone+0, 1 
L_State3144:
;FirmV_0_7_0.c,785 :: 		if((Events.Photocell.b0==1)&&(OpenPhEnable))
	BTFSS       _Events+6, 0 
	GOTO        L_State3147
	MOVF        _OpenPhEnable+0, 1 
	BTFSC       STATUS+0, 2 
	GOTO        L_State3147
L__State3711:
;FirmV_0_7_0.c,786 :: 		{StopMotor(1); StopMotor(2);OverloadCheckFlag1=0;OverloadCheckFlag2=0; State=5;Logger("S3 Photocell Int");ClearTasks(9);
	MOVLW       1
	MOVWF       FARG_StopMotor+0 
	CALL        _StopMotor+0, 0
	MOVLW       2
	MOVWF       FARG_StopMotor+0 
	CALL        _StopMotor+0, 0
	CLRF        _OverloadCheckFlag1+0 
	CLRF        _OverloadCheckFlag2+0 
	MOVLW       5
	MOVWF       _State+0 
	MOVLW       ?ICS?lstr19_FirmV_0_7_0+0
	MOVWF       TBLPTRL 
	MOVLW       hi_addr(?ICS?lstr19_FirmV_0_7_0+0)
	MOVWF       TBLPTRH 
	MOVLW       higher_addr(?ICS?lstr19_FirmV_0_7_0+0)
	MOVWF       TBLPTRU 
	MOVLW       ?lstr19_FirmV_0_7_0+0
	MOVWF       FSR1L 
	MOVLW       hi_addr(?lstr19_FirmV_0_7_0+0)
	MOVWF       FSR1H 
	MOVLW       17
	MOVWF       R0 
	MOVLW       1
	MOVWF       R1 
	CALL        ___CC2DW+0, 0
	MOVLW       ?lstr19_FirmV_0_7_0+0
	MOVWF       FARG_Logger_text+0 
	MOVLW       hi_addr(?lstr19_FirmV_0_7_0+0)
	MOVWF       FARG_Logger_text+1 
	CALL        _Logger+0, 0
	MOVLW       9
	MOVWF       FARG_ClearTasks+0 
	CALL        _ClearTasks+0, 0
;FirmV_0_7_0.c,787 :: 		memcpy(LCDLine1,_stop,16);memcpy(LCDLine2,_ErrPhoto,16);LCDUpdateFlag=1;LCDLines=2;}
	MOVLW       _LCDLine1+0
	MOVWF       FARG_memcpy_d1+0 
	MOVLW       hi_addr(_LCDLine1+0)
	MOVWF       FARG_memcpy_d1+1 
	MOVLW       __stop+0
	MOVWF       FARG_memcpy_s1+0 
	MOVLW       hi_addr(__stop+0)
	MOVWF       FARG_memcpy_s1+1 
	MOVLW       16
	MOVWF       FARG_memcpy_n+0 
	MOVLW       0
	MOVWF       FARG_memcpy_n+1 
	CALL        _memcpy+0, 0
	MOVLW       _LCDLine2+0
	MOVWF       FARG_memcpy_d1+0 
	MOVLW       hi_addr(_LCDLine2+0)
	MOVWF       FARG_memcpy_d1+1 
	MOVLW       __errPhoto+0
	MOVWF       FARG_memcpy_s1+0 
	MOVLW       hi_addr(__errPhoto+0)
	MOVWF       FARG_memcpy_s1+1 
	MOVLW       16
	MOVWF       FARG_memcpy_n+0 
	MOVLW       0
	MOVWF       FARG_memcpy_n+1 
	CALL        _memcpy+0, 0
	MOVLW       1
	MOVWF       _LCDUpdateFlag+0 
	MOVLW       2
	MOVWF       _LCDLines+0 
L_State3147:
;FirmV_0_7_0.c,789 :: 		if(Events.Remote!=0)
	MOVF        _Events+4, 0 
	XORLW       0
	BTFSC       STATUS+0, 2 
	GOTO        L_State3148
;FirmV_0_7_0.c,790 :: 		{StopMotor(1); StopMotor(2);OverloadCheckFlag1=0;OverloadCheckFlag2=0; State=5;Logger("S3 Remote Stoped");ClearTasks(9);
	MOVLW       1
	MOVWF       FARG_StopMotor+0 
	CALL        _StopMotor+0, 0
	MOVLW       2
	MOVWF       FARG_StopMotor+0 
	CALL        _StopMotor+0, 0
	CLRF        _OverloadCheckFlag1+0 
	CLRF        _OverloadCheckFlag2+0 
	MOVLW       5
	MOVWF       _State+0 
	MOVLW       ?ICS?lstr20_FirmV_0_7_0+0
	MOVWF       TBLPTRL 
	MOVLW       hi_addr(?ICS?lstr20_FirmV_0_7_0+0)
	MOVWF       TBLPTRH 
	MOVLW       higher_addr(?ICS?lstr20_FirmV_0_7_0+0)
	MOVWF       TBLPTRU 
	MOVLW       ?lstr20_FirmV_0_7_0+0
	MOVWF       FSR1L 
	MOVLW       hi_addr(?lstr20_FirmV_0_7_0+0)
	MOVWF       FSR1H 
	MOVLW       17
	MOVWF       R0 
	MOVLW       1
	MOVWF       R1 
	CALL        ___CC2DW+0, 0
	MOVLW       ?lstr20_FirmV_0_7_0+0
	MOVWF       FARG_Logger_text+0 
	MOVLW       hi_addr(?lstr20_FirmV_0_7_0+0)
	MOVWF       FARG_Logger_text+1 
	CALL        _Logger+0, 0
	MOVLW       9
	MOVWF       FARG_ClearTasks+0 
	CALL        _ClearTasks+0, 0
;FirmV_0_7_0.c,791 :: 		memcpy(LCDLine1,_stop,16);memcpy(LCDLine2,_ErrRemote,16);LCDUpdateFlag=1;LCDLines=2;}
	MOVLW       _LCDLine1+0
	MOVWF       FARG_memcpy_d1+0 
	MOVLW       hi_addr(_LCDLine1+0)
	MOVWF       FARG_memcpy_d1+1 
	MOVLW       __stop+0
	MOVWF       FARG_memcpy_s1+0 
	MOVLW       hi_addr(__stop+0)
	MOVWF       FARG_memcpy_s1+1 
	MOVLW       16
	MOVWF       FARG_memcpy_n+0 
	MOVLW       0
	MOVWF       FARG_memcpy_n+1 
	CALL        _memcpy+0, 0
	MOVLW       _LCDLine2+0
	MOVWF       FARG_memcpy_d1+0 
	MOVLW       hi_addr(_LCDLine2+0)
	MOVWF       FARG_memcpy_d1+1 
	MOVLW       __errRemote+0
	MOVWF       FARG_memcpy_s1+0 
	MOVLW       hi_addr(__errRemote+0)
	MOVWF       FARG_memcpy_s1+1 
	MOVLW       16
	MOVWF       FARG_memcpy_n+0 
	MOVLW       0
	MOVWF       FARG_memcpy_n+1 
	CALL        _memcpy+0, 0
	MOVLW       1
	MOVWF       _LCDUpdateFlag+0 
	MOVLW       2
	MOVWF       _LCDLines+0 
L_State3148:
;FirmV_0_7_0.c,793 :: 		if((Events.Limiter==1)&&(LimiterEnable))
	MOVF        _Events+7, 0 
	XORLW       1
	BTFSS       STATUS+0, 2 
	GOTO        L_State3151
	MOVF        _LimiterEnable+0, 1 
	BTFSC       STATUS+0, 2 
	GOTO        L_State3151
L__State3710:
;FirmV_0_7_0.c,794 :: 		{StopMotor(1); StopMotor(2);OverloadCheckFlag1=0;OverloadCheckFlag2=0; State=5;Logger("S3 Limit Switch Stoped");ClearTasks(9);
	MOVLW       1
	MOVWF       FARG_StopMotor+0 
	CALL        _StopMotor+0, 0
	MOVLW       2
	MOVWF       FARG_StopMotor+0 
	CALL        _StopMotor+0, 0
	CLRF        _OverloadCheckFlag1+0 
	CLRF        _OverloadCheckFlag2+0 
	MOVLW       5
	MOVWF       _State+0 
	MOVLW       ?ICS?lstr21_FirmV_0_7_0+0
	MOVWF       TBLPTRL 
	MOVLW       hi_addr(?ICS?lstr21_FirmV_0_7_0+0)
	MOVWF       TBLPTRH 
	MOVLW       higher_addr(?ICS?lstr21_FirmV_0_7_0+0)
	MOVWF       TBLPTRU 
	MOVLW       ?lstr21_FirmV_0_7_0+0
	MOVWF       FSR1L 
	MOVLW       hi_addr(?lstr21_FirmV_0_7_0+0)
	MOVWF       FSR1H 
	MOVLW       23
	MOVWF       R0 
	MOVLW       1
	MOVWF       R1 
	CALL        ___CC2DW+0, 0
	MOVLW       ?lstr21_FirmV_0_7_0+0
	MOVWF       FARG_Logger_text+0 
	MOVLW       hi_addr(?lstr21_FirmV_0_7_0+0)
	MOVWF       FARG_Logger_text+1 
	CALL        _Logger+0, 0
	MOVLW       9
	MOVWF       FARG_ClearTasks+0 
	CALL        _ClearTasks+0, 0
;FirmV_0_7_0.c,795 :: 		memcpy(LCDLine1,_stop,16);memcpy(LCDLine2,_ErrLimit,16);LCDUpdateFlag=1;LCDLines=2;}
	MOVLW       _LCDLine1+0
	MOVWF       FARG_memcpy_d1+0 
	MOVLW       hi_addr(_LCDLine1+0)
	MOVWF       FARG_memcpy_d1+1 
	MOVLW       __stop+0
	MOVWF       FARG_memcpy_s1+0 
	MOVLW       hi_addr(__stop+0)
	MOVWF       FARG_memcpy_s1+1 
	MOVLW       16
	MOVWF       FARG_memcpy_n+0 
	MOVLW       0
	MOVWF       FARG_memcpy_n+1 
	CALL        _memcpy+0, 0
	MOVLW       _LCDLine2+0
	MOVWF       FARG_memcpy_d1+0 
	MOVLW       hi_addr(_LCDLine2+0)
	MOVWF       FARG_memcpy_d1+1 
	MOVLW       __errLimit+0
	MOVWF       FARG_memcpy_s1+0 
	MOVLW       hi_addr(__errLimit+0)
	MOVWF       FARG_memcpy_s1+1 
	MOVLW       16
	MOVWF       FARG_memcpy_n+0 
	MOVLW       0
	MOVWF       FARG_memcpy_n+1 
	CALL        _memcpy+0, 0
	MOVLW       1
	MOVWF       _LCDUpdateFlag+0 
	MOVLW       2
	MOVWF       _LCDLines+0 
L_State3151:
;FirmV_0_7_0.c,797 :: 		if(OpenDone==0)
	MOVF        _OpenDone+0, 0 
	XORLW       0
	BTFSS       STATUS+0, 2 
	GOTO        L_State3152
;FirmV_0_7_0.c,798 :: 		{State=2; PassFlag=0;ClearTasks(9);memcpy(LCDLine1,_open,16);memcpy(LCDLine2,_blank,16);LCDUpdateFlag=1;LCDLines=2;}
	MOVLW       2
	MOVWF       _State+0 
	CLRF        _PassFlag+0 
	MOVLW       9
	MOVWF       FARG_ClearTasks+0 
	CALL        _ClearTasks+0, 0
	MOVLW       _LCDLine1+0
	MOVWF       FARG_memcpy_d1+0 
	MOVLW       hi_addr(_LCDLine1+0)
	MOVWF       FARG_memcpy_d1+1 
	MOVLW       __open+0
	MOVWF       FARG_memcpy_s1+0 
	MOVLW       hi_addr(__open+0)
	MOVWF       FARG_memcpy_s1+1 
	MOVLW       16
	MOVWF       FARG_memcpy_n+0 
	MOVLW       0
	MOVWF       FARG_memcpy_n+1 
	CALL        _memcpy+0, 0
	MOVLW       _LCDLine2+0
	MOVWF       FARG_memcpy_d1+0 
	MOVLW       hi_addr(_LCDLine2+0)
	MOVWF       FARG_memcpy_d1+1 
	MOVLW       __Blank+0
	MOVWF       FARG_memcpy_s1+0 
	MOVLW       hi_addr(__Blank+0)
	MOVWF       FARG_memcpy_s1+1 
	MOVLW       16
	MOVWF       FARG_memcpy_n+0 
	MOVLW       0
	MOVWF       FARG_memcpy_n+1 
	CALL        _memcpy+0, 0
	MOVLW       1
	MOVWF       _LCDUpdateFlag+0 
	MOVLW       2
	MOVWF       _LCDLines+0 
L_State3152:
;FirmV_0_7_0.c,800 :: 		if((State==5)||(State==6))
	MOVF        _State+0, 0 
	XORLW       5
	BTFSC       STATUS+0, 2 
	GOTO        L__State3709
	MOVF        _State+0, 0 
	XORLW       6
	BTFSC       STATUS+0, 2 
	GOTO        L__State3709
	GOTO        L_State3155
L__State3709:
;FirmV_0_7_0.c,801 :: 		{ClearTasks(0);if(AutoCloseTime!=0){AddTask(ms500+AutoCloseTime,9);Logger("S3 Autoclose Renewed");memcpy(LCDLine2,_autoclose,16);LCDUpdateFlag=1;LCDLines=2;}}
	CLRF        FARG_ClearTasks+0 
	CALL        _ClearTasks+0, 0
	MOVLW       0
	XORWF       _AutoCloseTime+1, 0 
	BTFSS       STATUS+0, 2 
	GOTO        L__State3808
	MOVLW       0
	XORWF       _AutoCloseTime+0, 0 
L__State3808:
	BTFSC       STATUS+0, 2 
	GOTO        L_State3156
	MOVF        _AutoCloseTime+0, 0 
	ADDWF       _ms500+0, 0 
	MOVWF       FARG_AddTask+0 
	MOVF        _AutoCloseTime+1, 0 
	ADDWFC      _ms500+1, 0 
	MOVWF       FARG_AddTask+1 
	MOVLW       0
	ADDWFC      _ms500+2, 0 
	MOVWF       FARG_AddTask+2 
	MOVLW       0
	ADDWFC      _ms500+3, 0 
	MOVWF       FARG_AddTask+3 
	MOVLW       9
	MOVWF       FARG_AddTask+0 
	CALL        _AddTask+0, 0
	MOVLW       ?ICS?lstr22_FirmV_0_7_0+0
	MOVWF       TBLPTRL 
	MOVLW       hi_addr(?ICS?lstr22_FirmV_0_7_0+0)
	MOVWF       TBLPTRH 
	MOVLW       higher_addr(?ICS?lstr22_FirmV_0_7_0+0)
	MOVWF       TBLPTRU 
	MOVLW       ?lstr22_FirmV_0_7_0+0
	MOVWF       FSR1L 
	MOVLW       hi_addr(?lstr22_FirmV_0_7_0+0)
	MOVWF       FSR1H 
	MOVLW       21
	MOVWF       R0 
	MOVLW       1
	MOVWF       R1 
	CALL        ___CC2DW+0, 0
	MOVLW       ?lstr22_FirmV_0_7_0+0
	MOVWF       FARG_Logger_text+0 
	MOVLW       hi_addr(?lstr22_FirmV_0_7_0+0)
	MOVWF       FARG_Logger_text+1 
	CALL        _Logger+0, 0
	MOVLW       _LCDLine2+0
	MOVWF       FARG_memcpy_d1+0 
	MOVLW       hi_addr(_LCDLine2+0)
	MOVWF       FARG_memcpy_d1+1 
	MOVLW       __autoclose+0
	MOVWF       FARG_memcpy_s1+0 
	MOVLW       hi_addr(__autoclose+0)
	MOVWF       FARG_memcpy_s1+1 
	MOVLW       16
	MOVWF       FARG_memcpy_n+0 
	MOVLW       0
	MOVWF       FARG_memcpy_n+1 
	CALL        _memcpy+0, 0
	MOVLW       1
	MOVWF       _LCDUpdateFlag+0 
	MOVLW       2
	MOVWF       _LCDLines+0 
L_State3156:
L_State3155:
;FirmV_0_7_0.c,803 :: 		}
	RETURN      0
; end of _State3

_State4:

;FirmV_0_7_0.c,817 :: 		void State4()
;FirmV_0_7_0.c,819 :: 		Flasher=1;
	BSF         PORTD+0, 7 
;FirmV_0_7_0.c,820 :: 		FlashFlag=1;
	MOVLW       1
	MOVWF       _FlashFlag+0 
;FirmV_0_7_0.c,823 :: 		if(CheckTask(1))
	MOVLW       1
	MOVWF       FARG_CheckTask+0 
	CALL        _CheckTask+0, 0
	MOVF        R0, 1 
	BTFSC       STATUS+0, 2 
	GOTO        L_State4157
;FirmV_0_7_0.c,824 :: 		{StartMotor(1,_Close);Logger("S4 Motor1Start");}
	MOVLW       1
	MOVWF       FARG_StartMotor+0 
	CLRF        FARG_StartMotor+0 
	CALL        _StartMotor+0, 0
	MOVLW       83
	MOVWF       ?lstr23_FirmV_0_7_0+0 
	MOVLW       52
	MOVWF       ?lstr23_FirmV_0_7_0+1 
	MOVLW       32
	MOVWF       ?lstr23_FirmV_0_7_0+2 
	MOVLW       77
	MOVWF       ?lstr23_FirmV_0_7_0+3 
	MOVLW       111
	MOVWF       ?lstr23_FirmV_0_7_0+4 
	MOVLW       116
	MOVWF       ?lstr23_FirmV_0_7_0+5 
	MOVLW       111
	MOVWF       ?lstr23_FirmV_0_7_0+6 
	MOVLW       114
	MOVWF       ?lstr23_FirmV_0_7_0+7 
	MOVLW       49
	MOVWF       ?lstr23_FirmV_0_7_0+8 
	MOVLW       83
	MOVWF       ?lstr23_FirmV_0_7_0+9 
	MOVLW       116
	MOVWF       ?lstr23_FirmV_0_7_0+10 
	MOVLW       97
	MOVWF       ?lstr23_FirmV_0_7_0+11 
	MOVLW       114
	MOVWF       ?lstr23_FirmV_0_7_0+12 
	MOVLW       116
	MOVWF       ?lstr23_FirmV_0_7_0+13 
	CLRF        ?lstr23_FirmV_0_7_0+14 
	MOVLW       ?lstr23_FirmV_0_7_0+0
	MOVWF       FARG_Logger_text+0 
	MOVLW       hi_addr(?lstr23_FirmV_0_7_0+0)
	MOVWF       FARG_Logger_text+1 
	CALL        _Logger+0, 0
L_State4157:
;FirmV_0_7_0.c,826 :: 		if(CheckTask(2))
	MOVLW       2
	MOVWF       FARG_CheckTask+0 
	CALL        _CheckTask+0, 0
	MOVF        R0, 1 
	BTFSC       STATUS+0, 2 
	GOTO        L_State4158
;FirmV_0_7_0.c,827 :: 		{StartMotor(2,_Close);Logger("S4 Motor2Start");memcpy(LCDLine1,_closing,16);memcpy(LCDLine2,_Blank,16);LCDUpdateFlag=1;LCDLines=1;}
	MOVLW       2
	MOVWF       FARG_StartMotor+0 
	CLRF        FARG_StartMotor+0 
	CALL        _StartMotor+0, 0
	MOVLW       83
	MOVWF       ?lstr24_FirmV_0_7_0+0 
	MOVLW       52
	MOVWF       ?lstr24_FirmV_0_7_0+1 
	MOVLW       32
	MOVWF       ?lstr24_FirmV_0_7_0+2 
	MOVLW       77
	MOVWF       ?lstr24_FirmV_0_7_0+3 
	MOVLW       111
	MOVWF       ?lstr24_FirmV_0_7_0+4 
	MOVLW       116
	MOVWF       ?lstr24_FirmV_0_7_0+5 
	MOVLW       111
	MOVWF       ?lstr24_FirmV_0_7_0+6 
	MOVLW       114
	MOVWF       ?lstr24_FirmV_0_7_0+7 
	MOVLW       50
	MOVWF       ?lstr24_FirmV_0_7_0+8 
	MOVLW       83
	MOVWF       ?lstr24_FirmV_0_7_0+9 
	MOVLW       116
	MOVWF       ?lstr24_FirmV_0_7_0+10 
	MOVLW       97
	MOVWF       ?lstr24_FirmV_0_7_0+11 
	MOVLW       114
	MOVWF       ?lstr24_FirmV_0_7_0+12 
	MOVLW       116
	MOVWF       ?lstr24_FirmV_0_7_0+13 
	CLRF        ?lstr24_FirmV_0_7_0+14 
	MOVLW       ?lstr24_FirmV_0_7_0+0
	MOVWF       FARG_Logger_text+0 
	MOVLW       hi_addr(?lstr24_FirmV_0_7_0+0)
	MOVWF       FARG_Logger_text+1 
	CALL        _Logger+0, 0
	MOVLW       _LCDLine1+0
	MOVWF       FARG_memcpy_d1+0 
	MOVLW       hi_addr(_LCDLine1+0)
	MOVWF       FARG_memcpy_d1+1 
	MOVLW       __closing+0
	MOVWF       FARG_memcpy_s1+0 
	MOVLW       hi_addr(__closing+0)
	MOVWF       FARG_memcpy_s1+1 
	MOVLW       16
	MOVWF       FARG_memcpy_n+0 
	MOVLW       0
	MOVWF       FARG_memcpy_n+1 
	CALL        _memcpy+0, 0
	MOVLW       _LCDLine2+0
	MOVWF       FARG_memcpy_d1+0 
	MOVLW       hi_addr(_LCDLine2+0)
	MOVWF       FARG_memcpy_d1+1 
	MOVLW       __Blank+0
	MOVWF       FARG_memcpy_s1+0 
	MOVLW       hi_addr(__Blank+0)
	MOVWF       FARG_memcpy_s1+1 
	MOVLW       16
	MOVWF       FARG_memcpy_n+0 
	MOVLW       0
	MOVWF       FARG_memcpy_n+1 
	CALL        _memcpy+0, 0
	MOVLW       1
	MOVWF       _LCDUpdateFlag+0 
	MOVLW       1
	MOVWF       _LCDLines+0 
L_State4158:
;FirmV_0_7_0.c,829 :: 		if(CheckTask(10))
	MOVLW       10
	MOVWF       FARG_CheckTask+0 
	CALL        _CheckTask+0, 0
	MOVF        R0, 1 
	BTFSC       STATUS+0, 2 
	GOTO        L_State4159
;FirmV_0_7_0.c,830 :: 		{OverloadCheckFlag1=1; OverloadInit(1);Logger("S4 M1 Overload Check");}
	MOVLW       1
	MOVWF       _OverloadCheckFlag1+0 
	MOVLW       1
	MOVWF       FARG_OverloadInit+0 
	CALL        _OverloadInit+0, 0
	MOVLW       ?ICS?lstr25_FirmV_0_7_0+0
	MOVWF       TBLPTRL 
	MOVLW       hi_addr(?ICS?lstr25_FirmV_0_7_0+0)
	MOVWF       TBLPTRH 
	MOVLW       higher_addr(?ICS?lstr25_FirmV_0_7_0+0)
	MOVWF       TBLPTRU 
	MOVLW       ?lstr25_FirmV_0_7_0+0
	MOVWF       FSR1L 
	MOVLW       hi_addr(?lstr25_FirmV_0_7_0+0)
	MOVWF       FSR1H 
	MOVLW       21
	MOVWF       R0 
	MOVLW       1
	MOVWF       R1 
	CALL        ___CC2DW+0, 0
	MOVLW       ?lstr25_FirmV_0_7_0+0
	MOVWF       FARG_Logger_text+0 
	MOVLW       hi_addr(?lstr25_FirmV_0_7_0+0)
	MOVWF       FARG_Logger_text+1 
	CALL        _Logger+0, 0
L_State4159:
;FirmV_0_7_0.c,832 :: 		if(CheckTask(11))
	MOVLW       11
	MOVWF       FARG_CheckTask+0 
	CALL        _CheckTask+0, 0
	MOVF        R0, 1 
	BTFSC       STATUS+0, 2 
	GOTO        L_State4160
;FirmV_0_7_0.c,833 :: 		{OverloadCheckFlag2=1; OverloadInit(2);Logger("S4 M2 Overload Check");}
	MOVLW       1
	MOVWF       _OverloadCheckFlag2+0 
	MOVLW       2
	MOVWF       FARG_OverloadInit+0 
	CALL        _OverloadInit+0, 0
	MOVLW       ?ICS?lstr26_FirmV_0_7_0+0
	MOVWF       TBLPTRL 
	MOVLW       hi_addr(?ICS?lstr26_FirmV_0_7_0+0)
	MOVWF       TBLPTRH 
	MOVLW       higher_addr(?ICS?lstr26_FirmV_0_7_0+0)
	MOVWF       TBLPTRU 
	MOVLW       ?lstr26_FirmV_0_7_0+0
	MOVWF       FSR1L 
	MOVLW       hi_addr(?lstr26_FirmV_0_7_0+0)
	MOVWF       FSR1H 
	MOVLW       21
	MOVWF       R0 
	MOVLW       1
	MOVWF       R1 
	CALL        ___CC2DW+0, 0
	MOVLW       ?lstr26_FirmV_0_7_0+0
	MOVWF       FARG_Logger_text+0 
	MOVLW       hi_addr(?lstr26_FirmV_0_7_0+0)
	MOVWF       FARG_Logger_text+1 
	CALL        _Logger+0, 0
L_State4160:
;FirmV_0_7_0.c,835 :: 		if(CheckTask(5))
	MOVLW       5
	MOVWF       FARG_CheckTask+0 
	CALL        _CheckTask+0, 0
	MOVF        R0, 1 
	BTFSC       STATUS+0, 2 
	GOTO        L_State4161
;FirmV_0_7_0.c,836 :: 		{SetMotorSpeed(1,Motor2FullSpeed); OverloadCheckFlag1=0; M1isSlow=0;Logger("S4 M1 Speed UP");}
	MOVLW       1
	MOVWF       FARG_SetMotorSpeed+0 
	MOVF        _Motor2FullSpeed+0, 0 
	MOVWF       FARG_SetMotorSpeed+0 
	CALL        _SetMotorSpeed+0, 0
	CLRF        _OverloadCheckFlag1+0 
	CLRF        _M1isSlow+0 
	MOVLW       83
	MOVWF       ?lstr27_FirmV_0_7_0+0 
	MOVLW       52
	MOVWF       ?lstr27_FirmV_0_7_0+1 
	MOVLW       32
	MOVWF       ?lstr27_FirmV_0_7_0+2 
	MOVLW       77
	MOVWF       ?lstr27_FirmV_0_7_0+3 
	MOVLW       49
	MOVWF       ?lstr27_FirmV_0_7_0+4 
	MOVLW       32
	MOVWF       ?lstr27_FirmV_0_7_0+5 
	MOVLW       83
	MOVWF       ?lstr27_FirmV_0_7_0+6 
	MOVLW       112
	MOVWF       ?lstr27_FirmV_0_7_0+7 
	MOVLW       101
	MOVWF       ?lstr27_FirmV_0_7_0+8 
	MOVLW       101
	MOVWF       ?lstr27_FirmV_0_7_0+9 
	MOVLW       100
	MOVWF       ?lstr27_FirmV_0_7_0+10 
	MOVLW       32
	MOVWF       ?lstr27_FirmV_0_7_0+11 
	MOVLW       85
	MOVWF       ?lstr27_FirmV_0_7_0+12 
	MOVLW       80
	MOVWF       ?lstr27_FirmV_0_7_0+13 
	CLRF        ?lstr27_FirmV_0_7_0+14 
	MOVLW       ?lstr27_FirmV_0_7_0+0
	MOVWF       FARG_Logger_text+0 
	MOVLW       hi_addr(?lstr27_FirmV_0_7_0+0)
	MOVWF       FARG_Logger_text+1 
	CALL        _Logger+0, 0
L_State4161:
;FirmV_0_7_0.c,838 :: 		if(CheckTask(7))
	MOVLW       7
	MOVWF       FARG_CheckTask+0 
	CALL        _CheckTask+0, 0
	MOVF        R0, 1 
	BTFSC       STATUS+0, 2 
	GOTO        L_State4162
;FirmV_0_7_0.c,839 :: 		{SetMotorSpeed(0,Motor2FullSpeed); OverloadCheckFlag1=0; M1isSlow=1;Logger("S4 M1 Speed Down");}
	CLRF        FARG_SetMotorSpeed+0 
	MOVF        _Motor2FullSpeed+0, 0 
	MOVWF       FARG_SetMotorSpeed+0 
	CALL        _SetMotorSpeed+0, 0
	CLRF        _OverloadCheckFlag1+0 
	MOVLW       1
	MOVWF       _M1isSlow+0 
	MOVLW       ?ICS?lstr28_FirmV_0_7_0+0
	MOVWF       TBLPTRL 
	MOVLW       hi_addr(?ICS?lstr28_FirmV_0_7_0+0)
	MOVWF       TBLPTRH 
	MOVLW       higher_addr(?ICS?lstr28_FirmV_0_7_0+0)
	MOVWF       TBLPTRU 
	MOVLW       ?lstr28_FirmV_0_7_0+0
	MOVWF       FSR1L 
	MOVLW       hi_addr(?lstr28_FirmV_0_7_0+0)
	MOVWF       FSR1H 
	MOVLW       17
	MOVWF       R0 
	MOVLW       1
	MOVWF       R1 
	CALL        ___CC2DW+0, 0
	MOVLW       ?lstr28_FirmV_0_7_0+0
	MOVWF       FARG_Logger_text+0 
	MOVLW       hi_addr(?lstr28_FirmV_0_7_0+0)
	MOVWF       FARG_Logger_text+1 
	CALL        _Logger+0, 0
L_State4162:
;FirmV_0_7_0.c,841 :: 		if(CheckTask(6))
	MOVLW       6
	MOVWF       FARG_CheckTask+0 
	CALL        _CheckTask+0, 0
	MOVF        R0, 1 
	BTFSC       STATUS+0, 2 
	GOTO        L_State4163
;FirmV_0_7_0.c,842 :: 		{SetMotorSpeed(Motor1FullSpeed,1); M2isSlow=0;Logger("S4 M2 Speed UP");}
	MOVF        _Motor1FullSpeed+0, 0 
	MOVWF       FARG_SetMotorSpeed+0 
	MOVLW       1
	MOVWF       FARG_SetMotorSpeed+0 
	CALL        _SetMotorSpeed+0, 0
	CLRF        _M2isSlow+0 
	MOVLW       83
	MOVWF       ?lstr29_FirmV_0_7_0+0 
	MOVLW       52
	MOVWF       ?lstr29_FirmV_0_7_0+1 
	MOVLW       32
	MOVWF       ?lstr29_FirmV_0_7_0+2 
	MOVLW       77
	MOVWF       ?lstr29_FirmV_0_7_0+3 
	MOVLW       50
	MOVWF       ?lstr29_FirmV_0_7_0+4 
	MOVLW       32
	MOVWF       ?lstr29_FirmV_0_7_0+5 
	MOVLW       83
	MOVWF       ?lstr29_FirmV_0_7_0+6 
	MOVLW       112
	MOVWF       ?lstr29_FirmV_0_7_0+7 
	MOVLW       101
	MOVWF       ?lstr29_FirmV_0_7_0+8 
	MOVLW       101
	MOVWF       ?lstr29_FirmV_0_7_0+9 
	MOVLW       100
	MOVWF       ?lstr29_FirmV_0_7_0+10 
	MOVLW       32
	MOVWF       ?lstr29_FirmV_0_7_0+11 
	MOVLW       85
	MOVWF       ?lstr29_FirmV_0_7_0+12 
	MOVLW       80
	MOVWF       ?lstr29_FirmV_0_7_0+13 
	CLRF        ?lstr29_FirmV_0_7_0+14 
	MOVLW       ?lstr29_FirmV_0_7_0+0
	MOVWF       FARG_Logger_text+0 
	MOVLW       hi_addr(?lstr29_FirmV_0_7_0+0)
	MOVWF       FARG_Logger_text+1 
	CALL        _Logger+0, 0
L_State4163:
;FirmV_0_7_0.c,844 :: 		if(CheckTask(8))
	MOVLW       8
	MOVWF       FARG_CheckTask+0 
	CALL        _CheckTask+0, 0
	MOVF        R0, 1 
	BTFSC       STATUS+0, 2 
	GOTO        L_State4164
;FirmV_0_7_0.c,845 :: 		{SetMotorSpeed(Motor1FullSpeed,0); M2isSlow=1;Logger("S4 M2 Speed Down");}
	MOVF        _Motor1FullSpeed+0, 0 
	MOVWF       FARG_SetMotorSpeed+0 
	CLRF        FARG_SetMotorSpeed+0 
	CALL        _SetMotorSpeed+0, 0
	MOVLW       1
	MOVWF       _M2isSlow+0 
	MOVLW       ?ICS?lstr30_FirmV_0_7_0+0
	MOVWF       TBLPTRL 
	MOVLW       hi_addr(?ICS?lstr30_FirmV_0_7_0+0)
	MOVWF       TBLPTRH 
	MOVLW       higher_addr(?ICS?lstr30_FirmV_0_7_0+0)
	MOVWF       TBLPTRU 
	MOVLW       ?lstr30_FirmV_0_7_0+0
	MOVWF       FSR1L 
	MOVLW       hi_addr(?lstr30_FirmV_0_7_0+0)
	MOVWF       FSR1H 
	MOVLW       17
	MOVWF       R0 
	MOVLW       1
	MOVWF       R1 
	CALL        ___CC2DW+0, 0
	MOVLW       ?lstr30_FirmV_0_7_0+0
	MOVWF       FARG_Logger_text+0 
	MOVLW       hi_addr(?lstr30_FirmV_0_7_0+0)
	MOVWF       FARG_Logger_text+1 
	CALL        _Logger+0, 0
L_State4164:
;FirmV_0_7_0.c,847 :: 		if(CheckTask(3))
	MOVLW       3
	MOVWF       FARG_CheckTask+0 
	CALL        _CheckTask+0, 0
	MOVF        R0, 1 
	BTFSC       STATUS+0, 2 
	GOTO        L_State4165
;FirmV_0_7_0.c,848 :: 		{CloseDone.b0=0; StopMotor(1);Logger("S4 M1 Stoped");}
	BCF         _CloseDone+0, 0 
	MOVLW       1
	MOVWF       FARG_StopMotor+0 
	CALL        _StopMotor+0, 0
	MOVLW       83
	MOVWF       ?lstr31_FirmV_0_7_0+0 
	MOVLW       52
	MOVWF       ?lstr31_FirmV_0_7_0+1 
	MOVLW       32
	MOVWF       ?lstr31_FirmV_0_7_0+2 
	MOVLW       77
	MOVWF       ?lstr31_FirmV_0_7_0+3 
	MOVLW       49
	MOVWF       ?lstr31_FirmV_0_7_0+4 
	MOVLW       32
	MOVWF       ?lstr31_FirmV_0_7_0+5 
	MOVLW       83
	MOVWF       ?lstr31_FirmV_0_7_0+6 
	MOVLW       116
	MOVWF       ?lstr31_FirmV_0_7_0+7 
	MOVLW       111
	MOVWF       ?lstr31_FirmV_0_7_0+8 
	MOVLW       112
	MOVWF       ?lstr31_FirmV_0_7_0+9 
	MOVLW       101
	MOVWF       ?lstr31_FirmV_0_7_0+10 
	MOVLW       100
	MOVWF       ?lstr31_FirmV_0_7_0+11 
	CLRF        ?lstr31_FirmV_0_7_0+12 
	MOVLW       ?lstr31_FirmV_0_7_0+0
	MOVWF       FARG_Logger_text+0 
	MOVLW       hi_addr(?lstr31_FirmV_0_7_0+0)
	MOVWF       FARG_Logger_text+1 
	CALL        _Logger+0, 0
L_State4165:
;FirmV_0_7_0.c,850 :: 		if(CheckTask(4))
	MOVLW       4
	MOVWF       FARG_CheckTask+0 
	CALL        _CheckTask+0, 0
	MOVF        R0, 1 
	BTFSC       STATUS+0, 2 
	GOTO        L_State4166
;FirmV_0_7_0.c,851 :: 		{CloseDone.b1=0; StopMotor(2);Logger("S4 M2 Stoped");}
	BCF         _CloseDone+0, 1 
	MOVLW       2
	MOVWF       FARG_StopMotor+0 
	CALL        _StopMotor+0, 0
	MOVLW       83
	MOVWF       ?lstr32_FirmV_0_7_0+0 
	MOVLW       52
	MOVWF       ?lstr32_FirmV_0_7_0+1 
	MOVLW       32
	MOVWF       ?lstr32_FirmV_0_7_0+2 
	MOVLW       77
	MOVWF       ?lstr32_FirmV_0_7_0+3 
	MOVLW       50
	MOVWF       ?lstr32_FirmV_0_7_0+4 
	MOVLW       32
	MOVWF       ?lstr32_FirmV_0_7_0+5 
	MOVLW       83
	MOVWF       ?lstr32_FirmV_0_7_0+6 
	MOVLW       116
	MOVWF       ?lstr32_FirmV_0_7_0+7 
	MOVLW       111
	MOVWF       ?lstr32_FirmV_0_7_0+8 
	MOVLW       112
	MOVWF       ?lstr32_FirmV_0_7_0+9 
	MOVLW       101
	MOVWF       ?lstr32_FirmV_0_7_0+10 
	MOVLW       100
	MOVWF       ?lstr32_FirmV_0_7_0+11 
	CLRF        ?lstr32_FirmV_0_7_0+12 
	MOVLW       ?lstr32_FirmV_0_7_0+0
	MOVWF       FARG_Logger_text+0 
	MOVLW       hi_addr(?lstr32_FirmV_0_7_0+0)
	MOVWF       FARG_Logger_text+1 
	CALL        _Logger+0, 0
L_State4166:
;FirmV_0_7_0.c,853 :: 		if((OverloadCheckFlag1==1)&&(Events.Overload.b0==1)&&(M1isSlow==0))
	MOVF        _OverloadCheckFlag1+0, 0 
	XORLW       1
	BTFSS       STATUS+0, 2 
	GOTO        L_State4169
	BTFSS       _Events+5, 0 
	GOTO        L_State4169
	MOVF        _M1isSlow+0, 0 
	XORLW       0
	BTFSS       STATUS+0, 2 
	GOTO        L_State4169
L__State4719:
;FirmV_0_7_0.c,854 :: 		{StopMotor(1); StopMotor(2); State=6;OverloadCheckFlag1=0;OverloadCheckFlag2=0;Logger("S4 M1 Overloaded");ClearTasks(9);
	MOVLW       1
	MOVWF       FARG_StopMotor+0 
	CALL        _StopMotor+0, 0
	MOVLW       2
	MOVWF       FARG_StopMotor+0 
	CALL        _StopMotor+0, 0
	MOVLW       6
	MOVWF       _State+0 
	CLRF        _OverloadCheckFlag1+0 
	CLRF        _OverloadCheckFlag2+0 
	MOVLW       ?ICS?lstr33_FirmV_0_7_0+0
	MOVWF       TBLPTRL 
	MOVLW       hi_addr(?ICS?lstr33_FirmV_0_7_0+0)
	MOVWF       TBLPTRH 
	MOVLW       higher_addr(?ICS?lstr33_FirmV_0_7_0+0)
	MOVWF       TBLPTRU 
	MOVLW       ?lstr33_FirmV_0_7_0+0
	MOVWF       FSR1L 
	MOVLW       hi_addr(?lstr33_FirmV_0_7_0+0)
	MOVWF       FSR1H 
	MOVLW       17
	MOVWF       R0 
	MOVLW       1
	MOVWF       R1 
	CALL        ___CC2DW+0, 0
	MOVLW       ?lstr33_FirmV_0_7_0+0
	MOVWF       FARG_Logger_text+0 
	MOVLW       hi_addr(?lstr33_FirmV_0_7_0+0)
	MOVWF       FARG_Logger_text+1 
	CALL        _Logger+0, 0
	MOVLW       9
	MOVWF       FARG_ClearTasks+0 
	CALL        _ClearTasks+0, 0
;FirmV_0_7_0.c,855 :: 		memcpy(LCDLine1,_stop,16);memcpy(LCDLine2,_ErrOverload,16);LCDUpdateFlag=1;LCDLines=2;}
	MOVLW       _LCDLine1+0
	MOVWF       FARG_memcpy_d1+0 
	MOVLW       hi_addr(_LCDLine1+0)
	MOVWF       FARG_memcpy_d1+1 
	MOVLW       __stop+0
	MOVWF       FARG_memcpy_s1+0 
	MOVLW       hi_addr(__stop+0)
	MOVWF       FARG_memcpy_s1+1 
	MOVLW       16
	MOVWF       FARG_memcpy_n+0 
	MOVLW       0
	MOVWF       FARG_memcpy_n+1 
	CALL        _memcpy+0, 0
	MOVLW       _LCDLine2+0
	MOVWF       FARG_memcpy_d1+0 
	MOVLW       hi_addr(_LCDLine2+0)
	MOVWF       FARG_memcpy_d1+1 
	MOVLW       __errOverload+0
	MOVWF       FARG_memcpy_s1+0 
	MOVLW       hi_addr(__errOverload+0)
	MOVWF       FARG_memcpy_s1+1 
	MOVLW       16
	MOVWF       FARG_memcpy_n+0 
	MOVLW       0
	MOVWF       FARG_memcpy_n+1 
	CALL        _memcpy+0, 0
	MOVLW       1
	MOVWF       _LCDUpdateFlag+0 
	MOVLW       2
	MOVWF       _LCDLines+0 
L_State4169:
;FirmV_0_7_0.c,857 :: 		if((OverloadCheckFlag2==1)&&(Events.Overload.b1==1)&&(M2isSlow==0))
	MOVF        _OverloadCheckFlag2+0, 0 
	XORLW       1
	BTFSS       STATUS+0, 2 
	GOTO        L_State4172
	BTFSS       _Events+5, 1 
	GOTO        L_State4172
	MOVF        _M2isSlow+0, 0 
	XORLW       0
	BTFSS       STATUS+0, 2 
	GOTO        L_State4172
L__State4718:
;FirmV_0_7_0.c,858 :: 		{StopMotor(1); StopMotor(2); State=6;OverloadCheckFlag1=0;OverloadCheckFlag2=0;Logger("S4 M2 Overloaded");ClearTasks(9);
	MOVLW       1
	MOVWF       FARG_StopMotor+0 
	CALL        _StopMotor+0, 0
	MOVLW       2
	MOVWF       FARG_StopMotor+0 
	CALL        _StopMotor+0, 0
	MOVLW       6
	MOVWF       _State+0 
	CLRF        _OverloadCheckFlag1+0 
	CLRF        _OverloadCheckFlag2+0 
	MOVLW       ?ICS?lstr34_FirmV_0_7_0+0
	MOVWF       TBLPTRL 
	MOVLW       hi_addr(?ICS?lstr34_FirmV_0_7_0+0)
	MOVWF       TBLPTRH 
	MOVLW       higher_addr(?ICS?lstr34_FirmV_0_7_0+0)
	MOVWF       TBLPTRU 
	MOVLW       ?lstr34_FirmV_0_7_0+0
	MOVWF       FSR1L 
	MOVLW       hi_addr(?lstr34_FirmV_0_7_0+0)
	MOVWF       FSR1H 
	MOVLW       17
	MOVWF       R0 
	MOVLW       1
	MOVWF       R1 
	CALL        ___CC2DW+0, 0
	MOVLW       ?lstr34_FirmV_0_7_0+0
	MOVWF       FARG_Logger_text+0 
	MOVLW       hi_addr(?lstr34_FirmV_0_7_0+0)
	MOVWF       FARG_Logger_text+1 
	CALL        _Logger+0, 0
	MOVLW       9
	MOVWF       FARG_ClearTasks+0 
	CALL        _ClearTasks+0, 0
;FirmV_0_7_0.c,859 :: 		memcpy(LCDLine1,_stop,16);memcpy(LCDLine2,_ErrOverload,16);LCDUpdateFlag=1;LCDLines=2;}
	MOVLW       _LCDLine1+0
	MOVWF       FARG_memcpy_d1+0 
	MOVLW       hi_addr(_LCDLine1+0)
	MOVWF       FARG_memcpy_d1+1 
	MOVLW       __stop+0
	MOVWF       FARG_memcpy_s1+0 
	MOVLW       hi_addr(__stop+0)
	MOVWF       FARG_memcpy_s1+1 
	MOVLW       16
	MOVWF       FARG_memcpy_n+0 
	MOVLW       0
	MOVWF       FARG_memcpy_n+1 
	CALL        _memcpy+0, 0
	MOVLW       _LCDLine2+0
	MOVWF       FARG_memcpy_d1+0 
	MOVLW       hi_addr(_LCDLine2+0)
	MOVWF       FARG_memcpy_d1+1 
	MOVLW       __errOverload+0
	MOVWF       FARG_memcpy_s1+0 
	MOVLW       hi_addr(__errOverload+0)
	MOVWF       FARG_memcpy_s1+1 
	MOVLW       16
	MOVWF       FARG_memcpy_n+0 
	MOVLW       0
	MOVWF       FARG_memcpy_n+1 
	CALL        _memcpy+0, 0
	MOVLW       1
	MOVWF       _LCDUpdateFlag+0 
	MOVLW       2
	MOVWF       _LCDLines+0 
L_State4172:
;FirmV_0_7_0.c,861 :: 		if((Door2OpenTime==0)||(ActiveDoors==1))
	MOVF        _Door2OpenTime+0, 0 
	XORLW       0
	BTFSC       STATUS+0, 2 
	GOTO        L__State4717
	MOVF        _ActiveDoors+0, 0 
	XORLW       1
	BTFSC       STATUS+0, 2 
	GOTO        L__State4717
	GOTO        L_State4175
L__State4717:
;FirmV_0_7_0.c,862 :: 		CloseDone.b1=0;
	BCF         _CloseDone+0, 1 
L_State4175:
;FirmV_0_7_0.c,864 :: 		if((Events.Photocell.b0==1))
	BTFSS       _Events+6, 0 
	GOTO        L_State4176
;FirmV_0_7_0.c,865 :: 		{StopMotor(1); StopMotor(2); OverloadCheckFlag1=0;OverloadCheckFlag2=0;State=6;PhotocellOpenFlag=1;Logger("S4 Photocell Int");ClearTasks(9);
	MOVLW       1
	MOVWF       FARG_StopMotor+0 
	CALL        _StopMotor+0, 0
	MOVLW       2
	MOVWF       FARG_StopMotor+0 
	CALL        _StopMotor+0, 0
	CLRF        _OverloadCheckFlag1+0 
	CLRF        _OverloadCheckFlag2+0 
	MOVLW       6
	MOVWF       _State+0 
	MOVLW       1
	MOVWF       _PhotocellOpenFlag+0 
	MOVLW       ?ICS?lstr35_FirmV_0_7_0+0
	MOVWF       TBLPTRL 
	MOVLW       hi_addr(?ICS?lstr35_FirmV_0_7_0+0)
	MOVWF       TBLPTRH 
	MOVLW       higher_addr(?ICS?lstr35_FirmV_0_7_0+0)
	MOVWF       TBLPTRU 
	MOVLW       ?lstr35_FirmV_0_7_0+0
	MOVWF       FSR1L 
	MOVLW       hi_addr(?lstr35_FirmV_0_7_0+0)
	MOVWF       FSR1H 
	MOVLW       17
	MOVWF       R0 
	MOVLW       1
	MOVWF       R1 
	CALL        ___CC2DW+0, 0
	MOVLW       ?lstr35_FirmV_0_7_0+0
	MOVWF       FARG_Logger_text+0 
	MOVLW       hi_addr(?lstr35_FirmV_0_7_0+0)
	MOVWF       FARG_Logger_text+1 
	CALL        _Logger+0, 0
	MOVLW       9
	MOVWF       FARG_ClearTasks+0 
	CALL        _ClearTasks+0, 0
;FirmV_0_7_0.c,866 :: 		memcpy(LCDLine1,_stop,16);memcpy(LCDLine2,_ErrPhoto,16);LCDUpdateFlag=1;LCDLines=2;}
	MOVLW       _LCDLine1+0
	MOVWF       FARG_memcpy_d1+0 
	MOVLW       hi_addr(_LCDLine1+0)
	MOVWF       FARG_memcpy_d1+1 
	MOVLW       __stop+0
	MOVWF       FARG_memcpy_s1+0 
	MOVLW       hi_addr(__stop+0)
	MOVWF       FARG_memcpy_s1+1 
	MOVLW       16
	MOVWF       FARG_memcpy_n+0 
	MOVLW       0
	MOVWF       FARG_memcpy_n+1 
	CALL        _memcpy+0, 0
	MOVLW       _LCDLine2+0
	MOVWF       FARG_memcpy_d1+0 
	MOVLW       hi_addr(_LCDLine2+0)
	MOVWF       FARG_memcpy_d1+1 
	MOVLW       __errPhoto+0
	MOVWF       FARG_memcpy_s1+0 
	MOVLW       hi_addr(__errPhoto+0)
	MOVWF       FARG_memcpy_s1+1 
	MOVLW       16
	MOVWF       FARG_memcpy_n+0 
	MOVLW       0
	MOVWF       FARG_memcpy_n+1 
	CALL        _memcpy+0, 0
	MOVLW       1
	MOVWF       _LCDUpdateFlag+0 
	MOVLW       2
	MOVWF       _LCDLines+0 
L_State4176:
;FirmV_0_7_0.c,868 :: 		if((Events.Limiter==1)&&(LimiterEnable))
	MOVF        _Events+7, 0 
	XORLW       1
	BTFSS       STATUS+0, 2 
	GOTO        L_State4179
	MOVF        _LimiterEnable+0, 1 
	BTFSC       STATUS+0, 2 
	GOTO        L_State4179
L__State4716:
;FirmV_0_7_0.c,869 :: 		{StopMotor(1); StopMotor(2); State=6;OverloadCheckFlag1=0;OverloadCheckFlag2=0;Logger("S4 Limit Switch Stop");ClearTasks(9);
	MOVLW       1
	MOVWF       FARG_StopMotor+0 
	CALL        _StopMotor+0, 0
	MOVLW       2
	MOVWF       FARG_StopMotor+0 
	CALL        _StopMotor+0, 0
	MOVLW       6
	MOVWF       _State+0 
	CLRF        _OverloadCheckFlag1+0 
	CLRF        _OverloadCheckFlag2+0 
	MOVLW       ?ICS?lstr36_FirmV_0_7_0+0
	MOVWF       TBLPTRL 
	MOVLW       hi_addr(?ICS?lstr36_FirmV_0_7_0+0)
	MOVWF       TBLPTRH 
	MOVLW       higher_addr(?ICS?lstr36_FirmV_0_7_0+0)
	MOVWF       TBLPTRU 
	MOVLW       ?lstr36_FirmV_0_7_0+0
	MOVWF       FSR1L 
	MOVLW       hi_addr(?lstr36_FirmV_0_7_0+0)
	MOVWF       FSR1H 
	MOVLW       21
	MOVWF       R0 
	MOVLW       1
	MOVWF       R1 
	CALL        ___CC2DW+0, 0
	MOVLW       ?lstr36_FirmV_0_7_0+0
	MOVWF       FARG_Logger_text+0 
	MOVLW       hi_addr(?lstr36_FirmV_0_7_0+0)
	MOVWF       FARG_Logger_text+1 
	CALL        _Logger+0, 0
	MOVLW       9
	MOVWF       FARG_ClearTasks+0 
	CALL        _ClearTasks+0, 0
;FirmV_0_7_0.c,870 :: 		memcpy(LCDLine1,_stop,16);memcpy(LCDLine2,_ErrLimit,16);LCDUpdateFlag=1;LCDLines=2;}
	MOVLW       _LCDLine1+0
	MOVWF       FARG_memcpy_d1+0 
	MOVLW       hi_addr(_LCDLine1+0)
	MOVWF       FARG_memcpy_d1+1 
	MOVLW       __stop+0
	MOVWF       FARG_memcpy_s1+0 
	MOVLW       hi_addr(__stop+0)
	MOVWF       FARG_memcpy_s1+1 
	MOVLW       16
	MOVWF       FARG_memcpy_n+0 
	MOVLW       0
	MOVWF       FARG_memcpy_n+1 
	CALL        _memcpy+0, 0
	MOVLW       _LCDLine2+0
	MOVWF       FARG_memcpy_d1+0 
	MOVLW       hi_addr(_LCDLine2+0)
	MOVWF       FARG_memcpy_d1+1 
	MOVLW       __errLimit+0
	MOVWF       FARG_memcpy_s1+0 
	MOVLW       hi_addr(__errLimit+0)
	MOVWF       FARG_memcpy_s1+1 
	MOVLW       16
	MOVWF       FARG_memcpy_n+0 
	MOVLW       0
	MOVWF       FARG_memcpy_n+1 
	CALL        _memcpy+0, 0
	MOVLW       1
	MOVWF       _LCDUpdateFlag+0 
	MOVLW       2
	MOVWF       _LCDLines+0 
L_State4179:
;FirmV_0_7_0.c,872 :: 		if((Events.Remote!=0))
	MOVF        _Events+4, 0 
	XORLW       0
	BTFSC       STATUS+0, 2 
	GOTO        L_State4180
;FirmV_0_7_0.c,873 :: 		{StopMotor(1); StopMotor(2); State=6;OverloadCheckFlag1=0;OverloadCheckFlag2=0;Logger("S4 Remote Pressed");ClearTasks(9);
	MOVLW       1
	MOVWF       FARG_StopMotor+0 
	CALL        _StopMotor+0, 0
	MOVLW       2
	MOVWF       FARG_StopMotor+0 
	CALL        _StopMotor+0, 0
	MOVLW       6
	MOVWF       _State+0 
	CLRF        _OverloadCheckFlag1+0 
	CLRF        _OverloadCheckFlag2+0 
	MOVLW       ?ICS?lstr37_FirmV_0_7_0+0
	MOVWF       TBLPTRL 
	MOVLW       hi_addr(?ICS?lstr37_FirmV_0_7_0+0)
	MOVWF       TBLPTRH 
	MOVLW       higher_addr(?ICS?lstr37_FirmV_0_7_0+0)
	MOVWF       TBLPTRU 
	MOVLW       ?lstr37_FirmV_0_7_0+0
	MOVWF       FSR1L 
	MOVLW       hi_addr(?lstr37_FirmV_0_7_0+0)
	MOVWF       FSR1H 
	MOVLW       18
	MOVWF       R0 
	MOVLW       1
	MOVWF       R1 
	CALL        ___CC2DW+0, 0
	MOVLW       ?lstr37_FirmV_0_7_0+0
	MOVWF       FARG_Logger_text+0 
	MOVLW       hi_addr(?lstr37_FirmV_0_7_0+0)
	MOVWF       FARG_Logger_text+1 
	CALL        _Logger+0, 0
	MOVLW       9
	MOVWF       FARG_ClearTasks+0 
	CALL        _ClearTasks+0, 0
;FirmV_0_7_0.c,874 :: 		memcpy(LCDLine1,_stop,16);memcpy(LCDLine2,_ErrRemote,16);LCDUpdateFlag=1;LCDLines=2;}
	MOVLW       _LCDLine1+0
	MOVWF       FARG_memcpy_d1+0 
	MOVLW       hi_addr(_LCDLine1+0)
	MOVWF       FARG_memcpy_d1+1 
	MOVLW       __stop+0
	MOVWF       FARG_memcpy_s1+0 
	MOVLW       hi_addr(__stop+0)
	MOVWF       FARG_memcpy_s1+1 
	MOVLW       16
	MOVWF       FARG_memcpy_n+0 
	MOVLW       0
	MOVWF       FARG_memcpy_n+1 
	CALL        _memcpy+0, 0
	MOVLW       _LCDLine2+0
	MOVWF       FARG_memcpy_d1+0 
	MOVLW       hi_addr(_LCDLine2+0)
	MOVWF       FARG_memcpy_d1+1 
	MOVLW       __errRemote+0
	MOVWF       FARG_memcpy_s1+0 
	MOVLW       hi_addr(__errRemote+0)
	MOVWF       FARG_memcpy_s1+1 
	MOVLW       16
	MOVWF       FARG_memcpy_n+0 
	MOVLW       0
	MOVWF       FARG_memcpy_n+1 
	CALL        _memcpy+0, 0
	MOVLW       1
	MOVWF       _LCDUpdateFlag+0 
	MOVLW       2
	MOVWF       _LCDLines+0 
L_State4180:
;FirmV_0_7_0.c,876 :: 		if(CloseDone==0)
	MOVF        _CloseDone+0, 0 
	XORLW       0
	BTFSS       STATUS+0, 2 
	GOTO        L_State4181
;FirmV_0_7_0.c,877 :: 		{State=1; PassFlag=0;ClearTasks(9);memcpy(LCDLine1,_close,16);memcpy(LCDLine2,_Blank,16);LCDUpdateFlag=1;LCDLines=1;}
	MOVLW       1
	MOVWF       _State+0 
	CLRF        _PassFlag+0 
	MOVLW       9
	MOVWF       FARG_ClearTasks+0 
	CALL        _ClearTasks+0, 0
	MOVLW       _LCDLine1+0
	MOVWF       FARG_memcpy_d1+0 
	MOVLW       hi_addr(_LCDLine1+0)
	MOVWF       FARG_memcpy_d1+1 
	MOVLW       __close+0
	MOVWF       FARG_memcpy_s1+0 
	MOVLW       hi_addr(__close+0)
	MOVWF       FARG_memcpy_s1+1 
	MOVLW       16
	MOVWF       FARG_memcpy_n+0 
	MOVLW       0
	MOVWF       FARG_memcpy_n+1 
	CALL        _memcpy+0, 0
	MOVLW       _LCDLine2+0
	MOVWF       FARG_memcpy_d1+0 
	MOVLW       hi_addr(_LCDLine2+0)
	MOVWF       FARG_memcpy_d1+1 
	MOVLW       __Blank+0
	MOVWF       FARG_memcpy_s1+0 
	MOVLW       hi_addr(__Blank+0)
	MOVWF       FARG_memcpy_s1+1 
	MOVLW       16
	MOVWF       FARG_memcpy_n+0 
	MOVLW       0
	MOVWF       FARG_memcpy_n+1 
	CALL        _memcpy+0, 0
	MOVLW       1
	MOVWF       _LCDUpdateFlag+0 
	MOVLW       1
	MOVWF       _LCDLines+0 
L_State4181:
;FirmV_0_7_0.c,879 :: 		if((State==5)||(State==6))
	MOVF        _State+0, 0 
	XORLW       5
	BTFSC       STATUS+0, 2 
	GOTO        L__State4715
	MOVF        _State+0, 0 
	XORLW       6
	BTFSC       STATUS+0, 2 
	GOTO        L__State4715
	GOTO        L_State4184
L__State4715:
;FirmV_0_7_0.c,880 :: 		{ClearTasks(0);if(AutoCloseTime!=0){AddTask(ms500+AutoCloseTime,9);Logger("S4 Autoclose Renewed");memcpy(LCDLine2,_autoclose,16);LCDUpdateFlag=1;LCDLines=2;}}
	CLRF        FARG_ClearTasks+0 
	CALL        _ClearTasks+0, 0
	MOVLW       0
	XORWF       _AutoCloseTime+1, 0 
	BTFSS       STATUS+0, 2 
	GOTO        L__State4809
	MOVLW       0
	XORWF       _AutoCloseTime+0, 0 
L__State4809:
	BTFSC       STATUS+0, 2 
	GOTO        L_State4185
	MOVF        _AutoCloseTime+0, 0 
	ADDWF       _ms500+0, 0 
	MOVWF       FARG_AddTask+0 
	MOVF        _AutoCloseTime+1, 0 
	ADDWFC      _ms500+1, 0 
	MOVWF       FARG_AddTask+1 
	MOVLW       0
	ADDWFC      _ms500+2, 0 
	MOVWF       FARG_AddTask+2 
	MOVLW       0
	ADDWFC      _ms500+3, 0 
	MOVWF       FARG_AddTask+3 
	MOVLW       9
	MOVWF       FARG_AddTask+0 
	CALL        _AddTask+0, 0
	MOVLW       ?ICS?lstr38_FirmV_0_7_0+0
	MOVWF       TBLPTRL 
	MOVLW       hi_addr(?ICS?lstr38_FirmV_0_7_0+0)
	MOVWF       TBLPTRH 
	MOVLW       higher_addr(?ICS?lstr38_FirmV_0_7_0+0)
	MOVWF       TBLPTRU 
	MOVLW       ?lstr38_FirmV_0_7_0+0
	MOVWF       FSR1L 
	MOVLW       hi_addr(?lstr38_FirmV_0_7_0+0)
	MOVWF       FSR1H 
	MOVLW       21
	MOVWF       R0 
	MOVLW       1
	MOVWF       R1 
	CALL        ___CC2DW+0, 0
	MOVLW       ?lstr38_FirmV_0_7_0+0
	MOVWF       FARG_Logger_text+0 
	MOVLW       hi_addr(?lstr38_FirmV_0_7_0+0)
	MOVWF       FARG_Logger_text+1 
	CALL        _Logger+0, 0
	MOVLW       _LCDLine2+0
	MOVWF       FARG_memcpy_d1+0 
	MOVLW       hi_addr(_LCDLine2+0)
	MOVWF       FARG_memcpy_d1+1 
	MOVLW       __autoclose+0
	MOVWF       FARG_memcpy_s1+0 
	MOVLW       hi_addr(__autoclose+0)
	MOVWF       FARG_memcpy_s1+1 
	MOVLW       16
	MOVWF       FARG_memcpy_n+0 
	MOVLW       0
	MOVWF       FARG_memcpy_n+1 
	CALL        _memcpy+0, 0
	MOVLW       1
	MOVWF       _LCDUpdateFlag+0 
	MOVLW       2
	MOVWF       _LCDLines+0 
L_State4185:
L_State4184:
;FirmV_0_7_0.c,882 :: 		}
	RETURN      0
; end of _State4

_State5:

;FirmV_0_7_0.c,897 :: 		void State5()
;FirmV_0_7_0.c,899 :: 		char delay=2;
	MOVLW       2
	MOVWF       State5_delay_L0+0 
;FirmV_0_7_0.c,900 :: 		Flasher=0;
	BCF         PORTD+0, 7 
;FirmV_0_7_0.c,901 :: 		FlashFlag=0;
	CLRF        _FlashFlag+0 
;FirmV_0_7_0.c,902 :: 		if((Events.Remote!=0)||(CheckTask(9)==1))
	MOVF        _Events+4, 0 
	XORLW       0
	BTFSS       STATUS+0, 2 
	GOTO        L__State5724
	MOVLW       9
	MOVWF       FARG_CheckTask+0 
	CALL        _CheckTask+0, 0
	MOVF        R0, 0 
	XORLW       1
	BTFSC       STATUS+0, 2 
	GOTO        L__State5724
	GOTO        L_State5188
L__State5724:
;FirmV_0_7_0.c,904 :: 		if((Door2CloseTime==0)||(ActiveDoors==1))
	MOVF        _Door2CloseTime+0, 0 
	XORLW       0
	BTFSC       STATUS+0, 2 
	GOTO        L__State5723
	MOVF        _ActiveDoors+0, 0 
	XORLW       1
	BTFSC       STATUS+0, 2 
	GOTO        L__State5723
	GOTO        L_State5191
L__State5723:
;FirmV_0_7_0.c,906 :: 		ClearTasks(9);
	MOVLW       9
	MOVWF       FARG_ClearTasks+0 
	CALL        _ClearTasks+0, 0
;FirmV_0_7_0.c,907 :: 		temp=ms500+delay;
	MOVF        State5_delay_L0+0, 0 
	ADDWF       _ms500+0, 0 
	MOVWF       R0 
	MOVLW       0
	ADDWFC      _ms500+1, 0 
	MOVWF       R1 
	MOVLW       0
	ADDWFC      _ms500+2, 0 
	MOVWF       R2 
	MOVLW       0
	ADDWFC      _ms500+3, 0 
	MOVWF       R3 
	MOVF        R0, 0 
	MOVWF       _temp+0 
	MOVF        R1, 0 
	MOVWF       _temp+1 
	MOVF        R2, 0 
	MOVWF       _temp+2 
	MOVF        R3, 0 
	MOVWF       _temp+3 
;FirmV_0_7_0.c,908 :: 		AddTask(temp,1);
	MOVF        R0, 0 
	MOVWF       FARG_AddTask+0 
	MOVF        R1, 0 
	MOVWF       FARG_AddTask+1 
	MOVF        R2, 0 
	MOVWF       FARG_AddTask+2 
	MOVF        R3, 0 
	MOVWF       FARG_AddTask+3 
	MOVLW       1
	MOVWF       FARG_AddTask+0 
	CALL        _AddTask+0, 0
;FirmV_0_7_0.c,909 :: 		AddTask(temp,5);
	MOVF        _temp+0, 0 
	MOVWF       FARG_AddTask+0 
	MOVF        _temp+1, 0 
	MOVWF       FARG_AddTask+1 
	MOVF        _temp+2, 0 
	MOVWF       FARG_AddTask+2 
	MOVF        _temp+3, 0 
	MOVWF       FARG_AddTask+3 
	MOVLW       5
	MOVWF       FARG_AddTask+0 
	CALL        _AddTask+0, 0
;FirmV_0_7_0.c,910 :: 		M1isSlow=0;//speed up
	CLRF        _M1isSlow+0 
;FirmV_0_7_0.c,911 :: 		temp=ms500+OverloadDelay+delay;
	MOVLW       6
	ADDWF       _ms500+0, 0 
	MOVWF       R0 
	MOVLW       0
	ADDWFC      _ms500+1, 0 
	MOVWF       R1 
	MOVLW       0
	ADDWFC      _ms500+2, 0 
	MOVWF       R2 
	MOVLW       0
	ADDWFC      _ms500+3, 0 
	MOVWF       R3 
	MOVF        State5_delay_L0+0, 0 
	ADDWF       R0, 1 
	MOVLW       0
	ADDWFC      R1, 1 
	ADDWFC      R2, 1 
	ADDWFC      R3, 1 
	MOVF        R0, 0 
	MOVWF       _temp+0 
	MOVF        R1, 0 
	MOVWF       _temp+1 
	MOVF        R2, 0 
	MOVWF       _temp+2 
	MOVF        R3, 0 
	MOVWF       _temp+3 
;FirmV_0_7_0.c,912 :: 		AddTask(temp,10); //overload check
	MOVF        R0, 0 
	MOVWF       FARG_AddTask+0 
	MOVF        R1, 0 
	MOVWF       FARG_AddTask+1 
	MOVF        R2, 0 
	MOVWF       FARG_AddTask+2 
	MOVF        R3, 0 
	MOVWF       FARG_AddTask+3 
	MOVLW       10
	MOVWF       FARG_AddTask+0 
	CALL        _AddTask+0, 0
;FirmV_0_7_0.c,913 :: 		temp=ms500+Door1CloseTime+delay;
	MOVF        _Door1CloseTime+0, 0 
	ADDWF       _ms500+0, 0 
	MOVWF       R0 
	MOVLW       0
	ADDWFC      _ms500+1, 0 
	MOVWF       R1 
	MOVLW       0
	ADDWFC      _ms500+2, 0 
	MOVWF       R2 
	MOVLW       0
	ADDWFC      _ms500+3, 0 
	MOVWF       R3 
	MOVF        State5_delay_L0+0, 0 
	ADDWF       R0, 1 
	MOVLW       0
	ADDWFC      R1, 1 
	ADDWFC      R2, 1 
	ADDWFC      R3, 1 
	MOVF        R0, 0 
	MOVWF       _temp+0 
	MOVF        R1, 0 
	MOVWF       _temp+1 
	MOVF        R2, 0 
	MOVWF       _temp+2 
	MOVF        R3, 0 
	MOVWF       _temp+3 
;FirmV_0_7_0.c,914 :: 		AddTask(temp,3);//Stop motor
	MOVF        R0, 0 
	MOVWF       FARG_AddTask+0 
	MOVF        R1, 0 
	MOVWF       FARG_AddTask+1 
	MOVF        R2, 0 
	MOVWF       FARG_AddTask+2 
	MOVF        R3, 0 
	MOVWF       FARG_AddTask+3 
	MOVLW       3
	MOVWF       FARG_AddTask+0 
	CALL        _AddTask+0, 0
;FirmV_0_7_0.c,915 :: 		}
L_State5191:
;FirmV_0_7_0.c,916 :: 		if((Door2CloseTime!=0)&&(ActiveDoors==2))
	MOVF        _Door2CloseTime+0, 0 
	XORLW       0
	BTFSC       STATUS+0, 2 
	GOTO        L_State5194
	MOVF        _ActiveDoors+0, 0 
	XORLW       2
	BTFSS       STATUS+0, 2 
	GOTO        L_State5194
L__State5722:
;FirmV_0_7_0.c,918 :: 		ClearTasks(9);
	MOVLW       9
	MOVWF       FARG_ClearTasks+0 
	CALL        _ClearTasks+0, 0
;FirmV_0_7_0.c,919 :: 		temp=ms500+delay;
	MOVF        State5_delay_L0+0, 0 
	ADDWF       _ms500+0, 0 
	MOVWF       R0 
	MOVLW       0
	ADDWFC      _ms500+1, 0 
	MOVWF       R1 
	MOVLW       0
	ADDWFC      _ms500+2, 0 
	MOVWF       R2 
	MOVLW       0
	ADDWFC      _ms500+3, 0 
	MOVWF       R3 
	MOVF        R0, 0 
	MOVWF       _temp+0 
	MOVF        R1, 0 
	MOVWF       _temp+1 
	MOVF        R2, 0 
	MOVWF       _temp+2 
	MOVF        R3, 0 
	MOVWF       _temp+3 
;FirmV_0_7_0.c,920 :: 		AddTask(temp,2);
	MOVF        R0, 0 
	MOVWF       FARG_AddTask+0 
	MOVF        R1, 0 
	MOVWF       FARG_AddTask+1 
	MOVF        R2, 0 
	MOVWF       FARG_AddTask+2 
	MOVF        R3, 0 
	MOVWF       FARG_AddTask+3 
	MOVLW       2
	MOVWF       FARG_AddTask+0 
	CALL        _AddTask+0, 0
;FirmV_0_7_0.c,921 :: 		AddTask(temp,6);
	MOVF        _temp+0, 0 
	MOVWF       FARG_AddTask+0 
	MOVF        _temp+1, 0 
	MOVWF       FARG_AddTask+1 
	MOVF        _temp+2, 0 
	MOVWF       FARG_AddTask+2 
	MOVF        _temp+3, 0 
	MOVWF       FARG_AddTask+3 
	MOVLW       6
	MOVWF       FARG_AddTask+0 
	CALL        _AddTask+0, 0
;FirmV_0_7_0.c,922 :: 		M1isSlow=0;//speed up
	CLRF        _M1isSlow+0 
;FirmV_0_7_0.c,923 :: 		temp=ms500+OverloadDelay+delay;
	MOVLW       6
	ADDWF       _ms500+0, 0 
	MOVWF       R0 
	MOVLW       0
	ADDWFC      _ms500+1, 0 
	MOVWF       R1 
	MOVLW       0
	ADDWFC      _ms500+2, 0 
	MOVWF       R2 
	MOVLW       0
	ADDWFC      _ms500+3, 0 
	MOVWF       R3 
	MOVF        State5_delay_L0+0, 0 
	ADDWF       R0, 1 
	MOVLW       0
	ADDWFC      R1, 1 
	ADDWFC      R2, 1 
	ADDWFC      R3, 1 
	MOVF        R0, 0 
	MOVWF       _temp+0 
	MOVF        R1, 0 
	MOVWF       _temp+1 
	MOVF        R2, 0 
	MOVWF       _temp+2 
	MOVF        R3, 0 
	MOVWF       _temp+3 
;FirmV_0_7_0.c,924 :: 		AddTask(temp,11); //overload check
	MOVF        R0, 0 
	MOVWF       FARG_AddTask+0 
	MOVF        R1, 0 
	MOVWF       FARG_AddTask+1 
	MOVF        R2, 0 
	MOVWF       FARG_AddTask+2 
	MOVF        R3, 0 
	MOVWF       FARG_AddTask+3 
	MOVLW       11
	MOVWF       FARG_AddTask+0 
	CALL        _AddTask+0, 0
;FirmV_0_7_0.c,925 :: 		temp=ms500+Door1CloseTime+delay;
	MOVF        _Door1CloseTime+0, 0 
	ADDWF       _ms500+0, 0 
	MOVWF       R0 
	MOVLW       0
	ADDWFC      _ms500+1, 0 
	MOVWF       R1 
	MOVLW       0
	ADDWFC      _ms500+2, 0 
	MOVWF       R2 
	MOVLW       0
	ADDWFC      _ms500+3, 0 
	MOVWF       R3 
	MOVF        State5_delay_L0+0, 0 
	ADDWF       R0, 1 
	MOVLW       0
	ADDWFC      R1, 1 
	ADDWFC      R2, 1 
	ADDWFC      R3, 1 
	MOVF        R0, 0 
	MOVWF       _temp+0 
	MOVF        R1, 0 
	MOVWF       _temp+1 
	MOVF        R2, 0 
	MOVWF       _temp+2 
	MOVF        R3, 0 
	MOVWF       _temp+3 
;FirmV_0_7_0.c,926 :: 		AddTask(temp,4);//Stop motor
	MOVF        R0, 0 
	MOVWF       FARG_AddTask+0 
	MOVF        R1, 0 
	MOVWF       FARG_AddTask+1 
	MOVF        R2, 0 
	MOVWF       FARG_AddTask+2 
	MOVF        R3, 0 
	MOVWF       FARG_AddTask+3 
	MOVLW       4
	MOVWF       FARG_AddTask+0 
	CALL        _AddTask+0, 0
;FirmV_0_7_0.c,931 :: 		temp=ms500+ActionTimeDiff+delay;
	MOVF        _ActionTimeDiff+0, 0 
	ADDWF       _ms500+0, 0 
	MOVWF       R0 
	MOVLW       0
	ADDWFC      _ms500+1, 0 
	MOVWF       R1 
	MOVLW       0
	ADDWFC      _ms500+2, 0 
	MOVWF       R2 
	MOVLW       0
	ADDWFC      _ms500+3, 0 
	MOVWF       R3 
	MOVF        State5_delay_L0+0, 0 
	ADDWF       R0, 1 
	MOVLW       0
	ADDWFC      R1, 1 
	ADDWFC      R2, 1 
	ADDWFC      R3, 1 
	MOVF        R0, 0 
	MOVWF       _temp+0 
	MOVF        R1, 0 
	MOVWF       _temp+1 
	MOVF        R2, 0 
	MOVWF       _temp+2 
	MOVF        R3, 0 
	MOVWF       _temp+3 
;FirmV_0_7_0.c,932 :: 		AddTask(temp,1);
	MOVF        R0, 0 
	MOVWF       FARG_AddTask+0 
	MOVF        R1, 0 
	MOVWF       FARG_AddTask+1 
	MOVF        R2, 0 
	MOVWF       FARG_AddTask+2 
	MOVF        R3, 0 
	MOVWF       FARG_AddTask+3 
	MOVLW       1
	MOVWF       FARG_AddTask+0 
	CALL        _AddTask+0, 0
;FirmV_0_7_0.c,933 :: 		temp=ms500+ActionTimeDiff+delay;
	MOVF        _ActionTimeDiff+0, 0 
	ADDWF       _ms500+0, 0 
	MOVWF       R0 
	MOVLW       0
	ADDWFC      _ms500+1, 0 
	MOVWF       R1 
	MOVLW       0
	ADDWFC      _ms500+2, 0 
	MOVWF       R2 
	MOVLW       0
	ADDWFC      _ms500+3, 0 
	MOVWF       R3 
	MOVF        State5_delay_L0+0, 0 
	ADDWF       R0, 1 
	MOVLW       0
	ADDWFC      R1, 1 
	ADDWFC      R2, 1 
	ADDWFC      R3, 1 
	MOVF        R0, 0 
	MOVWF       _temp+0 
	MOVF        R1, 0 
	MOVWF       _temp+1 
	MOVF        R2, 0 
	MOVWF       _temp+2 
	MOVF        R3, 0 
	MOVWF       _temp+3 
;FirmV_0_7_0.c,934 :: 		AddTask(temp,5);
	MOVF        R0, 0 
	MOVWF       FARG_AddTask+0 
	MOVF        R1, 0 
	MOVWF       FARG_AddTask+1 
	MOVF        R2, 0 
	MOVWF       FARG_AddTask+2 
	MOVF        R3, 0 
	MOVWF       FARG_AddTask+3 
	MOVLW       5
	MOVWF       FARG_AddTask+0 
	CALL        _AddTask+0, 0
;FirmV_0_7_0.c,935 :: 		M2isSlow=0;//speed up
	CLRF        _M2isSlow+0 
;FirmV_0_7_0.c,936 :: 		temp=ms500+ActionTimeDiff+OverloadDelay+delay;
	MOVF        _ActionTimeDiff+0, 0 
	ADDWF       _ms500+0, 0 
	MOVWF       R0 
	MOVLW       0
	ADDWFC      _ms500+1, 0 
	MOVWF       R1 
	MOVLW       0
	ADDWFC      _ms500+2, 0 
	MOVWF       R2 
	MOVLW       0
	ADDWFC      _ms500+3, 0 
	MOVWF       R3 
	MOVLW       6
	ADDWF       R0, 1 
	MOVLW       0
	ADDWFC      R1, 1 
	ADDWFC      R2, 1 
	ADDWFC      R3, 1 
	MOVF        State5_delay_L0+0, 0 
	ADDWF       R0, 1 
	MOVLW       0
	ADDWFC      R1, 1 
	ADDWFC      R2, 1 
	ADDWFC      R3, 1 
	MOVF        R0, 0 
	MOVWF       _temp+0 
	MOVF        R1, 0 
	MOVWF       _temp+1 
	MOVF        R2, 0 
	MOVWF       _temp+2 
	MOVF        R3, 0 
	MOVWF       _temp+3 
;FirmV_0_7_0.c,937 :: 		AddTask(temp,10); //overload check
	MOVF        R0, 0 
	MOVWF       FARG_AddTask+0 
	MOVF        R1, 0 
	MOVWF       FARG_AddTask+1 
	MOVF        R2, 0 
	MOVWF       FARG_AddTask+2 
	MOVF        R3, 0 
	MOVWF       FARG_AddTask+3 
	MOVLW       10
	MOVWF       FARG_AddTask+0 
	CALL        _AddTask+0, 0
;FirmV_0_7_0.c,938 :: 		temp=ms500+Door2CloseTime+delay+ActionTimeDiff;
	MOVF        _Door2CloseTime+0, 0 
	ADDWF       _ms500+0, 0 
	MOVWF       R0 
	MOVLW       0
	ADDWFC      _ms500+1, 0 
	MOVWF       R1 
	MOVLW       0
	ADDWFC      _ms500+2, 0 
	MOVWF       R2 
	MOVLW       0
	ADDWFC      _ms500+3, 0 
	MOVWF       R3 
	MOVF        State5_delay_L0+0, 0 
	ADDWF       R0, 1 
	MOVLW       0
	ADDWFC      R1, 1 
	ADDWFC      R2, 1 
	ADDWFC      R3, 1 
	MOVF        _ActionTimeDiff+0, 0 
	ADDWF       R0, 1 
	MOVLW       0
	ADDWFC      R1, 1 
	ADDWFC      R2, 1 
	ADDWFC      R3, 1 
	MOVF        R0, 0 
	MOVWF       _temp+0 
	MOVF        R1, 0 
	MOVWF       _temp+1 
	MOVF        R2, 0 
	MOVWF       _temp+2 
	MOVF        R3, 0 
	MOVWF       _temp+3 
;FirmV_0_7_0.c,939 :: 		AddTask(temp,3);//Stop motor
	MOVF        R0, 0 
	MOVWF       FARG_AddTask+0 
	MOVF        R1, 0 
	MOVWF       FARG_AddTask+1 
	MOVF        R2, 0 
	MOVWF       FARG_AddTask+2 
	MOVF        R3, 0 
	MOVWF       FARG_AddTask+3 
	MOVLW       3
	MOVWF       FARG_AddTask+0 
	CALL        _AddTask+0, 0
;FirmV_0_7_0.c,940 :: 		}
L_State5194:
;FirmV_0_7_0.c,941 :: 		CloseDone=3;
	MOVLW       3
	MOVWF       _CloseDone+0 
;FirmV_0_7_0.c,942 :: 		OverloadCheckFlag1=0;
	CLRF        _OverloadCheckFlag1+0 
;FirmV_0_7_0.c,943 :: 		OverloadCheckFlag2=0;
	CLRF        _OverloadCheckFlag2+0 
;FirmV_0_7_0.c,944 :: 		State=7;
	MOVLW       7
	MOVWF       _State+0 
;FirmV_0_7_0.c,945 :: 		}
L_State5188:
;FirmV_0_7_0.c,947 :: 		if((Events.Photocell.b0==1)&&(AutoCloseTime!=0)&&(PassFlag==0))
	BTFSS       _Events+6, 0 
	GOTO        L_State5197
	MOVLW       0
	XORWF       _AutoCloseTime+1, 0 
	BTFSS       STATUS+0, 2 
	GOTO        L__State5810
	MOVLW       0
	XORWF       _AutoCloseTime+0, 0 
L__State5810:
	BTFSC       STATUS+0, 2 
	GOTO        L_State5197
	MOVF        _PassFlag+0, 0 
	XORLW       0
	BTFSS       STATUS+0, 2 
	GOTO        L_State5197
L__State5721:
;FirmV_0_7_0.c,948 :: 		{PassFlag=1; _AC=GetAutocloseTime();Logger("S5 Auto Close Deleted");}
	MOVLW       1
	MOVWF       _PassFlag+0 
	CALL        _GetAutocloseTime+0, 0
	MOVF        R0, 0 
	MOVWF       __AC+0 
	MOVLW       ?ICS?lstr39_FirmV_0_7_0+0
	MOVWF       TBLPTRL 
	MOVLW       hi_addr(?ICS?lstr39_FirmV_0_7_0+0)
	MOVWF       TBLPTRH 
	MOVLW       higher_addr(?ICS?lstr39_FirmV_0_7_0+0)
	MOVWF       TBLPTRU 
	MOVLW       ?lstr39_FirmV_0_7_0+0
	MOVWF       FSR1L 
	MOVLW       hi_addr(?lstr39_FirmV_0_7_0+0)
	MOVWF       FSR1H 
	MOVLW       22
	MOVWF       R0 
	MOVLW       1
	MOVWF       R1 
	CALL        ___CC2DW+0, 0
	MOVLW       ?lstr39_FirmV_0_7_0+0
	MOVWF       FARG_Logger_text+0 
	MOVLW       hi_addr(?lstr39_FirmV_0_7_0+0)
	MOVWF       FARG_Logger_text+1 
	CALL        _Logger+0, 0
L_State5197:
;FirmV_0_7_0.c,950 :: 		if((PassFlag==1)&&(Events.Photocell.b0==0)&&(AutoCloseTime!=0))
	MOVF        _PassFlag+0, 0 
	XORLW       1
	BTFSS       STATUS+0, 2 
	GOTO        L_State5200
	BTFSC       _Events+6, 0 
	GOTO        L_State5200
	MOVLW       0
	XORWF       _AutoCloseTime+1, 0 
	BTFSS       STATUS+0, 2 
	GOTO        L__State5811
	MOVLW       0
	XORWF       _AutoCloseTime+0, 0 
L__State5811:
	BTFSC       STATUS+0, 2 
	GOTO        L_State5200
L__State5720:
;FirmV_0_7_0.c,953 :: 		{temp=ms500+_AC;AddTask(temp,9);PassFlag=0;longwordtostrwithzeros(temp,t);Logger("S5 Insert 9 at:");Logger(t);}
	MOVF        __AC+0, 0 
	ADDWF       _ms500+0, 0 
	MOVWF       R0 
	MOVLW       0
	ADDWFC      _ms500+1, 0 
	MOVWF       R1 
	MOVLW       0
	ADDWFC      _ms500+2, 0 
	MOVWF       R2 
	MOVLW       0
	ADDWFC      _ms500+3, 0 
	MOVWF       R3 
	MOVF        R0, 0 
	MOVWF       _temp+0 
	MOVF        R1, 0 
	MOVWF       _temp+1 
	MOVF        R2, 0 
	MOVWF       _temp+2 
	MOVF        R3, 0 
	MOVWF       _temp+3 
	MOVF        R0, 0 
	MOVWF       FARG_AddTask+0 
	MOVF        R1, 0 
	MOVWF       FARG_AddTask+1 
	MOVF        R2, 0 
	MOVWF       FARG_AddTask+2 
	MOVF        R3, 0 
	MOVWF       FARG_AddTask+3 
	MOVLW       9
	MOVWF       FARG_AddTask+0 
	CALL        _AddTask+0, 0
	CLRF        _PassFlag+0 
	MOVF        _temp+0, 0 
	MOVWF       FARG_LongWordToStrWithZeros_input+0 
	MOVF        _temp+1, 0 
	MOVWF       FARG_LongWordToStrWithZeros_input+1 
	MOVF        _temp+2, 0 
	MOVWF       FARG_LongWordToStrWithZeros_input+2 
	MOVF        _temp+3, 0 
	MOVWF       FARG_LongWordToStrWithZeros_input+3 
	MOVLW       _t+0
	MOVWF       FARG_LongWordToStrWithZeros_output+0 
	MOVLW       hi_addr(_t+0)
	MOVWF       FARG_LongWordToStrWithZeros_output+1 
	CALL        _LongWordToStrWithZeros+0, 0
	MOVLW       ?ICS?lstr40_FirmV_0_7_0+0
	MOVWF       TBLPTRL 
	MOVLW       hi_addr(?ICS?lstr40_FirmV_0_7_0+0)
	MOVWF       TBLPTRH 
	MOVLW       higher_addr(?ICS?lstr40_FirmV_0_7_0+0)
	MOVWF       TBLPTRU 
	MOVLW       ?lstr40_FirmV_0_7_0+0
	MOVWF       FSR1L 
	MOVLW       hi_addr(?lstr40_FirmV_0_7_0+0)
	MOVWF       FSR1H 
	MOVLW       16
	MOVWF       R0 
	MOVLW       1
	MOVWF       R1 
	CALL        ___CC2DW+0, 0
	MOVLW       ?lstr40_FirmV_0_7_0+0
	MOVWF       FARG_Logger_text+0 
	MOVLW       hi_addr(?lstr40_FirmV_0_7_0+0)
	MOVWF       FARG_Logger_text+1 
	CALL        _Logger+0, 0
	MOVLW       _t+0
	MOVWF       FARG_Logger_text+0 
	MOVLW       hi_addr(_t+0)
	MOVWF       FARG_Logger_text+1 
	CALL        _Logger+0, 0
;FirmV_0_7_0.c,955 :: 		{temp=ms500+CloseAfterPass;AddTask(temp,9);PassFlag=0;longwordtostrwithzeros(temp,t);Logger("S5 Insert 9 at:");Logger(t);}
L_State5202:
;FirmV_0_7_0.c,956 :: 		}
L_State5200:
;FirmV_0_7_0.c,958 :: 		}
	RETURN      0
; end of _State5

_State6:

;FirmV_0_7_0.c,978 :: 		void State6()
;FirmV_0_7_0.c,982 :: 		char delay=3;
	MOVLW       3
	MOVWF       State6_delay_L0+0 
;FirmV_0_7_0.c,983 :: 		Flasher=0;
	BCF         PORTD+0, 7 
;FirmV_0_7_0.c,984 :: 		FlashFlag=0;
	CLRF        _FlashFlag+0 
;FirmV_0_7_0.c,985 :: 		if((Events.Remote!=0)||(PhotocellOpenFlag))
	MOVF        _Events+4, 0 
	XORLW       0
	BTFSS       STATUS+0, 2 
	GOTO        L__State6729
	MOVF        _PhotocellOpenFlag+0, 1 
	BTFSS       STATUS+0, 2 
	GOTO        L__State6729
	GOTO        L_State6205
L__State6729:
;FirmV_0_7_0.c,987 :: 		PhotocellOpenFlag=0;
	CLRF        _PhotocellOpenFlag+0 
;FirmV_0_7_0.c,988 :: 		Flasher=1;
	BSF         PORTD+0, 7 
;FirmV_0_7_0.c,989 :: 		FlashFlag=1;
	MOVLW       1
	MOVWF       _FlashFlag+0 
;FirmV_0_7_0.c,990 :: 		ClearTasks(9);
	MOVLW       9
	MOVWF       FARG_ClearTasks+0 
	CALL        _ClearTasks+0, 0
;FirmV_0_7_0.c,991 :: 		AddTask(ms500+1,12);
	MOVLW       1
	ADDWF       _ms500+0, 0 
	MOVWF       FARG_AddTask+0 
	MOVLW       0
	ADDWFC      _ms500+1, 0 
	MOVWF       FARG_AddTask+1 
	MOVLW       0
	ADDWFC      _ms500+2, 0 
	MOVWF       FARG_AddTask+2 
	MOVLW       0
	ADDWFC      _ms500+3, 0 
	MOVWF       FARG_AddTask+3 
	MOVLW       12
	MOVWF       FARG_AddTask+0 
	CALL        _AddTask+0, 0
;FirmV_0_7_0.c,992 :: 		temp=ms500+delay;
	MOVF        State6_delay_L0+0, 0 
	ADDWF       _ms500+0, 0 
	MOVWF       R0 
	MOVLW       0
	ADDWFC      _ms500+1, 0 
	MOVWF       R1 
	MOVLW       0
	ADDWFC      _ms500+2, 0 
	MOVWF       R2 
	MOVLW       0
	ADDWFC      _ms500+3, 0 
	MOVWF       R3 
	MOVF        R0, 0 
	MOVWF       _temp+0 
	MOVF        R1, 0 
	MOVWF       _temp+1 
	MOVF        R2, 0 
	MOVWF       _temp+2 
	MOVF        R3, 0 
	MOVWF       _temp+3 
;FirmV_0_7_0.c,993 :: 		AddTask(temp,1);
	MOVF        R0, 0 
	MOVWF       FARG_AddTask+0 
	MOVF        R1, 0 
	MOVWF       FARG_AddTask+1 
	MOVF        R2, 0 
	MOVWF       FARG_AddTask+2 
	MOVF        R3, 0 
	MOVWF       FARG_AddTask+3 
	MOVLW       1
	MOVWF       FARG_AddTask+0 
	CALL        _AddTask+0, 0
;FirmV_0_7_0.c,994 :: 		AddTask(temp,5);
	MOVF        _temp+0, 0 
	MOVWF       FARG_AddTask+0 
	MOVF        _temp+1, 0 
	MOVWF       FARG_AddTask+1 
	MOVF        _temp+2, 0 
	MOVWF       FARG_AddTask+2 
	MOVF        _temp+3, 0 
	MOVWF       FARG_AddTask+3 
	MOVLW       5
	MOVWF       FARG_AddTask+0 
	CALL        _AddTask+0, 0
;FirmV_0_7_0.c,995 :: 		M1isSlow=0;//speed up
	CLRF        _M1isSlow+0 
;FirmV_0_7_0.c,996 :: 		temp=ms500+OverloadDelay+delay;
	MOVLW       6
	ADDWF       _ms500+0, 0 
	MOVWF       R0 
	MOVLW       0
	ADDWFC      _ms500+1, 0 
	MOVWF       R1 
	MOVLW       0
	ADDWFC      _ms500+2, 0 
	MOVWF       R2 
	MOVLW       0
	ADDWFC      _ms500+3, 0 
	MOVWF       R3 
	MOVF        State6_delay_L0+0, 0 
	ADDWF       R0, 1 
	MOVLW       0
	ADDWFC      R1, 1 
	ADDWFC      R2, 1 
	ADDWFC      R3, 1 
	MOVF        R0, 0 
	MOVWF       _temp+0 
	MOVF        R1, 0 
	MOVWF       _temp+1 
	MOVF        R2, 0 
	MOVWF       _temp+2 
	MOVF        R3, 0 
	MOVWF       _temp+3 
;FirmV_0_7_0.c,997 :: 		AddTask(temp,10); //overload check
	MOVF        R0, 0 
	MOVWF       FARG_AddTask+0 
	MOVF        R1, 0 
	MOVWF       FARG_AddTask+1 
	MOVF        R2, 0 
	MOVWF       FARG_AddTask+2 
	MOVF        R3, 0 
	MOVWF       FARG_AddTask+3 
	MOVLW       10
	MOVWF       FARG_AddTask+0 
	CALL        _AddTask+0, 0
;FirmV_0_7_0.c,998 :: 		temp=ms500+Door1OpenTime+delay;
	MOVF        _Door1OpenTime+0, 0 
	ADDWF       _ms500+0, 0 
	MOVWF       R0 
	MOVLW       0
	ADDWFC      _ms500+1, 0 
	MOVWF       R1 
	MOVLW       0
	ADDWFC      _ms500+2, 0 
	MOVWF       R2 
	MOVLW       0
	ADDWFC      _ms500+3, 0 
	MOVWF       R3 
	MOVF        State6_delay_L0+0, 0 
	ADDWF       R0, 1 
	MOVLW       0
	ADDWFC      R1, 1 
	ADDWFC      R2, 1 
	ADDWFC      R3, 1 
	MOVF        R0, 0 
	MOVWF       _temp+0 
	MOVF        R1, 0 
	MOVWF       _temp+1 
	MOVF        R2, 0 
	MOVWF       _temp+2 
	MOVF        R3, 0 
	MOVWF       _temp+3 
;FirmV_0_7_0.c,999 :: 		AddTask(temp,3);//Stop motor
	MOVF        R0, 0 
	MOVWF       FARG_AddTask+0 
	MOVF        R1, 0 
	MOVWF       FARG_AddTask+1 
	MOVF        R2, 0 
	MOVWF       FARG_AddTask+2 
	MOVF        R3, 0 
	MOVWF       FARG_AddTask+3 
	MOVLW       3
	MOVWF       FARG_AddTask+0 
	CALL        _AddTask+0, 0
;FirmV_0_7_0.c,1000 :: 		if((Door2OpenTime!=0)&&(ActiveDoors==2))
	MOVF        _Door2OpenTime+0, 0 
	XORLW       0
	BTFSC       STATUS+0, 2 
	GOTO        L_State6208
	MOVF        _ActiveDoors+0, 0 
	XORLW       2
	BTFSS       STATUS+0, 2 
	GOTO        L_State6208
L__State6728:
;FirmV_0_7_0.c,1002 :: 		AddTask(ms500+ActionTimeDiff+delay,2);
	MOVF        _ActionTimeDiff+0, 0 
	ADDWF       _ms500+0, 0 
	MOVWF       FARG_AddTask+0 
	MOVLW       0
	ADDWFC      _ms500+1, 0 
	MOVWF       FARG_AddTask+1 
	MOVLW       0
	ADDWFC      _ms500+2, 0 
	MOVWF       FARG_AddTask+2 
	MOVLW       0
	ADDWFC      _ms500+3, 0 
	MOVWF       FARG_AddTask+3 
	MOVF        State6_delay_L0+0, 0 
	ADDWF       FARG_AddTask+0, 1 
	MOVLW       0
	ADDWFC      FARG_AddTask+1, 1 
	ADDWFC      FARG_AddTask+2, 1 
	ADDWFC      FARG_AddTask+3, 1 
	MOVLW       2
	MOVWF       FARG_AddTask+0 
	CALL        _AddTask+0, 0
;FirmV_0_7_0.c,1003 :: 		AddTask(ms500+ActionTimeDiff+delay,6);
	MOVF        _ActionTimeDiff+0, 0 
	ADDWF       _ms500+0, 0 
	MOVWF       FARG_AddTask+0 
	MOVLW       0
	ADDWFC      _ms500+1, 0 
	MOVWF       FARG_AddTask+1 
	MOVLW       0
	ADDWFC      _ms500+2, 0 
	MOVWF       FARG_AddTask+2 
	MOVLW       0
	ADDWFC      _ms500+3, 0 
	MOVWF       FARG_AddTask+3 
	MOVF        State6_delay_L0+0, 0 
	ADDWF       FARG_AddTask+0, 1 
	MOVLW       0
	ADDWFC      FARG_AddTask+1, 1 
	ADDWFC      FARG_AddTask+2, 1 
	ADDWFC      FARG_AddTask+3, 1 
	MOVLW       6
	MOVWF       FARG_AddTask+0 
	CALL        _AddTask+0, 0
;FirmV_0_7_0.c,1004 :: 		M2isSlow=0;//speed up
	CLRF        _M2isSlow+0 
;FirmV_0_7_0.c,1005 :: 		AddTask(ms500+ActionTimeDiff+OverloadDelay+delay,11); //overload check
	MOVF        _ActionTimeDiff+0, 0 
	ADDWF       _ms500+0, 0 
	MOVWF       FARG_AddTask+0 
	MOVLW       0
	ADDWFC      _ms500+1, 0 
	MOVWF       FARG_AddTask+1 
	MOVLW       0
	ADDWFC      _ms500+2, 0 
	MOVWF       FARG_AddTask+2 
	MOVLW       0
	ADDWFC      _ms500+3, 0 
	MOVWF       FARG_AddTask+3 
	MOVLW       6
	ADDWF       FARG_AddTask+0, 1 
	MOVLW       0
	ADDWFC      FARG_AddTask+1, 1 
	ADDWFC      FARG_AddTask+2, 1 
	ADDWFC      FARG_AddTask+3, 1 
	MOVF        State6_delay_L0+0, 0 
	ADDWF       FARG_AddTask+0, 1 
	MOVLW       0
	ADDWFC      FARG_AddTask+1, 1 
	ADDWFC      FARG_AddTask+2, 1 
	ADDWFC      FARG_AddTask+3, 1 
	MOVLW       11
	MOVWF       FARG_AddTask+0 
	CALL        _AddTask+0, 0
;FirmV_0_7_0.c,1006 :: 		AddTask(ms500+Door2OpenTime+ActionTimeDiff+delay,4);//Stop motor
	MOVF        _Door2OpenTime+0, 0 
	ADDWF       _ms500+0, 0 
	MOVWF       FARG_AddTask+0 
	MOVLW       0
	ADDWFC      _ms500+1, 0 
	MOVWF       FARG_AddTask+1 
	MOVLW       0
	ADDWFC      _ms500+2, 0 
	MOVWF       FARG_AddTask+2 
	MOVLW       0
	ADDWFC      _ms500+3, 0 
	MOVWF       FARG_AddTask+3 
	MOVF        _ActionTimeDiff+0, 0 
	ADDWF       FARG_AddTask+0, 1 
	MOVLW       0
	ADDWFC      FARG_AddTask+1, 1 
	ADDWFC      FARG_AddTask+2, 1 
	ADDWFC      FARG_AddTask+3, 1 
	MOVF        State6_delay_L0+0, 0 
	ADDWF       FARG_AddTask+0, 1 
	MOVLW       0
	ADDWFC      FARG_AddTask+1, 1 
	ADDWFC      FARG_AddTask+2, 1 
	ADDWFC      FARG_AddTask+3, 1 
	MOVLW       4
	MOVWF       FARG_AddTask+0 
	CALL        _AddTask+0, 0
;FirmV_0_7_0.c,1007 :: 		}
L_State6208:
;FirmV_0_7_0.c,1008 :: 		OpenDone=3;
	MOVLW       3
	MOVWF       _OpenDone+0 
;FirmV_0_7_0.c,1009 :: 		OverloadCheckFlag1=0;
	CLRF        _OverloadCheckFlag1+0 
;FirmV_0_7_0.c,1010 :: 		OverloadCheckFlag2=0;
	CLRF        _OverloadCheckFlag2+0 
;FirmV_0_7_0.c,1011 :: 		PassFlag=0;
	CLRF        _PassFlag+0 
;FirmV_0_7_0.c,1012 :: 		State=8;
	MOVLW       8
	MOVWF       _State+0 
;FirmV_0_7_0.c,1013 :: 		}
L_State6205:
;FirmV_0_7_0.c,1016 :: 		if(CheckTask(9)==1)
	MOVLW       9
	MOVWF       FARG_CheckTask+0 
	CALL        _CheckTask+0, 0
	MOVF        R0, 0 
	XORLW       1
	BTFSS       STATUS+0, 2 
	GOTO        L_State6209
;FirmV_0_7_0.c,1018 :: 		ClearTasks(9);
	MOVLW       9
	MOVWF       FARG_ClearTasks+0 
	CALL        _ClearTasks+0, 0
;FirmV_0_7_0.c,1019 :: 		temp=ms500+delay;
	MOVF        State6_delay_L0+0, 0 
	ADDWF       _ms500+0, 0 
	MOVWF       R0 
	MOVLW       0
	ADDWFC      _ms500+1, 0 
	MOVWF       R1 
	MOVLW       0
	ADDWFC      _ms500+2, 0 
	MOVWF       R2 
	MOVLW       0
	ADDWFC      _ms500+3, 0 
	MOVWF       R3 
	MOVF        R0, 0 
	MOVWF       _temp+0 
	MOVF        R1, 0 
	MOVWF       _temp+1 
	MOVF        R2, 0 
	MOVWF       _temp+2 
	MOVF        R3, 0 
	MOVWF       _temp+3 
;FirmV_0_7_0.c,1020 :: 		AddTask(temp,1);
	MOVF        R0, 0 
	MOVWF       FARG_AddTask+0 
	MOVF        R1, 0 
	MOVWF       FARG_AddTask+1 
	MOVF        R2, 0 
	MOVWF       FARG_AddTask+2 
	MOVF        R3, 0 
	MOVWF       FARG_AddTask+3 
	MOVLW       1
	MOVWF       FARG_AddTask+0 
	CALL        _AddTask+0, 0
;FirmV_0_7_0.c,1021 :: 		AddTask(temp,5);
	MOVF        _temp+0, 0 
	MOVWF       FARG_AddTask+0 
	MOVF        _temp+1, 0 
	MOVWF       FARG_AddTask+1 
	MOVF        _temp+2, 0 
	MOVWF       FARG_AddTask+2 
	MOVF        _temp+3, 0 
	MOVWF       FARG_AddTask+3 
	MOVLW       5
	MOVWF       FARG_AddTask+0 
	CALL        _AddTask+0, 0
;FirmV_0_7_0.c,1022 :: 		M1isSlow=0;//speed up
	CLRF        _M1isSlow+0 
;FirmV_0_7_0.c,1023 :: 		temp=ms500+OverloadDelay+delay;
	MOVLW       6
	ADDWF       _ms500+0, 0 
	MOVWF       R0 
	MOVLW       0
	ADDWFC      _ms500+1, 0 
	MOVWF       R1 
	MOVLW       0
	ADDWFC      _ms500+2, 0 
	MOVWF       R2 
	MOVLW       0
	ADDWFC      _ms500+3, 0 
	MOVWF       R3 
	MOVF        State6_delay_L0+0, 0 
	ADDWF       R0, 1 
	MOVLW       0
	ADDWFC      R1, 1 
	ADDWFC      R2, 1 
	ADDWFC      R3, 1 
	MOVF        R0, 0 
	MOVWF       _temp+0 
	MOVF        R1, 0 
	MOVWF       _temp+1 
	MOVF        R2, 0 
	MOVWF       _temp+2 
	MOVF        R3, 0 
	MOVWF       _temp+3 
;FirmV_0_7_0.c,1024 :: 		AddTask(temp,10); //overload check
	MOVF        R0, 0 
	MOVWF       FARG_AddTask+0 
	MOVF        R1, 0 
	MOVWF       FARG_AddTask+1 
	MOVF        R2, 0 
	MOVWF       FARG_AddTask+2 
	MOVF        R3, 0 
	MOVWF       FARG_AddTask+3 
	MOVLW       10
	MOVWF       FARG_AddTask+0 
	CALL        _AddTask+0, 0
;FirmV_0_7_0.c,1025 :: 		temp=ms500+Door1CloseTime+delay;
	MOVF        _Door1CloseTime+0, 0 
	ADDWF       _ms500+0, 0 
	MOVWF       R0 
	MOVLW       0
	ADDWFC      _ms500+1, 0 
	MOVWF       R1 
	MOVLW       0
	ADDWFC      _ms500+2, 0 
	MOVWF       R2 
	MOVLW       0
	ADDWFC      _ms500+3, 0 
	MOVWF       R3 
	MOVF        State6_delay_L0+0, 0 
	ADDWF       R0, 1 
	MOVLW       0
	ADDWFC      R1, 1 
	ADDWFC      R2, 1 
	ADDWFC      R3, 1 
	MOVF        R0, 0 
	MOVWF       _temp+0 
	MOVF        R1, 0 
	MOVWF       _temp+1 
	MOVF        R2, 0 
	MOVWF       _temp+2 
	MOVF        R3, 0 
	MOVWF       _temp+3 
;FirmV_0_7_0.c,1026 :: 		AddTask(temp,3);//Stop motor
	MOVF        R0, 0 
	MOVWF       FARG_AddTask+0 
	MOVF        R1, 0 
	MOVWF       FARG_AddTask+1 
	MOVF        R2, 0 
	MOVWF       FARG_AddTask+2 
	MOVF        R3, 0 
	MOVWF       FARG_AddTask+3 
	MOVLW       3
	MOVWF       FARG_AddTask+0 
	CALL        _AddTask+0, 0
;FirmV_0_7_0.c,1028 :: 		if((Door2CloseTime!=0)&&(ActiveDoors==2))
	MOVF        _Door2CloseTime+0, 0 
	XORLW       0
	BTFSC       STATUS+0, 2 
	GOTO        L_State6212
	MOVF        _ActiveDoors+0, 0 
	XORLW       2
	BTFSS       STATUS+0, 2 
	GOTO        L_State6212
L__State6727:
;FirmV_0_7_0.c,1030 :: 		AddTask(ms500+ActionTimeDiff+delay,2);
	MOVF        _ActionTimeDiff+0, 0 
	ADDWF       _ms500+0, 0 
	MOVWF       FARG_AddTask+0 
	MOVLW       0
	ADDWFC      _ms500+1, 0 
	MOVWF       FARG_AddTask+1 
	MOVLW       0
	ADDWFC      _ms500+2, 0 
	MOVWF       FARG_AddTask+2 
	MOVLW       0
	ADDWFC      _ms500+3, 0 
	MOVWF       FARG_AddTask+3 
	MOVF        State6_delay_L0+0, 0 
	ADDWF       FARG_AddTask+0, 1 
	MOVLW       0
	ADDWFC      FARG_AddTask+1, 1 
	ADDWFC      FARG_AddTask+2, 1 
	ADDWFC      FARG_AddTask+3, 1 
	MOVLW       2
	MOVWF       FARG_AddTask+0 
	CALL        _AddTask+0, 0
;FirmV_0_7_0.c,1031 :: 		AddTask(ms500+ActionTimeDiff+delay,6);
	MOVF        _ActionTimeDiff+0, 0 
	ADDWF       _ms500+0, 0 
	MOVWF       FARG_AddTask+0 
	MOVLW       0
	ADDWFC      _ms500+1, 0 
	MOVWF       FARG_AddTask+1 
	MOVLW       0
	ADDWFC      _ms500+2, 0 
	MOVWF       FARG_AddTask+2 
	MOVLW       0
	ADDWFC      _ms500+3, 0 
	MOVWF       FARG_AddTask+3 
	MOVF        State6_delay_L0+0, 0 
	ADDWF       FARG_AddTask+0, 1 
	MOVLW       0
	ADDWFC      FARG_AddTask+1, 1 
	ADDWFC      FARG_AddTask+2, 1 
	ADDWFC      FARG_AddTask+3, 1 
	MOVLW       6
	MOVWF       FARG_AddTask+0 
	CALL        _AddTask+0, 0
;FirmV_0_7_0.c,1032 :: 		M2isSlow=0;//speed up
	CLRF        _M2isSlow+0 
;FirmV_0_7_0.c,1033 :: 		AddTask(ms500+ActionTimeDiff+OverloadDelay+delay,11); //overload check
	MOVF        _ActionTimeDiff+0, 0 
	ADDWF       _ms500+0, 0 
	MOVWF       FARG_AddTask+0 
	MOVLW       0
	ADDWFC      _ms500+1, 0 
	MOVWF       FARG_AddTask+1 
	MOVLW       0
	ADDWFC      _ms500+2, 0 
	MOVWF       FARG_AddTask+2 
	MOVLW       0
	ADDWFC      _ms500+3, 0 
	MOVWF       FARG_AddTask+3 
	MOVLW       6
	ADDWF       FARG_AddTask+0, 1 
	MOVLW       0
	ADDWFC      FARG_AddTask+1, 1 
	ADDWFC      FARG_AddTask+2, 1 
	ADDWFC      FARG_AddTask+3, 1 
	MOVF        State6_delay_L0+0, 0 
	ADDWF       FARG_AddTask+0, 1 
	MOVLW       0
	ADDWFC      FARG_AddTask+1, 1 
	ADDWFC      FARG_AddTask+2, 1 
	ADDWFC      FARG_AddTask+3, 1 
	MOVLW       11
	MOVWF       FARG_AddTask+0 
	CALL        _AddTask+0, 0
;FirmV_0_7_0.c,1034 :: 		AddTask(ms500+Door1CloseTime+ActionTimeDiff+delay,4);//Stop motor
	MOVF        _Door1CloseTime+0, 0 
	ADDWF       _ms500+0, 0 
	MOVWF       FARG_AddTask+0 
	MOVLW       0
	ADDWFC      _ms500+1, 0 
	MOVWF       FARG_AddTask+1 
	MOVLW       0
	ADDWFC      _ms500+2, 0 
	MOVWF       FARG_AddTask+2 
	MOVLW       0
	ADDWFC      _ms500+3, 0 
	MOVWF       FARG_AddTask+3 
	MOVF        _ActionTimeDiff+0, 0 
	ADDWF       FARG_AddTask+0, 1 
	MOVLW       0
	ADDWFC      FARG_AddTask+1, 1 
	ADDWFC      FARG_AddTask+2, 1 
	ADDWFC      FARG_AddTask+3, 1 
	MOVF        State6_delay_L0+0, 0 
	ADDWF       FARG_AddTask+0, 1 
	MOVLW       0
	ADDWFC      FARG_AddTask+1, 1 
	ADDWFC      FARG_AddTask+2, 1 
	ADDWFC      FARG_AddTask+3, 1 
	MOVLW       4
	MOVWF       FARG_AddTask+0 
	CALL        _AddTask+0, 0
;FirmV_0_7_0.c,1035 :: 		}
L_State6212:
;FirmV_0_7_0.c,1036 :: 		CloseDone=3;
	MOVLW       3
	MOVWF       _CloseDone+0 
;FirmV_0_7_0.c,1037 :: 		OverloadCheckFlag1=0;
	CLRF        _OverloadCheckFlag1+0 
;FirmV_0_7_0.c,1038 :: 		OverloadCheckFlag2=0;
	CLRF        _OverloadCheckFlag2+0 
;FirmV_0_7_0.c,1039 :: 		PassFlag=0;
	CLRF        _PassFlag+0 
;FirmV_0_7_0.c,1040 :: 		State=7;
	MOVLW       7
	MOVWF       _State+0 
;FirmV_0_7_0.c,1041 :: 		}
L_State6209:
;FirmV_0_7_0.c,1043 :: 		if((Events.Photocell.b0==1)&&(AutoCloseTime!=0)&&(PassFlag==0))
	BTFSS       _Events+6, 0 
	GOTO        L_State6215
	MOVLW       0
	XORWF       _AutoCloseTime+1, 0 
	BTFSS       STATUS+0, 2 
	GOTO        L__State6812
	MOVLW       0
	XORWF       _AutoCloseTime+0, 0 
L__State6812:
	BTFSC       STATUS+0, 2 
	GOTO        L_State6215
	MOVF        _PassFlag+0, 0 
	XORLW       0
	BTFSS       STATUS+0, 2 
	GOTO        L_State6215
L__State6726:
;FirmV_0_7_0.c,1044 :: 		{PassFlag=1; _AC=GetAutocloseTime();Logger("S6 Auto Close Deleted");}
	MOVLW       1
	MOVWF       _PassFlag+0 
	CALL        _GetAutocloseTime+0, 0
	MOVF        R0, 0 
	MOVWF       __AC+0 
	MOVLW       ?ICS?lstr42_FirmV_0_7_0+0
	MOVWF       TBLPTRL 
	MOVLW       hi_addr(?ICS?lstr42_FirmV_0_7_0+0)
	MOVWF       TBLPTRH 
	MOVLW       higher_addr(?ICS?lstr42_FirmV_0_7_0+0)
	MOVWF       TBLPTRU 
	MOVLW       ?lstr42_FirmV_0_7_0+0
	MOVWF       FSR1L 
	MOVLW       hi_addr(?lstr42_FirmV_0_7_0+0)
	MOVWF       FSR1H 
	MOVLW       22
	MOVWF       R0 
	MOVLW       1
	MOVWF       R1 
	CALL        ___CC2DW+0, 0
	MOVLW       ?lstr42_FirmV_0_7_0+0
	MOVWF       FARG_Logger_text+0 
	MOVLW       hi_addr(?lstr42_FirmV_0_7_0+0)
	MOVWF       FARG_Logger_text+1 
	CALL        _Logger+0, 0
L_State6215:
;FirmV_0_7_0.c,1046 :: 		if((PassFlag==1)&&(Events.Photocell.b0==0)&&(AutoCloseTime!=0))
	MOVF        _PassFlag+0, 0 
	XORLW       1
	BTFSS       STATUS+0, 2 
	GOTO        L_State6218
	BTFSC       _Events+6, 0 
	GOTO        L_State6218
	MOVLW       0
	XORWF       _AutoCloseTime+1, 0 
	BTFSS       STATUS+0, 2 
	GOTO        L__State6813
	MOVLW       0
	XORWF       _AutoCloseTime+0, 0 
L__State6813:
	BTFSC       STATUS+0, 2 
	GOTO        L_State6218
L__State6725:
;FirmV_0_7_0.c,1048 :: 		{temp=ms500+_AC;AddTask(temp,9);PassFlag=0;longwordtostrwithzeros(temp,t);Logger("S6 Insert 9 at:");Logger(t);}
	MOVF        __AC+0, 0 
	ADDWF       _ms500+0, 0 
	MOVWF       R0 
	MOVLW       0
	ADDWFC      _ms500+1, 0 
	MOVWF       R1 
	MOVLW       0
	ADDWFC      _ms500+2, 0 
	MOVWF       R2 
	MOVLW       0
	ADDWFC      _ms500+3, 0 
	MOVWF       R3 
	MOVF        R0, 0 
	MOVWF       _temp+0 
	MOVF        R1, 0 
	MOVWF       _temp+1 
	MOVF        R2, 0 
	MOVWF       _temp+2 
	MOVF        R3, 0 
	MOVWF       _temp+3 
	MOVF        R0, 0 
	MOVWF       FARG_AddTask+0 
	MOVF        R1, 0 
	MOVWF       FARG_AddTask+1 
	MOVF        R2, 0 
	MOVWF       FARG_AddTask+2 
	MOVF        R3, 0 
	MOVWF       FARG_AddTask+3 
	MOVLW       9
	MOVWF       FARG_AddTask+0 
	CALL        _AddTask+0, 0
	CLRF        _PassFlag+0 
	MOVF        _temp+0, 0 
	MOVWF       FARG_LongWordToStrWithZeros_input+0 
	MOVF        _temp+1, 0 
	MOVWF       FARG_LongWordToStrWithZeros_input+1 
	MOVF        _temp+2, 0 
	MOVWF       FARG_LongWordToStrWithZeros_input+2 
	MOVF        _temp+3, 0 
	MOVWF       FARG_LongWordToStrWithZeros_input+3 
	MOVLW       _t+0
	MOVWF       FARG_LongWordToStrWithZeros_output+0 
	MOVLW       hi_addr(_t+0)
	MOVWF       FARG_LongWordToStrWithZeros_output+1 
	CALL        _LongWordToStrWithZeros+0, 0
	MOVLW       ?ICS?lstr43_FirmV_0_7_0+0
	MOVWF       TBLPTRL 
	MOVLW       hi_addr(?ICS?lstr43_FirmV_0_7_0+0)
	MOVWF       TBLPTRH 
	MOVLW       higher_addr(?ICS?lstr43_FirmV_0_7_0+0)
	MOVWF       TBLPTRU 
	MOVLW       ?lstr43_FirmV_0_7_0+0
	MOVWF       FSR1L 
	MOVLW       hi_addr(?lstr43_FirmV_0_7_0+0)
	MOVWF       FSR1H 
	MOVLW       16
	MOVWF       R0 
	MOVLW       1
	MOVWF       R1 
	CALL        ___CC2DW+0, 0
	MOVLW       ?lstr43_FirmV_0_7_0+0
	MOVWF       FARG_Logger_text+0 
	MOVLW       hi_addr(?lstr43_FirmV_0_7_0+0)
	MOVWF       FARG_Logger_text+1 
	CALL        _Logger+0, 0
	MOVLW       _t+0
	MOVWF       FARG_Logger_text+0 
	MOVLW       hi_addr(_t+0)
	MOVWF       FARG_Logger_text+1 
	CALL        _Logger+0, 0
;FirmV_0_7_0.c,1050 :: 		{temp=ms500+CloseAfterPass;AddTask(temp,9);PassFlag=0;longwordtostrwithzeros(temp,t);Logger("S6 Insert 9 at:");Logger(t);}
L_State6220:
;FirmV_0_7_0.c,1051 :: 		}
L_State6218:
;FirmV_0_7_0.c,1053 :: 		}
	RETURN      0
; end of _State6

_State7:

;FirmV_0_7_0.c,1075 :: 		void State7()
;FirmV_0_7_0.c,1077 :: 		Flasher=1;
	BSF         PORTD+0, 7 
;FirmV_0_7_0.c,1078 :: 		FlashFlag=1;
	MOVLW       1
	MOVWF       _FlashFlag+0 
;FirmV_0_7_0.c,1080 :: 		if(CheckTask(1))
	MOVLW       1
	MOVWF       FARG_CheckTask+0 
	CALL        _CheckTask+0, 0
	MOVF        R0, 1 
	BTFSC       STATUS+0, 2 
	GOTO        L_State7221
;FirmV_0_7_0.c,1081 :: 		{StartMotor(1,_Close);Logger("S7 Motor1Start");}
	MOVLW       1
	MOVWF       FARG_StartMotor+0 
	CLRF        FARG_StartMotor+0 
	CALL        _StartMotor+0, 0
	MOVLW       83
	MOVWF       ?lstr45_FirmV_0_7_0+0 
	MOVLW       55
	MOVWF       ?lstr45_FirmV_0_7_0+1 
	MOVLW       32
	MOVWF       ?lstr45_FirmV_0_7_0+2 
	MOVLW       77
	MOVWF       ?lstr45_FirmV_0_7_0+3 
	MOVLW       111
	MOVWF       ?lstr45_FirmV_0_7_0+4 
	MOVLW       116
	MOVWF       ?lstr45_FirmV_0_7_0+5 
	MOVLW       111
	MOVWF       ?lstr45_FirmV_0_7_0+6 
	MOVLW       114
	MOVWF       ?lstr45_FirmV_0_7_0+7 
	MOVLW       49
	MOVWF       ?lstr45_FirmV_0_7_0+8 
	MOVLW       83
	MOVWF       ?lstr45_FirmV_0_7_0+9 
	MOVLW       116
	MOVWF       ?lstr45_FirmV_0_7_0+10 
	MOVLW       97
	MOVWF       ?lstr45_FirmV_0_7_0+11 
	MOVLW       114
	MOVWF       ?lstr45_FirmV_0_7_0+12 
	MOVLW       116
	MOVWF       ?lstr45_FirmV_0_7_0+13 
	CLRF        ?lstr45_FirmV_0_7_0+14 
	MOVLW       ?lstr45_FirmV_0_7_0+0
	MOVWF       FARG_Logger_text+0 
	MOVLW       hi_addr(?lstr45_FirmV_0_7_0+0)
	MOVWF       FARG_Logger_text+1 
	CALL        _Logger+0, 0
L_State7221:
;FirmV_0_7_0.c,1083 :: 		if(CheckTask(2))
	MOVLW       2
	MOVWF       FARG_CheckTask+0 
	CALL        _CheckTask+0, 0
	MOVF        R0, 1 
	BTFSC       STATUS+0, 2 
	GOTO        L_State7222
;FirmV_0_7_0.c,1084 :: 		{StartMotor(2,_Close);Logger("S7 Motor2Start");memcpy(LCDLine1,_closing,16);memcpy(LCDLine2,_Blank,16);LCDUpdateFlag=1;LCDLines=1;}
	MOVLW       2
	MOVWF       FARG_StartMotor+0 
	CLRF        FARG_StartMotor+0 
	CALL        _StartMotor+0, 0
	MOVLW       83
	MOVWF       ?lstr46_FirmV_0_7_0+0 
	MOVLW       55
	MOVWF       ?lstr46_FirmV_0_7_0+1 
	MOVLW       32
	MOVWF       ?lstr46_FirmV_0_7_0+2 
	MOVLW       77
	MOVWF       ?lstr46_FirmV_0_7_0+3 
	MOVLW       111
	MOVWF       ?lstr46_FirmV_0_7_0+4 
	MOVLW       116
	MOVWF       ?lstr46_FirmV_0_7_0+5 
	MOVLW       111
	MOVWF       ?lstr46_FirmV_0_7_0+6 
	MOVLW       114
	MOVWF       ?lstr46_FirmV_0_7_0+7 
	MOVLW       50
	MOVWF       ?lstr46_FirmV_0_7_0+8 
	MOVLW       83
	MOVWF       ?lstr46_FirmV_0_7_0+9 
	MOVLW       116
	MOVWF       ?lstr46_FirmV_0_7_0+10 
	MOVLW       97
	MOVWF       ?lstr46_FirmV_0_7_0+11 
	MOVLW       114
	MOVWF       ?lstr46_FirmV_0_7_0+12 
	MOVLW       116
	MOVWF       ?lstr46_FirmV_0_7_0+13 
	CLRF        ?lstr46_FirmV_0_7_0+14 
	MOVLW       ?lstr46_FirmV_0_7_0+0
	MOVWF       FARG_Logger_text+0 
	MOVLW       hi_addr(?lstr46_FirmV_0_7_0+0)
	MOVWF       FARG_Logger_text+1 
	CALL        _Logger+0, 0
	MOVLW       _LCDLine1+0
	MOVWF       FARG_memcpy_d1+0 
	MOVLW       hi_addr(_LCDLine1+0)
	MOVWF       FARG_memcpy_d1+1 
	MOVLW       __closing+0
	MOVWF       FARG_memcpy_s1+0 
	MOVLW       hi_addr(__closing+0)
	MOVWF       FARG_memcpy_s1+1 
	MOVLW       16
	MOVWF       FARG_memcpy_n+0 
	MOVLW       0
	MOVWF       FARG_memcpy_n+1 
	CALL        _memcpy+0, 0
	MOVLW       _LCDLine2+0
	MOVWF       FARG_memcpy_d1+0 
	MOVLW       hi_addr(_LCDLine2+0)
	MOVWF       FARG_memcpy_d1+1 
	MOVLW       __Blank+0
	MOVWF       FARG_memcpy_s1+0 
	MOVLW       hi_addr(__Blank+0)
	MOVWF       FARG_memcpy_s1+1 
	MOVLW       16
	MOVWF       FARG_memcpy_n+0 
	MOVLW       0
	MOVWF       FARG_memcpy_n+1 
	CALL        _memcpy+0, 0
	MOVLW       1
	MOVWF       _LCDUpdateFlag+0 
	MOVLW       1
	MOVWF       _LCDLines+0 
L_State7222:
;FirmV_0_7_0.c,1086 :: 		if(CheckTask(10))
	MOVLW       10
	MOVWF       FARG_CheckTask+0 
	CALL        _CheckTask+0, 0
	MOVF        R0, 1 
	BTFSC       STATUS+0, 2 
	GOTO        L_State7223
;FirmV_0_7_0.c,1087 :: 		{OverloadCheckFlag1=1; OverloadInit(1);Logger("S7 M1 Overload Check");}
	MOVLW       1
	MOVWF       _OverloadCheckFlag1+0 
	MOVLW       1
	MOVWF       FARG_OverloadInit+0 
	CALL        _OverloadInit+0, 0
	MOVLW       ?ICS?lstr47_FirmV_0_7_0+0
	MOVWF       TBLPTRL 
	MOVLW       hi_addr(?ICS?lstr47_FirmV_0_7_0+0)
	MOVWF       TBLPTRH 
	MOVLW       higher_addr(?ICS?lstr47_FirmV_0_7_0+0)
	MOVWF       TBLPTRU 
	MOVLW       ?lstr47_FirmV_0_7_0+0
	MOVWF       FSR1L 
	MOVLW       hi_addr(?lstr47_FirmV_0_7_0+0)
	MOVWF       FSR1H 
	MOVLW       21
	MOVWF       R0 
	MOVLW       1
	MOVWF       R1 
	CALL        ___CC2DW+0, 0
	MOVLW       ?lstr47_FirmV_0_7_0+0
	MOVWF       FARG_Logger_text+0 
	MOVLW       hi_addr(?lstr47_FirmV_0_7_0+0)
	MOVWF       FARG_Logger_text+1 
	CALL        _Logger+0, 0
L_State7223:
;FirmV_0_7_0.c,1089 :: 		if(CheckTask(11))
	MOVLW       11
	MOVWF       FARG_CheckTask+0 
	CALL        _CheckTask+0, 0
	MOVF        R0, 1 
	BTFSC       STATUS+0, 2 
	GOTO        L_State7224
;FirmV_0_7_0.c,1090 :: 		{OverloadCheckFlag2=1; OverloadInit(2);Logger("S7 M2 Overload Check");}
	MOVLW       1
	MOVWF       _OverloadCheckFlag2+0 
	MOVLW       2
	MOVWF       FARG_OverloadInit+0 
	CALL        _OverloadInit+0, 0
	MOVLW       ?ICS?lstr48_FirmV_0_7_0+0
	MOVWF       TBLPTRL 
	MOVLW       hi_addr(?ICS?lstr48_FirmV_0_7_0+0)
	MOVWF       TBLPTRH 
	MOVLW       higher_addr(?ICS?lstr48_FirmV_0_7_0+0)
	MOVWF       TBLPTRU 
	MOVLW       ?lstr48_FirmV_0_7_0+0
	MOVWF       FSR1L 
	MOVLW       hi_addr(?lstr48_FirmV_0_7_0+0)
	MOVWF       FSR1H 
	MOVLW       21
	MOVWF       R0 
	MOVLW       1
	MOVWF       R1 
	CALL        ___CC2DW+0, 0
	MOVLW       ?lstr48_FirmV_0_7_0+0
	MOVWF       FARG_Logger_text+0 
	MOVLW       hi_addr(?lstr48_FirmV_0_7_0+0)
	MOVWF       FARG_Logger_text+1 
	CALL        _Logger+0, 0
L_State7224:
;FirmV_0_7_0.c,1092 :: 		if(CheckTask(5))
	MOVLW       5
	MOVWF       FARG_CheckTask+0 
	CALL        _CheckTask+0, 0
	MOVF        R0, 1 
	BTFSC       STATUS+0, 2 
	GOTO        L_State7225
;FirmV_0_7_0.c,1093 :: 		{SetMotorSpeed(1,Motor2FullSpeed); M1isSlow=0;Logger("S7 M1 Speed UP");}
	MOVLW       1
	MOVWF       FARG_SetMotorSpeed+0 
	MOVF        _Motor2FullSpeed+0, 0 
	MOVWF       FARG_SetMotorSpeed+0 
	CALL        _SetMotorSpeed+0, 0
	CLRF        _M1isSlow+0 
	MOVLW       83
	MOVWF       ?lstr49_FirmV_0_7_0+0 
	MOVLW       55
	MOVWF       ?lstr49_FirmV_0_7_0+1 
	MOVLW       32
	MOVWF       ?lstr49_FirmV_0_7_0+2 
	MOVLW       77
	MOVWF       ?lstr49_FirmV_0_7_0+3 
	MOVLW       49
	MOVWF       ?lstr49_FirmV_0_7_0+4 
	MOVLW       32
	MOVWF       ?lstr49_FirmV_0_7_0+5 
	MOVLW       83
	MOVWF       ?lstr49_FirmV_0_7_0+6 
	MOVLW       112
	MOVWF       ?lstr49_FirmV_0_7_0+7 
	MOVLW       101
	MOVWF       ?lstr49_FirmV_0_7_0+8 
	MOVLW       101
	MOVWF       ?lstr49_FirmV_0_7_0+9 
	MOVLW       100
	MOVWF       ?lstr49_FirmV_0_7_0+10 
	MOVLW       32
	MOVWF       ?lstr49_FirmV_0_7_0+11 
	MOVLW       85
	MOVWF       ?lstr49_FirmV_0_7_0+12 
	MOVLW       80
	MOVWF       ?lstr49_FirmV_0_7_0+13 
	CLRF        ?lstr49_FirmV_0_7_0+14 
	MOVLW       ?lstr49_FirmV_0_7_0+0
	MOVWF       FARG_Logger_text+0 
	MOVLW       hi_addr(?lstr49_FirmV_0_7_0+0)
	MOVWF       FARG_Logger_text+1 
	CALL        _Logger+0, 0
L_State7225:
;FirmV_0_7_0.c,1095 :: 		if(CheckTask(6))
	MOVLW       6
	MOVWF       FARG_CheckTask+0 
	CALL        _CheckTask+0, 0
	MOVF        R0, 1 
	BTFSC       STATUS+0, 2 
	GOTO        L_State7226
;FirmV_0_7_0.c,1096 :: 		{SetMotorSpeed(Motor1FullSpeed,1); M2isSlow=0;Logger("S7 M2 Speed UP");}
	MOVF        _Motor1FullSpeed+0, 0 
	MOVWF       FARG_SetMotorSpeed+0 
	MOVLW       1
	MOVWF       FARG_SetMotorSpeed+0 
	CALL        _SetMotorSpeed+0, 0
	CLRF        _M2isSlow+0 
	MOVLW       83
	MOVWF       ?lstr50_FirmV_0_7_0+0 
	MOVLW       55
	MOVWF       ?lstr50_FirmV_0_7_0+1 
	MOVLW       32
	MOVWF       ?lstr50_FirmV_0_7_0+2 
	MOVLW       77
	MOVWF       ?lstr50_FirmV_0_7_0+3 
	MOVLW       50
	MOVWF       ?lstr50_FirmV_0_7_0+4 
	MOVLW       32
	MOVWF       ?lstr50_FirmV_0_7_0+5 
	MOVLW       83
	MOVWF       ?lstr50_FirmV_0_7_0+6 
	MOVLW       112
	MOVWF       ?lstr50_FirmV_0_7_0+7 
	MOVLW       101
	MOVWF       ?lstr50_FirmV_0_7_0+8 
	MOVLW       101
	MOVWF       ?lstr50_FirmV_0_7_0+9 
	MOVLW       100
	MOVWF       ?lstr50_FirmV_0_7_0+10 
	MOVLW       32
	MOVWF       ?lstr50_FirmV_0_7_0+11 
	MOVLW       85
	MOVWF       ?lstr50_FirmV_0_7_0+12 
	MOVLW       80
	MOVWF       ?lstr50_FirmV_0_7_0+13 
	CLRF        ?lstr50_FirmV_0_7_0+14 
	MOVLW       ?lstr50_FirmV_0_7_0+0
	MOVWF       FARG_Logger_text+0 
	MOVLW       hi_addr(?lstr50_FirmV_0_7_0+0)
	MOVWF       FARG_Logger_text+1 
	CALL        _Logger+0, 0
L_State7226:
;FirmV_0_7_0.c,1098 :: 		if((CheckTask(3)||((OverloadCheckFlag1==1)&&(Events.Overload.b0==1)))&&(CloseDone.b0))
	MOVLW       3
	MOVWF       FARG_CheckTask+0 
	CALL        _CheckTask+0, 0
	MOVF        R0, 1 
	BTFSS       STATUS+0, 2 
	GOTO        L__State7737
	MOVF        _OverloadCheckFlag1+0, 0 
	XORLW       1
	BTFSS       STATUS+0, 2 
	GOTO        L__State7738
	BTFSS       _Events+5, 0 
	GOTO        L__State7738
	GOTO        L__State7737
L__State7738:
	GOTO        L_State7233
L__State7737:
	BTFSS       _CloseDone+0, 0 
	GOTO        L_State7233
L__State7736:
;FirmV_0_7_0.c,1099 :: 		{CloseDone.b0=0; StopMotor(1);Logger("S7 M1 Stoped");}
	BCF         _CloseDone+0, 0 
	MOVLW       1
	MOVWF       FARG_StopMotor+0 
	CALL        _StopMotor+0, 0
	MOVLW       83
	MOVWF       ?lstr51_FirmV_0_7_0+0 
	MOVLW       55
	MOVWF       ?lstr51_FirmV_0_7_0+1 
	MOVLW       32
	MOVWF       ?lstr51_FirmV_0_7_0+2 
	MOVLW       77
	MOVWF       ?lstr51_FirmV_0_7_0+3 
	MOVLW       49
	MOVWF       ?lstr51_FirmV_0_7_0+4 
	MOVLW       32
	MOVWF       ?lstr51_FirmV_0_7_0+5 
	MOVLW       83
	MOVWF       ?lstr51_FirmV_0_7_0+6 
	MOVLW       116
	MOVWF       ?lstr51_FirmV_0_7_0+7 
	MOVLW       111
	MOVWF       ?lstr51_FirmV_0_7_0+8 
	MOVLW       112
	MOVWF       ?lstr51_FirmV_0_7_0+9 
	MOVLW       101
	MOVWF       ?lstr51_FirmV_0_7_0+10 
	MOVLW       100
	MOVWF       ?lstr51_FirmV_0_7_0+11 
	CLRF        ?lstr51_FirmV_0_7_0+12 
	MOVLW       ?lstr51_FirmV_0_7_0+0
	MOVWF       FARG_Logger_text+0 
	MOVLW       hi_addr(?lstr51_FirmV_0_7_0+0)
	MOVWF       FARG_Logger_text+1 
	CALL        _Logger+0, 0
L_State7233:
;FirmV_0_7_0.c,1101 :: 		if((CheckTask(4)||((OverloadCheckFlag2==1)&&(Events.Overload.b1==1)))&&(CloseDone.b1))
	MOVLW       4
	MOVWF       FARG_CheckTask+0 
	CALL        _CheckTask+0, 0
	MOVF        R0, 1 
	BTFSS       STATUS+0, 2 
	GOTO        L__State7734
	MOVF        _OverloadCheckFlag2+0, 0 
	XORLW       1
	BTFSS       STATUS+0, 2 
	GOTO        L__State7735
	BTFSS       _Events+5, 1 
	GOTO        L__State7735
	GOTO        L__State7734
L__State7735:
	GOTO        L_State7240
L__State7734:
	BTFSS       _CloseDone+0, 1 
	GOTO        L_State7240
L__State7733:
;FirmV_0_7_0.c,1102 :: 		{CloseDone.b1=0; StopMotor(2);Logger("S7 M2 Stoped");}
	BCF         _CloseDone+0, 1 
	MOVLW       2
	MOVWF       FARG_StopMotor+0 
	CALL        _StopMotor+0, 0
	MOVLW       83
	MOVWF       ?lstr52_FirmV_0_7_0+0 
	MOVLW       55
	MOVWF       ?lstr52_FirmV_0_7_0+1 
	MOVLW       32
	MOVWF       ?lstr52_FirmV_0_7_0+2 
	MOVLW       77
	MOVWF       ?lstr52_FirmV_0_7_0+3 
	MOVLW       50
	MOVWF       ?lstr52_FirmV_0_7_0+4 
	MOVLW       32
	MOVWF       ?lstr52_FirmV_0_7_0+5 
	MOVLW       83
	MOVWF       ?lstr52_FirmV_0_7_0+6 
	MOVLW       116
	MOVWF       ?lstr52_FirmV_0_7_0+7 
	MOVLW       111
	MOVWF       ?lstr52_FirmV_0_7_0+8 
	MOVLW       112
	MOVWF       ?lstr52_FirmV_0_7_0+9 
	MOVLW       101
	MOVWF       ?lstr52_FirmV_0_7_0+10 
	MOVLW       100
	MOVWF       ?lstr52_FirmV_0_7_0+11 
	CLRF        ?lstr52_FirmV_0_7_0+12 
	MOVLW       ?lstr52_FirmV_0_7_0+0
	MOVWF       FARG_Logger_text+0 
	MOVLW       hi_addr(?lstr52_FirmV_0_7_0+0)
	MOVWF       FARG_Logger_text+1 
	CALL        _Logger+0, 0
L_State7240:
;FirmV_0_7_0.c,1104 :: 		if((Door2OpenTime==0)||(ActiveDoors==1))
	MOVF        _Door2OpenTime+0, 0 
	XORLW       0
	BTFSC       STATUS+0, 2 
	GOTO        L__State7732
	MOVF        _ActiveDoors+0, 0 
	XORLW       1
	BTFSC       STATUS+0, 2 
	GOTO        L__State7732
	GOTO        L_State7243
L__State7732:
;FirmV_0_7_0.c,1105 :: 		CloseDone.b1=0;
	BCF         _CloseDone+0, 1 
L_State7243:
;FirmV_0_7_0.c,1107 :: 		if((Events.Photocell.b0==1))
	BTFSS       _Events+6, 0 
	GOTO        L_State7244
;FirmV_0_7_0.c,1108 :: 		{StopMotor(1); StopMotor(2); OverloadCheckFlag1=0;OverloadCheckFlag2=0;State=6;PhotocellOpenFlag=1;Logger("S7 Photocell Int");ClearTasks(9);
	MOVLW       1
	MOVWF       FARG_StopMotor+0 
	CALL        _StopMotor+0, 0
	MOVLW       2
	MOVWF       FARG_StopMotor+0 
	CALL        _StopMotor+0, 0
	CLRF        _OverloadCheckFlag1+0 
	CLRF        _OverloadCheckFlag2+0 
	MOVLW       6
	MOVWF       _State+0 
	MOVLW       1
	MOVWF       _PhotocellOpenFlag+0 
	MOVLW       ?ICS?lstr53_FirmV_0_7_0+0
	MOVWF       TBLPTRL 
	MOVLW       hi_addr(?ICS?lstr53_FirmV_0_7_0+0)
	MOVWF       TBLPTRH 
	MOVLW       higher_addr(?ICS?lstr53_FirmV_0_7_0+0)
	MOVWF       TBLPTRU 
	MOVLW       ?lstr53_FirmV_0_7_0+0
	MOVWF       FSR1L 
	MOVLW       hi_addr(?lstr53_FirmV_0_7_0+0)
	MOVWF       FSR1H 
	MOVLW       17
	MOVWF       R0 
	MOVLW       1
	MOVWF       R1 
	CALL        ___CC2DW+0, 0
	MOVLW       ?lstr53_FirmV_0_7_0+0
	MOVWF       FARG_Logger_text+0 
	MOVLW       hi_addr(?lstr53_FirmV_0_7_0+0)
	MOVWF       FARG_Logger_text+1 
	CALL        _Logger+0, 0
	MOVLW       9
	MOVWF       FARG_ClearTasks+0 
	CALL        _ClearTasks+0, 0
;FirmV_0_7_0.c,1109 :: 		memcpy(LCDLine1,_stop,16);memcpy(LCDLine2,_ErrPhoto,16);LCDUpdateFlag=1;LCDLines=2;}
	MOVLW       _LCDLine1+0
	MOVWF       FARG_memcpy_d1+0 
	MOVLW       hi_addr(_LCDLine1+0)
	MOVWF       FARG_memcpy_d1+1 
	MOVLW       __stop+0
	MOVWF       FARG_memcpy_s1+0 
	MOVLW       hi_addr(__stop+0)
	MOVWF       FARG_memcpy_s1+1 
	MOVLW       16
	MOVWF       FARG_memcpy_n+0 
	MOVLW       0
	MOVWF       FARG_memcpy_n+1 
	CALL        _memcpy+0, 0
	MOVLW       _LCDLine2+0
	MOVWF       FARG_memcpy_d1+0 
	MOVLW       hi_addr(_LCDLine2+0)
	MOVWF       FARG_memcpy_d1+1 
	MOVLW       __errPhoto+0
	MOVWF       FARG_memcpy_s1+0 
	MOVLW       hi_addr(__errPhoto+0)
	MOVWF       FARG_memcpy_s1+1 
	MOVLW       16
	MOVWF       FARG_memcpy_n+0 
	MOVLW       0
	MOVWF       FARG_memcpy_n+1 
	CALL        _memcpy+0, 0
	MOVLW       1
	MOVWF       _LCDUpdateFlag+0 
	MOVLW       2
	MOVWF       _LCDLines+0 
L_State7244:
;FirmV_0_7_0.c,1111 :: 		if((Events.Remote!=0))
	MOVF        _Events+4, 0 
	XORLW       0
	BTFSC       STATUS+0, 2 
	GOTO        L_State7245
;FirmV_0_7_0.c,1112 :: 		{StopMotor(1); StopMotor(2); State=6;OverloadCheckFlag1=0;OverloadCheckFlag2=0;Logger("S7 Remote Pressed");ClearTasks(9);
	MOVLW       1
	MOVWF       FARG_StopMotor+0 
	CALL        _StopMotor+0, 0
	MOVLW       2
	MOVWF       FARG_StopMotor+0 
	CALL        _StopMotor+0, 0
	MOVLW       6
	MOVWF       _State+0 
	CLRF        _OverloadCheckFlag1+0 
	CLRF        _OverloadCheckFlag2+0 
	MOVLW       ?ICS?lstr54_FirmV_0_7_0+0
	MOVWF       TBLPTRL 
	MOVLW       hi_addr(?ICS?lstr54_FirmV_0_7_0+0)
	MOVWF       TBLPTRH 
	MOVLW       higher_addr(?ICS?lstr54_FirmV_0_7_0+0)
	MOVWF       TBLPTRU 
	MOVLW       ?lstr54_FirmV_0_7_0+0
	MOVWF       FSR1L 
	MOVLW       hi_addr(?lstr54_FirmV_0_7_0+0)
	MOVWF       FSR1H 
	MOVLW       18
	MOVWF       R0 
	MOVLW       1
	MOVWF       R1 
	CALL        ___CC2DW+0, 0
	MOVLW       ?lstr54_FirmV_0_7_0+0
	MOVWF       FARG_Logger_text+0 
	MOVLW       hi_addr(?lstr54_FirmV_0_7_0+0)
	MOVWF       FARG_Logger_text+1 
	CALL        _Logger+0, 0
	MOVLW       9
	MOVWF       FARG_ClearTasks+0 
	CALL        _ClearTasks+0, 0
;FirmV_0_7_0.c,1113 :: 		memcpy(LCDLine1,_stop,16);memcpy(LCDLine2,_ErrRemote,16);LCDUpdateFlag=1;LCDLines=2;}
	MOVLW       _LCDLine1+0
	MOVWF       FARG_memcpy_d1+0 
	MOVLW       hi_addr(_LCDLine1+0)
	MOVWF       FARG_memcpy_d1+1 
	MOVLW       __stop+0
	MOVWF       FARG_memcpy_s1+0 
	MOVLW       hi_addr(__stop+0)
	MOVWF       FARG_memcpy_s1+1 
	MOVLW       16
	MOVWF       FARG_memcpy_n+0 
	MOVLW       0
	MOVWF       FARG_memcpy_n+1 
	CALL        _memcpy+0, 0
	MOVLW       _LCDLine2+0
	MOVWF       FARG_memcpy_d1+0 
	MOVLW       hi_addr(_LCDLine2+0)
	MOVWF       FARG_memcpy_d1+1 
	MOVLW       __errRemote+0
	MOVWF       FARG_memcpy_s1+0 
	MOVLW       hi_addr(__errRemote+0)
	MOVWF       FARG_memcpy_s1+1 
	MOVLW       16
	MOVWF       FARG_memcpy_n+0 
	MOVLW       0
	MOVWF       FARG_memcpy_n+1 
	CALL        _memcpy+0, 0
	MOVLW       1
	MOVWF       _LCDUpdateFlag+0 
	MOVLW       2
	MOVWF       _LCDLines+0 
L_State7245:
;FirmV_0_7_0.c,1115 :: 		if((Events.Limiter==1)&&(LimiterEnable))
	MOVF        _Events+7, 0 
	XORLW       1
	BTFSS       STATUS+0, 2 
	GOTO        L_State7248
	MOVF        _LimiterEnable+0, 1 
	BTFSC       STATUS+0, 2 
	GOTO        L_State7248
L__State7731:
;FirmV_0_7_0.c,1116 :: 		{StopMotor(1); StopMotor(2); State=6;OverloadCheckFlag1=0;OverloadCheckFlag2=0;Logger("S7 Limit Switch Stop");ClearTasks(9);
	MOVLW       1
	MOVWF       FARG_StopMotor+0 
	CALL        _StopMotor+0, 0
	MOVLW       2
	MOVWF       FARG_StopMotor+0 
	CALL        _StopMotor+0, 0
	MOVLW       6
	MOVWF       _State+0 
	CLRF        _OverloadCheckFlag1+0 
	CLRF        _OverloadCheckFlag2+0 
	MOVLW       ?ICS?lstr55_FirmV_0_7_0+0
	MOVWF       TBLPTRL 
	MOVLW       hi_addr(?ICS?lstr55_FirmV_0_7_0+0)
	MOVWF       TBLPTRH 
	MOVLW       higher_addr(?ICS?lstr55_FirmV_0_7_0+0)
	MOVWF       TBLPTRU 
	MOVLW       ?lstr55_FirmV_0_7_0+0
	MOVWF       FSR1L 
	MOVLW       hi_addr(?lstr55_FirmV_0_7_0+0)
	MOVWF       FSR1H 
	MOVLW       21
	MOVWF       R0 
	MOVLW       1
	MOVWF       R1 
	CALL        ___CC2DW+0, 0
	MOVLW       ?lstr55_FirmV_0_7_0+0
	MOVWF       FARG_Logger_text+0 
	MOVLW       hi_addr(?lstr55_FirmV_0_7_0+0)
	MOVWF       FARG_Logger_text+1 
	CALL        _Logger+0, 0
	MOVLW       9
	MOVWF       FARG_ClearTasks+0 
	CALL        _ClearTasks+0, 0
;FirmV_0_7_0.c,1117 :: 		memcpy(LCDLine1,_stop,16);memcpy(LCDLine2,_ErrLimit,16);LCDUpdateFlag=1;LCDLines=2;}
	MOVLW       _LCDLine1+0
	MOVWF       FARG_memcpy_d1+0 
	MOVLW       hi_addr(_LCDLine1+0)
	MOVWF       FARG_memcpy_d1+1 
	MOVLW       __stop+0
	MOVWF       FARG_memcpy_s1+0 
	MOVLW       hi_addr(__stop+0)
	MOVWF       FARG_memcpy_s1+1 
	MOVLW       16
	MOVWF       FARG_memcpy_n+0 
	MOVLW       0
	MOVWF       FARG_memcpy_n+1 
	CALL        _memcpy+0, 0
	MOVLW       _LCDLine2+0
	MOVWF       FARG_memcpy_d1+0 
	MOVLW       hi_addr(_LCDLine2+0)
	MOVWF       FARG_memcpy_d1+1 
	MOVLW       __errLimit+0
	MOVWF       FARG_memcpy_s1+0 
	MOVLW       hi_addr(__errLimit+0)
	MOVWF       FARG_memcpy_s1+1 
	MOVLW       16
	MOVWF       FARG_memcpy_n+0 
	MOVLW       0
	MOVWF       FARG_memcpy_n+1 
	CALL        _memcpy+0, 0
	MOVLW       1
	MOVWF       _LCDUpdateFlag+0 
	MOVLW       2
	MOVWF       _LCDLines+0 
L_State7248:
;FirmV_0_7_0.c,1119 :: 		if(CloseDone==0)
	MOVF        _CloseDone+0, 0 
	XORLW       0
	BTFSS       STATUS+0, 2 
	GOTO        L_State7249
;FirmV_0_7_0.c,1120 :: 		{State=1; PassFlag=0;ClearTasks(9);memcpy(LCDLine1,_close,16);memcpy(LCDLine2,_Blank,16);LCDUpdateFlag=1;LCDLines=1;}
	MOVLW       1
	MOVWF       _State+0 
	CLRF        _PassFlag+0 
	MOVLW       9
	MOVWF       FARG_ClearTasks+0 
	CALL        _ClearTasks+0, 0
	MOVLW       _LCDLine1+0
	MOVWF       FARG_memcpy_d1+0 
	MOVLW       hi_addr(_LCDLine1+0)
	MOVWF       FARG_memcpy_d1+1 
	MOVLW       __close+0
	MOVWF       FARG_memcpy_s1+0 
	MOVLW       hi_addr(__close+0)
	MOVWF       FARG_memcpy_s1+1 
	MOVLW       16
	MOVWF       FARG_memcpy_n+0 
	MOVLW       0
	MOVWF       FARG_memcpy_n+1 
	CALL        _memcpy+0, 0
	MOVLW       _LCDLine2+0
	MOVWF       FARG_memcpy_d1+0 
	MOVLW       hi_addr(_LCDLine2+0)
	MOVWF       FARG_memcpy_d1+1 
	MOVLW       __Blank+0
	MOVWF       FARG_memcpy_s1+0 
	MOVLW       hi_addr(__Blank+0)
	MOVWF       FARG_memcpy_s1+1 
	MOVLW       16
	MOVWF       FARG_memcpy_n+0 
	MOVLW       0
	MOVWF       FARG_memcpy_n+1 
	CALL        _memcpy+0, 0
	MOVLW       1
	MOVWF       _LCDUpdateFlag+0 
	MOVLW       1
	MOVWF       _LCDLines+0 
L_State7249:
;FirmV_0_7_0.c,1122 :: 		if((State==5)||(State==6))
	MOVF        _State+0, 0 
	XORLW       5
	BTFSC       STATUS+0, 2 
	GOTO        L__State7730
	MOVF        _State+0, 0 
	XORLW       6
	BTFSC       STATUS+0, 2 
	GOTO        L__State7730
	GOTO        L_State7252
L__State7730:
;FirmV_0_7_0.c,1123 :: 		{ClearTasks(0);if(AutoCloseTime!=0){AddTask(ms500+AutoCloseTime,9);Logger("S7 Autoclose Renewed");memcpy(LCDLine2,_autoclose,16);LCDUpdateFlag=1;LCDLines=2;}}
	CLRF        FARG_ClearTasks+0 
	CALL        _ClearTasks+0, 0
	MOVLW       0
	XORWF       _AutoCloseTime+1, 0 
	BTFSS       STATUS+0, 2 
	GOTO        L__State7814
	MOVLW       0
	XORWF       _AutoCloseTime+0, 0 
L__State7814:
	BTFSC       STATUS+0, 2 
	GOTO        L_State7253
	MOVF        _AutoCloseTime+0, 0 
	ADDWF       _ms500+0, 0 
	MOVWF       FARG_AddTask+0 
	MOVF        _AutoCloseTime+1, 0 
	ADDWFC      _ms500+1, 0 
	MOVWF       FARG_AddTask+1 
	MOVLW       0
	ADDWFC      _ms500+2, 0 
	MOVWF       FARG_AddTask+2 
	MOVLW       0
	ADDWFC      _ms500+3, 0 
	MOVWF       FARG_AddTask+3 
	MOVLW       9
	MOVWF       FARG_AddTask+0 
	CALL        _AddTask+0, 0
	MOVLW       ?ICS?lstr56_FirmV_0_7_0+0
	MOVWF       TBLPTRL 
	MOVLW       hi_addr(?ICS?lstr56_FirmV_0_7_0+0)
	MOVWF       TBLPTRH 
	MOVLW       higher_addr(?ICS?lstr56_FirmV_0_7_0+0)
	MOVWF       TBLPTRU 
	MOVLW       ?lstr56_FirmV_0_7_0+0
	MOVWF       FSR1L 
	MOVLW       hi_addr(?lstr56_FirmV_0_7_0+0)
	MOVWF       FSR1H 
	MOVLW       21
	MOVWF       R0 
	MOVLW       1
	MOVWF       R1 
	CALL        ___CC2DW+0, 0
	MOVLW       ?lstr56_FirmV_0_7_0+0
	MOVWF       FARG_Logger_text+0 
	MOVLW       hi_addr(?lstr56_FirmV_0_7_0+0)
	MOVWF       FARG_Logger_text+1 
	CALL        _Logger+0, 0
	MOVLW       _LCDLine2+0
	MOVWF       FARG_memcpy_d1+0 
	MOVLW       hi_addr(_LCDLine2+0)
	MOVWF       FARG_memcpy_d1+1 
	MOVLW       __autoclose+0
	MOVWF       FARG_memcpy_s1+0 
	MOVLW       hi_addr(__autoclose+0)
	MOVWF       FARG_memcpy_s1+1 
	MOVLW       16
	MOVWF       FARG_memcpy_n+0 
	MOVLW       0
	MOVWF       FARG_memcpy_n+1 
	CALL        _memcpy+0, 0
	MOVLW       1
	MOVWF       _LCDUpdateFlag+0 
	MOVLW       2
	MOVWF       _LCDLines+0 
L_State7253:
L_State7252:
;FirmV_0_7_0.c,1126 :: 		}
	RETURN      0
; end of _State7

_State8:

;FirmV_0_7_0.c,1143 :: 		void State8()
;FirmV_0_7_0.c,1145 :: 		Flasher=1;
	BSF         PORTD+0, 7 
;FirmV_0_7_0.c,1146 :: 		FlashFlag=1;
	MOVLW       1
	MOVWF       _FlashFlag+0 
;FirmV_0_7_0.c,1148 :: 		if(CheckTask(1))
	MOVLW       1
	MOVWF       FARG_CheckTask+0 
	CALL        _CheckTask+0, 0
	MOVF        R0, 1 
	BTFSC       STATUS+0, 2 
	GOTO        L_State8254
;FirmV_0_7_0.c,1149 :: 		{StartMotor(1,_Open);Logger("S8 Motor1Start"); Lock=0;memcpy(LCDLine1,_opening,16);memcpy(LCDLine2,_Blank,16);LCDUpdateFlag=1;LCDLines=1;}
	MOVLW       1
	MOVWF       FARG_StartMotor+0 
	MOVLW       1
	MOVWF       FARG_StartMotor+0 
	CALL        _StartMotor+0, 0
	MOVLW       83
	MOVWF       ?lstr57_FirmV_0_7_0+0 
	MOVLW       56
	MOVWF       ?lstr57_FirmV_0_7_0+1 
	MOVLW       32
	MOVWF       ?lstr57_FirmV_0_7_0+2 
	MOVLW       77
	MOVWF       ?lstr57_FirmV_0_7_0+3 
	MOVLW       111
	MOVWF       ?lstr57_FirmV_0_7_0+4 
	MOVLW       116
	MOVWF       ?lstr57_FirmV_0_7_0+5 
	MOVLW       111
	MOVWF       ?lstr57_FirmV_0_7_0+6 
	MOVLW       114
	MOVWF       ?lstr57_FirmV_0_7_0+7 
	MOVLW       49
	MOVWF       ?lstr57_FirmV_0_7_0+8 
	MOVLW       83
	MOVWF       ?lstr57_FirmV_0_7_0+9 
	MOVLW       116
	MOVWF       ?lstr57_FirmV_0_7_0+10 
	MOVLW       97
	MOVWF       ?lstr57_FirmV_0_7_0+11 
	MOVLW       114
	MOVWF       ?lstr57_FirmV_0_7_0+12 
	MOVLW       116
	MOVWF       ?lstr57_FirmV_0_7_0+13 
	CLRF        ?lstr57_FirmV_0_7_0+14 
	MOVLW       ?lstr57_FirmV_0_7_0+0
	MOVWF       FARG_Logger_text+0 
	MOVLW       hi_addr(?lstr57_FirmV_0_7_0+0)
	MOVWF       FARG_Logger_text+1 
	CALL        _Logger+0, 0
	BCF         PORTD+0, 6 
	MOVLW       _LCDLine1+0
	MOVWF       FARG_memcpy_d1+0 
	MOVLW       hi_addr(_LCDLine1+0)
	MOVWF       FARG_memcpy_d1+1 
	MOVLW       __opening+0
	MOVWF       FARG_memcpy_s1+0 
	MOVLW       hi_addr(__opening+0)
	MOVWF       FARG_memcpy_s1+1 
	MOVLW       16
	MOVWF       FARG_memcpy_n+0 
	MOVLW       0
	MOVWF       FARG_memcpy_n+1 
	CALL        _memcpy+0, 0
	MOVLW       _LCDLine2+0
	MOVWF       FARG_memcpy_d1+0 
	MOVLW       hi_addr(_LCDLine2+0)
	MOVWF       FARG_memcpy_d1+1 
	MOVLW       __Blank+0
	MOVWF       FARG_memcpy_s1+0 
	MOVLW       hi_addr(__Blank+0)
	MOVWF       FARG_memcpy_s1+1 
	MOVLW       16
	MOVWF       FARG_memcpy_n+0 
	MOVLW       0
	MOVWF       FARG_memcpy_n+1 
	CALL        _memcpy+0, 0
	MOVLW       1
	MOVWF       _LCDUpdateFlag+0 
	MOVLW       1
	MOVWF       _LCDLines+0 
L_State8254:
;FirmV_0_7_0.c,1151 :: 		if(CheckTask(2))
	MOVLW       2
	MOVWF       FARG_CheckTask+0 
	CALL        _CheckTask+0, 0
	MOVF        R0, 1 
	BTFSC       STATUS+0, 2 
	GOTO        L_State8255
;FirmV_0_7_0.c,1152 :: 		{StartMotor(2,_Open);Logger("S8 Motor2Start"); Lock=0;}
	MOVLW       2
	MOVWF       FARG_StartMotor+0 
	MOVLW       1
	MOVWF       FARG_StartMotor+0 
	CALL        _StartMotor+0, 0
	MOVLW       83
	MOVWF       ?lstr58_FirmV_0_7_0+0 
	MOVLW       56
	MOVWF       ?lstr58_FirmV_0_7_0+1 
	MOVLW       32
	MOVWF       ?lstr58_FirmV_0_7_0+2 
	MOVLW       77
	MOVWF       ?lstr58_FirmV_0_7_0+3 
	MOVLW       111
	MOVWF       ?lstr58_FirmV_0_7_0+4 
	MOVLW       116
	MOVWF       ?lstr58_FirmV_0_7_0+5 
	MOVLW       111
	MOVWF       ?lstr58_FirmV_0_7_0+6 
	MOVLW       114
	MOVWF       ?lstr58_FirmV_0_7_0+7 
	MOVLW       50
	MOVWF       ?lstr58_FirmV_0_7_0+8 
	MOVLW       83
	MOVWF       ?lstr58_FirmV_0_7_0+9 
	MOVLW       116
	MOVWF       ?lstr58_FirmV_0_7_0+10 
	MOVLW       97
	MOVWF       ?lstr58_FirmV_0_7_0+11 
	MOVLW       114
	MOVWF       ?lstr58_FirmV_0_7_0+12 
	MOVLW       116
	MOVWF       ?lstr58_FirmV_0_7_0+13 
	CLRF        ?lstr58_FirmV_0_7_0+14 
	MOVLW       ?lstr58_FirmV_0_7_0+0
	MOVWF       FARG_Logger_text+0 
	MOVLW       hi_addr(?lstr58_FirmV_0_7_0+0)
	MOVWF       FARG_Logger_text+1 
	CALL        _Logger+0, 0
	BCF         PORTD+0, 6 
L_State8255:
;FirmV_0_7_0.c,1154 :: 		if(CheckTask(10))
	MOVLW       10
	MOVWF       FARG_CheckTask+0 
	CALL        _CheckTask+0, 0
	MOVF        R0, 1 
	BTFSC       STATUS+0, 2 
	GOTO        L_State8256
;FirmV_0_7_0.c,1155 :: 		{OverloadCheckFlag1=1; OverloadInit(1);Logger("S8 Overflow Flag1 Set");}
	MOVLW       1
	MOVWF       _OverloadCheckFlag1+0 
	MOVLW       1
	MOVWF       FARG_OverloadInit+0 
	CALL        _OverloadInit+0, 0
	MOVLW       ?ICS?lstr59_FirmV_0_7_0+0
	MOVWF       TBLPTRL 
	MOVLW       hi_addr(?ICS?lstr59_FirmV_0_7_0+0)
	MOVWF       TBLPTRH 
	MOVLW       higher_addr(?ICS?lstr59_FirmV_0_7_0+0)
	MOVWF       TBLPTRU 
	MOVLW       ?lstr59_FirmV_0_7_0+0
	MOVWF       FSR1L 
	MOVLW       hi_addr(?lstr59_FirmV_0_7_0+0)
	MOVWF       FSR1H 
	MOVLW       22
	MOVWF       R0 
	MOVLW       1
	MOVWF       R1 
	CALL        ___CC2DW+0, 0
	MOVLW       ?lstr59_FirmV_0_7_0+0
	MOVWF       FARG_Logger_text+0 
	MOVLW       hi_addr(?lstr59_FirmV_0_7_0+0)
	MOVWF       FARG_Logger_text+1 
	CALL        _Logger+0, 0
L_State8256:
;FirmV_0_7_0.c,1157 :: 		if(CheckTask(11))
	MOVLW       11
	MOVWF       FARG_CheckTask+0 
	CALL        _CheckTask+0, 0
	MOVF        R0, 1 
	BTFSC       STATUS+0, 2 
	GOTO        L_State8257
;FirmV_0_7_0.c,1158 :: 		{OverloadCheckFlag2=1; OverloadInit(2);Logger("S8 Overflow Flag2 Set");}
	MOVLW       1
	MOVWF       _OverloadCheckFlag2+0 
	MOVLW       2
	MOVWF       FARG_OverloadInit+0 
	CALL        _OverloadInit+0, 0
	MOVLW       ?ICS?lstr60_FirmV_0_7_0+0
	MOVWF       TBLPTRL 
	MOVLW       hi_addr(?ICS?lstr60_FirmV_0_7_0+0)
	MOVWF       TBLPTRH 
	MOVLW       higher_addr(?ICS?lstr60_FirmV_0_7_0+0)
	MOVWF       TBLPTRU 
	MOVLW       ?lstr60_FirmV_0_7_0+0
	MOVWF       FSR1L 
	MOVLW       hi_addr(?lstr60_FirmV_0_7_0+0)
	MOVWF       FSR1H 
	MOVLW       22
	MOVWF       R0 
	MOVLW       1
	MOVWF       R1 
	CALL        ___CC2DW+0, 0
	MOVLW       ?lstr60_FirmV_0_7_0+0
	MOVWF       FARG_Logger_text+0 
	MOVLW       hi_addr(?lstr60_FirmV_0_7_0+0)
	MOVWF       FARG_Logger_text+1 
	CALL        _Logger+0, 0
L_State8257:
;FirmV_0_7_0.c,1160 :: 		if(CheckTask(5))
	MOVLW       5
	MOVWF       FARG_CheckTask+0 
	CALL        _CheckTask+0, 0
	MOVF        R0, 1 
	BTFSC       STATUS+0, 2 
	GOTO        L_State8258
;FirmV_0_7_0.c,1161 :: 		{SetMotorSpeed(1,Motor2FullSpeed); M1isSlow=0;Logger("S8 Motor1 Fast");}
	MOVLW       1
	MOVWF       FARG_SetMotorSpeed+0 
	MOVF        _Motor2FullSpeed+0, 0 
	MOVWF       FARG_SetMotorSpeed+0 
	CALL        _SetMotorSpeed+0, 0
	CLRF        _M1isSlow+0 
	MOVLW       83
	MOVWF       ?lstr61_FirmV_0_7_0+0 
	MOVLW       56
	MOVWF       ?lstr61_FirmV_0_7_0+1 
	MOVLW       32
	MOVWF       ?lstr61_FirmV_0_7_0+2 
	MOVLW       77
	MOVWF       ?lstr61_FirmV_0_7_0+3 
	MOVLW       111
	MOVWF       ?lstr61_FirmV_0_7_0+4 
	MOVLW       116
	MOVWF       ?lstr61_FirmV_0_7_0+5 
	MOVLW       111
	MOVWF       ?lstr61_FirmV_0_7_0+6 
	MOVLW       114
	MOVWF       ?lstr61_FirmV_0_7_0+7 
	MOVLW       49
	MOVWF       ?lstr61_FirmV_0_7_0+8 
	MOVLW       32
	MOVWF       ?lstr61_FirmV_0_7_0+9 
	MOVLW       70
	MOVWF       ?lstr61_FirmV_0_7_0+10 
	MOVLW       97
	MOVWF       ?lstr61_FirmV_0_7_0+11 
	MOVLW       115
	MOVWF       ?lstr61_FirmV_0_7_0+12 
	MOVLW       116
	MOVWF       ?lstr61_FirmV_0_7_0+13 
	CLRF        ?lstr61_FirmV_0_7_0+14 
	MOVLW       ?lstr61_FirmV_0_7_0+0
	MOVWF       FARG_Logger_text+0 
	MOVLW       hi_addr(?lstr61_FirmV_0_7_0+0)
	MOVWF       FARG_Logger_text+1 
	CALL        _Logger+0, 0
L_State8258:
;FirmV_0_7_0.c,1163 :: 		if(CheckTask(6))
	MOVLW       6
	MOVWF       FARG_CheckTask+0 
	CALL        _CheckTask+0, 0
	MOVF        R0, 1 
	BTFSC       STATUS+0, 2 
	GOTO        L_State8259
;FirmV_0_7_0.c,1164 :: 		{SetMotorSpeed(Motor1FullSpeed,1); M2isSlow=0;Logger("S8 Motor2 Fast");}
	MOVF        _Motor1FullSpeed+0, 0 
	MOVWF       FARG_SetMotorSpeed+0 
	MOVLW       1
	MOVWF       FARG_SetMotorSpeed+0 
	CALL        _SetMotorSpeed+0, 0
	CLRF        _M2isSlow+0 
	MOVLW       83
	MOVWF       ?lstr62_FirmV_0_7_0+0 
	MOVLW       56
	MOVWF       ?lstr62_FirmV_0_7_0+1 
	MOVLW       32
	MOVWF       ?lstr62_FirmV_0_7_0+2 
	MOVLW       77
	MOVWF       ?lstr62_FirmV_0_7_0+3 
	MOVLW       111
	MOVWF       ?lstr62_FirmV_0_7_0+4 
	MOVLW       116
	MOVWF       ?lstr62_FirmV_0_7_0+5 
	MOVLW       111
	MOVWF       ?lstr62_FirmV_0_7_0+6 
	MOVLW       114
	MOVWF       ?lstr62_FirmV_0_7_0+7 
	MOVLW       50
	MOVWF       ?lstr62_FirmV_0_7_0+8 
	MOVLW       32
	MOVWF       ?lstr62_FirmV_0_7_0+9 
	MOVLW       70
	MOVWF       ?lstr62_FirmV_0_7_0+10 
	MOVLW       97
	MOVWF       ?lstr62_FirmV_0_7_0+11 
	MOVLW       115
	MOVWF       ?lstr62_FirmV_0_7_0+12 
	MOVLW       116
	MOVWF       ?lstr62_FirmV_0_7_0+13 
	CLRF        ?lstr62_FirmV_0_7_0+14 
	MOVLW       ?lstr62_FirmV_0_7_0+0
	MOVWF       FARG_Logger_text+0 
	MOVLW       hi_addr(?lstr62_FirmV_0_7_0+0)
	MOVWF       FARG_Logger_text+1 
	CALL        _Logger+0, 0
L_State8259:
;FirmV_0_7_0.c,1166 :: 		if((CheckTask(3)||((OverloadCheckFlag1==1)&&(Events.Overload.b0==1)))&&(OpenDone.b0))
	MOVLW       3
	MOVWF       FARG_CheckTask+0 
	CALL        _CheckTask+0, 0
	MOVF        R0, 1 
	BTFSS       STATUS+0, 2 
	GOTO        L__State8747
	MOVF        _OverloadCheckFlag1+0, 0 
	XORLW       1
	BTFSS       STATUS+0, 2 
	GOTO        L__State8748
	BTFSS       _Events+5, 0 
	GOTO        L__State8748
	GOTO        L__State8747
L__State8748:
	GOTO        L_State8266
L__State8747:
	BTFSS       _OpenDone+0, 0 
	GOTO        L_State8266
L__State8746:
;FirmV_0_7_0.c,1167 :: 		{OpenDone.b0=0; StopMotor(1);Logger("S8 Motor1 Stop");}
	BCF         _OpenDone+0, 0 
	MOVLW       1
	MOVWF       FARG_StopMotor+0 
	CALL        _StopMotor+0, 0
	MOVLW       83
	MOVWF       ?lstr63_FirmV_0_7_0+0 
	MOVLW       56
	MOVWF       ?lstr63_FirmV_0_7_0+1 
	MOVLW       32
	MOVWF       ?lstr63_FirmV_0_7_0+2 
	MOVLW       77
	MOVWF       ?lstr63_FirmV_0_7_0+3 
	MOVLW       111
	MOVWF       ?lstr63_FirmV_0_7_0+4 
	MOVLW       116
	MOVWF       ?lstr63_FirmV_0_7_0+5 
	MOVLW       111
	MOVWF       ?lstr63_FirmV_0_7_0+6 
	MOVLW       114
	MOVWF       ?lstr63_FirmV_0_7_0+7 
	MOVLW       49
	MOVWF       ?lstr63_FirmV_0_7_0+8 
	MOVLW       32
	MOVWF       ?lstr63_FirmV_0_7_0+9 
	MOVLW       83
	MOVWF       ?lstr63_FirmV_0_7_0+10 
	MOVLW       116
	MOVWF       ?lstr63_FirmV_0_7_0+11 
	MOVLW       111
	MOVWF       ?lstr63_FirmV_0_7_0+12 
	MOVLW       112
	MOVWF       ?lstr63_FirmV_0_7_0+13 
	CLRF        ?lstr63_FirmV_0_7_0+14 
	MOVLW       ?lstr63_FirmV_0_7_0+0
	MOVWF       FARG_Logger_text+0 
	MOVLW       hi_addr(?lstr63_FirmV_0_7_0+0)
	MOVWF       FARG_Logger_text+1 
	CALL        _Logger+0, 0
L_State8266:
;FirmV_0_7_0.c,1169 :: 		if((CheckTask(4)||((OverloadCheckFlag2==1)&&(Events.Overload.b1==1)))&&(OpenDone.b1))
	MOVLW       4
	MOVWF       FARG_CheckTask+0 
	CALL        _CheckTask+0, 0
	MOVF        R0, 1 
	BTFSS       STATUS+0, 2 
	GOTO        L__State8744
	MOVF        _OverloadCheckFlag2+0, 0 
	XORLW       1
	BTFSS       STATUS+0, 2 
	GOTO        L__State8745
	BTFSS       _Events+5, 1 
	GOTO        L__State8745
	GOTO        L__State8744
L__State8745:
	GOTO        L_State8273
L__State8744:
	BTFSS       _OpenDone+0, 1 
	GOTO        L_State8273
L__State8743:
;FirmV_0_7_0.c,1170 :: 		{OpenDone.b1=0; StopMotor(2);Logger("S8 Motor2 Stop");}
	BCF         _OpenDone+0, 1 
	MOVLW       2
	MOVWF       FARG_StopMotor+0 
	CALL        _StopMotor+0, 0
	MOVLW       83
	MOVWF       ?lstr64_FirmV_0_7_0+0 
	MOVLW       56
	MOVWF       ?lstr64_FirmV_0_7_0+1 
	MOVLW       32
	MOVWF       ?lstr64_FirmV_0_7_0+2 
	MOVLW       77
	MOVWF       ?lstr64_FirmV_0_7_0+3 
	MOVLW       111
	MOVWF       ?lstr64_FirmV_0_7_0+4 
	MOVLW       116
	MOVWF       ?lstr64_FirmV_0_7_0+5 
	MOVLW       111
	MOVWF       ?lstr64_FirmV_0_7_0+6 
	MOVLW       114
	MOVWF       ?lstr64_FirmV_0_7_0+7 
	MOVLW       50
	MOVWF       ?lstr64_FirmV_0_7_0+8 
	MOVLW       32
	MOVWF       ?lstr64_FirmV_0_7_0+9 
	MOVLW       83
	MOVWF       ?lstr64_FirmV_0_7_0+10 
	MOVLW       116
	MOVWF       ?lstr64_FirmV_0_7_0+11 
	MOVLW       111
	MOVWF       ?lstr64_FirmV_0_7_0+12 
	MOVLW       112
	MOVWF       ?lstr64_FirmV_0_7_0+13 
	CLRF        ?lstr64_FirmV_0_7_0+14 
	MOVLW       ?lstr64_FirmV_0_7_0+0
	MOVWF       FARG_Logger_text+0 
	MOVLW       hi_addr(?lstr64_FirmV_0_7_0+0)
	MOVWF       FARG_Logger_text+1 
	CALL        _Logger+0, 0
L_State8273:
;FirmV_0_7_0.c,1172 :: 		if(CheckTask(12))
	MOVLW       12
	MOVWF       FARG_CheckTask+0 
	CALL        _CheckTask+0, 0
	MOVF        R0, 1 
	BTFSC       STATUS+0, 2 
	GOTO        L_State8274
;FirmV_0_7_0.c,1173 :: 		{Lock=1;}
	BSF         PORTD+0, 6 
L_State8274:
;FirmV_0_7_0.c,1175 :: 		if((Door2OpenTime==0)||(ActiveDoors==1))
	MOVF        _Door2OpenTime+0, 0 
	XORLW       0
	BTFSC       STATUS+0, 2 
	GOTO        L__State8742
	MOVF        _ActiveDoors+0, 0 
	XORLW       1
	BTFSC       STATUS+0, 2 
	GOTO        L__State8742
	GOTO        L_State8277
L__State8742:
;FirmV_0_7_0.c,1176 :: 		OpenDone.b1=0;
	BCF         _OpenDone+0, 1 
L_State8277:
;FirmV_0_7_0.c,1178 :: 		if((Events.Photocell.b0==1)&&(OpenPhEnable))
	BTFSS       _Events+6, 0 
	GOTO        L_State8280
	MOVF        _OpenPhEnable+0, 1 
	BTFSC       STATUS+0, 2 
	GOTO        L_State8280
L__State8741:
;FirmV_0_7_0.c,1179 :: 		{StopMotor(1); StopMotor(2);OverloadCheckFlag1=0;OverloadCheckFlag2=0; State=5;Logger("S8 Photocell Int");ClearTasks(9);
	MOVLW       1
	MOVWF       FARG_StopMotor+0 
	CALL        _StopMotor+0, 0
	MOVLW       2
	MOVWF       FARG_StopMotor+0 
	CALL        _StopMotor+0, 0
	CLRF        _OverloadCheckFlag1+0 
	CLRF        _OverloadCheckFlag2+0 
	MOVLW       5
	MOVWF       _State+0 
	MOVLW       ?ICS?lstr65_FirmV_0_7_0+0
	MOVWF       TBLPTRL 
	MOVLW       hi_addr(?ICS?lstr65_FirmV_0_7_0+0)
	MOVWF       TBLPTRH 
	MOVLW       higher_addr(?ICS?lstr65_FirmV_0_7_0+0)
	MOVWF       TBLPTRU 
	MOVLW       ?lstr65_FirmV_0_7_0+0
	MOVWF       FSR1L 
	MOVLW       hi_addr(?lstr65_FirmV_0_7_0+0)
	MOVWF       FSR1H 
	MOVLW       17
	MOVWF       R0 
	MOVLW       1
	MOVWF       R1 
	CALL        ___CC2DW+0, 0
	MOVLW       ?lstr65_FirmV_0_7_0+0
	MOVWF       FARG_Logger_text+0 
	MOVLW       hi_addr(?lstr65_FirmV_0_7_0+0)
	MOVWF       FARG_Logger_text+1 
	CALL        _Logger+0, 0
	MOVLW       9
	MOVWF       FARG_ClearTasks+0 
	CALL        _ClearTasks+0, 0
;FirmV_0_7_0.c,1180 :: 		memcpy(LCDLine1,_stop,16);memcpy(LCDLine2,_ErrPhoto,16);LCDUpdateFlag=1;LCDLines=2;}
	MOVLW       _LCDLine1+0
	MOVWF       FARG_memcpy_d1+0 
	MOVLW       hi_addr(_LCDLine1+0)
	MOVWF       FARG_memcpy_d1+1 
	MOVLW       __stop+0
	MOVWF       FARG_memcpy_s1+0 
	MOVLW       hi_addr(__stop+0)
	MOVWF       FARG_memcpy_s1+1 
	MOVLW       16
	MOVWF       FARG_memcpy_n+0 
	MOVLW       0
	MOVWF       FARG_memcpy_n+1 
	CALL        _memcpy+0, 0
	MOVLW       _LCDLine2+0
	MOVWF       FARG_memcpy_d1+0 
	MOVLW       hi_addr(_LCDLine2+0)
	MOVWF       FARG_memcpy_d1+1 
	MOVLW       __errPhoto+0
	MOVWF       FARG_memcpy_s1+0 
	MOVLW       hi_addr(__errPhoto+0)
	MOVWF       FARG_memcpy_s1+1 
	MOVLW       16
	MOVWF       FARG_memcpy_n+0 
	MOVLW       0
	MOVWF       FARG_memcpy_n+1 
	CALL        _memcpy+0, 0
	MOVLW       1
	MOVWF       _LCDUpdateFlag+0 
	MOVLW       2
	MOVWF       _LCDLines+0 
L_State8280:
;FirmV_0_7_0.c,1182 :: 		if((Events.Remote!=0))
	MOVF        _Events+4, 0 
	XORLW       0
	BTFSC       STATUS+0, 2 
	GOTO        L_State8281
;FirmV_0_7_0.c,1183 :: 		{StopMotor(1); StopMotor(2); State=5;OverloadCheckFlag1=0;OverloadCheckFlag2=0; Logger("S8 Motors Stoped (Remote)");ClearTasks(9);
	MOVLW       1
	MOVWF       FARG_StopMotor+0 
	CALL        _StopMotor+0, 0
	MOVLW       2
	MOVWF       FARG_StopMotor+0 
	CALL        _StopMotor+0, 0
	MOVLW       5
	MOVWF       _State+0 
	CLRF        _OverloadCheckFlag1+0 
	CLRF        _OverloadCheckFlag2+0 
	MOVLW       ?ICS?lstr66_FirmV_0_7_0+0
	MOVWF       TBLPTRL 
	MOVLW       hi_addr(?ICS?lstr66_FirmV_0_7_0+0)
	MOVWF       TBLPTRH 
	MOVLW       higher_addr(?ICS?lstr66_FirmV_0_7_0+0)
	MOVWF       TBLPTRU 
	MOVLW       ?lstr66_FirmV_0_7_0+0
	MOVWF       FSR1L 
	MOVLW       hi_addr(?lstr66_FirmV_0_7_0+0)
	MOVWF       FSR1H 
	MOVLW       26
	MOVWF       R0 
	MOVLW       1
	MOVWF       R1 
	CALL        ___CC2DW+0, 0
	MOVLW       ?lstr66_FirmV_0_7_0+0
	MOVWF       FARG_Logger_text+0 
	MOVLW       hi_addr(?lstr66_FirmV_0_7_0+0)
	MOVWF       FARG_Logger_text+1 
	CALL        _Logger+0, 0
	MOVLW       9
	MOVWF       FARG_ClearTasks+0 
	CALL        _ClearTasks+0, 0
;FirmV_0_7_0.c,1184 :: 		memcpy(LCDLine1,_stop,16);memcpy(LCDLine2,_ErrRemote,16);LCDUpdateFlag=1;LCDLines=2;}
	MOVLW       _LCDLine1+0
	MOVWF       FARG_memcpy_d1+0 
	MOVLW       hi_addr(_LCDLine1+0)
	MOVWF       FARG_memcpy_d1+1 
	MOVLW       __stop+0
	MOVWF       FARG_memcpy_s1+0 
	MOVLW       hi_addr(__stop+0)
	MOVWF       FARG_memcpy_s1+1 
	MOVLW       16
	MOVWF       FARG_memcpy_n+0 
	MOVLW       0
	MOVWF       FARG_memcpy_n+1 
	CALL        _memcpy+0, 0
	MOVLW       _LCDLine2+0
	MOVWF       FARG_memcpy_d1+0 
	MOVLW       hi_addr(_LCDLine2+0)
	MOVWF       FARG_memcpy_d1+1 
	MOVLW       __errRemote+0
	MOVWF       FARG_memcpy_s1+0 
	MOVLW       hi_addr(__errRemote+0)
	MOVWF       FARG_memcpy_s1+1 
	MOVLW       16
	MOVWF       FARG_memcpy_n+0 
	MOVLW       0
	MOVWF       FARG_memcpy_n+1 
	CALL        _memcpy+0, 0
	MOVLW       1
	MOVWF       _LCDUpdateFlag+0 
	MOVLW       2
	MOVWF       _LCDLines+0 
L_State8281:
;FirmV_0_7_0.c,1186 :: 		if((Events.Limiter==1)&&(LimiterEnable))
	MOVF        _Events+7, 0 
	XORLW       1
	BTFSS       STATUS+0, 2 
	GOTO        L_State8284
	MOVF        _LimiterEnable+0, 1 
	BTFSC       STATUS+0, 2 
	GOTO        L_State8284
L__State8740:
;FirmV_0_7_0.c,1187 :: 		{StopMotor(1); StopMotor(2); State=5;OverloadCheckFlag1=0;OverloadCheckFlag2=0; Logger("S8 Limit Switch Stop");ClearTasks(9);
	MOVLW       1
	MOVWF       FARG_StopMotor+0 
	CALL        _StopMotor+0, 0
	MOVLW       2
	MOVWF       FARG_StopMotor+0 
	CALL        _StopMotor+0, 0
	MOVLW       5
	MOVWF       _State+0 
	CLRF        _OverloadCheckFlag1+0 
	CLRF        _OverloadCheckFlag2+0 
	MOVLW       ?ICS?lstr67_FirmV_0_7_0+0
	MOVWF       TBLPTRL 
	MOVLW       hi_addr(?ICS?lstr67_FirmV_0_7_0+0)
	MOVWF       TBLPTRH 
	MOVLW       higher_addr(?ICS?lstr67_FirmV_0_7_0+0)
	MOVWF       TBLPTRU 
	MOVLW       ?lstr67_FirmV_0_7_0+0
	MOVWF       FSR1L 
	MOVLW       hi_addr(?lstr67_FirmV_0_7_0+0)
	MOVWF       FSR1H 
	MOVLW       21
	MOVWF       R0 
	MOVLW       1
	MOVWF       R1 
	CALL        ___CC2DW+0, 0
	MOVLW       ?lstr67_FirmV_0_7_0+0
	MOVWF       FARG_Logger_text+0 
	MOVLW       hi_addr(?lstr67_FirmV_0_7_0+0)
	MOVWF       FARG_Logger_text+1 
	CALL        _Logger+0, 0
	MOVLW       9
	MOVWF       FARG_ClearTasks+0 
	CALL        _ClearTasks+0, 0
;FirmV_0_7_0.c,1188 :: 		memcpy(LCDLine1,_stop,16);memcpy(LCDLine2,_ErrLimit,16);LCDUpdateFlag=1;LCDLines=2;}
	MOVLW       _LCDLine1+0
	MOVWF       FARG_memcpy_d1+0 
	MOVLW       hi_addr(_LCDLine1+0)
	MOVWF       FARG_memcpy_d1+1 
	MOVLW       __stop+0
	MOVWF       FARG_memcpy_s1+0 
	MOVLW       hi_addr(__stop+0)
	MOVWF       FARG_memcpy_s1+1 
	MOVLW       16
	MOVWF       FARG_memcpy_n+0 
	MOVLW       0
	MOVWF       FARG_memcpy_n+1 
	CALL        _memcpy+0, 0
	MOVLW       _LCDLine2+0
	MOVWF       FARG_memcpy_d1+0 
	MOVLW       hi_addr(_LCDLine2+0)
	MOVWF       FARG_memcpy_d1+1 
	MOVLW       __errLimit+0
	MOVWF       FARG_memcpy_s1+0 
	MOVLW       hi_addr(__errLimit+0)
	MOVWF       FARG_memcpy_s1+1 
	MOVLW       16
	MOVWF       FARG_memcpy_n+0 
	MOVLW       0
	MOVWF       FARG_memcpy_n+1 
	CALL        _memcpy+0, 0
	MOVLW       1
	MOVWF       _LCDUpdateFlag+0 
	MOVLW       2
	MOVWF       _LCDLines+0 
L_State8284:
;FirmV_0_7_0.c,1190 :: 		if(OpenDone==0)
	MOVF        _OpenDone+0, 0 
	XORLW       0
	BTFSS       STATUS+0, 2 
	GOTO        L_State8285
;FirmV_0_7_0.c,1191 :: 		{State=2; PassFlag=0;ClearTasks(9);memcpy(LCDLine1,_open,16);memcpy(LCDLine2,_Blank,16);LCDUpdateFlag=1;LCDLines=1;}
	MOVLW       2
	MOVWF       _State+0 
	CLRF        _PassFlag+0 
	MOVLW       9
	MOVWF       FARG_ClearTasks+0 
	CALL        _ClearTasks+0, 0
	MOVLW       _LCDLine1+0
	MOVWF       FARG_memcpy_d1+0 
	MOVLW       hi_addr(_LCDLine1+0)
	MOVWF       FARG_memcpy_d1+1 
	MOVLW       __open+0
	MOVWF       FARG_memcpy_s1+0 
	MOVLW       hi_addr(__open+0)
	MOVWF       FARG_memcpy_s1+1 
	MOVLW       16
	MOVWF       FARG_memcpy_n+0 
	MOVLW       0
	MOVWF       FARG_memcpy_n+1 
	CALL        _memcpy+0, 0
	MOVLW       _LCDLine2+0
	MOVWF       FARG_memcpy_d1+0 
	MOVLW       hi_addr(_LCDLine2+0)
	MOVWF       FARG_memcpy_d1+1 
	MOVLW       __Blank+0
	MOVWF       FARG_memcpy_s1+0 
	MOVLW       hi_addr(__Blank+0)
	MOVWF       FARG_memcpy_s1+1 
	MOVLW       16
	MOVWF       FARG_memcpy_n+0 
	MOVLW       0
	MOVWF       FARG_memcpy_n+1 
	CALL        _memcpy+0, 0
	MOVLW       1
	MOVWF       _LCDUpdateFlag+0 
	MOVLW       1
	MOVWF       _LCDLines+0 
L_State8285:
;FirmV_0_7_0.c,1193 :: 		if((State==5)||(State==6))
	MOVF        _State+0, 0 
	XORLW       5
	BTFSC       STATUS+0, 2 
	GOTO        L__State8739
	MOVF        _State+0, 0 
	XORLW       6
	BTFSC       STATUS+0, 2 
	GOTO        L__State8739
	GOTO        L_State8288
L__State8739:
;FirmV_0_7_0.c,1194 :: 		{ClearTasks(0);if(AutoCloseTime!=0){AddTask(ms500+AutoCloseTime,9);Logger("S8 Autoclose Renewed");memcpy(LCDLine2,_autoclose,16);LCDUpdateFlag=1;LCDLines=2;}}
	CLRF        FARG_ClearTasks+0 
	CALL        _ClearTasks+0, 0
	MOVLW       0
	XORWF       _AutoCloseTime+1, 0 
	BTFSS       STATUS+0, 2 
	GOTO        L__State8815
	MOVLW       0
	XORWF       _AutoCloseTime+0, 0 
L__State8815:
	BTFSC       STATUS+0, 2 
	GOTO        L_State8289
	MOVF        _AutoCloseTime+0, 0 
	ADDWF       _ms500+0, 0 
	MOVWF       FARG_AddTask+0 
	MOVF        _AutoCloseTime+1, 0 
	ADDWFC      _ms500+1, 0 
	MOVWF       FARG_AddTask+1 
	MOVLW       0
	ADDWFC      _ms500+2, 0 
	MOVWF       FARG_AddTask+2 
	MOVLW       0
	ADDWFC      _ms500+3, 0 
	MOVWF       FARG_AddTask+3 
	MOVLW       9
	MOVWF       FARG_AddTask+0 
	CALL        _AddTask+0, 0
	MOVLW       ?ICS?lstr68_FirmV_0_7_0+0
	MOVWF       TBLPTRL 
	MOVLW       hi_addr(?ICS?lstr68_FirmV_0_7_0+0)
	MOVWF       TBLPTRH 
	MOVLW       higher_addr(?ICS?lstr68_FirmV_0_7_0+0)
	MOVWF       TBLPTRU 
	MOVLW       ?lstr68_FirmV_0_7_0+0
	MOVWF       FSR1L 
	MOVLW       hi_addr(?lstr68_FirmV_0_7_0+0)
	MOVWF       FSR1H 
	MOVLW       21
	MOVWF       R0 
	MOVLW       1
	MOVWF       R1 
	CALL        ___CC2DW+0, 0
	MOVLW       ?lstr68_FirmV_0_7_0+0
	MOVWF       FARG_Logger_text+0 
	MOVLW       hi_addr(?lstr68_FirmV_0_7_0+0)
	MOVWF       FARG_Logger_text+1 
	CALL        _Logger+0, 0
	MOVLW       _LCDLine2+0
	MOVWF       FARG_memcpy_d1+0 
	MOVLW       hi_addr(_LCDLine2+0)
	MOVWF       FARG_memcpy_d1+1 
	MOVLW       __autoclose+0
	MOVWF       FARG_memcpy_s1+0 
	MOVLW       hi_addr(__autoclose+0)
	MOVWF       FARG_memcpy_s1+1 
	MOVLW       16
	MOVWF       FARG_memcpy_n+0 
	MOVLW       0
	MOVWF       FARG_memcpy_n+1 
	CALL        _memcpy+0, 0
	MOVLW       1
	MOVWF       _LCDUpdateFlag+0 
	MOVLW       2
	MOVWF       _LCDLines+0 
L_State8289:
L_State8288:
;FirmV_0_7_0.c,1197 :: 		}
	RETURN      0
; end of _State8

_LCDUpdater:

;FirmV_0_7_0.c,1206 :: 		void LCDUpdater()
;FirmV_0_7_0.c,1211 :: 		if(LCDUpdateFlag==1)
	MOVF        _LCDUpdateFlag+0, 0 
	XORLW       1
	BTFSS       STATUS+0, 2 
	GOTO        L_LCDUpdater290
;FirmV_0_7_0.c,1213 :: 		if(LCDLines!=line)
	MOVF        _LCDLines+0, 0 
	XORWF       LCDUpdater_line_L0+0, 0 
	BTFSC       STATUS+0, 2 
	GOTO        L_LCDUpdater291
;FirmV_0_7_0.c,1215 :: 		line=LCDLines;
	MOVF        _LCDLines+0, 0 
	MOVWF       LCDUpdater_line_L0+0 
;FirmV_0_7_0.c,1216 :: 		LCD_init(LCDLines);
	MOVF        _LCDLines+0, 0 
	MOVWF       FARG_LCD_Init+0 
	CALL        _LCD_Init+0, 0
;FirmV_0_7_0.c,1217 :: 		delay_ms(50);
	MOVLW       3
	MOVWF       R11, 0
	MOVLW       138
	MOVWF       R12, 0
	MOVLW       85
	MOVWF       R13, 0
L_LCDUpdater292:
	DECFSZ      R13, 1, 0
	BRA         L_LCDUpdater292
	DECFSZ      R12, 1, 0
	BRA         L_LCDUpdater292
	DECFSZ      R11, 1, 0
	BRA         L_LCDUpdater292
	NOP
	NOP
;FirmV_0_7_0.c,1218 :: 		}
L_LCDUpdater291:
;FirmV_0_7_0.c,1219 :: 		lcd_out(1,0,LCDLine1);
	MOVLW       1
	MOVWF       FARG_LCD_out+0 
	CLRF        FARG_LCD_out+0 
	MOVLW       _LCDLine1+0
	MOVWF       FARG_LCD_out+0 
	MOVLW       hi_addr(_LCDLine1+0)
	MOVWF       FARG_LCD_out+1 
	CALL        _LCD_out+0, 0
;FirmV_0_7_0.c,1220 :: 		if(!LCDFlash)
	MOVF        _LCDFlash+0, 1 
	BTFSS       STATUS+0, 2 
	GOTO        L_LCDUpdater293
;FirmV_0_7_0.c,1221 :: 		lcd_out(2,0,LCDLine2);
	MOVLW       2
	MOVWF       FARG_LCD_out+0 
	CLRF        FARG_LCD_out+0 
	MOVLW       _LCDLine2+0
	MOVWF       FARG_LCD_out+0 
	MOVLW       hi_addr(_LCDLine2+0)
	MOVWF       FARG_LCD_out+1 
	CALL        _LCD_out+0, 0
L_LCDUpdater293:
;FirmV_0_7_0.c,1222 :: 		LCDUpdateFlag=0;
	CLRF        _LCDUpdateFlag+0 
;FirmV_0_7_0.c,1223 :: 		}
L_LCDUpdater290:
;FirmV_0_7_0.c,1225 :: 		if(LCDFlash)
	MOVF        _LCDFlash+0, 1 
	BTFSC       STATUS+0, 2 
	GOTO        L_LCDUpdater294
;FirmV_0_7_0.c,1227 :: 		if((LCDFlashFlag)&&(LastLCDFlashState==0))
	MOVF        _LCDFlashFlag+0, 1 
	BTFSC       STATUS+0, 2 
	GOTO        L_LCDUpdater297
	MOVF        LCDUpdater_LastLCDFlashState_L0+0, 0 
	XORLW       0
	BTFSS       STATUS+0, 2 
	GOTO        L_LCDUpdater297
L__LCDUpdater750:
;FirmV_0_7_0.c,1228 :: 		{memcpy(LCDLineTemp,LCDLine2,16);LCDLineTemp[0]='>';LCDLineTemp[1]='>';LCDLineTemp[2]='>';LCDLineTemp[13]='<';LCDLineTemp[14]='<';LCDLineTemp[15]='<';lcd_out(2,0,LCDLineTemp);LastLCDFlashState=1;}
	MOVLW       LCDUpdater_LCDLineTemp_L0+0
	MOVWF       FARG_memcpy_d1+0 
	MOVLW       hi_addr(LCDUpdater_LCDLineTemp_L0+0)
	MOVWF       FARG_memcpy_d1+1 
	MOVLW       _LCDLine2+0
	MOVWF       FARG_memcpy_s1+0 
	MOVLW       hi_addr(_LCDLine2+0)
	MOVWF       FARG_memcpy_s1+1 
	MOVLW       16
	MOVWF       FARG_memcpy_n+0 
	MOVLW       0
	MOVWF       FARG_memcpy_n+1 
	CALL        _memcpy+0, 0
	MOVLW       62
	MOVWF       LCDUpdater_LCDLineTemp_L0+0 
	MOVLW       62
	MOVWF       LCDUpdater_LCDLineTemp_L0+1 
	MOVLW       62
	MOVWF       LCDUpdater_LCDLineTemp_L0+2 
	MOVLW       60
	MOVWF       LCDUpdater_LCDLineTemp_L0+13 
	MOVLW       60
	MOVWF       LCDUpdater_LCDLineTemp_L0+14 
	MOVLW       60
	MOVWF       LCDUpdater_LCDLineTemp_L0+15 
	MOVLW       2
	MOVWF       FARG_LCD_out+0 
	CLRF        FARG_LCD_out+0 
	MOVLW       LCDUpdater_LCDLineTemp_L0+0
	MOVWF       FARG_LCD_out+0 
	MOVLW       hi_addr(LCDUpdater_LCDLineTemp_L0+0)
	MOVWF       FARG_LCD_out+1 
	CALL        _LCD_out+0, 0
	MOVLW       1
	MOVWF       LCDUpdater_LastLCDFlashState_L0+0 
L_LCDUpdater297:
;FirmV_0_7_0.c,1229 :: 		if((!LCDFlashFlag)&&(LastLCDFlashState!=0))
	MOVF        _LCDFlashFlag+0, 1 
	BTFSS       STATUS+0, 2 
	GOTO        L_LCDUpdater300
	MOVF        LCDUpdater_LastLCDFlashState_L0+0, 0 
	XORLW       0
	BTFSC       STATUS+0, 2 
	GOTO        L_LCDUpdater300
L__LCDUpdater749:
;FirmV_0_7_0.c,1230 :: 		{lcd_out(2,0,LCDLine2);LastLCDFlashState=0;}
	MOVLW       2
	MOVWF       FARG_LCD_out+0 
	CLRF        FARG_LCD_out+0 
	MOVLW       _LCDLine2+0
	MOVWF       FARG_LCD_out+0 
	MOVLW       hi_addr(_LCDLine2+0)
	MOVWF       FARG_LCD_out+1 
	CALL        _LCD_out+0, 0
	CLRF        LCDUpdater_LastLCDFlashState_L0+0 
L_LCDUpdater300:
;FirmV_0_7_0.c,1231 :: 		}
L_LCDUpdater294:
;FirmV_0_7_0.c,1234 :: 		}
	RETURN      0
; end of _LCDUpdater

_Init:

;FirmV_0_7_0.c,1254 :: 		void Init()
;FirmV_0_7_0.c,1256 :: 		char i=0;
	CLRF        Init_i_L0+0 
;FirmV_0_7_0.c,1258 :: 		porta=0;
	CLRF        PORTA+0 
;FirmV_0_7_0.c,1259 :: 		portb=0;
	CLRF        PORTB+0 
;FirmV_0_7_0.c,1260 :: 		portc=0;
	CLRF        PORTC+0 
;FirmV_0_7_0.c,1261 :: 		portd=0;
	CLRF        PORTD+0 
;FirmV_0_7_0.c,1262 :: 		porte=0;
	CLRF        PORTE+0 
;FirmV_0_7_0.c,1263 :: 		trisa=0b101111;
	MOVLW       47
	MOVWF       TRISA+0 
;FirmV_0_7_0.c,1264 :: 		trisb=0b10000111;
	MOVLW       135
	MOVWF       TRISB+0 
;FirmV_0_7_0.c,1265 :: 		trisc=0b10000100;
	MOVLW       132
	MOVWF       TRISC+0 
;FirmV_0_7_0.c,1266 :: 		trisd=0b00111111;
	MOVLW       63
	MOVWF       TRISD+0 
;FirmV_0_7_0.c,1267 :: 		trise=0b001;
	MOVLW       1
	MOVWF       TRISE+0 
;FirmV_0_7_0.c,1268 :: 		adcon1=0b0010;  // an6, an5 and an7 is digital
	MOVLW       2
	MOVWF       ADCON1+0 
;FirmV_0_7_0.c,1274 :: 		LCDBackLight=1;
	BSF         PORTA+0, 4 
;FirmV_0_7_0.c,1275 :: 		I2C1_init(100000);
	MOVLW       100
	MOVWF       SSPADD+0 
	CALL        _I2C1_Init+0, 0
;FirmV_0_7_0.c,1277 :: 		delay_ms(100);
	MOVLW       6
	MOVWF       R11, 0
	MOVLW       19
	MOVWF       R12, 0
	MOVLW       173
	MOVWF       R13, 0
L_Init301:
	DECFSZ      R13, 1, 0
	BRA         L_Init301
	DECFSZ      R12, 1, 0
	BRA         L_Init301
	DECFSZ      R11, 1, 0
	BRA         L_Init301
	NOP
	NOP
;FirmV_0_7_0.c,1279 :: 		LCD_init(1);
	MOVLW       1
	MOVWF       FARG_LCD_Init+0 
	CALL        _LCD_Init+0, 0
;FirmV_0_7_0.c,1280 :: 		LCDLines=1;
	MOVLW       1
	MOVWF       _LCDLines+0 
;FirmV_0_7_0.c,1281 :: 		delay_ms(300);
	MOVLW       16
	MOVWF       R11, 0
	MOVLW       57
	MOVWF       R12, 0
	MOVLW       13
	MOVWF       R13, 0
L_Init302:
	DECFSZ      R13, 1, 0
	BRA         L_Init302
	DECFSZ      R12, 1, 0
	BRA         L_Init302
	DECFSZ      R11, 1, 0
	BRA         L_Init302
	NOP
	NOP
;FirmV_0_7_0.c,1282 :: 		SetContrast(20);
	MOVLW       20
	MOVWF       FARG_SetContrast+0 
	CALL        _SetContrast+0, 0
;FirmV_0_7_0.c,1285 :: 		ms500=0;
	CLRF        _ms500+0 
	CLRF        _ms500+1 
	CLRF        _ms500+2 
	CLRF        _ms500+3 
;FirmV_0_7_0.c,1286 :: 		t0con=0b10000101; //enable tmr0 and prescalar
	MOVLW       133
	MOVWF       T0CON+0 
;FirmV_0_7_0.c,1287 :: 		intcon.b7=1;   //global int enable
	BSF         INTCON+0, 7 
;FirmV_0_7_0.c,1288 :: 		intcon.b5=1;  //tmr0 int enable
	BSF         INTCON+0, 5 
;FirmV_0_7_0.c,1289 :: 		intcon.b2=0; //tmr0 flag
	BCF         INTCON+0, 2 
;FirmV_0_7_0.c,1290 :: 		tmr0h=0xF3;
	MOVLW       243
	MOVWF       TMR0H+0 
;FirmV_0_7_0.c,1291 :: 		tmr0l=0xCA;
	MOVLW       202
	MOVWF       TMR0L+0 
;FirmV_0_7_0.c,1294 :: 		INT1IP_bit=1;
	BSF         INT1IP_bit+0, 6 
;FirmV_0_7_0.c,1295 :: 		INT1E_bit=1;
	BSF         INT1E_bit+0, 3 
;FirmV_0_7_0.c,1296 :: 		INT1F_bit=0;
	BCF         INT1F_bit+0, 0 
;FirmV_0_7_0.c,1297 :: 		INT2IP_bit=1;
	BSF         INT2IP_bit+0, 7 
;FirmV_0_7_0.c,1298 :: 		INT2E_bit=1;
	BSF         INT2E_bit+0, 4 
;FirmV_0_7_0.c,1299 :: 		INT2F_bit=0;
	BCF         INT2F_bit+0, 1 
;FirmV_0_7_0.c,1300 :: 		INTEDG1_bit=1;
	BSF         INTEDG1_bit+0, 5 
;FirmV_0_7_0.c,1301 :: 		INTEDG2_bit=1;
	BSF         INTEDG2_bit+0, 4 
;FirmV_0_7_0.c,1304 :: 		INT0F_bit=0;
	BCF         INT0F_bit+0, 1 
;FirmV_0_7_0.c,1305 :: 		INT0E_bit=0;
	BCF         INT0E_bit+0, 4 
;FirmV_0_7_0.c,1308 :: 		for(i=0;i<20;i++)
	CLRF        Init_i_L0+0 
L_Init303:
	MOVLW       20
	SUBWF       Init_i_L0+0, 0 
	BTFSC       STATUS+0, 0 
	GOTO        L_Init304
;FirmV_0_7_0.c,1309 :: 		Tasks[i].Expired=1;
	MOVF        Init_i_L0+0, 0 
	MOVWF       R0 
	MOVLW       0
	MOVWF       R1 
	MOVLW       7
	MOVWF       R4 
	MOVLW       0
	MOVWF       R5 
	CALL        _Mul_16x16_U+0, 0
	MOVLW       _Tasks+0
	ADDWF       R0, 1 
	MOVLW       hi_addr(_Tasks+0)
	ADDWFC      R1, 1 
	MOVLW       5
	ADDWF       R0, 0 
	MOVWF       FSR1L 
	MOVLW       0
	ADDWFC      R1, 0 
	MOVWF       FSR1H 
	MOVLW       1
	MOVWF       POSTINC1+0 
;FirmV_0_7_0.c,1308 :: 		for(i=0;i<20;i++)
	INCF        Init_i_L0+0, 1 
;FirmV_0_7_0.c,1309 :: 		Tasks[i].Expired=1;
	GOTO        L_Init303
L_Init304:
;FirmV_0_7_0.c,1312 :: 		Events.Keys=0;
	CLRF        _Events+0 
;FirmV_0_7_0.c,1313 :: 		Events.Task1=0;
	CLRF        _Events+1 
;FirmV_0_7_0.c,1314 :: 		Events.Task2=0;
	CLRF        _Events+2 
;FirmV_0_7_0.c,1315 :: 		Events.Task3=0;
	CLRF        _Events+3 
;FirmV_0_7_0.c,1316 :: 		Events.Remote=0;
	CLRF        _Events+4 
;FirmV_0_7_0.c,1317 :: 		Events.Overload=0;
	CLRF        _Events+5 
;FirmV_0_7_0.c,1318 :: 		Events.Photocell=0;
	CLRF        _Events+6 
;FirmV_0_7_0.c,1321 :: 		State=0;
	CLRF        _State+0 
;FirmV_0_7_0.c,1324 :: 		UART1_init(115200);
	MOVLW       21
	MOVWF       SPBRG+0 
	BSF         TXSTA+0, 2, 0
	CALL        _UART1_Init+0, 0
;FirmV_0_7_0.c,1327 :: 		LoadConfigs();
	CALL        _LoadConfigs+0, 0
;FirmV_0_7_0.c,1331 :: 		}
	RETURN      0
; end of _Init

_TaskManager:

;FirmV_0_7_0.c,1345 :: 		void TaskManager()
;FirmV_0_7_0.c,1347 :: 		char i=0;
	CLRF        TaskManager_i_L0+0 
;FirmV_0_7_0.c,1348 :: 		for(i=0;i<20;i++)
	CLRF        TaskManager_i_L0+0 
L_TaskManager306:
	MOVLW       20
	SUBWF       TaskManager_i_L0+0, 0 
	BTFSC       STATUS+0, 0 
	GOTO        L_TaskManager307
;FirmV_0_7_0.c,1349 :: 		if((Tasks[i].Expired==0)&&(Tasks[i].Time==ms500)&&(Tasks[i].Fired==0))
	MOVF        TaskManager_i_L0+0, 0 
	MOVWF       R0 
	MOVLW       0
	MOVWF       R1 
	MOVLW       7
	MOVWF       R4 
	MOVLW       0
	MOVWF       R5 
	CALL        _Mul_16x16_U+0, 0
	MOVLW       _Tasks+0
	ADDWF       R0, 1 
	MOVLW       hi_addr(_Tasks+0)
	ADDWFC      R1, 1 
	MOVLW       5
	ADDWF       R0, 0 
	MOVWF       FSR0L 
	MOVLW       0
	ADDWFC      R1, 0 
	MOVWF       FSR0H 
	MOVF        POSTINC0+0, 0 
	XORLW       0
	BTFSS       STATUS+0, 2 
	GOTO        L_TaskManager311
	MOVF        TaskManager_i_L0+0, 0 
	MOVWF       R0 
	MOVLW       0
	MOVWF       R1 
	MOVLW       7
	MOVWF       R4 
	MOVLW       0
	MOVWF       R5 
	CALL        _Mul_16x16_U+0, 0
	MOVLW       _Tasks+0
	ADDWF       R0, 1 
	MOVLW       hi_addr(_Tasks+0)
	ADDWFC      R1, 1 
	MOVLW       1
	ADDWF       R0, 0 
	MOVWF       FSR0L 
	MOVLW       0
	ADDWFC      R1, 0 
	MOVWF       FSR0H 
	MOVF        POSTINC0+0, 0 
	MOVWF       R1 
	MOVF        POSTINC0+0, 0 
	MOVWF       R2 
	MOVF        POSTINC0+0, 0 
	MOVWF       R3 
	MOVF        POSTINC0+0, 0 
	MOVWF       R4 
	MOVF        R4, 0 
	XORWF       _ms500+3, 0 
	BTFSS       STATUS+0, 2 
	GOTO        L__TaskManager816
	MOVF        R3, 0 
	XORWF       _ms500+2, 0 
	BTFSS       STATUS+0, 2 
	GOTO        L__TaskManager816
	MOVF        R2, 0 
	XORWF       _ms500+1, 0 
	BTFSS       STATUS+0, 2 
	GOTO        L__TaskManager816
	MOVF        R1, 0 
	XORWF       _ms500+0, 0 
L__TaskManager816:
	BTFSS       STATUS+0, 2 
	GOTO        L_TaskManager311
	MOVF        TaskManager_i_L0+0, 0 
	MOVWF       R0 
	MOVLW       0
	MOVWF       R1 
	MOVLW       7
	MOVWF       R4 
	MOVLW       0
	MOVWF       R5 
	CALL        _Mul_16x16_U+0, 0
	MOVLW       _Tasks+0
	ADDWF       R0, 1 
	MOVLW       hi_addr(_Tasks+0)
	ADDWFC      R1, 1 
	MOVLW       6
	ADDWF       R0, 0 
	MOVWF       FSR0L 
	MOVLW       0
	ADDWFC      R1, 0 
	MOVWF       FSR0H 
	MOVF        POSTINC0+0, 0 
	XORLW       0
	BTFSS       STATUS+0, 2 
	GOTO        L_TaskManager311
L__TaskManager751:
;FirmV_0_7_0.c,1350 :: 		Tasks[i].Fired=1;
	MOVF        TaskManager_i_L0+0, 0 
	MOVWF       R0 
	MOVLW       0
	MOVWF       R1 
	MOVLW       7
	MOVWF       R4 
	MOVLW       0
	MOVWF       R5 
	CALL        _Mul_16x16_U+0, 0
	MOVLW       _Tasks+0
	ADDWF       R0, 1 
	MOVLW       hi_addr(_Tasks+0)
	ADDWFC      R1, 1 
	MOVLW       6
	ADDWF       R0, 0 
	MOVWF       FSR1L 
	MOVLW       0
	ADDWFC      R1, 0 
	MOVWF       FSR1H 
	MOVLW       1
	MOVWF       POSTINC1+0 
L_TaskManager311:
;FirmV_0_7_0.c,1348 :: 		for(i=0;i<20;i++)
	INCF        TaskManager_i_L0+0, 1 
;FirmV_0_7_0.c,1350 :: 		Tasks[i].Fired=1;
	GOTO        L_TaskManager306
L_TaskManager307:
;FirmV_0_7_0.c,1351 :: 		}
	RETURN      0
; end of _TaskManager

_AddTask:

;FirmV_0_7_0.c,1363 :: 		void AddTask(unsigned long OccTime,char tcode)
;FirmV_0_7_0.c,1366 :: 		for(i=0;i<20;i++)
	CLRF        AddTask_i_L0+0 
L_AddTask312:
	MOVLW       20
	SUBWF       AddTask_i_L0+0, 0 
	BTFSC       STATUS+0, 0 
	GOTO        L_AddTask313
;FirmV_0_7_0.c,1367 :: 		if(Tasks[i].Expired==1)
	MOVF        AddTask_i_L0+0, 0 
	MOVWF       R0 
	MOVLW       0
	MOVWF       R1 
	MOVLW       7
	MOVWF       R4 
	MOVLW       0
	MOVWF       R5 
	CALL        _Mul_16x16_U+0, 0
	MOVLW       _Tasks+0
	ADDWF       R0, 1 
	MOVLW       hi_addr(_Tasks+0)
	ADDWFC      R1, 1 
	MOVLW       5
	ADDWF       R0, 0 
	MOVWF       FSR0L 
	MOVLW       0
	ADDWFC      R1, 0 
	MOVWF       FSR0H 
	MOVF        POSTINC0+0, 0 
	XORLW       1
	BTFSS       STATUS+0, 2 
	GOTO        L_AddTask315
;FirmV_0_7_0.c,1369 :: 		Tasks[i].TaskCode=tcode;
	MOVF        AddTask_i_L0+0, 0 
	MOVWF       R0 
	MOVLW       0
	MOVWF       R1 
	MOVLW       7
	MOVWF       R4 
	MOVLW       0
	MOVWF       R5 
	CALL        _Mul_16x16_U+0, 0
	MOVLW       _Tasks+0
	ADDWF       R0, 0 
	MOVWF       FSR1L 
	MOVLW       hi_addr(_Tasks+0)
	ADDWFC      R1, 0 
	MOVWF       FSR1H 
	MOVF        FARG_AddTask_tcode+0, 0 
	MOVWF       POSTINC1+0 
;FirmV_0_7_0.c,1370 :: 		Tasks[i].Time=OccTime;
	MOVF        AddTask_i_L0+0, 0 
	MOVWF       R0 
	MOVLW       0
	MOVWF       R1 
	MOVLW       7
	MOVWF       R4 
	MOVLW       0
	MOVWF       R5 
	CALL        _Mul_16x16_U+0, 0
	MOVLW       _Tasks+0
	ADDWF       R0, 1 
	MOVLW       hi_addr(_Tasks+0)
	ADDWFC      R1, 1 
	MOVLW       1
	ADDWF       R0, 0 
	MOVWF       FSR1L 
	MOVLW       0
	ADDWFC      R1, 0 
	MOVWF       FSR1H 
	MOVF        FARG_AddTask_OccTime+0, 0 
	MOVWF       POSTINC1+0 
	MOVF        FARG_AddTask_OccTime+1, 0 
	MOVWF       POSTINC1+0 
	MOVF        FARG_AddTask_OccTime+2, 0 
	MOVWF       POSTINC1+0 
	MOVF        FARG_AddTask_OccTime+3, 0 
	MOVWF       POSTINC1+0 
;FirmV_0_7_0.c,1371 :: 		Tasks[i].Expired=0;
	MOVF        AddTask_i_L0+0, 0 
	MOVWF       R0 
	MOVLW       0
	MOVWF       R1 
	MOVLW       7
	MOVWF       R4 
	MOVLW       0
	MOVWF       R5 
	CALL        _Mul_16x16_U+0, 0
	MOVLW       _Tasks+0
	ADDWF       R0, 1 
	MOVLW       hi_addr(_Tasks+0)
	ADDWFC      R1, 1 
	MOVLW       5
	ADDWF       R0, 0 
	MOVWF       FSR1L 
	MOVLW       0
	ADDWFC      R1, 0 
	MOVWF       FSR1H 
	CLRF        POSTINC1+0 
;FirmV_0_7_0.c,1372 :: 		Tasks[i].Fired=0;
	MOVF        AddTask_i_L0+0, 0 
	MOVWF       R0 
	MOVLW       0
	MOVWF       R1 
	MOVLW       7
	MOVWF       R4 
	MOVLW       0
	MOVWF       R5 
	CALL        _Mul_16x16_U+0, 0
	MOVLW       _Tasks+0
	ADDWF       R0, 1 
	MOVLW       hi_addr(_Tasks+0)
	ADDWFC      R1, 1 
	MOVLW       6
	ADDWF       R0, 0 
	MOVWF       FSR1L 
	MOVLW       0
	ADDWFC      R1, 0 
	MOVWF       FSR1H 
	CLRF        POSTINC1+0 
;FirmV_0_7_0.c,1373 :: 		break;
	GOTO        L_AddTask313
;FirmV_0_7_0.c,1374 :: 		}
L_AddTask315:
;FirmV_0_7_0.c,1366 :: 		for(i=0;i<20;i++)
	INCF        AddTask_i_L0+0, 1 
;FirmV_0_7_0.c,1374 :: 		}
	GOTO        L_AddTask312
L_AddTask313:
;FirmV_0_7_0.c,1375 :: 		}
	RETURN      0
; end of _AddTask

_EventHandler:

;FirmV_0_7_0.c,1385 :: 		void EventHandler()
;FirmV_0_7_0.c,1388 :: 		Events.ExternalKeys=GetExternalKeysState();
	CALL        _GetExternalKeysState+0, 0
	MOVF        R0, 0 
	MOVWF       _Events+8 
;FirmV_0_7_0.c,1389 :: 		Events.Limiter=GetLimitSwitchState();
	CALL        _GetLimitSwitchState+0, 0
	MOVF        R0, 0 
	MOVWF       _Events+7 
;FirmV_0_7_0.c,1390 :: 		Events.Keys=GetKeysState();
	CALL        _GetKeysState+0, 0
	MOVF        R0, 0 
	MOVWF       _Events+0 
;FirmV_0_7_0.c,1391 :: 		Events.Remote=GetRemoteState();
	CALL        _GetRemoteState+0, 0
	MOVF        R0, 0 
	MOVWF       _Events+4 
;FirmV_0_7_0.c,1392 :: 		Events.Overload=GetOverloadState();
	CALL        _GetOverloadState+0, 0
	MOVF        R0, 0 
	MOVWF       _Events+5 
;FirmV_0_7_0.c,1393 :: 		Events.Photocell=GetPhotocellState();
	CALL        _GetPhotocellState+0, 0
	MOVF        R0, 0 
	MOVWF       _Events+6 
;FirmV_0_7_0.c,1395 :: 		for(i=0;i<20;i++)
	CLRF        EventHandler_i_L0+0 
L_EventHandler316:
	MOVLW       20
	SUBWF       EventHandler_i_L0+0, 0 
	BTFSC       STATUS+0, 0 
	GOTO        L_EventHandler317
;FirmV_0_7_0.c,1396 :: 		if((Tasks[i].Expired==0)&&(Tasks[i].Fired==1))
	MOVF        EventHandler_i_L0+0, 0 
	MOVWF       R0 
	MOVLW       0
	MOVWF       R1 
	MOVLW       7
	MOVWF       R4 
	MOVLW       0
	MOVWF       R5 
	CALL        _Mul_16x16_U+0, 0
	MOVLW       _Tasks+0
	ADDWF       R0, 1 
	MOVLW       hi_addr(_Tasks+0)
	ADDWFC      R1, 1 
	MOVLW       5
	ADDWF       R0, 0 
	MOVWF       FSR0L 
	MOVLW       0
	ADDWFC      R1, 0 
	MOVWF       FSR0H 
	MOVF        POSTINC0+0, 0 
	XORLW       0
	BTFSS       STATUS+0, 2 
	GOTO        L_EventHandler321
	MOVF        EventHandler_i_L0+0, 0 
	MOVWF       R0 
	MOVLW       0
	MOVWF       R1 
	MOVLW       7
	MOVWF       R4 
	MOVLW       0
	MOVWF       R5 
	CALL        _Mul_16x16_U+0, 0
	MOVLW       _Tasks+0
	ADDWF       R0, 1 
	MOVLW       hi_addr(_Tasks+0)
	ADDWFC      R1, 1 
	MOVLW       6
	ADDWF       R0, 0 
	MOVWF       FSR0L 
	MOVLW       0
	ADDWFC      R1, 0 
	MOVWF       FSR0H 
	MOVF        POSTINC0+0, 0 
	XORLW       1
	BTFSS       STATUS+0, 2 
	GOTO        L_EventHandler321
L__EventHandler752:
;FirmV_0_7_0.c,1398 :: 		if(Events.Task1==0)
	MOVF        _Events+1, 0 
	XORLW       0
	BTFSS       STATUS+0, 2 
	GOTO        L_EventHandler322
;FirmV_0_7_0.c,1399 :: 		{Events.Task1=Tasks[i].TaskCode; Tasks[i].Expired=1;Tasks[i].Fired=0;}
	MOVF        EventHandler_i_L0+0, 0 
	MOVWF       R0 
	MOVLW       0
	MOVWF       R1 
	MOVLW       7
	MOVWF       R4 
	MOVLW       0
	MOVWF       R5 
	CALL        _Mul_16x16_U+0, 0
	MOVLW       _Tasks+0
	ADDWF       R0, 0 
	MOVWF       R2 
	MOVLW       hi_addr(_Tasks+0)
	ADDWFC      R1, 0 
	MOVWF       R3 
	MOVFF       R2, FSR0L
	MOVFF       R3, FSR0H
	MOVF        POSTINC0+0, 0 
	MOVWF       R0 
	MOVF        R0, 0 
	MOVWF       _Events+1 
	MOVLW       5
	ADDWF       R2, 0 
	MOVWF       FSR1L 
	MOVLW       0
	ADDWFC      R3, 0 
	MOVWF       FSR1H 
	MOVLW       1
	MOVWF       POSTINC1+0 
	MOVF        EventHandler_i_L0+0, 0 
	MOVWF       R0 
	MOVLW       0
	MOVWF       R1 
	MOVLW       7
	MOVWF       R4 
	MOVLW       0
	MOVWF       R5 
	CALL        _Mul_16x16_U+0, 0
	MOVLW       _Tasks+0
	ADDWF       R0, 1 
	MOVLW       hi_addr(_Tasks+0)
	ADDWFC      R1, 1 
	MOVLW       6
	ADDWF       R0, 0 
	MOVWF       FSR1L 
	MOVLW       0
	ADDWFC      R1, 0 
	MOVWF       FSR1H 
	CLRF        POSTINC1+0 
	GOTO        L_EventHandler323
L_EventHandler322:
;FirmV_0_7_0.c,1400 :: 		else if(Events.Task2==0)
	MOVF        _Events+2, 0 
	XORLW       0
	BTFSS       STATUS+0, 2 
	GOTO        L_EventHandler324
;FirmV_0_7_0.c,1401 :: 		{Events.Task2=Tasks[i].TaskCode;Tasks[i].Expired=1;Tasks[i].Fired=0;}
	MOVF        EventHandler_i_L0+0, 0 
	MOVWF       R0 
	MOVLW       0
	MOVWF       R1 
	MOVLW       7
	MOVWF       R4 
	MOVLW       0
	MOVWF       R5 
	CALL        _Mul_16x16_U+0, 0
	MOVLW       _Tasks+0
	ADDWF       R0, 0 
	MOVWF       R2 
	MOVLW       hi_addr(_Tasks+0)
	ADDWFC      R1, 0 
	MOVWF       R3 
	MOVFF       R2, FSR0L
	MOVFF       R3, FSR0H
	MOVF        POSTINC0+0, 0 
	MOVWF       R0 
	MOVF        R0, 0 
	MOVWF       _Events+2 
	MOVLW       5
	ADDWF       R2, 0 
	MOVWF       FSR1L 
	MOVLW       0
	ADDWFC      R3, 0 
	MOVWF       FSR1H 
	MOVLW       1
	MOVWF       POSTINC1+0 
	MOVF        EventHandler_i_L0+0, 0 
	MOVWF       R0 
	MOVLW       0
	MOVWF       R1 
	MOVLW       7
	MOVWF       R4 
	MOVLW       0
	MOVWF       R5 
	CALL        _Mul_16x16_U+0, 0
	MOVLW       _Tasks+0
	ADDWF       R0, 1 
	MOVLW       hi_addr(_Tasks+0)
	ADDWFC      R1, 1 
	MOVLW       6
	ADDWF       R0, 0 
	MOVWF       FSR1L 
	MOVLW       0
	ADDWFC      R1, 0 
	MOVWF       FSR1H 
	CLRF        POSTINC1+0 
	GOTO        L_EventHandler325
L_EventHandler324:
;FirmV_0_7_0.c,1402 :: 		else if(Events.Task3==0)
	MOVF        _Events+3, 0 
	XORLW       0
	BTFSS       STATUS+0, 2 
	GOTO        L_EventHandler326
;FirmV_0_7_0.c,1403 :: 		{Events.Task3=Tasks[i].TaskCode;Tasks[i].Expired=1;Tasks[i].Fired=0;}
	MOVF        EventHandler_i_L0+0, 0 
	MOVWF       R0 
	MOVLW       0
	MOVWF       R1 
	MOVLW       7
	MOVWF       R4 
	MOVLW       0
	MOVWF       R5 
	CALL        _Mul_16x16_U+0, 0
	MOVLW       _Tasks+0
	ADDWF       R0, 0 
	MOVWF       R2 
	MOVLW       hi_addr(_Tasks+0)
	ADDWFC      R1, 0 
	MOVWF       R3 
	MOVFF       R2, FSR0L
	MOVFF       R3, FSR0H
	MOVF        POSTINC0+0, 0 
	MOVWF       R0 
	MOVF        R0, 0 
	MOVWF       _Events+3 
	MOVLW       5
	ADDWF       R2, 0 
	MOVWF       FSR1L 
	MOVLW       0
	ADDWFC      R3, 0 
	MOVWF       FSR1H 
	MOVLW       1
	MOVWF       POSTINC1+0 
	MOVF        EventHandler_i_L0+0, 0 
	MOVWF       R0 
	MOVLW       0
	MOVWF       R1 
	MOVLW       7
	MOVWF       R4 
	MOVLW       0
	MOVWF       R5 
	CALL        _Mul_16x16_U+0, 0
	MOVLW       _Tasks+0
	ADDWF       R0, 1 
	MOVLW       hi_addr(_Tasks+0)
	ADDWFC      R1, 1 
	MOVLW       6
	ADDWF       R0, 0 
	MOVWF       FSR1L 
	MOVLW       0
	ADDWFC      R1, 0 
	MOVWF       FSR1H 
	CLRF        POSTINC1+0 
L_EventHandler326:
L_EventHandler325:
L_EventHandler323:
;FirmV_0_7_0.c,1404 :: 		}
L_EventHandler321:
;FirmV_0_7_0.c,1395 :: 		for(i=0;i<20;i++)
	INCF        EventHandler_i_L0+0, 1 
;FirmV_0_7_0.c,1404 :: 		}
	GOTO        L_EventHandler316
L_EventHandler317:
;FirmV_0_7_0.c,1405 :: 		}
	RETURN      0
; end of _EventHandler

_GetKeysState:

;FirmV_0_7_0.c,1415 :: 		char GetKeysState()
;FirmV_0_7_0.c,1417 :: 		unsigned res=0;
	CLRF        GetKeysState_res_L0+0 
	CLRF        GetKeysState_res_L0+1 
;FirmV_0_7_0.c,1421 :: 		char resch=0,fin;
	CLRF        GetKeysState_resch_L0+0 
;FirmV_0_7_0.c,1422 :: 		resch.b0=~KeyDown;
	BTFSC       PORTD+0, 5 
	GOTO        L__GetKeysState817
	BSF         GetKeysState_resch_L0+0, 0 
	GOTO        L__GetKeysState818
L__GetKeysState817:
	BCF         GetKeysState_resch_L0+0, 0 
L__GetKeysState818:
;FirmV_0_7_0.c,1423 :: 		resch.b1=~KeyMenu;
	BTFSC       PORTE+0, 0 
	GOTO        L__GetKeysState819
	BSF         GetKeysState_resch_L0+0, 1 
	GOTO        L__GetKeysState820
L__GetKeysState819:
	BCF         GetKeysState_resch_L0+0, 1 
L__GetKeysState820:
;FirmV_0_7_0.c,1424 :: 		resch.b2=~KeyUp;
	BTFSC       PORTD+0, 4 
	GOTO        L__GetKeysState821
	BSF         GetKeysState_resch_L0+0, 2 
	GOTO        L__GetKeysState822
L__GetKeysState821:
	BCF         GetKeysState_resch_L0+0, 2 
L__GetKeysState822:
;FirmV_0_7_0.c,1426 :: 		if((resch==0))
	MOVF        GetKeysState_resch_L0+0, 0 
	XORLW       0
	BTFSS       STATUS+0, 2 
	GOTO        L_GetKeysState327
;FirmV_0_7_0.c,1428 :: 		if(Pressed==0)
	MOVF        _Pressed+0, 0 
	XORLW       0
	BTFSS       STATUS+0, 2 
	GOTO        L_GetKeysState328
;FirmV_0_7_0.c,1429 :: 		{Repeat=0;RepeatCount=0;Pressed=0;fin=0;RepeatRate=0;}
	CLRF        GetKeysState_Repeat_L0+0 
	CLRF        GetKeysState_RepeatCount_L0+0 
	CLRF        _Pressed+0 
	CLRF        GetKeysState_fin_L0+0 
	CLRF        GetKeysState_RepeatRate_L0+0 
L_GetKeysState328:
;FirmV_0_7_0.c,1430 :: 		if(Pressed==1)
	MOVF        _Pressed+0, 0 
	XORLW       1
	BTFSS       STATUS+0, 2 
	GOTO        L_GetKeysState329
;FirmV_0_7_0.c,1431 :: 		if(DebouncingDelay>=DebouncingFix)
	MOVLW       5
	SUBWF       _DebouncingDelay+0, 0 
	BTFSS       STATUS+0, 0 
	GOTO        L_GetKeysState330
;FirmV_0_7_0.c,1432 :: 		{Repeat=0;RepeatCount=0;Pressed=0;fin=0;RepeatRate=0;}
	CLRF        GetKeysState_Repeat_L0+0 
	CLRF        GetKeysState_RepeatCount_L0+0 
	CLRF        _Pressed+0 
	CLRF        GetKeysState_fin_L0+0 
	CLRF        GetKeysState_RepeatRate_L0+0 
L_GetKeysState330:
L_GetKeysState329:
;FirmV_0_7_0.c,1433 :: 		}
L_GetKeysState327:
;FirmV_0_7_0.c,1436 :: 		if(RepeatCount<=6)
	MOVF        GetKeysState_RepeatCount_L0+0, 0 
	SUBLW       6
	BTFSS       STATUS+0, 0 
	GOTO        L_GetKeysState331
;FirmV_0_7_0.c,1437 :: 		{RepeatSpeed=20;}
	MOVLW       20
	MOVWF       GetKeysState_RepeatSpeed_L0+0 
L_GetKeysState331:
;FirmV_0_7_0.c,1438 :: 		if((RepeatCount>6)&&(RepeatCount<=20))
	MOVF        GetKeysState_RepeatCount_L0+0, 0 
	SUBLW       6
	BTFSC       STATUS+0, 0 
	GOTO        L_GetKeysState334
	MOVF        GetKeysState_RepeatCount_L0+0, 0 
	SUBLW       20
	BTFSS       STATUS+0, 0 
	GOTO        L_GetKeysState334
L__GetKeysState758:
;FirmV_0_7_0.c,1439 :: 		{RepeatSpeed=10;}
	MOVLW       10
	MOVWF       GetKeysState_RepeatSpeed_L0+0 
L_GetKeysState334:
;FirmV_0_7_0.c,1440 :: 		if(RepeatCount>20)
	MOVF        GetKeysState_RepeatCount_L0+0, 0 
	SUBLW       20
	BTFSC       STATUS+0, 0 
	GOTO        L_GetKeysState335
;FirmV_0_7_0.c,1441 :: 		{RepeatSpeed=5;}
	MOVLW       5
	MOVWF       GetKeysState_RepeatSpeed_L0+0 
L_GetKeysState335:
;FirmV_0_7_0.c,1444 :: 		if((Repeat==1)&&(KeyFlag>=RepeatSpeed))
	MOVF        GetKeysState_Repeat_L0+0, 0 
	XORLW       1
	BTFSS       STATUS+0, 2 
	GOTO        L_GetKeysState338
	MOVF        GetKeysState_RepeatSpeed_L0+0, 0 
	SUBWF       _KeyFlag+0, 0 
	BTFSS       STATUS+0, 0 
	GOTO        L_GetKeysState338
L__GetKeysState757:
;FirmV_0_7_0.c,1445 :: 		{RepeatRate=1;KeyFlag=0;if(RepeatCount<25)RepeatCount=RepeatCount+1;}
	MOVLW       1
	MOVWF       GetKeysState_RepeatRate_L0+0 
	CLRF        _KeyFlag+0 
	MOVLW       25
	SUBWF       GetKeysState_RepeatCount_L0+0, 0 
	BTFSC       STATUS+0, 0 
	GOTO        L_GetKeysState339
	INCF        GetKeysState_RepeatCount_L0+0, 1 
L_GetKeysState339:
L_GetKeysState338:
;FirmV_0_7_0.c,1449 :: 		if((resch!=0)&&(Pressed==1)&&(Repeat==0)&&(ms500==PressTime+KeyRepeatDelay))
	MOVF        GetKeysState_resch_L0+0, 0 
	XORLW       0
	BTFSC       STATUS+0, 2 
	GOTO        L_GetKeysState342
	MOVF        _Pressed+0, 0 
	XORLW       1
	BTFSS       STATUS+0, 2 
	GOTO        L_GetKeysState342
	MOVF        GetKeysState_Repeat_L0+0, 0 
	XORLW       0
	BTFSS       STATUS+0, 2 
	GOTO        L_GetKeysState342
	MOVLW       2
	ADDWF       GetKeysState_PressTime_L0+0, 0 
	MOVWF       R1 
	MOVLW       0
	ADDWFC      GetKeysState_PressTime_L0+1, 0 
	MOVWF       R2 
	MOVLW       0
	ADDWFC      GetKeysState_PressTime_L0+2, 0 
	MOVWF       R3 
	MOVLW       0
	ADDWFC      GetKeysState_PressTime_L0+3, 0 
	MOVWF       R4 
	MOVF        _ms500+3, 0 
	XORWF       R4, 0 
	BTFSS       STATUS+0, 2 
	GOTO        L__GetKeysState823
	MOVF        _ms500+2, 0 
	XORWF       R3, 0 
	BTFSS       STATUS+0, 2 
	GOTO        L__GetKeysState823
	MOVF        _ms500+1, 0 
	XORWF       R2, 0 
	BTFSS       STATUS+0, 2 
	GOTO        L__GetKeysState823
	MOVF        _ms500+0, 0 
	XORWF       R1, 0 
L__GetKeysState823:
	BTFSS       STATUS+0, 2 
	GOTO        L_GetKeysState342
L__GetKeysState756:
;FirmV_0_7_0.c,1450 :: 		{Repeat=1;KeyFlag=0;}
	MOVLW       1
	MOVWF       GetKeysState_Repeat_L0+0 
	CLRF        _KeyFlag+0 
L_GetKeysState342:
;FirmV_0_7_0.c,1452 :: 		if((resch!=0)&&(Pressed==1)&&(Repeat==0))
	MOVF        GetKeysState_resch_L0+0, 0 
	XORLW       0
	BTFSC       STATUS+0, 2 
	GOTO        L_GetKeysState345
	MOVF        _Pressed+0, 0 
	XORLW       1
	BTFSS       STATUS+0, 2 
	GOTO        L_GetKeysState345
	MOVF        GetKeysState_Repeat_L0+0, 0 
	XORLW       0
	BTFSS       STATUS+0, 2 
	GOTO        L_GetKeysState345
L__GetKeysState755:
;FirmV_0_7_0.c,1453 :: 		fin=0;
	CLRF        GetKeysState_fin_L0+0 
L_GetKeysState345:
;FirmV_0_7_0.c,1455 :: 		if((resch!=0)&&(Pressed==1)&&(Repeat==1))
	MOVF        GetKeysState_resch_L0+0, 0 
	XORLW       0
	BTFSC       STATUS+0, 2 
	GOTO        L_GetKeysState348
	MOVF        _Pressed+0, 0 
	XORLW       1
	BTFSS       STATUS+0, 2 
	GOTO        L_GetKeysState348
	MOVF        GetKeysState_Repeat_L0+0, 0 
	XORLW       1
	BTFSS       STATUS+0, 2 
	GOTO        L_GetKeysState348
L__GetKeysState754:
;FirmV_0_7_0.c,1456 :: 		{fin=resch*RepeatRate;RepeatRate=0;}
	MOVF        GetKeysState_resch_L0+0, 0 
	MULWF       GetKeysState_RepeatRate_L0+0 
	MOVF        PRODL+0, 0 
	MOVWF       GetKeysState_fin_L0+0 
	CLRF        GetKeysState_RepeatRate_L0+0 
L_GetKeysState348:
;FirmV_0_7_0.c,1459 :: 		if((resch!=0)&&(Pressed==0))
	MOVF        GetKeysState_resch_L0+0, 0 
	XORLW       0
	BTFSC       STATUS+0, 2 
	GOTO        L_GetKeysState351
	MOVF        _Pressed+0, 0 
	XORLW       0
	BTFSS       STATUS+0, 2 
	GOTO        L_GetKeysState351
L__GetKeysState753:
;FirmV_0_7_0.c,1460 :: 		{fin=resch; Pressed=1;PressTime=ms500;DebouncingDelay=0;}
	MOVF        GetKeysState_resch_L0+0, 0 
	MOVWF       GetKeysState_fin_L0+0 
	MOVLW       1
	MOVWF       _Pressed+0 
	MOVF        _ms500+0, 0 
	MOVWF       GetKeysState_PressTime_L0+0 
	MOVF        _ms500+1, 0 
	MOVWF       GetKeysState_PressTime_L0+1 
	MOVF        _ms500+2, 0 
	MOVWF       GetKeysState_PressTime_L0+2 
	MOVF        _ms500+3, 0 
	MOVWF       GetKeysState_PressTime_L0+3 
	CLRF        _DebouncingDelay+0 
L_GetKeysState351:
;FirmV_0_7_0.c,1464 :: 		if(fin != 0)
	MOVF        GetKeysState_fin_L0+0, 0 
	XORLW       0
	BTFSC       STATUS+0, 2 
	GOTO        L_GetKeysState352
;FirmV_0_7_0.c,1465 :: 		BuzzFlag=1;
	MOVLW       1
	MOVWF       _BuzzFlag+0 
L_GetKeysState352:
;FirmV_0_7_0.c,1467 :: 		return fin;
	MOVF        GetKeysState_fin_L0+0, 0 
	MOVWF       R0 
;FirmV_0_7_0.c,1468 :: 		}
	RETURN      0
; end of _GetKeysState

_GetExternalKeysState:

;FirmV_0_7_0.c,1478 :: 		char GetExternalKeysState()
;FirmV_0_7_0.c,1480 :: 		char out=0;
	CLRF        GetExternalKeysState_out_L0+0 
;FirmV_0_7_0.c,1481 :: 		if(KeyUp==0)
	BTFSC       PORTD+0, 4 
	GOTO        L_GetExternalKeysState353
;FirmV_0_7_0.c,1482 :: 		out.b0=1;
	BSF         GetExternalKeysState_out_L0+0, 0 
L_GetExternalKeysState353:
;FirmV_0_7_0.c,1483 :: 		if(KeyDown==0)
	BTFSC       PORTD+0, 5 
	GOTO        L_GetExternalKeysState354
;FirmV_0_7_0.c,1484 :: 		out.b1=1;
	BSF         GetExternalKeysState_out_L0+0, 1 
L_GetExternalKeysState354:
;FirmV_0_7_0.c,1485 :: 		return out;
	MOVF        GetExternalKeysState_out_L0+0, 0 
	MOVWF       R0 
;FirmV_0_7_0.c,1486 :: 		}
	RETURN      0
; end of _GetExternalKeysState

_GetLimitSwitchState:

;FirmV_0_7_0.c,1499 :: 		char GetLimitSwitchState()
;FirmV_0_7_0.c,1501 :: 		if((Limit1==0)||(Limit2==0))
	BTFSS       PORTD+0, 0 
	GOTO        L__GetLimitSwitchState759
	BTFSS       PORTD+0, 1 
	GOTO        L__GetLimitSwitchState759
	GOTO        L_GetLimitSwitchState357
L__GetLimitSwitchState759:
;FirmV_0_7_0.c,1502 :: 		return 1;
	MOVLW       1
	MOVWF       R0 
	RETURN      0
L_GetLimitSwitchState357:
;FirmV_0_7_0.c,1504 :: 		return 0;
	CLRF        R0 
;FirmV_0_7_0.c,1505 :: 		}
	RETURN      0
; end of _GetLimitSwitchState

_GetRemoteState:

;FirmV_0_7_0.c,1514 :: 		char GetRemoteState()
;FirmV_0_7_0.c,1516 :: 		char res=0;
	CLRF        GetRemoteState_res_L0+0 
;FirmV_0_7_0.c,1517 :: 		res.b0=RemoteAFlag.b0;
	BTFSC       _RemoteAFlag+0, 0 
	GOTO        L__GetRemoteState824
	BCF         GetRemoteState_res_L0+0, 0 
	GOTO        L__GetRemoteState825
L__GetRemoteState824:
	BSF         GetRemoteState_res_L0+0, 0 
L__GetRemoteState825:
;FirmV_0_7_0.c,1518 :: 		res.b1=RemoteBFlag.b0;
	BTFSC       _RemoteBFlag+0, 0 
	GOTO        L__GetRemoteState826
	BCF         GetRemoteState_res_L0+0, 1 
	GOTO        L__GetRemoteState827
L__GetRemoteState826:
	BSF         GetRemoteState_res_L0+0, 1 
L__GetRemoteState827:
;FirmV_0_7_0.c,1519 :: 		RemoteAFlag=0;
	CLRF        _RemoteAFlag+0 
;FirmV_0_7_0.c,1520 :: 		RemoteBFlag=0;
	CLRF        _RemoteBFlag+0 
;FirmV_0_7_0.c,1521 :: 		res.b0=res.b0;
;FirmV_0_7_0.c,1522 :: 		res.b1=res.b1;
;FirmV_0_7_0.c,1524 :: 		if(State<20)
	MOVLW       20
	SUBWF       _State+0, 0 
	BTFSC       STATUS+0, 0 
	GOTO        L_GetRemoteState359
;FirmV_0_7_0.c,1526 :: 		res.b0=res.b0|Events.Keys.b2;//up key
	BTFSC       GetRemoteState_res_L0+0, 0 
	GOTO        L__GetRemoteState828
	BTFSC       _Events+0, 2 
	GOTO        L__GetRemoteState828
	BCF         GetRemoteState_res_L0+0, 0 
	GOTO        L__GetRemoteState829
L__GetRemoteState828:
	BSF         GetRemoteState_res_L0+0, 0 
L__GetRemoteState829:
;FirmV_0_7_0.c,1527 :: 		res.b1=res.b1|Events.Keys.b0;//down key
	BTFSC       GetRemoteState_res_L0+0, 1 
	GOTO        L__GetRemoteState830
	BTFSC       _Events+0, 0 
	GOTO        L__GetRemoteState830
	BCF         GetRemoteState_res_L0+0, 1 
	GOTO        L__GetRemoteState831
L__GetRemoteState830:
	BSF         GetRemoteState_res_L0+0, 1 
L__GetRemoteState831:
;FirmV_0_7_0.c,1528 :: 		}
L_GetRemoteState359:
;FirmV_0_7_0.c,1530 :: 		return res;
	MOVF        GetRemoteState_res_L0+0, 0 
	MOVWF       R0 
;FirmV_0_7_0.c,1531 :: 		}
	RETURN      0
; end of _GetRemoteState

_GetOverloadState:

;FirmV_0_7_0.c,1541 :: 		char GetOverloadState()
;FirmV_0_7_0.c,1543 :: 		char res=0;
	CLRF        GetOverloadState_res_L0+0 
;FirmV_0_7_0.c,1545 :: 		VCapM1=ADC_Read(0);
	CLRF        FARG_ADC_Read_channel+0 
	CALL        _ADC_Read+0, 0
	MOVF        R0, 0 
	MOVWF       GetOverloadState_VCapM1_L0+0 
	MOVF        R1, 0 
	MOVWF       GetOverloadState_VCapM1_L0+1 
;FirmV_0_7_0.c,1546 :: 		VCapM2=ADC_Read(1);
	MOVLW       1
	MOVWF       FARG_ADC_Read_channel+0 
	CALL        _ADC_Read+0, 0
	MOVF        R0, 0 
	MOVWF       GetOverloadState_VCapM2_L0+0 
	MOVF        R1, 0 
	MOVWF       GetOverloadState_VCapM2_L0+1 
;FirmV_0_7_0.c,1550 :: 		if(Motor1FullSpeed!=0)
	MOVF        _Motor1FullSpeed+0, 0 
	XORLW       0
	BTFSC       STATUS+0, 2 
	GOTO        L_GetOverloadState360
;FirmV_0_7_0.c,1554 :: 		if(VCapM1<OverloadTreshold)
	MOVF        _OverloadTreshold+1, 0 
	SUBWF       GetOverloadState_VCapM1_L0+1, 0 
	BTFSS       STATUS+0, 2 
	GOTO        L__GetOverloadState832
	MOVF        _OverloadTreshold+0, 0 
	SUBWF       GetOverloadState_VCapM1_L0+0, 0 
L__GetOverloadState832:
	BTFSC       STATUS+0, 0 
	GOTO        L_GetOverloadState361
;FirmV_0_7_0.c,1556 :: 		if(OverloadCounter1<65530)
	MOVLW       255
	SUBWF       _OverloadCounter1+1, 0 
	BTFSS       STATUS+0, 2 
	GOTO        L__GetOverloadState833
	MOVLW       250
	SUBWF       _OverloadCounter1+0, 0 
L__GetOverloadState833:
	BTFSC       STATUS+0, 0 
	GOTO        L_GetOverloadState362
;FirmV_0_7_0.c,1557 :: 		OverloadCounter1=OverloadCounter1+1;
	INFSNZ      _OverloadCounter1+0, 1 
	INCF        _OverloadCounter1+1, 1 
L_GetOverloadState362:
;FirmV_0_7_0.c,1558 :: 		}
	GOTO        L_GetOverloadState363
L_GetOverloadState361:
;FirmV_0_7_0.c,1561 :: 		if(OverloadCounter1>0)
	MOVLW       0
	MOVWF       R0 
	MOVF        _OverloadCounter1+1, 0 
	SUBWF       R0, 0 
	BTFSS       STATUS+0, 2 
	GOTO        L__GetOverloadState834
	MOVF        _OverloadCounter1+0, 0 
	SUBLW       0
L__GetOverloadState834:
	BTFSC       STATUS+0, 0 
	GOTO        L_GetOverloadState364
;FirmV_0_7_0.c,1562 :: 		OverloadCounter1=OverloadCounter1-1;
	MOVLW       1
	SUBWF       _OverloadCounter1+0, 1 
	MOVLW       0
	SUBWFB      _OverloadCounter1+1, 1 
L_GetOverloadState364:
;FirmV_0_7_0.c,1563 :: 		}
L_GetOverloadState363:
;FirmV_0_7_0.c,1564 :: 		}
	GOTO        L_GetOverloadState365
L_GetOverloadState360:
;FirmV_0_7_0.c,1566 :: 		{OverloadCounter1=0;}
	CLRF        _OverloadCounter1+0 
	CLRF        _OverloadCounter1+1 
L_GetOverloadState365:
;FirmV_0_7_0.c,1568 :: 		if (OverloadCounter1>OverloadDuration)
	MOVF        _OverloadCounter1+1, 0 
	SUBWF       _OverloadDuration+1, 0 
	BTFSS       STATUS+0, 2 
	GOTO        L__GetOverloadState835
	MOVF        _OverloadCounter1+0, 0 
	SUBWF       _OverloadDuration+0, 0 
L__GetOverloadState835:
	BTFSC       STATUS+0, 0 
	GOTO        L_GetOverloadState366
;FirmV_0_7_0.c,1569 :: 		res.b0=1;
	BSF         GetOverloadState_res_L0+0, 0 
L_GetOverloadState366:
;FirmV_0_7_0.c,1574 :: 		if(Motor2FullSpeed!=0)
	MOVF        _Motor2FullSpeed+0, 0 
	XORLW       0
	BTFSC       STATUS+0, 2 
	GOTO        L_GetOverloadState367
;FirmV_0_7_0.c,1576 :: 		if(VCapM2<OverloadTreshold)
	MOVF        _OverloadTreshold+1, 0 
	SUBWF       GetOverloadState_VCapM2_L0+1, 0 
	BTFSS       STATUS+0, 2 
	GOTO        L__GetOverloadState836
	MOVF        _OverloadTreshold+0, 0 
	SUBWF       GetOverloadState_VCapM2_L0+0, 0 
L__GetOverloadState836:
	BTFSC       STATUS+0, 0 
	GOTO        L_GetOverloadState368
;FirmV_0_7_0.c,1578 :: 		if(OverloadCounter2<65530)
	MOVLW       255
	SUBWF       _OverloadCounter2+1, 0 
	BTFSS       STATUS+0, 2 
	GOTO        L__GetOverloadState837
	MOVLW       250
	SUBWF       _OverloadCounter2+0, 0 
L__GetOverloadState837:
	BTFSC       STATUS+0, 0 
	GOTO        L_GetOverloadState369
;FirmV_0_7_0.c,1579 :: 		OverloadCounter2=OverloadCounter2+1;
	INFSNZ      _OverloadCounter2+0, 1 
	INCF        _OverloadCounter2+1, 1 
L_GetOverloadState369:
;FirmV_0_7_0.c,1580 :: 		}
	GOTO        L_GetOverloadState370
L_GetOverloadState368:
;FirmV_0_7_0.c,1583 :: 		if(OverloadCounter2>0)
	MOVLW       0
	MOVWF       R0 
	MOVF        _OverloadCounter2+1, 0 
	SUBWF       R0, 0 
	BTFSS       STATUS+0, 2 
	GOTO        L__GetOverloadState838
	MOVF        _OverloadCounter2+0, 0 
	SUBLW       0
L__GetOverloadState838:
	BTFSC       STATUS+0, 0 
	GOTO        L_GetOverloadState371
;FirmV_0_7_0.c,1584 :: 		OverloadCounter2=OverloadCounter2-1;
	MOVLW       1
	SUBWF       _OverloadCounter2+0, 1 
	MOVLW       0
	SUBWFB      _OverloadCounter2+1, 1 
L_GetOverloadState371:
;FirmV_0_7_0.c,1585 :: 		}
L_GetOverloadState370:
;FirmV_0_7_0.c,1586 :: 		}
	GOTO        L_GetOverloadState372
L_GetOverloadState367:
;FirmV_0_7_0.c,1588 :: 		{OverloadCounter2=0;}
	CLRF        _OverloadCounter2+0 
	CLRF        _OverloadCounter2+1 
L_GetOverloadState372:
;FirmV_0_7_0.c,1591 :: 		if (OverloadCounter2>OverloadDuration)
	MOVF        _OverloadCounter2+1, 0 
	SUBWF       _OverloadDuration+1, 0 
	BTFSS       STATUS+0, 2 
	GOTO        L__GetOverloadState839
	MOVF        _OverloadCounter2+0, 0 
	SUBWF       _OverloadDuration+0, 0 
L__GetOverloadState839:
	BTFSC       STATUS+0, 0 
	GOTO        L_GetOverloadState373
;FirmV_0_7_0.c,1592 :: 		res.b1=1;
	BSF         GetOverloadState_res_L0+0, 1 
L_GetOverloadState373:
;FirmV_0_7_0.c,1594 :: 		return res;
	MOVF        GetOverloadState_res_L0+0, 0 
	MOVWF       R0 
;FirmV_0_7_0.c,1595 :: 		}
	RETURN      0
; end of _GetOverloadState

_GetPhotocellState:

;FirmV_0_7_0.c,1608 :: 		char GetPhotocellState()
;FirmV_0_7_0.c,1610 :: 		if(Phcell1==0)
	BTFSC       PORTD+0, 3 
	GOTO        L_GetPhotocellState374
;FirmV_0_7_0.c,1611 :: 		{if(PhotocellCount<=20)PhotocellCount=PhotocellCount+1;}
	MOVF        _PhotocellCount+0, 0 
	SUBLW       20
	BTFSS       STATUS+0, 0 
	GOTO        L_GetPhotocellState375
	INCF        _PhotocellCount+0, 1 
L_GetPhotocellState375:
	GOTO        L_GetPhotocellState376
L_GetPhotocellState374:
;FirmV_0_7_0.c,1613 :: 		{PhotocellCount=0;}
	CLRF        _PhotocellCount+0 
L_GetPhotocellState376:
;FirmV_0_7_0.c,1614 :: 		if(PhotocellCount>=20)
	MOVLW       20
	SUBWF       _PhotocellCount+0, 0 
	BTFSS       STATUS+0, 0 
	GOTO        L_GetPhotocellState377
;FirmV_0_7_0.c,1615 :: 		return 1;
	MOVLW       1
	MOVWF       R0 
	RETURN      0
L_GetPhotocellState377:
;FirmV_0_7_0.c,1617 :: 		return 0;
	CLRF        R0 
;FirmV_0_7_0.c,1618 :: 		}
	RETURN      0
; end of _GetPhotocellState

_SetMotorSpeed:

;FirmV_0_7_0.c,1630 :: 		void SetMotorSpeed(char M1FullSpeed,char M2FullSpeed)
;FirmV_0_7_0.c,1632 :: 		if((M1FullSpeed==0)||(M2FullSpeed==0))
	MOVF        FARG_SetMotorSpeed_M1FullSpeed+0, 0 
	XORLW       0
	BTFSC       STATUS+0, 2 
	GOTO        L__SetMotorSpeed760
	MOVF        FARG_SetMotorSpeed_M2FullSpeed+0, 0 
	XORLW       0
	BTFSC       STATUS+0, 2 
	GOTO        L__SetMotorSpeed760
	GOTO        L_SetMotorSpeed381
L__SetMotorSpeed760:
;FirmV_0_7_0.c,1633 :: 		INT0E_bit=1;
	BSF         INT0E_bit+0, 4 
	GOTO        L_SetMotorSpeed382
L_SetMotorSpeed381:
;FirmV_0_7_0.c,1635 :: 		INT0E_bit=0;
	BCF         INT0E_bit+0, 4 
L_SetMotorSpeed382:
;FirmV_0_7_0.c,1637 :: 		Motor1FullSpeed=M1FullSpeed;
	MOVF        FARG_SetMotorSpeed_M1FullSpeed+0, 0 
	MOVWF       _Motor1FullSpeed+0 
;FirmV_0_7_0.c,1638 :: 		Motor2FullSpeed=M2FullSpeed;
	MOVF        FARG_SetMotorSpeed_M2FullSpeed+0, 0 
	MOVWF       _Motor2FullSpeed+0 
;FirmV_0_7_0.c,1639 :: 		}
	RETURN      0
; end of _SetMotorSpeed

_OverloadInit:

;FirmV_0_7_0.c,1650 :: 		void OverloadInit(char ch)
;FirmV_0_7_0.c,1652 :: 		if(ch==1)
	MOVF        FARG_OverloadInit_ch+0, 0 
	XORLW       1
	BTFSS       STATUS+0, 2 
	GOTO        L_OverloadInit383
;FirmV_0_7_0.c,1654 :: 		OverloadCounter1=0;
	CLRF        _OverloadCounter1+0 
	CLRF        _OverloadCounter1+1 
;FirmV_0_7_0.c,1655 :: 		Events.Overload.b0=0;
	BCF         _Events+5, 0 
;FirmV_0_7_0.c,1656 :: 		}
L_OverloadInit383:
;FirmV_0_7_0.c,1658 :: 		if(ch==2)
	MOVF        FARG_OverloadInit_ch+0, 0 
	XORLW       2
	BTFSS       STATUS+0, 2 
	GOTO        L_OverloadInit384
;FirmV_0_7_0.c,1660 :: 		OverloadCounter2=0;
	CLRF        _OverloadCounter2+0 
	CLRF        _OverloadCounter2+1 
;FirmV_0_7_0.c,1661 :: 		Events.Overload.b1=0;
	BCF         _Events+5, 1 
;FirmV_0_7_0.c,1662 :: 		}
L_OverloadInit384:
;FirmV_0_7_0.c,1663 :: 		}
	RETURN      0
; end of _OverloadInit

_SaveConfigs:

;FirmV_0_7_0.c,1674 :: 		void SaveConfigs()
;FirmV_0_7_0.c,1677 :: 		EEPROM_Write(1,Door1OpenTime);
	MOVLW       1
	MOVWF       FARG_EEPROM_Write_address+0 
	MOVF        _Door1OpenTime+0, 0 
	MOVWF       FARG_EEPROM_Write_data_+0 
	CALL        _EEPROM_Write+0, 0
;FirmV_0_7_0.c,1678 :: 		EEPROM_Write(2,Door2OpenTime);
	MOVLW       2
	MOVWF       FARG_EEPROM_Write_address+0 
	MOVF        _Door2OpenTime+0, 0 
	MOVWF       FARG_EEPROM_Write_data_+0 
	CALL        _EEPROM_Write+0, 0
;FirmV_0_7_0.c,1679 :: 		EEPROM_Write(3,Door1CloseTime);
	MOVLW       3
	MOVWF       FARG_EEPROM_Write_address+0 
	MOVF        _Door1CloseTime+0, 0 
	MOVWF       FARG_EEPROM_Write_data_+0 
	CALL        _EEPROM_Write+0, 0
;FirmV_0_7_0.c,1680 :: 		EEPROM_Write(4,Door2CloseTime);
	MOVLW       4
	MOVWF       FARG_EEPROM_Write_address+0 
	MOVF        _Door2CloseTime+0, 0 
	MOVWF       FARG_EEPROM_Write_data_+0 
	CALL        _EEPROM_Write+0, 0
;FirmV_0_7_0.c,1681 :: 		EEPROM_Write(5,ActionTimeDiff);
	MOVLW       5
	MOVWF       FARG_EEPROM_Write_address+0 
	MOVF        _ActionTimeDiff+0, 0 
	MOVWF       FARG_EEPROM_Write_data_+0 
	CALL        _EEPROM_Write+0, 0
;FirmV_0_7_0.c,1682 :: 		EEPROM_Write(6,OpenSoftStartTime);
	MOVLW       6
	MOVWF       FARG_EEPROM_Write_address+0 
	MOVF        _OpenSoftStartTime+0, 0 
	MOVWF       FARG_EEPROM_Write_data_+0 
	CALL        _EEPROM_Write+0, 0
;FirmV_0_7_0.c,1683 :: 		EEPROM_Write(7,OpenSoftStopTime);
	MOVLW       7
	MOVWF       FARG_EEPROM_Write_address+0 
	MOVF        _OpenSoftStopTime+0, 0 
	MOVWF       FARG_EEPROM_Write_data_+0 
	CALL        _EEPROM_Write+0, 0
;FirmV_0_7_0.c,1684 :: 		EEPROM_Write(8,CloseSoftStartTime);
	MOVLW       8
	MOVWF       FARG_EEPROM_Write_address+0 
	MOVF        _CloseSoftStartTime+0, 0 
	MOVWF       FARG_EEPROM_Write_data_+0 
	CALL        _EEPROM_Write+0, 0
;FirmV_0_7_0.c,1685 :: 		EEPROM_Write(9,CloseSoftStopTime);
	MOVLW       9
	MOVWF       FARG_EEPROM_Write_address+0 
	MOVF        _CloseSoftStopTime+0, 0 
	MOVWF       FARG_EEPROM_Write_data_+0 
	CALL        _EEPROM_Write+0, 0
;FirmV_0_7_0.c,1686 :: 		EEPROM_Write(10,Hi(AutoCloseTime));
	MOVLW       10
	MOVWF       FARG_EEPROM_Write_address+0 
	MOVF        _AutoCloseTime+1, 0 
	MOVWF       FARG_EEPROM_Write_data_+0 
	CALL        _EEPROM_Write+0, 0
;FirmV_0_7_0.c,1687 :: 		EEPROM_Write(11,Lo(AutoCloseTime));
	MOVLW       11
	MOVWF       FARG_EEPROM_Write_address+0 
	MOVF        _AutoCloseTime+0, 0 
	MOVWF       FARG_EEPROM_Write_data_+0 
	CALL        _EEPROM_Write+0, 0
;FirmV_0_7_0.c,1688 :: 		EEPROM_Write(12,OverloadSens);
	MOVLW       12
	MOVWF       FARG_EEPROM_Write_address+0 
	MOVF        _OverloadSens+0, 0 
	MOVWF       FARG_EEPROM_Write_data_+0 
	CALL        _EEPROM_Write+0, 0
;FirmV_0_7_0.c,1689 :: 		SetOverloadParams(OverloadSens);
	MOVF        _OverloadSens+0, 0 
	MOVWF       FARG_SetOverloadParams+0 
	CALL        _SetOverloadParams+0, 0
;FirmV_0_7_0.c,1690 :: 		EEPROM_Write(13,CloseAfterPass);
	MOVLW       13
	MOVWF       FARG_EEPROM_Write_address+0 
	MOVF        _CloseAfterPass+0, 0 
	MOVWF       FARG_EEPROM_Write_data_+0 
	CALL        _EEPROM_Write+0, 0
;FirmV_0_7_0.c,1691 :: 		EEPROM_Write(14,LockForce);
	MOVLW       14
	MOVWF       FARG_EEPROM_Write_address+0 
	MOVF        _LockForce+0, 0 
	MOVWF       FARG_EEPROM_Write_data_+0 
	CALL        _EEPROM_Write+0, 0
;FirmV_0_7_0.c,1692 :: 		EEPROM_Write(15,OpenPhEnable);
	MOVLW       15
	MOVWF       FARG_EEPROM_Write_address+0 
	MOVF        _OpenPhEnable+0, 0 
	MOVWF       FARG_EEPROM_Write_data_+0 
	CALL        _EEPROM_Write+0, 0
;FirmV_0_7_0.c,1693 :: 		EEPROM_Write(16,LimiterEnable);
	MOVLW       16
	MOVWF       FARG_EEPROM_Write_address+0 
	MOVF        _LimiterEnable+0, 0 
	MOVWF       FARG_EEPROM_Write_data_+0 
	CALL        _EEPROM_Write+0, 0
;FirmV_0_7_0.c,1695 :: 		}
	RETURN      0
; end of _SaveConfigs

_LoadConfigs:

;FirmV_0_7_0.c,1708 :: 		void LoadConfigs()
;FirmV_0_7_0.c,1710 :: 		Door1OpenTime=EEPROM_Read(1);
	MOVLW       1
	MOVWF       FARG_EEPROM_Read_address+0 
	CALL        _EEPROM_Read+0, 0
	MOVF        R0, 0 
	MOVWF       _Door1OpenTime+0 
;FirmV_0_7_0.c,1711 :: 		Door2OpenTime=EEPROM_Read(2);
	MOVLW       2
	MOVWF       FARG_EEPROM_Read_address+0 
	CALL        _EEPROM_Read+0, 0
	MOVF        R0, 0 
	MOVWF       _Door2OpenTime+0 
;FirmV_0_7_0.c,1712 :: 		Door1CloseTime=EEPROM_Read(3);
	MOVLW       3
	MOVWF       FARG_EEPROM_Read_address+0 
	CALL        _EEPROM_Read+0, 0
	MOVF        R0, 0 
	MOVWF       _Door1CloseTime+0 
;FirmV_0_7_0.c,1713 :: 		Door2CloseTime=EEPROM_Read(4);
	MOVLW       4
	MOVWF       FARG_EEPROM_Read_address+0 
	CALL        _EEPROM_Read+0, 0
	MOVF        R0, 0 
	MOVWF       _Door2CloseTime+0 
;FirmV_0_7_0.c,1714 :: 		ActionTimeDiff=EEPROM_Read(5);
	MOVLW       5
	MOVWF       FARG_EEPROM_Read_address+0 
	CALL        _EEPROM_Read+0, 0
	MOVF        R0, 0 
	MOVWF       _ActionTimeDiff+0 
;FirmV_0_7_0.c,1715 :: 		OpenSoftStartTime=EEPROM_Read(6);
	MOVLW       6
	MOVWF       FARG_EEPROM_Read_address+0 
	CALL        _EEPROM_Read+0, 0
	MOVF        R0, 0 
	MOVWF       _OpenSoftStartTime+0 
;FirmV_0_7_0.c,1716 :: 		OpenSoftStopTime=EEPROM_Read(7);
	MOVLW       7
	MOVWF       FARG_EEPROM_Read_address+0 
	CALL        _EEPROM_Read+0, 0
	MOVF        R0, 0 
	MOVWF       _OpenSoftStopTime+0 
;FirmV_0_7_0.c,1717 :: 		CloseSoftStartTime=EEPROM_Read(8);
	MOVLW       8
	MOVWF       FARG_EEPROM_Read_address+0 
	CALL        _EEPROM_Read+0, 0
	MOVF        R0, 0 
	MOVWF       _CloseSoftStartTime+0 
;FirmV_0_7_0.c,1718 :: 		CloseSoftStopTime=EEPROM_Read(9);
	MOVLW       9
	MOVWF       FARG_EEPROM_Read_address+0 
	CALL        _EEPROM_Read+0, 0
	MOVF        R0, 0 
	MOVWF       _CloseSoftStopTime+0 
;FirmV_0_7_0.c,1719 :: 		AutoCloseTime=EEPROM_Read(10);
	MOVLW       10
	MOVWF       FARG_EEPROM_Read_address+0 
	CALL        _EEPROM_Read+0, 0
	MOVF        R0, 0 
	MOVWF       _AutoCloseTime+0 
	MOVLW       0
	MOVWF       _AutoCloseTime+1 
;FirmV_0_7_0.c,1720 :: 		AutoCloseTime=AutoCloseTime<<8;
	MOVF        _AutoCloseTime+0, 0 
	MOVWF       _AutoCloseTime+1 
	CLRF        _AutoCloseTime+0 
;FirmV_0_7_0.c,1721 :: 		AutoCloseTime=AutocloseTime|EEPROM_Read(11);
	MOVLW       11
	MOVWF       FARG_EEPROM_Read_address+0 
	CALL        _EEPROM_Read+0, 0
	MOVF        R0, 0 
	IORWF       _AutoCloseTime+0, 1 
	MOVLW       0
	IORWF       _AutoCloseTime+1, 1 
;FirmV_0_7_0.c,1722 :: 		OverloadSens=EEPROM_Read(12);
	MOVLW       12
	MOVWF       FARG_EEPROM_Read_address+0 
	CALL        _EEPROM_Read+0, 0
	MOVF        R0, 0 
	MOVWF       _OverloadSens+0 
;FirmV_0_7_0.c,1723 :: 		SetOverloadParams(OverloadSens);
	MOVF        R0, 0 
	MOVWF       FARG_SetOverloadParams+0 
	CALL        _SetOverloadParams+0, 0
;FirmV_0_7_0.c,1724 :: 		CloseAfterPass=EEPROM_Read(13);
	MOVLW       13
	MOVWF       FARG_EEPROM_Read_address+0 
	CALL        _EEPROM_Read+0, 0
	MOVF        R0, 0 
	MOVWF       _CloseAfterPass+0 
;FirmV_0_7_0.c,1725 :: 		LockForce=EEPROM_Read(14);
	MOVLW       14
	MOVWF       FARG_EEPROM_Read_address+0 
	CALL        _EEPROM_Read+0, 0
	MOVF        R0, 0 
	MOVWF       _LockForce+0 
;FirmV_0_7_0.c,1726 :: 		OpenPhEnable=EEPROM_Read(15);
	MOVLW       15
	MOVWF       FARG_EEPROM_Read_address+0 
	CALL        _EEPROM_Read+0, 0
	MOVF        R0, 0 
	MOVWF       _OpenPhEnable+0 
;FirmV_0_7_0.c,1727 :: 		LimiterEnable=EEPROM_Read(16);
	MOVLW       16
	MOVWF       FARG_EEPROM_Read_address+0 
	CALL        _EEPROM_Read+0, 0
	MOVF        R0, 0 
	MOVWF       _LimiterEnable+0 
;FirmV_0_7_0.c,1729 :: 		}
	RETURN      0
; end of _LoadConfigs

_FactorySettings:

;FirmV_0_7_0.c,1742 :: 		void FactorySettings()
;FirmV_0_7_0.c,1744 :: 		Door1OpenTime=20;
	MOVLW       20
	MOVWF       _Door1OpenTime+0 
;FirmV_0_7_0.c,1745 :: 		Door1CloseTime=20;
	MOVLW       20
	MOVWF       _Door1CloseTime+0 
;FirmV_0_7_0.c,1746 :: 		Door2OpenTime=20;
	MOVLW       20
	MOVWF       _Door2OpenTime+0 
;FirmV_0_7_0.c,1747 :: 		Door2CloseTime=20;
	MOVLW       20
	MOVWF       _Door2CloseTime+0 
;FirmV_0_7_0.c,1748 :: 		OverloadSens=5;
	MOVLW       5
	MOVWF       _OverloadSens+0 
;FirmV_0_7_0.c,1749 :: 		SetOverloadParams(4);  //9-5
	MOVLW       4
	MOVWF       FARG_SetOverloadParams+0 
	CALL        _SetOverloadParams+0, 0
;FirmV_0_7_0.c,1750 :: 		OpenSoftStopTime=10;
	MOVLW       10
	MOVWF       _OpenSoftStopTime+0 
;FirmV_0_7_0.c,1751 :: 		OpenSoftStartTime=4;
	MOVLW       4
	MOVWF       _OpenSoftStartTime+0 
;FirmV_0_7_0.c,1752 :: 		CloseSoftStopTime=10;
	MOVLW       10
	MOVWF       _CloseSoftStopTime+0 
;FirmV_0_7_0.c,1753 :: 		CloseSoftStartTime=4;
	MOVLW       4
	MOVWF       _CloseSoftStartTime+0 
;FirmV_0_7_0.c,1754 :: 		ActionTimeDiff=12;
	MOVLW       12
	MOVWF       _ActionTimeDiff+0 
;FirmV_0_7_0.c,1755 :: 		AutoCloseTime=0;
	CLRF        _AutoCloseTime+0 
	CLRF        _AutoCloseTime+1 
;FirmV_0_7_0.c,1756 :: 		LockForce=0;
	CLRF        _LockForce+0 
;FirmV_0_7_0.c,1757 :: 		OpenPhEnable=0;
	CLRF        _OpenPhEnable+0 
;FirmV_0_7_0.c,1758 :: 		LimiterEnable=0;
	CLRF        _LimiterEnable+0 
;FirmV_0_7_0.c,1759 :: 		CloseAfterPass=0;
	CLRF        _CloseAfterPass+0 
;FirmV_0_7_0.c,1761 :: 		SaveConfigs();
	CALL        _SaveConfigs+0, 0
;FirmV_0_7_0.c,1762 :: 		}
	RETURN      0
; end of _FactorySettings

_StartMotor:

;FirmV_0_7_0.c,1768 :: 		void StartMotor(char Mx,char Dir)
;FirmV_0_7_0.c,1770 :: 		if(Mx==1)
	MOVF        FARG_StartMotor_Mx+0, 0 
	XORLW       1
	BTFSS       STATUS+0, 2 
	GOTO        L_StartMotor385
;FirmV_0_7_0.c,1772 :: 		Motor1Dir=Dir;
	BTFSC       FARG_StartMotor_Dir+0, 0 
	GOTO        L__StartMotor840
	BCF         PORTC+0, 1 
	GOTO        L__StartMotor841
L__StartMotor840:
	BSF         PORTC+0, 1 
L__StartMotor841:
;FirmV_0_7_0.c,1773 :: 		delay_ms(100);
	MOVLW       6
	MOVWF       R11, 0
	MOVLW       19
	MOVWF       R12, 0
	MOVLW       173
	MOVWF       R13, 0
L_StartMotor386:
	DECFSZ      R13, 1, 0
	BRA         L_StartMotor386
	DECFSZ      R12, 1, 0
	BRA         L_StartMotor386
	DECFSZ      R11, 1, 0
	BRA         L_StartMotor386
	NOP
	NOP
;FirmV_0_7_0.c,1774 :: 		Motor1Start=1;
	MOVLW       1
	MOVWF       _Motor1Start+0 
;FirmV_0_7_0.c,1775 :: 		Motor1=1;
	BSF         PORTB+0, 3 
;FirmV_0_7_0.c,1776 :: 		}
L_StartMotor385:
;FirmV_0_7_0.c,1778 :: 		if(Mx==2)
	MOVF        FARG_StartMotor_Mx+0, 0 
	XORLW       2
	BTFSS       STATUS+0, 2 
	GOTO        L_StartMotor387
;FirmV_0_7_0.c,1780 :: 		Motor2Dir=Dir;
	BTFSC       FARG_StartMotor_Dir+0, 0 
	GOTO        L__StartMotor842
	BCF         PORTC+0, 0 
	GOTO        L__StartMotor843
L__StartMotor842:
	BSF         PORTC+0, 0 
L__StartMotor843:
;FirmV_0_7_0.c,1781 :: 		delay_ms(100);
	MOVLW       6
	MOVWF       R11, 0
	MOVLW       19
	MOVWF       R12, 0
	MOVLW       173
	MOVWF       R13, 0
L_StartMotor388:
	DECFSZ      R13, 1, 0
	BRA         L_StartMotor388
	DECFSZ      R12, 1, 0
	BRA         L_StartMotor388
	DECFSZ      R11, 1, 0
	BRA         L_StartMotor388
	NOP
	NOP
;FirmV_0_7_0.c,1782 :: 		Motor2Start=1;
	MOVLW       1
	MOVWF       _Motor2Start+0 
;FirmV_0_7_0.c,1783 :: 		Motor2=1;
	BSF         PORTB+0, 4 
;FirmV_0_7_0.c,1784 :: 		}
L_StartMotor387:
;FirmV_0_7_0.c,1785 :: 		}
	RETURN      0
; end of _StartMotor

_StopMotor:

;FirmV_0_7_0.c,1788 :: 		void StopMotor(char Mx)
;FirmV_0_7_0.c,1790 :: 		if(Mx==1)
	MOVF        FARG_StopMotor_Mx+0, 0 
	XORLW       1
	BTFSS       STATUS+0, 2 
	GOTO        L_StopMotor389
;FirmV_0_7_0.c,1792 :: 		Motor1Start=0;
	CLRF        _Motor1Start+0 
;FirmV_0_7_0.c,1793 :: 		Motor1=0;
	BCF         PORTB+0, 3 
;FirmV_0_7_0.c,1794 :: 		}
L_StopMotor389:
;FirmV_0_7_0.c,1796 :: 		if(Mx==2)
	MOVF        FARG_StopMotor_Mx+0, 0 
	XORLW       2
	BTFSS       STATUS+0, 2 
	GOTO        L_StopMotor390
;FirmV_0_7_0.c,1798 :: 		Motor2Start=0;
	CLRF        _Motor2Start+0 
;FirmV_0_7_0.c,1799 :: 		Motor2=0;
	BCF         PORTB+0, 4 
;FirmV_0_7_0.c,1800 :: 		}
L_StopMotor390:
;FirmV_0_7_0.c,1801 :: 		}
	RETURN      0
; end of _StopMotor

_CheckTask:

;FirmV_0_7_0.c,1813 :: 		char CheckTask(char TaskCode)
;FirmV_0_7_0.c,1815 :: 		if(Events.Task1==TaskCode)
	MOVF        _Events+1, 0 
	XORWF       FARG_CheckTask_TaskCode+0, 0 
	BTFSS       STATUS+0, 2 
	GOTO        L_CheckTask391
;FirmV_0_7_0.c,1816 :: 		{Events.Task1=0; return 1;}
	CLRF        _Events+1 
	MOVLW       1
	MOVWF       R0 
	RETURN      0
L_CheckTask391:
;FirmV_0_7_0.c,1818 :: 		if(Events.Task2==TaskCode)
	MOVF        _Events+2, 0 
	XORWF       FARG_CheckTask_TaskCode+0, 0 
	BTFSS       STATUS+0, 2 
	GOTO        L_CheckTask392
;FirmV_0_7_0.c,1819 :: 		{Events.Task2=0; return 1;}
	CLRF        _Events+2 
	MOVLW       1
	MOVWF       R0 
	RETURN      0
L_CheckTask392:
;FirmV_0_7_0.c,1821 :: 		if(Events.Task3==TaskCode)
	MOVF        _Events+3, 0 
	XORWF       FARG_CheckTask_TaskCode+0, 0 
	BTFSS       STATUS+0, 2 
	GOTO        L_CheckTask393
;FirmV_0_7_0.c,1822 :: 		{Events.Task3=0; return 1;}
	CLRF        _Events+3 
	MOVLW       1
	MOVWF       R0 
	RETURN      0
L_CheckTask393:
;FirmV_0_7_0.c,1824 :: 		return 0;
	CLRF        R0 
;FirmV_0_7_0.c,1826 :: 		}
	RETURN      0
; end of _CheckTask

_ReturnAutoclose:

;FirmV_0_7_0.c,1834 :: 		char ReturnAutoclose()
;FirmV_0_7_0.c,1838 :: 		for(i=0;i<20;i++)
	CLRF        ReturnAutoclose_i_L0+0 
L_ReturnAutoclose394:
	MOVLW       20
	SUBWF       ReturnAutoclose_i_L0+0, 0 
	BTFSC       STATUS+0, 0 
	GOTO        L_ReturnAutoclose395
;FirmV_0_7_0.c,1840 :: 		if((Tasks[i].Expired==0)&&(Tasks[i].TaskCode==9))
	MOVF        ReturnAutoclose_i_L0+0, 0 
	MOVWF       R0 
	MOVLW       0
	MOVWF       R1 
	MOVLW       7
	MOVWF       R4 
	MOVLW       0
	MOVWF       R5 
	CALL        _Mul_16x16_U+0, 0
	MOVLW       _Tasks+0
	ADDWF       R0, 1 
	MOVLW       hi_addr(_Tasks+0)
	ADDWFC      R1, 1 
	MOVLW       5
	ADDWF       R0, 0 
	MOVWF       FSR0L 
	MOVLW       0
	ADDWFC      R1, 0 
	MOVWF       FSR0H 
	MOVF        POSTINC0+0, 0 
	XORLW       0
	BTFSS       STATUS+0, 2 
	GOTO        L_ReturnAutoclose399
	MOVF        ReturnAutoclose_i_L0+0, 0 
	MOVWF       R0 
	MOVLW       0
	MOVWF       R1 
	MOVLW       7
	MOVWF       R4 
	MOVLW       0
	MOVWF       R5 
	CALL        _Mul_16x16_U+0, 0
	MOVLW       _Tasks+0
	ADDWF       R0, 0 
	MOVWF       FSR0L 
	MOVLW       hi_addr(_Tasks+0)
	ADDWFC      R1, 0 
	MOVWF       FSR0H 
	MOVF        POSTINC0+0, 0 
	MOVWF       R1 
	MOVF        R1, 0 
	XORLW       9
	BTFSS       STATUS+0, 2 
	GOTO        L_ReturnAutoclose399
L__ReturnAutoclose761:
;FirmV_0_7_0.c,1841 :: 		{t=Tasks[i].Time;break;}
	MOVF        ReturnAutoclose_i_L0+0, 0 
	MOVWF       R0 
	MOVLW       0
	MOVWF       R1 
	MOVLW       7
	MOVWF       R4 
	MOVLW       0
	MOVWF       R5 
	CALL        _Mul_16x16_U+0, 0
	MOVLW       _Tasks+0
	ADDWF       R0, 1 
	MOVLW       hi_addr(_Tasks+0)
	ADDWFC      R1, 1 
	MOVLW       1
	ADDWF       R0, 0 
	MOVWF       FSR0L 
	MOVLW       0
	ADDWFC      R1, 0 
	MOVWF       FSR0H 
	MOVF        POSTINC0+0, 0 
	MOVWF       ReturnAutoclose_t_L0+0 
	MOVF        POSTINC0+0, 0 
	MOVWF       ReturnAutoclose_t_L0+1 
	MOVF        POSTINC0+0, 0 
	MOVWF       ReturnAutoclose_t_L0+2 
	MOVF        POSTINC0+0, 0 
	MOVWF       ReturnAutoclose_t_L0+3 
	GOTO        L_ReturnAutoclose395
L_ReturnAutoclose399:
;FirmV_0_7_0.c,1838 :: 		for(i=0;i<20;i++)
	INCF        ReturnAutoclose_i_L0+0, 1 
;FirmV_0_7_0.c,1842 :: 		}
	GOTO        L_ReturnAutoclose394
L_ReturnAutoclose395:
;FirmV_0_7_0.c,1844 :: 		if(i>=20) i=0;
	MOVLW       20
	SUBWF       ReturnAutoclose_i_L0+0, 0 
	BTFSS       STATUS+0, 0 
	GOTO        L_ReturnAutoclose400
	CLRF        ReturnAutoclose_i_L0+0 
	GOTO        L_ReturnAutoclose401
L_ReturnAutoclose400:
;FirmV_0_7_0.c,1845 :: 		else i=t-ms500;
	MOVF        _ms500+0, 0 
	SUBWF       ReturnAutoclose_t_L0+0, 0 
	MOVWF       ReturnAutoclose_i_L0+0 
L_ReturnAutoclose401:
;FirmV_0_7_0.c,1846 :: 		return i;
	MOVF        ReturnAutoclose_i_L0+0, 0 
	MOVWF       R0 
;FirmV_0_7_0.c,1847 :: 		}
	RETURN      0
; end of _ReturnAutoclose

_GetAutocloseTime:

;FirmV_0_7_0.c,1857 :: 		char GetAutocloseTime()
;FirmV_0_7_0.c,1861 :: 		for(i=0;i<20;i++)
	CLRF        GetAutocloseTime_i_L0+0 
L_GetAutocloseTime402:
	MOVLW       20
	SUBWF       GetAutocloseTime_i_L0+0, 0 
	BTFSC       STATUS+0, 0 
	GOTO        L_GetAutocloseTime403
;FirmV_0_7_0.c,1863 :: 		if((Tasks[i].Expired==0)&&(Tasks[i].TaskCode==9))
	MOVF        GetAutocloseTime_i_L0+0, 0 
	MOVWF       R0 
	MOVLW       0
	MOVWF       R1 
	MOVLW       7
	MOVWF       R4 
	MOVLW       0
	MOVWF       R5 
	CALL        _Mul_16x16_U+0, 0
	MOVLW       _Tasks+0
	ADDWF       R0, 1 
	MOVLW       hi_addr(_Tasks+0)
	ADDWFC      R1, 1 
	MOVLW       5
	ADDWF       R0, 0 
	MOVWF       FSR0L 
	MOVLW       0
	ADDWFC      R1, 0 
	MOVWF       FSR0H 
	MOVF        POSTINC0+0, 0 
	XORLW       0
	BTFSS       STATUS+0, 2 
	GOTO        L_GetAutocloseTime407
	MOVF        GetAutocloseTime_i_L0+0, 0 
	MOVWF       R0 
	MOVLW       0
	MOVWF       R1 
	MOVLW       7
	MOVWF       R4 
	MOVLW       0
	MOVWF       R5 
	CALL        _Mul_16x16_U+0, 0
	MOVLW       _Tasks+0
	ADDWF       R0, 0 
	MOVWF       FSR0L 
	MOVLW       hi_addr(_Tasks+0)
	ADDWFC      R1, 0 
	MOVWF       FSR0H 
	MOVF        POSTINC0+0, 0 
	MOVWF       R1 
	MOVF        R1, 0 
	XORLW       9
	BTFSS       STATUS+0, 2 
	GOTO        L_GetAutocloseTime407
L__GetAutocloseTime762:
;FirmV_0_7_0.c,1864 :: 		{t=Tasks[i].Time;Tasks[i].Expired=1;break;}
	MOVF        GetAutocloseTime_i_L0+0, 0 
	MOVWF       R0 
	MOVLW       0
	MOVWF       R1 
	MOVLW       7
	MOVWF       R4 
	MOVLW       0
	MOVWF       R5 
	CALL        _Mul_16x16_U+0, 0
	MOVLW       _Tasks+0
	ADDWF       R0, 1 
	MOVLW       hi_addr(_Tasks+0)
	ADDWFC      R1, 1 
	MOVLW       1
	ADDWF       R0, 0 
	MOVWF       FSR0L 
	MOVLW       0
	ADDWFC      R1, 0 
	MOVWF       FSR0H 
	MOVF        POSTINC0+0, 0 
	MOVWF       GetAutocloseTime_t_L0+0 
	MOVF        POSTINC0+0, 0 
	MOVWF       GetAutocloseTime_t_L0+1 
	MOVF        POSTINC0+0, 0 
	MOVWF       GetAutocloseTime_t_L0+2 
	MOVF        POSTINC0+0, 0 
	MOVWF       GetAutocloseTime_t_L0+3 
	MOVLW       5
	ADDWF       R0, 0 
	MOVWF       FSR1L 
	MOVLW       0
	ADDWFC      R1, 0 
	MOVWF       FSR1H 
	MOVLW       1
	MOVWF       POSTINC1+0 
	GOTO        L_GetAutocloseTime403
L_GetAutocloseTime407:
;FirmV_0_7_0.c,1861 :: 		for(i=0;i<20;i++)
	INCF        GetAutocloseTime_i_L0+0, 1 
;FirmV_0_7_0.c,1865 :: 		}
	GOTO        L_GetAutocloseTime402
L_GetAutocloseTime403:
;FirmV_0_7_0.c,1866 :: 		i=t-ms500;
	MOVF        _ms500+0, 0 
	SUBWF       GetAutocloseTime_t_L0+0, 0 
	MOVWF       R1 
	MOVF        R1, 0 
	MOVWF       GetAutocloseTime_i_L0+0 
;FirmV_0_7_0.c,1867 :: 		if(i>=20) i=0;
	MOVLW       20
	SUBWF       R1, 0 
	BTFSS       STATUS+0, 0 
	GOTO        L_GetAutocloseTime408
	CLRF        GetAutocloseTime_i_L0+0 
L_GetAutocloseTime408:
;FirmV_0_7_0.c,1868 :: 		return i;
	MOVF        GetAutocloseTime_i_L0+0, 0 
	MOVWF       R0 
;FirmV_0_7_0.c,1869 :: 		}
	RETURN      0
; end of _GetAutocloseTime

_ClearTasks:

;FirmV_0_7_0.c,1886 :: 		void ClearTasks(char except)
;FirmV_0_7_0.c,1889 :: 		for(i=0;i<20;i++)
	CLRF        ClearTasks_i_L0+0 
L_ClearTasks409:
	MOVLW       20
	SUBWF       ClearTasks_i_L0+0, 0 
	BTFSC       STATUS+0, 0 
	GOTO        L_ClearTasks410
;FirmV_0_7_0.c,1890 :: 		if((Tasks[i].Expired==0)&&(Tasks[i].TaskCode!=except))
	MOVF        ClearTasks_i_L0+0, 0 
	MOVWF       R0 
	MOVLW       0
	MOVWF       R1 
	MOVLW       7
	MOVWF       R4 
	MOVLW       0
	MOVWF       R5 
	CALL        _Mul_16x16_U+0, 0
	MOVLW       _Tasks+0
	ADDWF       R0, 1 
	MOVLW       hi_addr(_Tasks+0)
	ADDWFC      R1, 1 
	MOVLW       5
	ADDWF       R0, 0 
	MOVWF       FSR0L 
	MOVLW       0
	ADDWFC      R1, 0 
	MOVWF       FSR0H 
	MOVF        POSTINC0+0, 0 
	XORLW       0
	BTFSS       STATUS+0, 2 
	GOTO        L_ClearTasks414
	MOVF        ClearTasks_i_L0+0, 0 
	MOVWF       R0 
	MOVLW       0
	MOVWF       R1 
	MOVLW       7
	MOVWF       R4 
	MOVLW       0
	MOVWF       R5 
	CALL        _Mul_16x16_U+0, 0
	MOVLW       _Tasks+0
	ADDWF       R0, 0 
	MOVWF       FSR0L 
	MOVLW       hi_addr(_Tasks+0)
	ADDWFC      R1, 0 
	MOVWF       FSR0H 
	MOVF        POSTINC0+0, 0 
	MOVWF       R1 
	MOVF        R1, 0 
	XORWF       FARG_ClearTasks_except+0, 0 
	BTFSC       STATUS+0, 2 
	GOTO        L_ClearTasks414
L__ClearTasks763:
;FirmV_0_7_0.c,1891 :: 		Tasks[i].Expired=1;
	MOVF        ClearTasks_i_L0+0, 0 
	MOVWF       R0 
	MOVLW       0
	MOVWF       R1 
	MOVLW       7
	MOVWF       R4 
	MOVLW       0
	MOVWF       R5 
	CALL        _Mul_16x16_U+0, 0
	MOVLW       _Tasks+0
	ADDWF       R0, 1 
	MOVLW       hi_addr(_Tasks+0)
	ADDWFC      R1, 1 
	MOVLW       5
	ADDWF       R0, 0 
	MOVWF       FSR1L 
	MOVLW       0
	ADDWFC      R1, 0 
	MOVWF       FSR1H 
	MOVLW       1
	MOVWF       POSTINC1+0 
L_ClearTasks414:
;FirmV_0_7_0.c,1889 :: 		for(i=0;i<20;i++)
	INCF        ClearTasks_i_L0+0, 1 
;FirmV_0_7_0.c,1891 :: 		Tasks[i].Expired=1;
	GOTO        L_ClearTasks409
L_ClearTasks410:
;FirmV_0_7_0.c,1892 :: 		}
	RETURN      0
; end of _ClearTasks

_Menu0:

;FirmV_0_7_0.c,1907 :: 		void Menu0()
;FirmV_0_7_0.c,1909 :: 		LCDLines=2;
	MOVLW       2
	MOVWF       _LCDLines+0 
;FirmV_0_7_0.c,1910 :: 		memcpy(LCDLine2,"                ",16);
	MOVLW       _LCDLine2+0
	MOVWF       FARG_memcpy_d1+0 
	MOVLW       hi_addr(_LCDLine2+0)
	MOVWF       FARG_memcpy_d1+1 
	MOVLW       ?ICS?lstr69_FirmV_0_7_0+0
	MOVWF       TBLPTRL 
	MOVLW       hi_addr(?ICS?lstr69_FirmV_0_7_0+0)
	MOVWF       TBLPTRH 
	MOVLW       higher_addr(?ICS?lstr69_FirmV_0_7_0+0)
	MOVWF       TBLPTRU 
	MOVLW       ?lstr69_FirmV_0_7_0+0
	MOVWF       FSR1L 
	MOVLW       hi_addr(?lstr69_FirmV_0_7_0+0)
	MOVWF       FSR1H 
	MOVLW       17
	MOVWF       R0 
	MOVLW       1
	MOVWF       R1 
	CALL        ___CC2DW+0, 0
	MOVLW       ?lstr69_FirmV_0_7_0+0
	MOVWF       FARG_memcpy_s1+0 
	MOVLW       hi_addr(?lstr69_FirmV_0_7_0+0)
	MOVWF       FARG_memcpy_s1+1 
	MOVLW       16
	MOVWF       FARG_memcpy_n+0 
	MOVLW       0
	MOVWF       FARG_memcpy_n+1 
	CALL        _memcpy+0, 0
;FirmV_0_7_0.c,1912 :: 		if(MenuPointer==0)
	MOVF        _MenuPointer+0, 0 
	XORLW       0
	BTFSS       STATUS+0, 2 
	GOTO        L_Menu0415
;FirmV_0_7_0.c,1913 :: 		{memcpy(LCDLine1,"00 Learning Mode",16);LCDUpdateFlag=1;
	MOVLW       _LCDLine1+0
	MOVWF       FARG_memcpy_d1+0 
	MOVLW       hi_addr(_LCDLine1+0)
	MOVWF       FARG_memcpy_d1+1 
	MOVLW       ?ICS?lstr70_FirmV_0_7_0+0
	MOVWF       TBLPTRL 
	MOVLW       hi_addr(?ICS?lstr70_FirmV_0_7_0+0)
	MOVWF       TBLPTRH 
	MOVLW       higher_addr(?ICS?lstr70_FirmV_0_7_0+0)
	MOVWF       TBLPTRU 
	MOVLW       ?lstr70_FirmV_0_7_0+0
	MOVWF       FSR1L 
	MOVLW       hi_addr(?lstr70_FirmV_0_7_0+0)
	MOVWF       FSR1H 
	MOVLW       17
	MOVWF       R0 
	MOVLW       1
	MOVWF       R1 
	CALL        ___CC2DW+0, 0
	MOVLW       ?lstr70_FirmV_0_7_0+0
	MOVWF       FARG_memcpy_s1+0 
	MOVLW       hi_addr(?lstr70_FirmV_0_7_0+0)
	MOVWF       FARG_memcpy_s1+1 
	MOVLW       16
	MOVWF       FARG_memcpy_n+0 
	MOVLW       0
	MOVWF       FARG_memcpy_n+1 
	CALL        _memcpy+0, 0
	MOVLW       1
	MOVWF       _LCDUpdateFlag+0 
;FirmV_0_7_0.c,1914 :: 		if(LearningMode==0)memcpy(LCDLine2,"      Auto      ",16);
	MOVF        _LearningMode+0, 0 
	XORLW       0
	BTFSS       STATUS+0, 2 
	GOTO        L_Menu0416
	MOVLW       _LCDLine2+0
	MOVWF       FARG_memcpy_d1+0 
	MOVLW       hi_addr(_LCDLine2+0)
	MOVWF       FARG_memcpy_d1+1 
	MOVLW       ?ICS?lstr71_FirmV_0_7_0+0
	MOVWF       TBLPTRL 
	MOVLW       hi_addr(?ICS?lstr71_FirmV_0_7_0+0)
	MOVWF       TBLPTRH 
	MOVLW       higher_addr(?ICS?lstr71_FirmV_0_7_0+0)
	MOVWF       TBLPTRU 
	MOVLW       ?lstr71_FirmV_0_7_0+0
	MOVWF       FSR1L 
	MOVLW       hi_addr(?lstr71_FirmV_0_7_0+0)
	MOVWF       FSR1H 
	MOVLW       17
	MOVWF       R0 
	MOVLW       1
	MOVWF       R1 
	CALL        ___CC2DW+0, 0
	MOVLW       ?lstr71_FirmV_0_7_0+0
	MOVWF       FARG_memcpy_s1+0 
	MOVLW       hi_addr(?lstr71_FirmV_0_7_0+0)
	MOVWF       FARG_memcpy_s1+1 
	MOVLW       16
	MOVWF       FARG_memcpy_n+0 
	MOVLW       0
	MOVWF       FARG_memcpy_n+1 
	CALL        _memcpy+0, 0
L_Menu0416:
;FirmV_0_7_0.c,1915 :: 		if(LearningMode==1)memcpy(LCDLine2,"     Manual     ",16);}
	MOVF        _LearningMode+0, 0 
	XORLW       1
	BTFSS       STATUS+0, 2 
	GOTO        L_Menu0417
	MOVLW       _LCDLine2+0
	MOVWF       FARG_memcpy_d1+0 
	MOVLW       hi_addr(_LCDLine2+0)
	MOVWF       FARG_memcpy_d1+1 
	MOVLW       ?ICS?lstr72_FirmV_0_7_0+0
	MOVWF       TBLPTRL 
	MOVLW       hi_addr(?ICS?lstr72_FirmV_0_7_0+0)
	MOVWF       TBLPTRH 
	MOVLW       higher_addr(?ICS?lstr72_FirmV_0_7_0+0)
	MOVWF       TBLPTRU 
	MOVLW       ?lstr72_FirmV_0_7_0+0
	MOVWF       FSR1L 
	MOVLW       hi_addr(?lstr72_FirmV_0_7_0+0)
	MOVWF       FSR1H 
	MOVLW       17
	MOVWF       R0 
	MOVLW       1
	MOVWF       R1 
	CALL        ___CC2DW+0, 0
	MOVLW       ?lstr72_FirmV_0_7_0+0
	MOVWF       FARG_memcpy_s1+0 
	MOVLW       hi_addr(?lstr72_FirmV_0_7_0+0)
	MOVWF       FARG_memcpy_s1+1 
	MOVLW       16
	MOVWF       FARG_memcpy_n+0 
	MOVLW       0
	MOVWF       FARG_memcpy_n+1 
	CALL        _memcpy+0, 0
L_Menu0417:
L_Menu0415:
;FirmV_0_7_0.c,1917 :: 		if(MenuPointer==1)
	MOVF        _MenuPointer+0, 0 
	XORLW       1
	BTFSS       STATUS+0, 2 
	GOTO        L_Menu0418
;FirmV_0_7_0.c,1918 :: 		{memcpy(LCDLine1,"01 D1 Open Time ",16);LCDUpdateFlag=1;
	MOVLW       _LCDLine1+0
	MOVWF       FARG_memcpy_d1+0 
	MOVLW       hi_addr(_LCDLine1+0)
	MOVWF       FARG_memcpy_d1+1 
	MOVLW       ?ICS?lstr73_FirmV_0_7_0+0
	MOVWF       TBLPTRL 
	MOVLW       hi_addr(?ICS?lstr73_FirmV_0_7_0+0)
	MOVWF       TBLPTRH 
	MOVLW       higher_addr(?ICS?lstr73_FirmV_0_7_0+0)
	MOVWF       TBLPTRU 
	MOVLW       ?lstr73_FirmV_0_7_0+0
	MOVWF       FSR1L 
	MOVLW       hi_addr(?lstr73_FirmV_0_7_0+0)
	MOVWF       FSR1H 
	MOVLW       17
	MOVWF       R0 
	MOVLW       1
	MOVWF       R1 
	CALL        ___CC2DW+0, 0
	MOVLW       ?lstr73_FirmV_0_7_0+0
	MOVWF       FARG_memcpy_s1+0 
	MOVLW       hi_addr(?lstr73_FirmV_0_7_0+0)
	MOVWF       FARG_memcpy_s1+1 
	MOVLW       16
	MOVWF       FARG_memcpy_n+0 
	MOVLW       0
	MOVWF       FARG_memcpy_n+1 
	CALL        _memcpy+0, 0
	MOVLW       1
	MOVWF       _LCDUpdateFlag+0 
;FirmV_0_7_0.c,1919 :: 		charValueToStr(Door1OpenTime,LCDLine2+6);}
	MOVF        _Door1OpenTime+0, 0 
	MOVWF       FARG_charValueToStr+0 
	MOVLW       _LCDLine2+6
	MOVWF       FARG_charValueToStr+0 
	MOVLW       hi_addr(_LCDLine2+6)
	MOVWF       FARG_charValueToStr+1 
	CALL        _charValueToStr+0, 0
L_Menu0418:
;FirmV_0_7_0.c,1921 :: 		if(MenuPointer==2)
	MOVF        _MenuPointer+0, 0 
	XORLW       2
	BTFSS       STATUS+0, 2 
	GOTO        L_Menu0419
;FirmV_0_7_0.c,1922 :: 		{memcpy(LCDLine1,"02 D2 Open Time ",16);LCDUpdateFlag=1;
	MOVLW       _LCDLine1+0
	MOVWF       FARG_memcpy_d1+0 
	MOVLW       hi_addr(_LCDLine1+0)
	MOVWF       FARG_memcpy_d1+1 
	MOVLW       ?ICS?lstr74_FirmV_0_7_0+0
	MOVWF       TBLPTRL 
	MOVLW       hi_addr(?ICS?lstr74_FirmV_0_7_0+0)
	MOVWF       TBLPTRH 
	MOVLW       higher_addr(?ICS?lstr74_FirmV_0_7_0+0)
	MOVWF       TBLPTRU 
	MOVLW       ?lstr74_FirmV_0_7_0+0
	MOVWF       FSR1L 
	MOVLW       hi_addr(?lstr74_FirmV_0_7_0+0)
	MOVWF       FSR1H 
	MOVLW       17
	MOVWF       R0 
	MOVLW       1
	MOVWF       R1 
	CALL        ___CC2DW+0, 0
	MOVLW       ?lstr74_FirmV_0_7_0+0
	MOVWF       FARG_memcpy_s1+0 
	MOVLW       hi_addr(?lstr74_FirmV_0_7_0+0)
	MOVWF       FARG_memcpy_s1+1 
	MOVLW       16
	MOVWF       FARG_memcpy_n+0 
	MOVLW       0
	MOVWF       FARG_memcpy_n+1 
	CALL        _memcpy+0, 0
	MOVLW       1
	MOVWF       _LCDUpdateFlag+0 
;FirmV_0_7_0.c,1923 :: 		charValueToStr(Door2OpenTime,LCDLine2+6);}
	MOVF        _Door2OpenTime+0, 0 
	MOVWF       FARG_charValueToStr+0 
	MOVLW       _LCDLine2+6
	MOVWF       FARG_charValueToStr+0 
	MOVLW       hi_addr(_LCDLine2+6)
	MOVWF       FARG_charValueToStr+1 
	CALL        _charValueToStr+0, 0
L_Menu0419:
;FirmV_0_7_0.c,1925 :: 		if(MenuPointer==3)
	MOVF        _MenuPointer+0, 0 
	XORLW       3
	BTFSS       STATUS+0, 2 
	GOTO        L_Menu0420
;FirmV_0_7_0.c,1926 :: 		{memcpy(LCDLine1,"03 D1 Close Time",16);LCDUpdateFlag=1;
	MOVLW       _LCDLine1+0
	MOVWF       FARG_memcpy_d1+0 
	MOVLW       hi_addr(_LCDLine1+0)
	MOVWF       FARG_memcpy_d1+1 
	MOVLW       ?ICS?lstr75_FirmV_0_7_0+0
	MOVWF       TBLPTRL 
	MOVLW       hi_addr(?ICS?lstr75_FirmV_0_7_0+0)
	MOVWF       TBLPTRH 
	MOVLW       higher_addr(?ICS?lstr75_FirmV_0_7_0+0)
	MOVWF       TBLPTRU 
	MOVLW       ?lstr75_FirmV_0_7_0+0
	MOVWF       FSR1L 
	MOVLW       hi_addr(?lstr75_FirmV_0_7_0+0)
	MOVWF       FSR1H 
	MOVLW       17
	MOVWF       R0 
	MOVLW       1
	MOVWF       R1 
	CALL        ___CC2DW+0, 0
	MOVLW       ?lstr75_FirmV_0_7_0+0
	MOVWF       FARG_memcpy_s1+0 
	MOVLW       hi_addr(?lstr75_FirmV_0_7_0+0)
	MOVWF       FARG_memcpy_s1+1 
	MOVLW       16
	MOVWF       FARG_memcpy_n+0 
	MOVLW       0
	MOVWF       FARG_memcpy_n+1 
	CALL        _memcpy+0, 0
	MOVLW       1
	MOVWF       _LCDUpdateFlag+0 
;FirmV_0_7_0.c,1927 :: 		charValueToStr(Door1CloseTime,LCDLine2+6);}
	MOVF        _Door1CloseTime+0, 0 
	MOVWF       FARG_charValueToStr+0 
	MOVLW       _LCDLine2+6
	MOVWF       FARG_charValueToStr+0 
	MOVLW       hi_addr(_LCDLine2+6)
	MOVWF       FARG_charValueToStr+1 
	CALL        _charValueToStr+0, 0
L_Menu0420:
;FirmV_0_7_0.c,1929 :: 		if(MenuPointer==4)
	MOVF        _MenuPointer+0, 0 
	XORLW       4
	BTFSS       STATUS+0, 2 
	GOTO        L_Menu0421
;FirmV_0_7_0.c,1930 :: 		{memcpy(LCDLine1,"04 D2 Close Time",16);LCDUpdateFlag=1;
	MOVLW       _LCDLine1+0
	MOVWF       FARG_memcpy_d1+0 
	MOVLW       hi_addr(_LCDLine1+0)
	MOVWF       FARG_memcpy_d1+1 
	MOVLW       ?ICS?lstr76_FirmV_0_7_0+0
	MOVWF       TBLPTRL 
	MOVLW       hi_addr(?ICS?lstr76_FirmV_0_7_0+0)
	MOVWF       TBLPTRH 
	MOVLW       higher_addr(?ICS?lstr76_FirmV_0_7_0+0)
	MOVWF       TBLPTRU 
	MOVLW       ?lstr76_FirmV_0_7_0+0
	MOVWF       FSR1L 
	MOVLW       hi_addr(?lstr76_FirmV_0_7_0+0)
	MOVWF       FSR1H 
	MOVLW       17
	MOVWF       R0 
	MOVLW       1
	MOVWF       R1 
	CALL        ___CC2DW+0, 0
	MOVLW       ?lstr76_FirmV_0_7_0+0
	MOVWF       FARG_memcpy_s1+0 
	MOVLW       hi_addr(?lstr76_FirmV_0_7_0+0)
	MOVWF       FARG_memcpy_s1+1 
	MOVLW       16
	MOVWF       FARG_memcpy_n+0 
	MOVLW       0
	MOVWF       FARG_memcpy_n+1 
	CALL        _memcpy+0, 0
	MOVLW       1
	MOVWF       _LCDUpdateFlag+0 
;FirmV_0_7_0.c,1931 :: 		charValueToStr(Door2CloseTime,LCDLine2+6);}
	MOVF        _Door2CloseTime+0, 0 
	MOVWF       FARG_charValueToStr+0 
	MOVLW       _LCDLine2+6
	MOVWF       FARG_charValueToStr+0 
	MOVLW       hi_addr(_LCDLine2+6)
	MOVWF       FARG_charValueToStr+1 
	CALL        _charValueToStr+0, 0
L_Menu0421:
;FirmV_0_7_0.c,1933 :: 		if(MenuPointer==5)
	MOVF        _MenuPointer+0, 0 
	XORLW       5
	BTFSS       STATUS+0, 2 
	GOTO        L_Menu0422
;FirmV_0_7_0.c,1934 :: 		{memcpy(LCDLine1,"05 Op Soft Start",16);LCDUpdateFlag=1;
	MOVLW       _LCDLine1+0
	MOVWF       FARG_memcpy_d1+0 
	MOVLW       hi_addr(_LCDLine1+0)
	MOVWF       FARG_memcpy_d1+1 
	MOVLW       ?ICS?lstr77_FirmV_0_7_0+0
	MOVWF       TBLPTRL 
	MOVLW       hi_addr(?ICS?lstr77_FirmV_0_7_0+0)
	MOVWF       TBLPTRH 
	MOVLW       higher_addr(?ICS?lstr77_FirmV_0_7_0+0)
	MOVWF       TBLPTRU 
	MOVLW       ?lstr77_FirmV_0_7_0+0
	MOVWF       FSR1L 
	MOVLW       hi_addr(?lstr77_FirmV_0_7_0+0)
	MOVWF       FSR1H 
	MOVLW       17
	MOVWF       R0 
	MOVLW       1
	MOVWF       R1 
	CALL        ___CC2DW+0, 0
	MOVLW       ?lstr77_FirmV_0_7_0+0
	MOVWF       FARG_memcpy_s1+0 
	MOVLW       hi_addr(?lstr77_FirmV_0_7_0+0)
	MOVWF       FARG_memcpy_s1+1 
	MOVLW       16
	MOVWF       FARG_memcpy_n+0 
	MOVLW       0
	MOVWF       FARG_memcpy_n+1 
	CALL        _memcpy+0, 0
	MOVLW       1
	MOVWF       _LCDUpdateFlag+0 
;FirmV_0_7_0.c,1935 :: 		charValueToStr(OpenSoftStartTime,LCDLine2+6);}
	MOVF        _OpenSoftStartTime+0, 0 
	MOVWF       FARG_charValueToStr+0 
	MOVLW       _LCDLine2+6
	MOVWF       FARG_charValueToStr+0 
	MOVLW       hi_addr(_LCDLine2+6)
	MOVWF       FARG_charValueToStr+1 
	CALL        _charValueToStr+0, 0
L_Menu0422:
;FirmV_0_7_0.c,1937 :: 		if(MenuPointer==6)
	MOVF        _MenuPointer+0, 0 
	XORLW       6
	BTFSS       STATUS+0, 2 
	GOTO        L_Menu0423
;FirmV_0_7_0.c,1938 :: 		{memcpy(LCDLine1,"06 Op Soft Stop ",16);LCDUpdateFlag=1;
	MOVLW       _LCDLine1+0
	MOVWF       FARG_memcpy_d1+0 
	MOVLW       hi_addr(_LCDLine1+0)
	MOVWF       FARG_memcpy_d1+1 
	MOVLW       ?ICS?lstr78_FirmV_0_7_0+0
	MOVWF       TBLPTRL 
	MOVLW       hi_addr(?ICS?lstr78_FirmV_0_7_0+0)
	MOVWF       TBLPTRH 
	MOVLW       higher_addr(?ICS?lstr78_FirmV_0_7_0+0)
	MOVWF       TBLPTRU 
	MOVLW       ?lstr78_FirmV_0_7_0+0
	MOVWF       FSR1L 
	MOVLW       hi_addr(?lstr78_FirmV_0_7_0+0)
	MOVWF       FSR1H 
	MOVLW       17
	MOVWF       R0 
	MOVLW       1
	MOVWF       R1 
	CALL        ___CC2DW+0, 0
	MOVLW       ?lstr78_FirmV_0_7_0+0
	MOVWF       FARG_memcpy_s1+0 
	MOVLW       hi_addr(?lstr78_FirmV_0_7_0+0)
	MOVWF       FARG_memcpy_s1+1 
	MOVLW       16
	MOVWF       FARG_memcpy_n+0 
	MOVLW       0
	MOVWF       FARG_memcpy_n+1 
	CALL        _memcpy+0, 0
	MOVLW       1
	MOVWF       _LCDUpdateFlag+0 
;FirmV_0_7_0.c,1939 :: 		charValueToStr(OpenSoftStopTime,LCDLine2+6);}
	MOVF        _OpenSoftStopTime+0, 0 
	MOVWF       FARG_charValueToStr+0 
	MOVLW       _LCDLine2+6
	MOVWF       FARG_charValueToStr+0 
	MOVLW       hi_addr(_LCDLine2+6)
	MOVWF       FARG_charValueToStr+1 
	CALL        _charValueToStr+0, 0
L_Menu0423:
;FirmV_0_7_0.c,1941 :: 		if(MenuPointer==7)
	MOVF        _MenuPointer+0, 0 
	XORLW       7
	BTFSS       STATUS+0, 2 
	GOTO        L_Menu0424
;FirmV_0_7_0.c,1942 :: 		{memcpy(LCDLine1,"07 Cl Soft Start",16);LCDUpdateFlag=1;
	MOVLW       _LCDLine1+0
	MOVWF       FARG_memcpy_d1+0 
	MOVLW       hi_addr(_LCDLine1+0)
	MOVWF       FARG_memcpy_d1+1 
	MOVLW       ?ICS?lstr79_FirmV_0_7_0+0
	MOVWF       TBLPTRL 
	MOVLW       hi_addr(?ICS?lstr79_FirmV_0_7_0+0)
	MOVWF       TBLPTRH 
	MOVLW       higher_addr(?ICS?lstr79_FirmV_0_7_0+0)
	MOVWF       TBLPTRU 
	MOVLW       ?lstr79_FirmV_0_7_0+0
	MOVWF       FSR1L 
	MOVLW       hi_addr(?lstr79_FirmV_0_7_0+0)
	MOVWF       FSR1H 
	MOVLW       17
	MOVWF       R0 
	MOVLW       1
	MOVWF       R1 
	CALL        ___CC2DW+0, 0
	MOVLW       ?lstr79_FirmV_0_7_0+0
	MOVWF       FARG_memcpy_s1+0 
	MOVLW       hi_addr(?lstr79_FirmV_0_7_0+0)
	MOVWF       FARG_memcpy_s1+1 
	MOVLW       16
	MOVWF       FARG_memcpy_n+0 
	MOVLW       0
	MOVWF       FARG_memcpy_n+1 
	CALL        _memcpy+0, 0
	MOVLW       1
	MOVWF       _LCDUpdateFlag+0 
;FirmV_0_7_0.c,1943 :: 		charValueToStr(CloseSoftStartTime,LCDLine2+6);}
	MOVF        _CloseSoftStartTime+0, 0 
	MOVWF       FARG_charValueToStr+0 
	MOVLW       _LCDLine2+6
	MOVWF       FARG_charValueToStr+0 
	MOVLW       hi_addr(_LCDLine2+6)
	MOVWF       FARG_charValueToStr+1 
	CALL        _charValueToStr+0, 0
L_Menu0424:
;FirmV_0_7_0.c,1945 :: 		if(MenuPointer==8)
	MOVF        _MenuPointer+0, 0 
	XORLW       8
	BTFSS       STATUS+0, 2 
	GOTO        L_Menu0425
;FirmV_0_7_0.c,1946 :: 		{memcpy(LCDLine1,"08 Cl Soft Stop ",16);LCDUpdateFlag=1;
	MOVLW       _LCDLine1+0
	MOVWF       FARG_memcpy_d1+0 
	MOVLW       hi_addr(_LCDLine1+0)
	MOVWF       FARG_memcpy_d1+1 
	MOVLW       ?ICS?lstr80_FirmV_0_7_0+0
	MOVWF       TBLPTRL 
	MOVLW       hi_addr(?ICS?lstr80_FirmV_0_7_0+0)
	MOVWF       TBLPTRH 
	MOVLW       higher_addr(?ICS?lstr80_FirmV_0_7_0+0)
	MOVWF       TBLPTRU 
	MOVLW       ?lstr80_FirmV_0_7_0+0
	MOVWF       FSR1L 
	MOVLW       hi_addr(?lstr80_FirmV_0_7_0+0)
	MOVWF       FSR1H 
	MOVLW       17
	MOVWF       R0 
	MOVLW       1
	MOVWF       R1 
	CALL        ___CC2DW+0, 0
	MOVLW       ?lstr80_FirmV_0_7_0+0
	MOVWF       FARG_memcpy_s1+0 
	MOVLW       hi_addr(?lstr80_FirmV_0_7_0+0)
	MOVWF       FARG_memcpy_s1+1 
	MOVLW       16
	MOVWF       FARG_memcpy_n+0 
	MOVLW       0
	MOVWF       FARG_memcpy_n+1 
	CALL        _memcpy+0, 0
	MOVLW       1
	MOVWF       _LCDUpdateFlag+0 
;FirmV_0_7_0.c,1947 :: 		charValueToStr(CloseSoftStopTime,LCDLine2+6);}
	MOVF        _CloseSoftStopTime+0, 0 
	MOVWF       FARG_charValueToStr+0 
	MOVLW       _LCDLine2+6
	MOVWF       FARG_charValueToStr+0 
	MOVLW       hi_addr(_LCDLine2+6)
	MOVWF       FARG_charValueToStr+1 
	CALL        _charValueToStr+0, 0
L_Menu0425:
;FirmV_0_7_0.c,1949 :: 		if(MenuPointer==9)
	MOVF        _MenuPointer+0, 0 
	XORLW       9
	BTFSS       STATUS+0, 2 
	GOTO        L_Menu0426
;FirmV_0_7_0.c,1950 :: 		{memcpy(LCDLine1,"09 Power        ",16);LCDUpdateFlag=1;
	MOVLW       _LCDLine1+0
	MOVWF       FARG_memcpy_d1+0 
	MOVLW       hi_addr(_LCDLine1+0)
	MOVWF       FARG_memcpy_d1+1 
	MOVLW       ?ICS?lstr81_FirmV_0_7_0+0
	MOVWF       TBLPTRL 
	MOVLW       hi_addr(?ICS?lstr81_FirmV_0_7_0+0)
	MOVWF       TBLPTRH 
	MOVLW       higher_addr(?ICS?lstr81_FirmV_0_7_0+0)
	MOVWF       TBLPTRU 
	MOVLW       ?lstr81_FirmV_0_7_0+0
	MOVWF       FSR1L 
	MOVLW       hi_addr(?lstr81_FirmV_0_7_0+0)
	MOVWF       FSR1H 
	MOVLW       17
	MOVWF       R0 
	MOVLW       1
	MOVWF       R1 
	CALL        ___CC2DW+0, 0
	MOVLW       ?lstr81_FirmV_0_7_0+0
	MOVWF       FARG_memcpy_s1+0 
	MOVLW       hi_addr(?lstr81_FirmV_0_7_0+0)
	MOVWF       FARG_memcpy_s1+1 
	MOVLW       16
	MOVWF       FARG_memcpy_n+0 
	MOVLW       0
	MOVWF       FARG_memcpy_n+1 
	CALL        _memcpy+0, 0
	MOVLW       1
	MOVWF       _LCDUpdateFlag+0 
;FirmV_0_7_0.c,1951 :: 		bytetostr(OverloadSens,LCDLine2+6);LCDLine2[9]=' ';}
	MOVF        _OverloadSens+0, 0 
	MOVWF       FARG_ByteToStr_input+0 
	MOVLW       _LCDLine2+6
	MOVWF       FARG_ByteToStr_output+0 
	MOVLW       hi_addr(_LCDLine2+6)
	MOVWF       FARG_ByteToStr_output+1 
	CALL        _ByteToStr+0, 0
	MOVLW       32
	MOVWF       _LCDLine2+9 
L_Menu0426:
;FirmV_0_7_0.c,1953 :: 		if(MenuPointer==10)
	MOVF        _MenuPointer+0, 0 
	XORLW       10
	BTFSS       STATUS+0, 2 
	GOTO        L_Menu0427
;FirmV_0_7_0.c,1954 :: 		{memcpy(LCDLine1,"10 Interval Time",16);LCDUpdateFlag=1;
	MOVLW       _LCDLine1+0
	MOVWF       FARG_memcpy_d1+0 
	MOVLW       hi_addr(_LCDLine1+0)
	MOVWF       FARG_memcpy_d1+1 
	MOVLW       ?ICS?lstr82_FirmV_0_7_0+0
	MOVWF       TBLPTRL 
	MOVLW       hi_addr(?ICS?lstr82_FirmV_0_7_0+0)
	MOVWF       TBLPTRH 
	MOVLW       higher_addr(?ICS?lstr82_FirmV_0_7_0+0)
	MOVWF       TBLPTRU 
	MOVLW       ?lstr82_FirmV_0_7_0+0
	MOVWF       FSR1L 
	MOVLW       hi_addr(?lstr82_FirmV_0_7_0+0)
	MOVWF       FSR1H 
	MOVLW       17
	MOVWF       R0 
	MOVLW       1
	MOVWF       R1 
	CALL        ___CC2DW+0, 0
	MOVLW       ?lstr82_FirmV_0_7_0+0
	MOVWF       FARG_memcpy_s1+0 
	MOVLW       hi_addr(?lstr82_FirmV_0_7_0+0)
	MOVWF       FARG_memcpy_s1+1 
	MOVLW       16
	MOVWF       FARG_memcpy_n+0 
	MOVLW       0
	MOVWF       FARG_memcpy_n+1 
	CALL        _memcpy+0, 0
	MOVLW       1
	MOVWF       _LCDUpdateFlag+0 
;FirmV_0_7_0.c,1955 :: 		charValueToStr(ActionTimeDiff,LCDLine2+6);}
	MOVF        _ActionTimeDiff+0, 0 
	MOVWF       FARG_charValueToStr+0 
	MOVLW       _LCDLine2+6
	MOVWF       FARG_charValueToStr+0 
	MOVLW       hi_addr(_LCDLine2+6)
	MOVWF       FARG_charValueToStr+1 
	CALL        _charValueToStr+0, 0
L_Menu0427:
;FirmV_0_7_0.c,1957 :: 		if(MenuPointer==11)
	MOVF        _MenuPointer+0, 0 
	XORLW       11
	BTFSS       STATUS+0, 2 
	GOTO        L_Menu0428
;FirmV_0_7_0.c,1958 :: 		{memcpy(LCDLine1,"11 Auto-close T ",16);LCDUpdateFlag=1;
	MOVLW       _LCDLine1+0
	MOVWF       FARG_memcpy_d1+0 
	MOVLW       hi_addr(_LCDLine1+0)
	MOVWF       FARG_memcpy_d1+1 
	MOVLW       ?ICS?lstr83_FirmV_0_7_0+0
	MOVWF       TBLPTRL 
	MOVLW       hi_addr(?ICS?lstr83_FirmV_0_7_0+0)
	MOVWF       TBLPTRH 
	MOVLW       higher_addr(?ICS?lstr83_FirmV_0_7_0+0)
	MOVWF       TBLPTRU 
	MOVLW       ?lstr83_FirmV_0_7_0+0
	MOVWF       FSR1L 
	MOVLW       hi_addr(?lstr83_FirmV_0_7_0+0)
	MOVWF       FSR1H 
	MOVLW       17
	MOVWF       R0 
	MOVLW       1
	MOVWF       R1 
	CALL        ___CC2DW+0, 0
	MOVLW       ?lstr83_FirmV_0_7_0+0
	MOVWF       FARG_memcpy_s1+0 
	MOVLW       hi_addr(?lstr83_FirmV_0_7_0+0)
	MOVWF       FARG_memcpy_s1+1 
	MOVLW       16
	MOVWF       FARG_memcpy_n+0 
	MOVLW       0
	MOVWF       FARG_memcpy_n+1 
	CALL        _memcpy+0, 0
	MOVLW       1
	MOVWF       _LCDUpdateFlag+0 
;FirmV_0_7_0.c,1959 :: 		intValueToStr(AutoCloseTime,LCDLine2+4);}
	MOVF        _AutoCloseTime+0, 0 
	MOVWF       FARG_intValueToStr+0 
	MOVF        _AutoCloseTime+1, 0 
	MOVWF       FARG_intValueToStr+1 
	MOVLW       _LCDLine2+4
	MOVWF       FARG_intValueToStr+0 
	MOVLW       hi_addr(_LCDLine2+4)
	MOVWF       FARG_intValueToStr+1 
	CALL        _intValueToStr+0, 0
L_Menu0428:
;FirmV_0_7_0.c,1961 :: 		if(MenuPointer==12)
	MOVF        _MenuPointer+0, 0 
	XORLW       12
	BTFSS       STATUS+0, 2 
	GOTO        L_Menu0429
;FirmV_0_7_0.c,1962 :: 		{memcpy(LCDLine1,"12 Factory Reset",16);LCDUpdateFlag=1;}
	MOVLW       _LCDLine1+0
	MOVWF       FARG_memcpy_d1+0 
	MOVLW       hi_addr(_LCDLine1+0)
	MOVWF       FARG_memcpy_d1+1 
	MOVLW       ?ICS?lstr84_FirmV_0_7_0+0
	MOVWF       TBLPTRL 
	MOVLW       hi_addr(?ICS?lstr84_FirmV_0_7_0+0)
	MOVWF       TBLPTRH 
	MOVLW       higher_addr(?ICS?lstr84_FirmV_0_7_0+0)
	MOVWF       TBLPTRU 
	MOVLW       ?lstr84_FirmV_0_7_0+0
	MOVWF       FSR1L 
	MOVLW       hi_addr(?lstr84_FirmV_0_7_0+0)
	MOVWF       FSR1H 
	MOVLW       17
	MOVWF       R0 
	MOVLW       1
	MOVWF       R1 
	CALL        ___CC2DW+0, 0
	MOVLW       ?lstr84_FirmV_0_7_0+0
	MOVWF       FARG_memcpy_s1+0 
	MOVLW       hi_addr(?lstr84_FirmV_0_7_0+0)
	MOVWF       FARG_memcpy_s1+1 
	MOVLW       16
	MOVWF       FARG_memcpy_n+0 
	MOVLW       0
	MOVWF       FARG_memcpy_n+1 
	CALL        _memcpy+0, 0
	MOVLW       1
	MOVWF       _LCDUpdateFlag+0 
L_Menu0429:
;FirmV_0_7_0.c,1964 :: 		if(MenuPointer==13)
	MOVF        _MenuPointer+0, 0 
	XORLW       13
	BTFSS       STATUS+0, 2 
	GOTO        L_Menu0430
;FirmV_0_7_0.c,1965 :: 		{memcpy(LCDLine1,"13 Open Photo En",16);LCDUpdateFlag=1;
	MOVLW       _LCDLine1+0
	MOVWF       FARG_memcpy_d1+0 
	MOVLW       hi_addr(_LCDLine1+0)
	MOVWF       FARG_memcpy_d1+1 
	MOVLW       ?ICS?lstr85_FirmV_0_7_0+0
	MOVWF       TBLPTRL 
	MOVLW       hi_addr(?ICS?lstr85_FirmV_0_7_0+0)
	MOVWF       TBLPTRH 
	MOVLW       higher_addr(?ICS?lstr85_FirmV_0_7_0+0)
	MOVWF       TBLPTRU 
	MOVLW       ?lstr85_FirmV_0_7_0+0
	MOVWF       FSR1L 
	MOVLW       hi_addr(?lstr85_FirmV_0_7_0+0)
	MOVWF       FSR1H 
	MOVLW       17
	MOVWF       R0 
	MOVLW       1
	MOVWF       R1 
	CALL        ___CC2DW+0, 0
	MOVLW       ?lstr85_FirmV_0_7_0+0
	MOVWF       FARG_memcpy_s1+0 
	MOVLW       hi_addr(?lstr85_FirmV_0_7_0+0)
	MOVWF       FARG_memcpy_s1+1 
	MOVLW       16
	MOVWF       FARG_memcpy_n+0 
	MOVLW       0
	MOVWF       FARG_memcpy_n+1 
	CALL        _memcpy+0, 0
	MOVLW       1
	MOVWF       _LCDUpdateFlag+0 
;FirmV_0_7_0.c,1966 :: 		if(OpenPhEnable==0) memcpy(LCDLine2+6,"No     ",7);else memcpy(LCDLine2+6,"Yes     ",8);}
	MOVF        _OpenPhEnable+0, 0 
	XORLW       0
	BTFSS       STATUS+0, 2 
	GOTO        L_Menu0431
	MOVLW       _LCDLine2+6
	MOVWF       FARG_memcpy_d1+0 
	MOVLW       hi_addr(_LCDLine2+6)
	MOVWF       FARG_memcpy_d1+1 
	MOVLW       78
	MOVWF       ?lstr86_FirmV_0_7_0+0 
	MOVLW       111
	MOVWF       ?lstr86_FirmV_0_7_0+1 
	MOVLW       32
	MOVWF       ?lstr86_FirmV_0_7_0+2 
	MOVLW       32
	MOVWF       ?lstr86_FirmV_0_7_0+3 
	MOVLW       32
	MOVWF       ?lstr86_FirmV_0_7_0+4 
	MOVLW       32
	MOVWF       ?lstr86_FirmV_0_7_0+5 
	MOVLW       32
	MOVWF       ?lstr86_FirmV_0_7_0+6 
	CLRF        ?lstr86_FirmV_0_7_0+7 
	MOVLW       ?lstr86_FirmV_0_7_0+0
	MOVWF       FARG_memcpy_s1+0 
	MOVLW       hi_addr(?lstr86_FirmV_0_7_0+0)
	MOVWF       FARG_memcpy_s1+1 
	MOVLW       7
	MOVWF       FARG_memcpy_n+0 
	MOVLW       0
	MOVWF       FARG_memcpy_n+1 
	CALL        _memcpy+0, 0
	GOTO        L_Menu0432
L_Menu0431:
	MOVLW       _LCDLine2+6
	MOVWF       FARG_memcpy_d1+0 
	MOVLW       hi_addr(_LCDLine2+6)
	MOVWF       FARG_memcpy_d1+1 
	MOVLW       89
	MOVWF       ?lstr87_FirmV_0_7_0+0 
	MOVLW       101
	MOVWF       ?lstr87_FirmV_0_7_0+1 
	MOVLW       115
	MOVWF       ?lstr87_FirmV_0_7_0+2 
	MOVLW       32
	MOVWF       ?lstr87_FirmV_0_7_0+3 
	MOVLW       32
	MOVWF       ?lstr87_FirmV_0_7_0+4 
	MOVLW       32
	MOVWF       ?lstr87_FirmV_0_7_0+5 
	MOVLW       32
	MOVWF       ?lstr87_FirmV_0_7_0+6 
	MOVLW       32
	MOVWF       ?lstr87_FirmV_0_7_0+7 
	CLRF        ?lstr87_FirmV_0_7_0+8 
	MOVLW       ?lstr87_FirmV_0_7_0+0
	MOVWF       FARG_memcpy_s1+0 
	MOVLW       hi_addr(?lstr87_FirmV_0_7_0+0)
	MOVWF       FARG_memcpy_s1+1 
	MOVLW       8
	MOVWF       FARG_memcpy_n+0 
	MOVLW       0
	MOVWF       FARG_memcpy_n+1 
	CALL        _memcpy+0, 0
L_Menu0432:
L_Menu0430:
;FirmV_0_7_0.c,1968 :: 		if(MenuPointer==14)
	MOVF        _MenuPointer+0, 0 
	XORLW       14
	BTFSS       STATUS+0, 2 
	GOTO        L_Menu0433
;FirmV_0_7_0.c,1969 :: 		{memcpy(LCDLine1,"14 Limit Enable ",16);LCDUpdateFlag=1;
	MOVLW       _LCDLine1+0
	MOVWF       FARG_memcpy_d1+0 
	MOVLW       hi_addr(_LCDLine1+0)
	MOVWF       FARG_memcpy_d1+1 
	MOVLW       ?ICS?lstr88_FirmV_0_7_0+0
	MOVWF       TBLPTRL 
	MOVLW       hi_addr(?ICS?lstr88_FirmV_0_7_0+0)
	MOVWF       TBLPTRH 
	MOVLW       higher_addr(?ICS?lstr88_FirmV_0_7_0+0)
	MOVWF       TBLPTRU 
	MOVLW       ?lstr88_FirmV_0_7_0+0
	MOVWF       FSR1L 
	MOVLW       hi_addr(?lstr88_FirmV_0_7_0+0)
	MOVWF       FSR1H 
	MOVLW       17
	MOVWF       R0 
	MOVLW       1
	MOVWF       R1 
	CALL        ___CC2DW+0, 0
	MOVLW       ?lstr88_FirmV_0_7_0+0
	MOVWF       FARG_memcpy_s1+0 
	MOVLW       hi_addr(?lstr88_FirmV_0_7_0+0)
	MOVWF       FARG_memcpy_s1+1 
	MOVLW       16
	MOVWF       FARG_memcpy_n+0 
	MOVLW       0
	MOVWF       FARG_memcpy_n+1 
	CALL        _memcpy+0, 0
	MOVLW       1
	MOVWF       _LCDUpdateFlag+0 
;FirmV_0_7_0.c,1970 :: 		if(LimiterEnable==0) memcpy(LCDLine2+6,"No     ",7);else memcpy(LCDLine2+6,"Yes     ",8);}
	MOVF        _LimiterEnable+0, 0 
	XORLW       0
	BTFSS       STATUS+0, 2 
	GOTO        L_Menu0434
	MOVLW       _LCDLine2+6
	MOVWF       FARG_memcpy_d1+0 
	MOVLW       hi_addr(_LCDLine2+6)
	MOVWF       FARG_memcpy_d1+1 
	MOVLW       78
	MOVWF       ?lstr89_FirmV_0_7_0+0 
	MOVLW       111
	MOVWF       ?lstr89_FirmV_0_7_0+1 
	MOVLW       32
	MOVWF       ?lstr89_FirmV_0_7_0+2 
	MOVLW       32
	MOVWF       ?lstr89_FirmV_0_7_0+3 
	MOVLW       32
	MOVWF       ?lstr89_FirmV_0_7_0+4 
	MOVLW       32
	MOVWF       ?lstr89_FirmV_0_7_0+5 
	MOVLW       32
	MOVWF       ?lstr89_FirmV_0_7_0+6 
	CLRF        ?lstr89_FirmV_0_7_0+7 
	MOVLW       ?lstr89_FirmV_0_7_0+0
	MOVWF       FARG_memcpy_s1+0 
	MOVLW       hi_addr(?lstr89_FirmV_0_7_0+0)
	MOVWF       FARG_memcpy_s1+1 
	MOVLW       7
	MOVWF       FARG_memcpy_n+0 
	MOVLW       0
	MOVWF       FARG_memcpy_n+1 
	CALL        _memcpy+0, 0
	GOTO        L_Menu0435
L_Menu0434:
	MOVLW       _LCDLine2+6
	MOVWF       FARG_memcpy_d1+0 
	MOVLW       hi_addr(_LCDLine2+6)
	MOVWF       FARG_memcpy_d1+1 
	MOVLW       89
	MOVWF       ?lstr90_FirmV_0_7_0+0 
	MOVLW       101
	MOVWF       ?lstr90_FirmV_0_7_0+1 
	MOVLW       115
	MOVWF       ?lstr90_FirmV_0_7_0+2 
	MOVLW       32
	MOVWF       ?lstr90_FirmV_0_7_0+3 
	MOVLW       32
	MOVWF       ?lstr90_FirmV_0_7_0+4 
	MOVLW       32
	MOVWF       ?lstr90_FirmV_0_7_0+5 
	MOVLW       32
	MOVWF       ?lstr90_FirmV_0_7_0+6 
	MOVLW       32
	MOVWF       ?lstr90_FirmV_0_7_0+7 
	CLRF        ?lstr90_FirmV_0_7_0+8 
	MOVLW       ?lstr90_FirmV_0_7_0+0
	MOVWF       FARG_memcpy_s1+0 
	MOVLW       hi_addr(?lstr90_FirmV_0_7_0+0)
	MOVWF       FARG_memcpy_s1+1 
	MOVLW       8
	MOVWF       FARG_memcpy_n+0 
	MOVLW       0
	MOVWF       FARG_memcpy_n+1 
	CALL        _memcpy+0, 0
L_Menu0435:
L_Menu0433:
;FirmV_0_7_0.c,1972 :: 		if(MenuPointer==15)
	MOVF        _MenuPointer+0, 0 
	XORLW       15
	BTFSS       STATUS+0, 2 
	GOTO        L_Menu0436
;FirmV_0_7_0.c,1973 :: 		{memcpy(LCDLine1,"15 Lock Force   ",16);LCDUpdateFlag=1;
	MOVLW       _LCDLine1+0
	MOVWF       FARG_memcpy_d1+0 
	MOVLW       hi_addr(_LCDLine1+0)
	MOVWF       FARG_memcpy_d1+1 
	MOVLW       ?ICS?lstr91_FirmV_0_7_0+0
	MOVWF       TBLPTRL 
	MOVLW       hi_addr(?ICS?lstr91_FirmV_0_7_0+0)
	MOVWF       TBLPTRH 
	MOVLW       higher_addr(?ICS?lstr91_FirmV_0_7_0+0)
	MOVWF       TBLPTRU 
	MOVLW       ?lstr91_FirmV_0_7_0+0
	MOVWF       FSR1L 
	MOVLW       hi_addr(?lstr91_FirmV_0_7_0+0)
	MOVWF       FSR1H 
	MOVLW       17
	MOVWF       R0 
	MOVLW       1
	MOVWF       R1 
	CALL        ___CC2DW+0, 0
	MOVLW       ?lstr91_FirmV_0_7_0+0
	MOVWF       FARG_memcpy_s1+0 
	MOVLW       hi_addr(?lstr91_FirmV_0_7_0+0)
	MOVWF       FARG_memcpy_s1+1 
	MOVLW       16
	MOVWF       FARG_memcpy_n+0 
	MOVLW       0
	MOVWF       FARG_memcpy_n+1 
	CALL        _memcpy+0, 0
	MOVLW       1
	MOVWF       _LCDUpdateFlag+0 
;FirmV_0_7_0.c,1974 :: 		if(LockForce==0) memcpy(LCDLine2+6,"No     ",7);else memcpy(LCDLine2+6,"Yes     ",8);}
	MOVF        _LockForce+0, 0 
	XORLW       0
	BTFSS       STATUS+0, 2 
	GOTO        L_Menu0437
	MOVLW       _LCDLine2+6
	MOVWF       FARG_memcpy_d1+0 
	MOVLW       hi_addr(_LCDLine2+6)
	MOVWF       FARG_memcpy_d1+1 
	MOVLW       78
	MOVWF       ?lstr92_FirmV_0_7_0+0 
	MOVLW       111
	MOVWF       ?lstr92_FirmV_0_7_0+1 
	MOVLW       32
	MOVWF       ?lstr92_FirmV_0_7_0+2 
	MOVLW       32
	MOVWF       ?lstr92_FirmV_0_7_0+3 
	MOVLW       32
	MOVWF       ?lstr92_FirmV_0_7_0+4 
	MOVLW       32
	MOVWF       ?lstr92_FirmV_0_7_0+5 
	MOVLW       32
	MOVWF       ?lstr92_FirmV_0_7_0+6 
	CLRF        ?lstr92_FirmV_0_7_0+7 
	MOVLW       ?lstr92_FirmV_0_7_0+0
	MOVWF       FARG_memcpy_s1+0 
	MOVLW       hi_addr(?lstr92_FirmV_0_7_0+0)
	MOVWF       FARG_memcpy_s1+1 
	MOVLW       7
	MOVWF       FARG_memcpy_n+0 
	MOVLW       0
	MOVWF       FARG_memcpy_n+1 
	CALL        _memcpy+0, 0
	GOTO        L_Menu0438
L_Menu0437:
	MOVLW       _LCDLine2+6
	MOVWF       FARG_memcpy_d1+0 
	MOVLW       hi_addr(_LCDLine2+6)
	MOVWF       FARG_memcpy_d1+1 
	MOVLW       89
	MOVWF       ?lstr93_FirmV_0_7_0+0 
	MOVLW       101
	MOVWF       ?lstr93_FirmV_0_7_0+1 
	MOVLW       115
	MOVWF       ?lstr93_FirmV_0_7_0+2 
	MOVLW       32
	MOVWF       ?lstr93_FirmV_0_7_0+3 
	MOVLW       32
	MOVWF       ?lstr93_FirmV_0_7_0+4 
	MOVLW       32
	MOVWF       ?lstr93_FirmV_0_7_0+5 
	MOVLW       32
	MOVWF       ?lstr93_FirmV_0_7_0+6 
	MOVLW       32
	MOVWF       ?lstr93_FirmV_0_7_0+7 
	CLRF        ?lstr93_FirmV_0_7_0+8 
	MOVLW       ?lstr93_FirmV_0_7_0+0
	MOVWF       FARG_memcpy_s1+0 
	MOVLW       hi_addr(?lstr93_FirmV_0_7_0+0)
	MOVWF       FARG_memcpy_s1+1 
	MOVLW       8
	MOVWF       FARG_memcpy_n+0 
	MOVLW       0
	MOVWF       FARG_memcpy_n+1 
	CALL        _memcpy+0, 0
L_Menu0438:
L_Menu0436:
;FirmV_0_7_0.c,1976 :: 		if(MenuPointer==16)
	MOVF        _MenuPointer+0, 0 
	XORLW       16
	BTFSS       STATUS+0, 2 
	GOTO        L_Menu0439
;FirmV_0_7_0.c,1977 :: 		{memcpy(LCDLine1,"16 Au-Cl Pass   ",16);LCDUpdateFlag=1;
	MOVLW       _LCDLine1+0
	MOVWF       FARG_memcpy_d1+0 
	MOVLW       hi_addr(_LCDLine1+0)
	MOVWF       FARG_memcpy_d1+1 
	MOVLW       ?ICS?lstr94_FirmV_0_7_0+0
	MOVWF       TBLPTRL 
	MOVLW       hi_addr(?ICS?lstr94_FirmV_0_7_0+0)
	MOVWF       TBLPTRH 
	MOVLW       higher_addr(?ICS?lstr94_FirmV_0_7_0+0)
	MOVWF       TBLPTRU 
	MOVLW       ?lstr94_FirmV_0_7_0+0
	MOVWF       FSR1L 
	MOVLW       hi_addr(?lstr94_FirmV_0_7_0+0)
	MOVWF       FSR1H 
	MOVLW       17
	MOVWF       R0 
	MOVLW       1
	MOVWF       R1 
	CALL        ___CC2DW+0, 0
	MOVLW       ?lstr94_FirmV_0_7_0+0
	MOVWF       FARG_memcpy_s1+0 
	MOVLW       hi_addr(?lstr94_FirmV_0_7_0+0)
	MOVWF       FARG_memcpy_s1+1 
	MOVLW       16
	MOVWF       FARG_memcpy_n+0 
	MOVLW       0
	MOVWF       FARG_memcpy_n+1 
	CALL        _memcpy+0, 0
	MOVLW       1
	MOVWF       _LCDUpdateFlag+0 
;FirmV_0_7_0.c,1978 :: 		charValueToStr(CloseAfterPass,LCDLine2+6);}
	MOVF        _CloseAfterPass+0, 0 
	MOVWF       FARG_charValueToStr+0 
	MOVLW       _LCDLine2+6
	MOVWF       FARG_charValueToStr+0 
	MOVLW       hi_addr(_LCDLine2+6)
	MOVWF       FARG_charValueToStr+1 
	CALL        _charValueToStr+0, 0
L_Menu0439:
;FirmV_0_7_0.c,1980 :: 		if(MenuPointer==17)
	MOVF        _MenuPointer+0, 0 
	XORLW       17
	BTFSS       STATUS+0, 2 
	GOTO        L_Menu0440
;FirmV_0_7_0.c,1981 :: 		{memcpy(LCDLine1,"17 Save Changes ",16);LCDUpdateFlag=1;}
	MOVLW       _LCDLine1+0
	MOVWF       FARG_memcpy_d1+0 
	MOVLW       hi_addr(_LCDLine1+0)
	MOVWF       FARG_memcpy_d1+1 
	MOVLW       ?ICS?lstr95_FirmV_0_7_0+0
	MOVWF       TBLPTRL 
	MOVLW       hi_addr(?ICS?lstr95_FirmV_0_7_0+0)
	MOVWF       TBLPTRH 
	MOVLW       higher_addr(?ICS?lstr95_FirmV_0_7_0+0)
	MOVWF       TBLPTRU 
	MOVLW       ?lstr95_FirmV_0_7_0+0
	MOVWF       FSR1L 
	MOVLW       hi_addr(?lstr95_FirmV_0_7_0+0)
	MOVWF       FSR1H 
	MOVLW       17
	MOVWF       R0 
	MOVLW       1
	MOVWF       R1 
	CALL        ___CC2DW+0, 0
	MOVLW       ?lstr95_FirmV_0_7_0+0
	MOVWF       FARG_memcpy_s1+0 
	MOVLW       hi_addr(?lstr95_FirmV_0_7_0+0)
	MOVWF       FARG_memcpy_s1+1 
	MOVLW       16
	MOVWF       FARG_memcpy_n+0 
	MOVLW       0
	MOVWF       FARG_memcpy_n+1 
	CALL        _memcpy+0, 0
	MOVLW       1
	MOVWF       _LCDUpdateFlag+0 
L_Menu0440:
;FirmV_0_7_0.c,1983 :: 		if(MenuPointer==18)
	MOVF        _MenuPointer+0, 0 
	XORLW       18
	BTFSS       STATUS+0, 2 
	GOTO        L_Menu0441
;FirmV_0_7_0.c,1984 :: 		{memcpy(LCDLine1,"18 Discard Exit ",16);LCDUpdateFlag=1;}
	MOVLW       _LCDLine1+0
	MOVWF       FARG_memcpy_d1+0 
	MOVLW       hi_addr(_LCDLine1+0)
	MOVWF       FARG_memcpy_d1+1 
	MOVLW       ?ICS?lstr96_FirmV_0_7_0+0
	MOVWF       TBLPTRL 
	MOVLW       hi_addr(?ICS?lstr96_FirmV_0_7_0+0)
	MOVWF       TBLPTRH 
	MOVLW       higher_addr(?ICS?lstr96_FirmV_0_7_0+0)
	MOVWF       TBLPTRU 
	MOVLW       ?lstr96_FirmV_0_7_0+0
	MOVWF       FSR1L 
	MOVLW       hi_addr(?lstr96_FirmV_0_7_0+0)
	MOVWF       FSR1H 
	MOVLW       17
	MOVWF       R0 
	MOVLW       1
	MOVWF       R1 
	CALL        ___CC2DW+0, 0
	MOVLW       ?lstr96_FirmV_0_7_0+0
	MOVWF       FARG_memcpy_s1+0 
	MOVLW       hi_addr(?lstr96_FirmV_0_7_0+0)
	MOVWF       FARG_memcpy_s1+1 
	MOVLW       16
	MOVWF       FARG_memcpy_n+0 
	MOVLW       0
	MOVWF       FARG_memcpy_n+1 
	CALL        _memcpy+0, 0
	MOVLW       1
	MOVWF       _LCDUpdateFlag+0 
L_Menu0441:
;FirmV_0_7_0.c,1987 :: 		State=101;
	MOVLW       101
	MOVWF       _State+0 
;FirmV_0_7_0.c,1988 :: 		}
	RETURN      0
; end of _Menu0

_About:

;FirmV_0_7_0.c,1996 :: 		void About()
;FirmV_0_7_0.c,1998 :: 		if((Events.Keys.b1==1))
	BTFSS       _Events+0, 1 
	GOTO        L_About442
;FirmV_0_7_0.c,1999 :: 		AboutCounter=AboutCounter+1;
	INCF        _AboutCounter+0, 1 
L_About442:
;FirmV_0_7_0.c,2001 :: 		if(AboutCounter==1)
	MOVF        _AboutCounter+0, 0 
	XORLW       1
	BTFSS       STATUS+0, 2 
	GOTO        L_About443
;FirmV_0_7_0.c,2002 :: 		{memcpy(LCDLine1,Crypto[2],16);
	MOVLW       _LCDLine1+0
	MOVWF       FARG_memcpy_d1+0 
	MOVLW       hi_addr(_LCDLine1+0)
	MOVWF       FARG_memcpy_d1+1 
	MOVLW       _crypto+32
	MOVWF       FARG_memcpy_s1+0 
	MOVLW       hi_addr(_crypto+32)
	MOVWF       FARG_memcpy_s1+1 
	MOVLW       16
	MOVWF       FARG_memcpy_n+0 
	MOVLW       0
	MOVWF       FARG_memcpy_n+1 
	CALL        _memcpy+0, 0
;FirmV_0_7_0.c,2003 :: 		memcpy(LCDLine2,Crypto[3],16);
	MOVLW       _LCDLine2+0
	MOVWF       FARG_memcpy_d1+0 
	MOVLW       hi_addr(_LCDLine2+0)
	MOVWF       FARG_memcpy_d1+1 
	MOVLW       _crypto+48
	MOVWF       FARG_memcpy_s1+0 
	MOVLW       hi_addr(_crypto+48)
	MOVWF       FARG_memcpy_s1+1 
	MOVLW       16
	MOVWF       FARG_memcpy_n+0 
	MOVLW       0
	MOVWF       FARG_memcpy_n+1 
	CALL        _memcpy+0, 0
;FirmV_0_7_0.c,2004 :: 		LCDUpdateFlag=1;
	MOVLW       1
	MOVWF       _LCDUpdateFlag+0 
;FirmV_0_7_0.c,2005 :: 		}
L_About443:
;FirmV_0_7_0.c,2007 :: 		if(AboutCounter==2)
	MOVF        _AboutCounter+0, 0 
	XORLW       2
	BTFSS       STATUS+0, 2 
	GOTO        L_About444
;FirmV_0_7_0.c,2008 :: 		{memcpy(LCDLine1,Crypto[4],16);
	MOVLW       _LCDLine1+0
	MOVWF       FARG_memcpy_d1+0 
	MOVLW       hi_addr(_LCDLine1+0)
	MOVWF       FARG_memcpy_d1+1 
	MOVLW       _crypto+64
	MOVWF       FARG_memcpy_s1+0 
	MOVLW       hi_addr(_crypto+64)
	MOVWF       FARG_memcpy_s1+1 
	MOVLW       16
	MOVWF       FARG_memcpy_n+0 
	MOVLW       0
	MOVWF       FARG_memcpy_n+1 
	CALL        _memcpy+0, 0
;FirmV_0_7_0.c,2009 :: 		memcpy(LCDLine2,Crypto[5],16);
	MOVLW       _LCDLine2+0
	MOVWF       FARG_memcpy_d1+0 
	MOVLW       hi_addr(_LCDLine2+0)
	MOVWF       FARG_memcpy_d1+1 
	MOVLW       _crypto+80
	MOVWF       FARG_memcpy_s1+0 
	MOVLW       hi_addr(_crypto+80)
	MOVWF       FARG_memcpy_s1+1 
	MOVLW       16
	MOVWF       FARG_memcpy_n+0 
	MOVLW       0
	MOVWF       FARG_memcpy_n+1 
	CALL        _memcpy+0, 0
;FirmV_0_7_0.c,2010 :: 		LCDUpdateFlag=1;
	MOVLW       1
	MOVWF       _LCDUpdateFlag+0 
;FirmV_0_7_0.c,2011 :: 		}
L_About444:
;FirmV_0_7_0.c,2013 :: 		if(AboutCounter==3)
	MOVF        _AboutCounter+0, 0 
	XORLW       3
	BTFSS       STATUS+0, 2 
	GOTO        L_About445
;FirmV_0_7_0.c,2014 :: 		{State=100;}
	MOVLW       100
	MOVWF       _State+0 
L_About445:
;FirmV_0_7_0.c,2015 :: 		}
	RETURN      0
; end of _About

_Menu1:

;FirmV_0_7_0.c,2024 :: 		void Menu1()
;FirmV_0_7_0.c,2027 :: 		if((Events.Keys.b0==1))
	BTFSS       _Events+0, 0 
	GOTO        L_Menu1446
;FirmV_0_7_0.c,2028 :: 		{if(MenuPointer==0){MenuPointer=18;}else{MenuPointer=MenuPointer-1;}State=100;}
	MOVF        _MenuPointer+0, 0 
	XORLW       0
	BTFSS       STATUS+0, 2 
	GOTO        L_Menu1447
	MOVLW       18
	MOVWF       _MenuPointer+0 
	GOTO        L_Menu1448
L_Menu1447:
	DECF        _MenuPointer+0, 1 
L_Menu1448:
	MOVLW       100
	MOVWF       _State+0 
L_Menu1446:
;FirmV_0_7_0.c,2030 :: 		if((Events.Keys.b2==1))
	BTFSS       _Events+0, 2 
	GOTO        L_Menu1449
;FirmV_0_7_0.c,2031 :: 		{if(MenuPointer==18){MenuPointer=0;}else{MenuPointer=MenuPointer+1;}State=100;}
	MOVF        _MenuPointer+0, 0 
	XORLW       18
	BTFSS       STATUS+0, 2 
	GOTO        L_Menu1450
	CLRF        _MenuPointer+0 
	GOTO        L_Menu1451
L_Menu1450:
	INCF        _MenuPointer+0, 1 
L_Menu1451:
	MOVLW       100
	MOVWF       _State+0 
L_Menu1449:
;FirmV_0_7_0.c,2033 :: 		if((Events.Keys.b1==1))
	BTFSS       _Events+0, 1 
	GOTO        L_Menu1452
;FirmV_0_7_0.c,2034 :: 		{State=102;}
	MOVLW       102
	MOVWF       _State+0 
L_Menu1452:
;FirmV_0_7_0.c,2036 :: 		if(Events.Keys==0b101)
	MOVF        _Events+0, 0 
	XORLW       5
	BTFSS       STATUS+0, 2 
	GOTO        L_Menu1453
;FirmV_0_7_0.c,2037 :: 		{memcpy(LCDLine1,Crypto[0],16);AboutCounter=0;memcpy(LCDLine2,Crypto[1],16);LCDLines=2;LCDUpdateFlag=1;State=250;}
	MOVLW       _LCDLine1+0
	MOVWF       FARG_memcpy_d1+0 
	MOVLW       hi_addr(_LCDLine1+0)
	MOVWF       FARG_memcpy_d1+1 
	MOVLW       _crypto+0
	MOVWF       FARG_memcpy_s1+0 
	MOVLW       hi_addr(_crypto+0)
	MOVWF       FARG_memcpy_s1+1 
	MOVLW       16
	MOVWF       FARG_memcpy_n+0 
	MOVLW       0
	MOVWF       FARG_memcpy_n+1 
	CALL        _memcpy+0, 0
	CLRF        _AboutCounter+0 
	MOVLW       _LCDLine2+0
	MOVWF       FARG_memcpy_d1+0 
	MOVLW       hi_addr(_LCDLine2+0)
	MOVWF       FARG_memcpy_d1+1 
	MOVLW       _crypto+16
	MOVWF       FARG_memcpy_s1+0 
	MOVLW       hi_addr(_crypto+16)
	MOVWF       FARG_memcpy_s1+1 
	MOVLW       16
	MOVWF       FARG_memcpy_n+0 
	MOVLW       0
	MOVWF       FARG_memcpy_n+1 
	CALL        _memcpy+0, 0
	MOVLW       2
	MOVWF       _LCDLines+0 
	MOVLW       1
	MOVWF       _LCDUpdateFlag+0 
	MOVLW       250
	MOVWF       _State+0 
L_Menu1453:
;FirmV_0_7_0.c,2040 :: 		}
	RETURN      0
; end of _Menu1

_Menu2:

;FirmV_0_7_0.c,2048 :: 		void Menu2()
;FirmV_0_7_0.c,2051 :: 		LCDFlash=1;
	MOVLW       1
	MOVWF       _LCDFlash+0 
;FirmV_0_7_0.c,2053 :: 		if(Events.Keys.b1==1)
	BTFSS       _Events+0, 1 
	GOTO        L_Menu2454
;FirmV_0_7_0.c,2055 :: 		LCDFlash=0;LCDFlashFlag=0;State=101;;Menu0();
	CLRF        _LCDFlash+0 
	CLRF        _LCDFlashFlag+0 
	MOVLW       101
	MOVWF       _State+0 
	CALL        _Menu0+0, 0
;FirmV_0_7_0.c,2056 :: 		if(MenuPointer==0)
	MOVF        _MenuPointer+0, 0 
	XORLW       0
	BTFSS       STATUS+0, 2 
	GOTO        L_Menu2455
;FirmV_0_7_0.c,2058 :: 		LearnPhase=0;
	CLRF        _LearnPhase+0 
;FirmV_0_7_0.c,2059 :: 		if(LearningMode==0)
	MOVF        _LearningMode+0, 0 
	XORLW       0
	BTFSS       STATUS+0, 2 
	GOTO        L_Menu2456
;FirmV_0_7_0.c,2060 :: 		{State=200;LongBuzzFlag=1;}
	MOVLW       200
	MOVWF       _State+0 
	MOVLW       1
	MOVWF       _LongBuzzFlag+0 
L_Menu2456:
;FirmV_0_7_0.c,2061 :: 		if(LearningMode==1)
	MOVF        _LearningMode+0, 0 
	XORLW       1
	BTFSS       STATUS+0, 2 
	GOTO        L_Menu2457
;FirmV_0_7_0.c,2062 :: 		{State=201;LongBuzzFlag=1;}
	MOVLW       201
	MOVWF       _State+0 
	MOVLW       1
	MOVWF       _LongBuzzFlag+0 
L_Menu2457:
;FirmV_0_7_0.c,2063 :: 		}
L_Menu2455:
;FirmV_0_7_0.c,2064 :: 		}
L_Menu2454:
;FirmV_0_7_0.c,2067 :: 		if(MenuPointer==0)
	MOVF        _MenuPointer+0, 0 
	XORLW       0
	BTFSS       STATUS+0, 2 
	GOTO        L_Menu2458
;FirmV_0_7_0.c,2068 :: 		{ if((Events.Keys.b0==1)&&(LearningMode>0))
	BTFSS       _Events+0, 0 
	GOTO        L_Menu2461
	MOVF        _LearningMode+0, 0 
	SUBLW       0
	BTFSC       STATUS+0, 0 
	GOTO        L_Menu2461
L__Menu2795:
;FirmV_0_7_0.c,2069 :: 		{LearningMode=LearningMode-1;Menu0();State=102;}
	DECF        _LearningMode+0, 1 
	CALL        _Menu0+0, 0
	MOVLW       102
	MOVWF       _State+0 
L_Menu2461:
;FirmV_0_7_0.c,2070 :: 		if((Events.Keys.b2==1)&&(LearningMode<1))
	BTFSS       _Events+0, 2 
	GOTO        L_Menu2464
	MOVLW       1
	SUBWF       _LearningMode+0, 0 
	BTFSC       STATUS+0, 0 
	GOTO        L_Menu2464
L__Menu2794:
;FirmV_0_7_0.c,2071 :: 		{LearningMode=LearningMode+1;Menu0();State=102;}
	INCF        _LearningMode+0, 1 
	CALL        _Menu0+0, 0
	MOVLW       102
	MOVWF       _State+0 
L_Menu2464:
;FirmV_0_7_0.c,2072 :: 		}
L_Menu2458:
;FirmV_0_7_0.c,2076 :: 		if(MenuPointer==1)
	MOVF        _MenuPointer+0, 0 
	XORLW       1
	BTFSS       STATUS+0, 2 
	GOTO        L_Menu2465
;FirmV_0_7_0.c,2077 :: 		{ if((Events.Keys.b0==1)&&(Door1OpenTime>0))
	BTFSS       _Events+0, 0 
	GOTO        L_Menu2468
	MOVF        _Door1OpenTime+0, 0 
	SUBLW       0
	BTFSC       STATUS+0, 0 
	GOTO        L_Menu2468
L__Menu2793:
;FirmV_0_7_0.c,2078 :: 		{Door1OpenTime=Door1OpenTime-1;Menu0();State=102;}
	DECF        _Door1OpenTime+0, 1 
	CALL        _Menu0+0, 0
	MOVLW       102
	MOVWF       _State+0 
L_Menu2468:
;FirmV_0_7_0.c,2079 :: 		if((Events.Keys.b2==1)&&(Door1OpenTime<255))
	BTFSS       _Events+0, 2 
	GOTO        L_Menu2471
	MOVLW       255
	SUBWF       _Door1OpenTime+0, 0 
	BTFSC       STATUS+0, 0 
	GOTO        L_Menu2471
L__Menu2792:
;FirmV_0_7_0.c,2080 :: 		{Door1OpenTime=Door1OpenTime+1;Menu0();State=102;}
	INCF        _Door1OpenTime+0, 1 
	CALL        _Menu0+0, 0
	MOVLW       102
	MOVWF       _State+0 
L_Menu2471:
;FirmV_0_7_0.c,2081 :: 		}
L_Menu2465:
;FirmV_0_7_0.c,2085 :: 		if(MenuPointer==2)
	MOVF        _MenuPointer+0, 0 
	XORLW       2
	BTFSS       STATUS+0, 2 
	GOTO        L_Menu2472
;FirmV_0_7_0.c,2086 :: 		{ if((Events.Keys.b0==1)&&(Door2OpenTime>0))
	BTFSS       _Events+0, 0 
	GOTO        L_Menu2475
	MOVF        _Door2OpenTime+0, 0 
	SUBLW       0
	BTFSC       STATUS+0, 0 
	GOTO        L_Menu2475
L__Menu2791:
;FirmV_0_7_0.c,2087 :: 		{Door2OpenTime=Door2OpenTime-1;Menu0();State=102;}
	DECF        _Door2OpenTime+0, 1 
	CALL        _Menu0+0, 0
	MOVLW       102
	MOVWF       _State+0 
L_Menu2475:
;FirmV_0_7_0.c,2088 :: 		if((Events.Keys.b2==1)&&(Door2OpenTime<255))
	BTFSS       _Events+0, 2 
	GOTO        L_Menu2478
	MOVLW       255
	SUBWF       _Door2OpenTime+0, 0 
	BTFSC       STATUS+0, 0 
	GOTO        L_Menu2478
L__Menu2790:
;FirmV_0_7_0.c,2089 :: 		{Door2OpenTime=Door2OpenTime+1;Menu0();State=102;}
	INCF        _Door2OpenTime+0, 1 
	CALL        _Menu0+0, 0
	MOVLW       102
	MOVWF       _State+0 
L_Menu2478:
;FirmV_0_7_0.c,2090 :: 		}
L_Menu2472:
;FirmV_0_7_0.c,2093 :: 		if(MenuPointer==3)
	MOVF        _MenuPointer+0, 0 
	XORLW       3
	BTFSS       STATUS+0, 2 
	GOTO        L_Menu2479
;FirmV_0_7_0.c,2094 :: 		{ if((Events.Keys.b0==1)&&(Door1CloseTime>0))
	BTFSS       _Events+0, 0 
	GOTO        L_Menu2482
	MOVF        _Door1CloseTime+0, 0 
	SUBLW       0
	BTFSC       STATUS+0, 0 
	GOTO        L_Menu2482
L__Menu2789:
;FirmV_0_7_0.c,2095 :: 		{Door1CloseTime=Door1CloseTime-1;Menu0();State=102;}
	DECF        _Door1CloseTime+0, 1 
	CALL        _Menu0+0, 0
	MOVLW       102
	MOVWF       _State+0 
L_Menu2482:
;FirmV_0_7_0.c,2096 :: 		if((Events.Keys.b2==1)&&(Door1CloseTime<255))
	BTFSS       _Events+0, 2 
	GOTO        L_Menu2485
	MOVLW       255
	SUBWF       _Door1CloseTime+0, 0 
	BTFSC       STATUS+0, 0 
	GOTO        L_Menu2485
L__Menu2788:
;FirmV_0_7_0.c,2097 :: 		{Door1CloseTime=Door1CloseTime+1;Menu0();State=102;}
	INCF        _Door1CloseTime+0, 1 
	CALL        _Menu0+0, 0
	MOVLW       102
	MOVWF       _State+0 
L_Menu2485:
;FirmV_0_7_0.c,2098 :: 		}
L_Menu2479:
;FirmV_0_7_0.c,2101 :: 		if(MenuPointer==4)
	MOVF        _MenuPointer+0, 0 
	XORLW       4
	BTFSS       STATUS+0, 2 
	GOTO        L_Menu2486
;FirmV_0_7_0.c,2102 :: 		{ if((Events.Keys.b0==1)&&(Door2CloseTime>0))
	BTFSS       _Events+0, 0 
	GOTO        L_Menu2489
	MOVF        _Door2CloseTime+0, 0 
	SUBLW       0
	BTFSC       STATUS+0, 0 
	GOTO        L_Menu2489
L__Menu2787:
;FirmV_0_7_0.c,2103 :: 		{Door2CloseTime=Door2CloseTime-1;Menu0();State=102;}
	DECF        _Door2CloseTime+0, 1 
	CALL        _Menu0+0, 0
	MOVLW       102
	MOVWF       _State+0 
L_Menu2489:
;FirmV_0_7_0.c,2104 :: 		if((Events.Keys.b2==1)&&(Door2CloseTime<255))
	BTFSS       _Events+0, 2 
	GOTO        L_Menu2492
	MOVLW       255
	SUBWF       _Door2CloseTime+0, 0 
	BTFSC       STATUS+0, 0 
	GOTO        L_Menu2492
L__Menu2786:
;FirmV_0_7_0.c,2105 :: 		{Door2CloseTime=Door2CloseTime+1;Menu0();State=102;}
	INCF        _Door2CloseTime+0, 1 
	CALL        _Menu0+0, 0
	MOVLW       102
	MOVWF       _State+0 
L_Menu2492:
;FirmV_0_7_0.c,2106 :: 		}
L_Menu2486:
;FirmV_0_7_0.c,2110 :: 		if(MenuPointer==5)
	MOVF        _MenuPointer+0, 0 
	XORLW       5
	BTFSS       STATUS+0, 2 
	GOTO        L_Menu2493
;FirmV_0_7_0.c,2111 :: 		{ if((Events.Keys.b0==1)&&(OpenSoftStartTime>0))
	BTFSS       _Events+0, 0 
	GOTO        L_Menu2496
	MOVF        _OpenSoftStartTime+0, 0 
	SUBLW       0
	BTFSC       STATUS+0, 0 
	GOTO        L_Menu2496
L__Menu2785:
;FirmV_0_7_0.c,2112 :: 		{OpenSoftStartTime=OpenSoftStartTime-1;Menu0();State=102;}
	DECF        _OpenSoftStartTime+0, 1 
	CALL        _Menu0+0, 0
	MOVLW       102
	MOVWF       _State+0 
L_Menu2496:
;FirmV_0_7_0.c,2113 :: 		if((Events.Keys.b2==1)&&(OpenSoftStartTime<255))
	BTFSS       _Events+0, 2 
	GOTO        L_Menu2499
	MOVLW       255
	SUBWF       _OpenSoftStartTime+0, 0 
	BTFSC       STATUS+0, 0 
	GOTO        L_Menu2499
L__Menu2784:
;FirmV_0_7_0.c,2114 :: 		{OpenSoftStartTime=OpenSoftStartTime+1;Menu0();State=102;}
	INCF        _OpenSoftStartTime+0, 1 
	CALL        _Menu0+0, 0
	MOVLW       102
	MOVWF       _State+0 
L_Menu2499:
;FirmV_0_7_0.c,2115 :: 		}
L_Menu2493:
;FirmV_0_7_0.c,2118 :: 		if(MenuPointer==6)
	MOVF        _MenuPointer+0, 0 
	XORLW       6
	BTFSS       STATUS+0, 2 
	GOTO        L_Menu2500
;FirmV_0_7_0.c,2119 :: 		{ if((Events.Keys.b0==1)&&(OpenSoftStopTime>0))
	BTFSS       _Events+0, 0 
	GOTO        L_Menu2503
	MOVF        _OpenSoftStopTime+0, 0 
	SUBLW       0
	BTFSC       STATUS+0, 0 
	GOTO        L_Menu2503
L__Menu2783:
;FirmV_0_7_0.c,2120 :: 		{OpenSoftStopTime=OpenSoftStopTime-1;Menu0();State=102;}
	DECF        _OpenSoftStopTime+0, 1 
	CALL        _Menu0+0, 0
	MOVLW       102
	MOVWF       _State+0 
L_Menu2503:
;FirmV_0_7_0.c,2121 :: 		if((Events.Keys.b2==1)&&(OpenSoftStopTime<255))
	BTFSS       _Events+0, 2 
	GOTO        L_Menu2506
	MOVLW       255
	SUBWF       _OpenSoftStopTime+0, 0 
	BTFSC       STATUS+0, 0 
	GOTO        L_Menu2506
L__Menu2782:
;FirmV_0_7_0.c,2122 :: 		{OpenSoftStopTime=OpenSoftStopTime+1;Menu0();State=102;}
	INCF        _OpenSoftStopTime+0, 1 
	CALL        _Menu0+0, 0
	MOVLW       102
	MOVWF       _State+0 
L_Menu2506:
;FirmV_0_7_0.c,2123 :: 		}
L_Menu2500:
;FirmV_0_7_0.c,2126 :: 		if(MenuPointer==7)
	MOVF        _MenuPointer+0, 0 
	XORLW       7
	BTFSS       STATUS+0, 2 
	GOTO        L_Menu2507
;FirmV_0_7_0.c,2127 :: 		{ if((Events.Keys.b0==1)&&(CloseSoftStartTime>0))
	BTFSS       _Events+0, 0 
	GOTO        L_Menu2510
	MOVF        _CloseSoftStartTime+0, 0 
	SUBLW       0
	BTFSC       STATUS+0, 0 
	GOTO        L_Menu2510
L__Menu2781:
;FirmV_0_7_0.c,2128 :: 		{CloseSoftStartTime=CloseSoftStartTime-1;Menu0();State=102;}
	DECF        _CloseSoftStartTime+0, 1 
	CALL        _Menu0+0, 0
	MOVLW       102
	MOVWF       _State+0 
L_Menu2510:
;FirmV_0_7_0.c,2129 :: 		if((Events.Keys.b2==1)&&(CloseSoftStartTime<255))
	BTFSS       _Events+0, 2 
	GOTO        L_Menu2513
	MOVLW       255
	SUBWF       _CloseSoftStartTime+0, 0 
	BTFSC       STATUS+0, 0 
	GOTO        L_Menu2513
L__Menu2780:
;FirmV_0_7_0.c,2130 :: 		{CloseSoftStartTime=CloseSoftStartTime+1;Menu0();State=102;}
	INCF        _CloseSoftStartTime+0, 1 
	CALL        _Menu0+0, 0
	MOVLW       102
	MOVWF       _State+0 
L_Menu2513:
;FirmV_0_7_0.c,2131 :: 		}
L_Menu2507:
;FirmV_0_7_0.c,2134 :: 		if(MenuPointer==8)
	MOVF        _MenuPointer+0, 0 
	XORLW       8
	BTFSS       STATUS+0, 2 
	GOTO        L_Menu2514
;FirmV_0_7_0.c,2135 :: 		{ if((Events.Keys.b0==1)&&(CloseSoftStopTime>0))
	BTFSS       _Events+0, 0 
	GOTO        L_Menu2517
	MOVF        _CloseSoftStopTime+0, 0 
	SUBLW       0
	BTFSC       STATUS+0, 0 
	GOTO        L_Menu2517
L__Menu2779:
;FirmV_0_7_0.c,2136 :: 		{CloseSoftStopTime=CloseSoftStopTime-1;Menu0();State=102;}
	DECF        _CloseSoftStopTime+0, 1 
	CALL        _Menu0+0, 0
	MOVLW       102
	MOVWF       _State+0 
L_Menu2517:
;FirmV_0_7_0.c,2137 :: 		if((Events.Keys.b2==1)&&(CloseSoftStopTime<255))
	BTFSS       _Events+0, 2 
	GOTO        L_Menu2520
	MOVLW       255
	SUBWF       _CloseSoftStopTime+0, 0 
	BTFSC       STATUS+0, 0 
	GOTO        L_Menu2520
L__Menu2778:
;FirmV_0_7_0.c,2138 :: 		{CloseSoftStopTime=CloseSoftStopTime+1;Menu0();State=102;}
	INCF        _CloseSoftStopTime+0, 1 
	CALL        _Menu0+0, 0
	MOVLW       102
	MOVWF       _State+0 
L_Menu2520:
;FirmV_0_7_0.c,2139 :: 		}
L_Menu2514:
;FirmV_0_7_0.c,2143 :: 		if(MenuPointer==9)
	MOVF        _MenuPointer+0, 0 
	XORLW       9
	BTFSS       STATUS+0, 2 
	GOTO        L_Menu2521
;FirmV_0_7_0.c,2144 :: 		{ if((Events.Keys.b0==1)&&(OverloadSens>1))
	BTFSS       _Events+0, 0 
	GOTO        L_Menu2524
	MOVF        _OverloadSens+0, 0 
	SUBLW       1
	BTFSC       STATUS+0, 0 
	GOTO        L_Menu2524
L__Menu2777:
;FirmV_0_7_0.c,2145 :: 		{OverloadSens=OverloadSens-1;Menu0();State=102;}
	DECF        _OverloadSens+0, 1 
	CALL        _Menu0+0, 0
	MOVLW       102
	MOVWF       _State+0 
L_Menu2524:
;FirmV_0_7_0.c,2146 :: 		if((Events.Keys.b2==1)&&(OverloadSens<15))
	BTFSS       _Events+0, 2 
	GOTO        L_Menu2527
	MOVLW       15
	SUBWF       _OverloadSens+0, 0 
	BTFSC       STATUS+0, 0 
	GOTO        L_Menu2527
L__Menu2776:
;FirmV_0_7_0.c,2147 :: 		{OverloadSens=OverloadSens+1;Menu0();State=102;}
	INCF        _OverloadSens+0, 1 
	CALL        _Menu0+0, 0
	MOVLW       102
	MOVWF       _State+0 
L_Menu2527:
;FirmV_0_7_0.c,2148 :: 		}
L_Menu2521:
;FirmV_0_7_0.c,2151 :: 		if(MenuPointer==10)
	MOVF        _MenuPointer+0, 0 
	XORLW       10
	BTFSS       STATUS+0, 2 
	GOTO        L_Menu2528
;FirmV_0_7_0.c,2152 :: 		{ if((Events.Keys.b0==1)&&(ActionTimeDiff>0))
	BTFSS       _Events+0, 0 
	GOTO        L_Menu2531
	MOVF        _ActionTimeDiff+0, 0 
	SUBLW       0
	BTFSC       STATUS+0, 0 
	GOTO        L_Menu2531
L__Menu2775:
;FirmV_0_7_0.c,2153 :: 		{ActionTimeDiff=ActionTimeDiff-1;Menu0();State=102;}
	DECF        _ActionTimeDiff+0, 1 
	CALL        _Menu0+0, 0
	MOVLW       102
	MOVWF       _State+0 
L_Menu2531:
;FirmV_0_7_0.c,2154 :: 		if((Events.Keys.b2==1)&&(ActionTimeDiff<255))
	BTFSS       _Events+0, 2 
	GOTO        L_Menu2534
	MOVLW       255
	SUBWF       _ActionTimeDiff+0, 0 
	BTFSC       STATUS+0, 0 
	GOTO        L_Menu2534
L__Menu2774:
;FirmV_0_7_0.c,2155 :: 		{ActionTimeDiff=ActionTimeDiff+1;Menu0();State=102;}
	INCF        _ActionTimeDiff+0, 1 
	CALL        _Menu0+0, 0
	MOVLW       102
	MOVWF       _State+0 
L_Menu2534:
;FirmV_0_7_0.c,2156 :: 		}
L_Menu2528:
;FirmV_0_7_0.c,2159 :: 		if(MenuPointer==11)
	MOVF        _MenuPointer+0, 0 
	XORLW       11
	BTFSS       STATUS+0, 2 
	GOTO        L_Menu2535
;FirmV_0_7_0.c,2160 :: 		{ if((Events.Keys.b0==1)&&(AutoCloseTime>0))
	BTFSS       _Events+0, 0 
	GOTO        L_Menu2538
	MOVLW       0
	MOVWF       R0 
	MOVF        _AutoCloseTime+1, 0 
	SUBWF       R0, 0 
	BTFSS       STATUS+0, 2 
	GOTO        L__Menu2844
	MOVF        _AutoCloseTime+0, 0 
	SUBLW       0
L__Menu2844:
	BTFSC       STATUS+0, 0 
	GOTO        L_Menu2538
L__Menu2773:
;FirmV_0_7_0.c,2161 :: 		{AutoCloseTime=AutoCloseTime-1;Menu0();State=102;}
	MOVLW       1
	SUBWF       _AutoCloseTime+0, 1 
	MOVLW       0
	SUBWFB      _AutoCloseTime+1, 1 
	CALL        _Menu0+0, 0
	MOVLW       102
	MOVWF       _State+0 
L_Menu2538:
;FirmV_0_7_0.c,2162 :: 		if((Events.Keys.b2==1)&&(AutoCloseTime<65000))
	BTFSS       _Events+0, 2 
	GOTO        L_Menu2541
	MOVLW       253
	SUBWF       _AutoCloseTime+1, 0 
	BTFSS       STATUS+0, 2 
	GOTO        L__Menu2845
	MOVLW       232
	SUBWF       _AutoCloseTime+0, 0 
L__Menu2845:
	BTFSC       STATUS+0, 0 
	GOTO        L_Menu2541
L__Menu2772:
;FirmV_0_7_0.c,2163 :: 		{AutoCloseTime=AutoCloseTime+1;Menu0();State=102;}
	INFSNZ      _AutoCloseTime+0, 1 
	INCF        _AutoCloseTime+1, 1 
	CALL        _Menu0+0, 0
	MOVLW       102
	MOVWF       _State+0 
L_Menu2541:
;FirmV_0_7_0.c,2164 :: 		}
L_Menu2535:
;FirmV_0_7_0.c,2167 :: 		if(MenuPointer==12)
	MOVF        _MenuPointer+0, 0 
	XORLW       12
	BTFSS       STATUS+0, 2 
	GOTO        L_Menu2542
;FirmV_0_7_0.c,2169 :: 		State=0;
	CLRF        _State+0 
;FirmV_0_7_0.c,2170 :: 		memcpy(LCDLine1,Sipher,16);
	MOVLW       _LCDLine1+0
	MOVWF       FARG_memcpy_d1+0 
	MOVLW       hi_addr(_LCDLine1+0)
	MOVWF       FARG_memcpy_d1+1 
	MOVLW       _Sipher+0
	MOVWF       FARG_memcpy_s1+0 
	MOVLW       hi_addr(_Sipher+0)
	MOVWF       FARG_memcpy_s1+1 
	MOVLW       16
	MOVWF       FARG_memcpy_n+0 
	MOVLW       0
	MOVWF       FARG_memcpy_n+1 
	CALL        _memcpy+0, 0
;FirmV_0_7_0.c,2171 :: 		LCDLines=1;
	MOVLW       1
	MOVWF       _LCDLines+0 
;FirmV_0_7_0.c,2172 :: 		LCDFlash=0; LCDFlashFlag=0;
	CLRF        _LCDFlash+0 
	CLRF        _LCDFlashFlag+0 
;FirmV_0_7_0.c,2173 :: 		LCDUpdateFlag=1;
	MOVLW       1
	MOVWF       _LCDUpdateFlag+0 
;FirmV_0_7_0.c,2174 :: 		LongBuzzFlag=1;
	MOVLW       1
	MOVWF       _LongBuzzFlag+0 
;FirmV_0_7_0.c,2175 :: 		FactorySettings();
	CALL        _FactorySettings+0, 0
;FirmV_0_7_0.c,2176 :: 		SaveConfigs();
	CALL        _SaveConfigs+0, 0
;FirmV_0_7_0.c,2177 :: 		}
L_Menu2542:
;FirmV_0_7_0.c,2180 :: 		if(MenuPointer==13)
	MOVF        _MenuPointer+0, 0 
	XORLW       13
	BTFSS       STATUS+0, 2 
	GOTO        L_Menu2543
;FirmV_0_7_0.c,2181 :: 		{ if((Events.Keys.b0==1)&&(OpenPhEnable>0))
	BTFSS       _Events+0, 0 
	GOTO        L_Menu2546
	MOVF        _OpenPhEnable+0, 0 
	SUBLW       0
	BTFSC       STATUS+0, 0 
	GOTO        L_Menu2546
L__Menu2771:
;FirmV_0_7_0.c,2182 :: 		{OpenPhEnable=OpenPhEnable-1;Menu0();State=102;}
	DECF        _OpenPhEnable+0, 1 
	CALL        _Menu0+0, 0
	MOVLW       102
	MOVWF       _State+0 
L_Menu2546:
;FirmV_0_7_0.c,2183 :: 		if((Events.Keys.b2==1)&&(OpenPhEnable<1))
	BTFSS       _Events+0, 2 
	GOTO        L_Menu2549
	MOVLW       1
	SUBWF       _OpenPhEnable+0, 0 
	BTFSC       STATUS+0, 0 
	GOTO        L_Menu2549
L__Menu2770:
;FirmV_0_7_0.c,2184 :: 		{OpenPhEnable=OpenPhEnable+1;Menu0();State=102;}
	INCF        _OpenPhEnable+0, 1 
	CALL        _Menu0+0, 0
	MOVLW       102
	MOVWF       _State+0 
L_Menu2549:
;FirmV_0_7_0.c,2185 :: 		}
L_Menu2543:
;FirmV_0_7_0.c,2189 :: 		if(MenuPointer==14)
	MOVF        _MenuPointer+0, 0 
	XORLW       14
	BTFSS       STATUS+0, 2 
	GOTO        L_Menu2550
;FirmV_0_7_0.c,2190 :: 		{ if((Events.Keys.b0==1)&&(LimiterEnable>0))
	BTFSS       _Events+0, 0 
	GOTO        L_Menu2553
	MOVF        _LimiterEnable+0, 0 
	SUBLW       0
	BTFSC       STATUS+0, 0 
	GOTO        L_Menu2553
L__Menu2769:
;FirmV_0_7_0.c,2191 :: 		{LimiterEnable=LimiterEnable-1;Menu0();State=102;}
	DECF        _LimiterEnable+0, 1 
	CALL        _Menu0+0, 0
	MOVLW       102
	MOVWF       _State+0 
L_Menu2553:
;FirmV_0_7_0.c,2192 :: 		if((Events.Keys.b2==1)&&(LimiterEnable<1))
	BTFSS       _Events+0, 2 
	GOTO        L_Menu2556
	MOVLW       1
	SUBWF       _LimiterEnable+0, 0 
	BTFSC       STATUS+0, 0 
	GOTO        L_Menu2556
L__Menu2768:
;FirmV_0_7_0.c,2193 :: 		{LimiterEnable=LimiterEnable+1;Menu0();State=102;}
	INCF        _LimiterEnable+0, 1 
	CALL        _Menu0+0, 0
	MOVLW       102
	MOVWF       _State+0 
L_Menu2556:
;FirmV_0_7_0.c,2194 :: 		}
L_Menu2550:
;FirmV_0_7_0.c,2197 :: 		if(MenuPointer==15)
	MOVF        _MenuPointer+0, 0 
	XORLW       15
	BTFSS       STATUS+0, 2 
	GOTO        L_Menu2557
;FirmV_0_7_0.c,2198 :: 		{ if((Events.Keys.b0==1)&&(LockForce>0))
	BTFSS       _Events+0, 0 
	GOTO        L_Menu2560
	MOVF        _LockForce+0, 0 
	SUBLW       0
	BTFSC       STATUS+0, 0 
	GOTO        L_Menu2560
L__Menu2767:
;FirmV_0_7_0.c,2199 :: 		{LockForce=LockForce-1;Menu0();State=102;}
	DECF        _LockForce+0, 1 
	CALL        _Menu0+0, 0
	MOVLW       102
	MOVWF       _State+0 
L_Menu2560:
;FirmV_0_7_0.c,2200 :: 		if((Events.Keys.b2==1)&&(LockForce<1))
	BTFSS       _Events+0, 2 
	GOTO        L_Menu2563
	MOVLW       1
	SUBWF       _LockForce+0, 0 
	BTFSC       STATUS+0, 0 
	GOTO        L_Menu2563
L__Menu2766:
;FirmV_0_7_0.c,2201 :: 		{LockForce=LockForce+1;Menu0();State=102;}
	INCF        _LockForce+0, 1 
	CALL        _Menu0+0, 0
	MOVLW       102
	MOVWF       _State+0 
L_Menu2563:
;FirmV_0_7_0.c,2202 :: 		}
L_Menu2557:
;FirmV_0_7_0.c,2205 :: 		if(MenuPointer==16)
	MOVF        _MenuPointer+0, 0 
	XORLW       16
	BTFSS       STATUS+0, 2 
	GOTO        L_Menu2564
;FirmV_0_7_0.c,2206 :: 		{ if((Events.Keys.b0==1)&&(CloseAfterPass>0))
	BTFSS       _Events+0, 0 
	GOTO        L_Menu2567
	MOVF        _CloseAfterPass+0, 0 
	SUBLW       0
	BTFSC       STATUS+0, 0 
	GOTO        L_Menu2567
L__Menu2765:
;FirmV_0_7_0.c,2207 :: 		{CloseAfterPass=CloseAfterPass-1;if(CloseAfterPass==9) CloseAfterPass=0;Menu0();State=102;}
	DECF        _CloseAfterPass+0, 1 
	MOVF        _CloseAfterPass+0, 0 
	XORLW       9
	BTFSS       STATUS+0, 2 
	GOTO        L_Menu2568
	CLRF        _CloseAfterPass+0 
L_Menu2568:
	CALL        _Menu0+0, 0
	MOVLW       102
	MOVWF       _State+0 
L_Menu2567:
;FirmV_0_7_0.c,2208 :: 		if((Events.Keys.b2==1)&&(CloseAfterPass<255))
	BTFSS       _Events+0, 2 
	GOTO        L_Menu2571
	MOVLW       255
	SUBWF       _CloseAfterPass+0, 0 
	BTFSC       STATUS+0, 0 
	GOTO        L_Menu2571
L__Menu2764:
;FirmV_0_7_0.c,2209 :: 		{CloseAfterPass=CloseAfterPass+1;if(CloseAfterPass==1) CloseAfterPass=10;Menu0();State=102;}
	INCF        _CloseAfterPass+0, 1 
	MOVF        _CloseAfterPass+0, 0 
	XORLW       1
	BTFSS       STATUS+0, 2 
	GOTO        L_Menu2572
	MOVLW       10
	MOVWF       _CloseAfterPass+0 
L_Menu2572:
	CALL        _Menu0+0, 0
	MOVLW       102
	MOVWF       _State+0 
L_Menu2571:
;FirmV_0_7_0.c,2210 :: 		}
L_Menu2564:
;FirmV_0_7_0.c,2213 :: 		if(MenuPointer==17)
	MOVF        _MenuPointer+0, 0 
	XORLW       17
	BTFSS       STATUS+0, 2 
	GOTO        L_Menu2573
;FirmV_0_7_0.c,2215 :: 		State=103;
	MOVLW       103
	MOVWF       _State+0 
;FirmV_0_7_0.c,2216 :: 		memcpy(LCDLine1,Sipher,16);
	MOVLW       _LCDLine1+0
	MOVWF       FARG_memcpy_d1+0 
	MOVLW       hi_addr(_LCDLine1+0)
	MOVWF       FARG_memcpy_d1+1 
	MOVLW       _Sipher+0
	MOVWF       FARG_memcpy_s1+0 
	MOVLW       hi_addr(_Sipher+0)
	MOVWF       FARG_memcpy_s1+1 
	MOVLW       16
	MOVWF       FARG_memcpy_n+0 
	MOVLW       0
	MOVWF       FARG_memcpy_n+1 
	CALL        _memcpy+0, 0
;FirmV_0_7_0.c,2217 :: 		LCDFlash=0;
	CLRF        _LCDFlash+0 
;FirmV_0_7_0.c,2218 :: 		LCDLines=1;
	MOVLW       1
	MOVWF       _LCDLines+0 
;FirmV_0_7_0.c,2219 :: 		LCDUpdateFlag=1;
	MOVLW       1
	MOVWF       _LCDUpdateFlag+0 
;FirmV_0_7_0.c,2220 :: 		LongBuzzFlag=1;
	MOVLW       1
	MOVWF       _LongBuzzFlag+0 
;FirmV_0_7_0.c,2221 :: 		}
L_Menu2573:
;FirmV_0_7_0.c,2224 :: 		if(MenuPointer==18)
	MOVF        _MenuPointer+0, 0 
	XORLW       18
	BTFSS       STATUS+0, 2 
	GOTO        L_Menu2574
;FirmV_0_7_0.c,2226 :: 		State=0;
	CLRF        _State+0 
;FirmV_0_7_0.c,2227 :: 		memcpy(LCDLine1,Sipher,16);
	MOVLW       _LCDLine1+0
	MOVWF       FARG_memcpy_d1+0 
	MOVLW       hi_addr(_LCDLine1+0)
	MOVWF       FARG_memcpy_d1+1 
	MOVLW       _Sipher+0
	MOVWF       FARG_memcpy_s1+0 
	MOVLW       hi_addr(_Sipher+0)
	MOVWF       FARG_memcpy_s1+1 
	MOVLW       16
	MOVWF       FARG_memcpy_n+0 
	MOVLW       0
	MOVWF       FARG_memcpy_n+1 
	CALL        _memcpy+0, 0
;FirmV_0_7_0.c,2228 :: 		LCDFlash=0;
	CLRF        _LCDFlash+0 
;FirmV_0_7_0.c,2229 :: 		LCDLines=1;
	MOVLW       1
	MOVWF       _LCDLines+0 
;FirmV_0_7_0.c,2230 :: 		LCDUpdateFlag=1;
	MOVLW       1
	MOVWF       _LCDUpdateFlag+0 
;FirmV_0_7_0.c,2231 :: 		LoadConfigs();
	CALL        _LoadConfigs+0, 0
;FirmV_0_7_0.c,2232 :: 		LongBuzzFlag=1;
	MOVLW       1
	MOVWF       _LongBuzzFlag+0 
;FirmV_0_7_0.c,2233 :: 		}
L_Menu2574:
;FirmV_0_7_0.c,2234 :: 		}
	RETURN      0
; end of _Menu2

_Menu3:

;FirmV_0_7_0.c,2246 :: 		void Menu3()
;FirmV_0_7_0.c,2248 :: 		SaveConfigs();
	CALL        _SaveConfigs+0, 0
;FirmV_0_7_0.c,2249 :: 		State=0;
	CLRF        _State+0 
;FirmV_0_7_0.c,2250 :: 		}
	RETURN      0
; end of _Menu3

_LearnAuto:

;FirmV_0_7_0.c,2264 :: 		void LearnAuto()
;FirmV_0_7_0.c,2270 :: 		switch(LearnPhase)
	GOTO        L_LearnAuto575
;FirmV_0_7_0.c,2272 :: 		case 0:
L_LearnAuto577:
;FirmV_0_7_0.c,2273 :: 		Flasher=1;
	BSF         PORTD+0, 7 
;FirmV_0_7_0.c,2274 :: 		FlashFlag=1;
	MOVLW       1
	MOVWF       _FlashFlag+0 
;FirmV_0_7_0.c,2275 :: 		if(Events.Remote.b0==1) {DoorNo=2; LearnPhase=LearnPhase+1;} if(Events.Remote.b1==1) {DoorNo=1;LearnPhase=3;}
	BTFSS       _Events+4, 0 
	GOTO        L_LearnAuto578
	MOVLW       2
	MOVWF       LearnAuto_DoorNo_L0+0 
	INCF        _LearnPhase+0, 1 
L_LearnAuto578:
	BTFSS       _Events+4, 1 
	GOTO        L_LearnAuto579
	MOVLW       1
	MOVWF       LearnAuto_DoorNo_L0+0 
	MOVLW       3
	MOVWF       _LearnPhase+0 
L_LearnAuto579:
;FirmV_0_7_0.c,2276 :: 		OverloadCheckFlag1=0;OverloadCheckFlag2=0;
	CLRF        _OverloadCheckFlag1+0 
	CLRF        _OverloadCheckFlag2+0 
;FirmV_0_7_0.c,2277 :: 		break;
	GOTO        L_LearnAuto576
;FirmV_0_7_0.c,2279 :: 		case 1: //Start D2 and enable overload sensing after 1s
L_LearnAuto580:
;FirmV_0_7_0.c,2280 :: 		StartMotor(2,_Close);AddTask(ms500+4,21);LearnPhase=LearnPhase+1;
	MOVLW       2
	MOVWF       FARG_StartMotor_Mx+0 
	CLRF        FARG_StartMotor_Dir+0 
	CALL        _StartMotor+0, 0
	MOVLW       4
	ADDWF       _ms500+0, 0 
	MOVWF       FARG_AddTask_OccTime+0 
	MOVLW       0
	ADDWFC      _ms500+1, 0 
	MOVWF       FARG_AddTask_OccTime+1 
	MOVLW       0
	ADDWFC      _ms500+2, 0 
	MOVWF       FARG_AddTask_OccTime+2 
	MOVLW       0
	ADDWFC      _ms500+3, 0 
	MOVWF       FARG_AddTask_OccTime+3 
	MOVLW       21
	MOVWF       FARG_AddTask_tcode+0 
	CALL        _AddTask+0, 0
	INCF        _LearnPhase+0, 1 
;FirmV_0_7_0.c,2281 :: 		break;
	GOTO        L_LearnAuto576
;FirmV_0_7_0.c,2283 :: 		case 2: //Check if D2 reaches end of its course
L_LearnAuto581:
;FirmV_0_7_0.c,2284 :: 		if((Events.Overload.b1==1)&&(OverloadCheckFlag2==1)){OverloadCheckFlag2=0;StopMotor(2);LearnPhase=LearnPhase+1;}
	BTFSS       _Events+5, 1 
	GOTO        L_LearnAuto584
	MOVF        _OverloadCheckFlag2+0, 0 
	XORLW       1
	BTFSS       STATUS+0, 2 
	GOTO        L_LearnAuto584
L__LearnAuto801:
	CLRF        _OverloadCheckFlag2+0 
	MOVLW       2
	MOVWF       FARG_StopMotor_Mx+0 
	CALL        _StopMotor+0, 0
	INCF        _LearnPhase+0, 1 
L_LearnAuto584:
;FirmV_0_7_0.c,2285 :: 		if(CheckTask(21))OverloadCheckFlag2=1;
	MOVLW       21
	MOVWF       FARG_CheckTask_TaskCode+0 
	CALL        _CheckTask+0, 0
	MOVF        R0, 1 
	BTFSC       STATUS+0, 2 
	GOTO        L_LearnAuto585
	MOVLW       1
	MOVWF       _OverloadCheckFlag2+0 
L_LearnAuto585:
;FirmV_0_7_0.c,2286 :: 		break;
	GOTO        L_LearnAuto576
;FirmV_0_7_0.c,2288 :: 		case 3: //Start D1 and enable overload sensin after 1 s
L_LearnAuto586:
;FirmV_0_7_0.c,2289 :: 		StartMotor(1,_Close);AddTask(ms500+4,20);LearnPhase=LearnPhase+1;;
	MOVLW       1
	MOVWF       FARG_StartMotor_Mx+0 
	CLRF        FARG_StartMotor_Dir+0 
	CALL        _StartMotor+0, 0
	MOVLW       4
	ADDWF       _ms500+0, 0 
	MOVWF       FARG_AddTask_OccTime+0 
	MOVLW       0
	ADDWFC      _ms500+1, 0 
	MOVWF       FARG_AddTask_OccTime+1 
	MOVLW       0
	ADDWFC      _ms500+2, 0 
	MOVWF       FARG_AddTask_OccTime+2 
	MOVLW       0
	ADDWFC      _ms500+3, 0 
	MOVWF       FARG_AddTask_OccTime+3 
	MOVLW       20
	MOVWF       FARG_AddTask_tcode+0 
	CALL        _AddTask+0, 0
	INCF        _LearnPhase+0, 1 
;FirmV_0_7_0.c,2291 :: 		case 4: //Check if D1 reaches end of its course
L_LearnAuto587:
;FirmV_0_7_0.c,2292 :: 		if((Events.Overload.b0==1)&&(OverloadCheckFlag1==1)){OverloadCheckFlag1=0;StopMotor(1);LearnPhase=LearnPhase+1;}
	BTFSS       _Events+5, 0 
	GOTO        L_LearnAuto590
	MOVF        _OverloadCheckFlag1+0, 0 
	XORLW       1
	BTFSS       STATUS+0, 2 
	GOTO        L_LearnAuto590
L__LearnAuto800:
	CLRF        _OverloadCheckFlag1+0 
	MOVLW       1
	MOVWF       FARG_StopMotor_Mx+0 
	CALL        _StopMotor+0, 0
	INCF        _LearnPhase+0, 1 
L_LearnAuto590:
;FirmV_0_7_0.c,2293 :: 		if(CheckTask(20))OverloadCheckFlag1=1;
	MOVLW       20
	MOVWF       FARG_CheckTask_TaskCode+0 
	CALL        _CheckTask+0, 0
	MOVF        R0, 1 
	BTFSC       STATUS+0, 2 
	GOTO        L_LearnAuto591
	MOVLW       1
	MOVWF       _OverloadCheckFlag1+0 
L_LearnAuto591:
;FirmV_0_7_0.c,2294 :: 		break;
	GOTO        L_LearnAuto576
;FirmV_0_7_0.c,2296 :: 		case 5: //Start D1 for opening and save start time and enable overload sensing after 1s
L_LearnAuto592:
;FirmV_0_7_0.c,2297 :: 		startT=ms500;StartMotor(1,_Open);AddTask(ms500+4,20);LearnPhase=LearnPhase+1;
	MOVF        _ms500+0, 0 
	MOVWF       LearnAuto_startT_L0+0 
	MOVF        _ms500+1, 0 
	MOVWF       LearnAuto_startT_L0+1 
	MOVF        _ms500+2, 0 
	MOVWF       LearnAuto_startT_L0+2 
	MOVF        _ms500+3, 0 
	MOVWF       LearnAuto_startT_L0+3 
	MOVLW       1
	MOVWF       FARG_StartMotor_Mx+0 
	MOVLW       1
	MOVWF       FARG_StartMotor_Dir+0 
	CALL        _StartMotor+0, 0
	MOVLW       4
	ADDWF       _ms500+0, 0 
	MOVWF       FARG_AddTask_OccTime+0 
	MOVLW       0
	ADDWFC      _ms500+1, 0 
	MOVWF       FARG_AddTask_OccTime+1 
	MOVLW       0
	ADDWFC      _ms500+2, 0 
	MOVWF       FARG_AddTask_OccTime+2 
	MOVLW       0
	ADDWFC      _ms500+3, 0 
	MOVWF       FARG_AddTask_OccTime+3 
	MOVLW       20
	MOVWF       FARG_AddTask_tcode+0 
	CALL        _AddTask+0, 0
	INCF        _LearnPhase+0, 1 
;FirmV_0_7_0.c,2298 :: 		break;
	GOTO        L_LearnAuto576
;FirmV_0_7_0.c,2300 :: 		case 6: //Check if D1 reaches end of its course and save the stop time
L_LearnAuto593:
;FirmV_0_7_0.c,2301 :: 		if((Events.Overload.b0==1)&&(OverloadCheckFlag1==1)){OverloadCheckFlag1=0;StopMotor(1);if(DoorNo==1)LearnPhase=11;else LearnPhase=LearnPhase+1;stopT=ms500;RawData.D1OpenTime=(char)(stopT-startT);}
	BTFSS       _Events+5, 0 
	GOTO        L_LearnAuto596
	MOVF        _OverloadCheckFlag1+0, 0 
	XORLW       1
	BTFSS       STATUS+0, 2 
	GOTO        L_LearnAuto596
L__LearnAuto799:
	CLRF        _OverloadCheckFlag1+0 
	MOVLW       1
	MOVWF       FARG_StopMotor_Mx+0 
	CALL        _StopMotor+0, 0
	MOVF        LearnAuto_DoorNo_L0+0, 0 
	XORLW       1
	BTFSS       STATUS+0, 2 
	GOTO        L_LearnAuto597
	MOVLW       11
	MOVWF       _LearnPhase+0 
	GOTO        L_LearnAuto598
L_LearnAuto597:
	INCF        _LearnPhase+0, 1 
L_LearnAuto598:
	MOVF        LearnAuto_startT_L0+0, 0 
	SUBWF       _ms500+0, 0 
	MOVWF       R0 
	MOVF        R0, 0 
	MOVWF       LearnAuto_RawData_L0+1 
L_LearnAuto596:
;FirmV_0_7_0.c,2302 :: 		if(CheckTask(20))OverloadCheckFlag1=1;
	MOVLW       20
	MOVWF       FARG_CheckTask_TaskCode+0 
	CALL        _CheckTask+0, 0
	MOVF        R0, 1 
	BTFSC       STATUS+0, 2 
	GOTO        L_LearnAuto599
	MOVLW       1
	MOVWF       _OverloadCheckFlag1+0 
L_LearnAuto599:
;FirmV_0_7_0.c,2303 :: 		break;
	GOTO        L_LearnAuto576
;FirmV_0_7_0.c,2305 :: 		case 7: //Start D2 for opening and save start time and enable overload sensing after 1s
L_LearnAuto600:
;FirmV_0_7_0.c,2306 :: 		startT=ms500;StartMotor(2,_Open);AddTask(ms500+4,21);LearnPhase=LearnPhase+1;
	MOVF        _ms500+0, 0 
	MOVWF       LearnAuto_startT_L0+0 
	MOVF        _ms500+1, 0 
	MOVWF       LearnAuto_startT_L0+1 
	MOVF        _ms500+2, 0 
	MOVWF       LearnAuto_startT_L0+2 
	MOVF        _ms500+3, 0 
	MOVWF       LearnAuto_startT_L0+3 
	MOVLW       2
	MOVWF       FARG_StartMotor_Mx+0 
	MOVLW       1
	MOVWF       FARG_StartMotor_Dir+0 
	CALL        _StartMotor+0, 0
	MOVLW       4
	ADDWF       _ms500+0, 0 
	MOVWF       FARG_AddTask_OccTime+0 
	MOVLW       0
	ADDWFC      _ms500+1, 0 
	MOVWF       FARG_AddTask_OccTime+1 
	MOVLW       0
	ADDWFC      _ms500+2, 0 
	MOVWF       FARG_AddTask_OccTime+2 
	MOVLW       0
	ADDWFC      _ms500+3, 0 
	MOVWF       FARG_AddTask_OccTime+3 
	MOVLW       21
	MOVWF       FARG_AddTask_tcode+0 
	CALL        _AddTask+0, 0
	INCF        _LearnPhase+0, 1 
;FirmV_0_7_0.c,2307 :: 		break;
	GOTO        L_LearnAuto576
;FirmV_0_7_0.c,2309 :: 		case 8: //Check if D2 reaches end of its course and save the stop time
L_LearnAuto601:
;FirmV_0_7_0.c,2310 :: 		if((Events.Overload.b1==1)&&(OverloadCheckFlag2==1)){OverloadCheckFlag2=0;StopMotor(2);LearnPhase=LearnPhase+1;stopT=ms500;RawData.D2OpenTime=(char)(stopT-startT);}
	BTFSS       _Events+5, 1 
	GOTO        L_LearnAuto604
	MOVF        _OverloadCheckFlag2+0, 0 
	XORLW       1
	BTFSS       STATUS+0, 2 
	GOTO        L_LearnAuto604
L__LearnAuto798:
	CLRF        _OverloadCheckFlag2+0 
	MOVLW       2
	MOVWF       FARG_StopMotor_Mx+0 
	CALL        _StopMotor+0, 0
	INCF        _LearnPhase+0, 1 
	MOVF        LearnAuto_startT_L0+0, 0 
	SUBWF       _ms500+0, 0 
	MOVWF       R0 
	MOVF        R0, 0 
	MOVWF       LearnAuto_RawData_L0+3 
L_LearnAuto604:
;FirmV_0_7_0.c,2311 :: 		if(CheckTask(21))OverloadCheckFlag2=1;
	MOVLW       21
	MOVWF       FARG_CheckTask_TaskCode+0 
	CALL        _CheckTask+0, 0
	MOVF        R0, 1 
	BTFSC       STATUS+0, 2 
	GOTO        L_LearnAuto605
	MOVLW       1
	MOVWF       _OverloadCheckFlag2+0 
L_LearnAuto605:
;FirmV_0_7_0.c,2312 :: 		break;
	GOTO        L_LearnAuto576
;FirmV_0_7_0.c,2314 :: 		case 9: //Start D2 for closing and save start time and enable overload sensing after 1s
L_LearnAuto606:
;FirmV_0_7_0.c,2315 :: 		startT=ms500;StartMotor(2,_Close);AddTask(ms500+4,21);LearnPhase=LearnPhase+1;
	MOVF        _ms500+0, 0 
	MOVWF       LearnAuto_startT_L0+0 
	MOVF        _ms500+1, 0 
	MOVWF       LearnAuto_startT_L0+1 
	MOVF        _ms500+2, 0 
	MOVWF       LearnAuto_startT_L0+2 
	MOVF        _ms500+3, 0 
	MOVWF       LearnAuto_startT_L0+3 
	MOVLW       2
	MOVWF       FARG_StartMotor_Mx+0 
	CLRF        FARG_StartMotor_Dir+0 
	CALL        _StartMotor+0, 0
	MOVLW       4
	ADDWF       _ms500+0, 0 
	MOVWF       FARG_AddTask_OccTime+0 
	MOVLW       0
	ADDWFC      _ms500+1, 0 
	MOVWF       FARG_AddTask_OccTime+1 
	MOVLW       0
	ADDWFC      _ms500+2, 0 
	MOVWF       FARG_AddTask_OccTime+2 
	MOVLW       0
	ADDWFC      _ms500+3, 0 
	MOVWF       FARG_AddTask_OccTime+3 
	MOVLW       21
	MOVWF       FARG_AddTask_tcode+0 
	CALL        _AddTask+0, 0
	INCF        _LearnPhase+0, 1 
;FirmV_0_7_0.c,2316 :: 		break;
	GOTO        L_LearnAuto576
;FirmV_0_7_0.c,2318 :: 		case 10: //Check if D2 reaches end of its course and save the stop time
L_LearnAuto607:
;FirmV_0_7_0.c,2319 :: 		if((Events.Overload.b1==1)&&(OverloadCheckFlag2==1)){OverloadCheckFlag2=0;StopMotor(2);LearnPhase=LearnPhase+1;stopT=ms500;RawData.D2CloseTime=(char)(stopT-startT);}
	BTFSS       _Events+5, 1 
	GOTO        L_LearnAuto610
	MOVF        _OverloadCheckFlag2+0, 0 
	XORLW       1
	BTFSS       STATUS+0, 2 
	GOTO        L_LearnAuto610
L__LearnAuto797:
	CLRF        _OverloadCheckFlag2+0 
	MOVLW       2
	MOVWF       FARG_StopMotor_Mx+0 
	CALL        _StopMotor+0, 0
	INCF        _LearnPhase+0, 1 
	MOVF        LearnAuto_startT_L0+0, 0 
	SUBWF       _ms500+0, 0 
	MOVWF       R0 
	MOVF        R0, 0 
	MOVWF       LearnAuto_RawData_L0+2 
L_LearnAuto610:
;FirmV_0_7_0.c,2320 :: 		if(CheckTask(21))OverloadCheckFlag2=1;
	MOVLW       21
	MOVWF       FARG_CheckTask_TaskCode+0 
	CALL        _CheckTask+0, 0
	MOVF        R0, 1 
	BTFSC       STATUS+0, 2 
	GOTO        L_LearnAuto611
	MOVLW       1
	MOVWF       _OverloadCheckFlag2+0 
L_LearnAuto611:
;FirmV_0_7_0.c,2321 :: 		break;
	GOTO        L_LearnAuto576
;FirmV_0_7_0.c,2323 :: 		case 11: //Start D1 for closing and save start time and enable overload sensing after 1s
L_LearnAuto612:
;FirmV_0_7_0.c,2324 :: 		startT=ms500;StartMotor(1,_Close);AddTask(ms500+4,20);LearnPhase=LearnPhase+1;
	MOVF        _ms500+0, 0 
	MOVWF       LearnAuto_startT_L0+0 
	MOVF        _ms500+1, 0 
	MOVWF       LearnAuto_startT_L0+1 
	MOVF        _ms500+2, 0 
	MOVWF       LearnAuto_startT_L0+2 
	MOVF        _ms500+3, 0 
	MOVWF       LearnAuto_startT_L0+3 
	MOVLW       1
	MOVWF       FARG_StartMotor_Mx+0 
	CLRF        FARG_StartMotor_Dir+0 
	CALL        _StartMotor+0, 0
	MOVLW       4
	ADDWF       _ms500+0, 0 
	MOVWF       FARG_AddTask_OccTime+0 
	MOVLW       0
	ADDWFC      _ms500+1, 0 
	MOVWF       FARG_AddTask_OccTime+1 
	MOVLW       0
	ADDWFC      _ms500+2, 0 
	MOVWF       FARG_AddTask_OccTime+2 
	MOVLW       0
	ADDWFC      _ms500+3, 0 
	MOVWF       FARG_AddTask_OccTime+3 
	MOVLW       20
	MOVWF       FARG_AddTask_tcode+0 
	CALL        _AddTask+0, 0
	INCF        _LearnPhase+0, 1 
;FirmV_0_7_0.c,2325 :: 		break;
	GOTO        L_LearnAuto576
;FirmV_0_7_0.c,2327 :: 		case 12: //Check if D1 reaches end of its course and save the stop time
L_LearnAuto613:
;FirmV_0_7_0.c,2328 :: 		if((Events.Overload.b0==1)&&(OverloadCheckFlag1==1)){OverloadCheckFlag1=0;StopMotor(1);LearnPhase=LearnPhase+1;stopT=ms500;RawData.D1CloseTime=(char)(stopT-startT);}
	BTFSS       _Events+5, 0 
	GOTO        L_LearnAuto616
	MOVF        _OverloadCheckFlag1+0, 0 
	XORLW       1
	BTFSS       STATUS+0, 2 
	GOTO        L_LearnAuto616
L__LearnAuto796:
	CLRF        _OverloadCheckFlag1+0 
	MOVLW       1
	MOVWF       FARG_StopMotor_Mx+0 
	CALL        _StopMotor+0, 0
	INCF        _LearnPhase+0, 1 
	MOVF        LearnAuto_startT_L0+0, 0 
	SUBWF       _ms500+0, 0 
	MOVWF       R0 
	MOVF        R0, 0 
	MOVWF       LearnAuto_RawData_L0+0 
L_LearnAuto616:
;FirmV_0_7_0.c,2329 :: 		if(CheckTask(20))OverloadCheckFlag1=1;
	MOVLW       20
	MOVWF       FARG_CheckTask_TaskCode+0 
	CALL        _CheckTask+0, 0
	MOVF        R0, 1 
	BTFSC       STATUS+0, 2 
	GOTO        L_LearnAuto617
	MOVLW       1
	MOVWF       _OverloadCheckFlag1+0 
L_LearnAuto617:
;FirmV_0_7_0.c,2330 :: 		break;
	GOTO        L_LearnAuto576
;FirmV_0_7_0.c,2332 :: 		case 13:
L_LearnAuto618:
;FirmV_0_7_0.c,2333 :: 		AutoLearnCalculator(&RawData);
	MOVLW       LearnAuto_RawData_L0+0
	MOVWF       FARG_AutoLearnCalculator+0 
	MOVLW       hi_addr(LearnAuto_RawData_L0+0)
	MOVWF       FARG_AutoLearnCalculator+1 
	CALL        _AutoLearnCalculator+0, 0
;FirmV_0_7_0.c,2334 :: 		SaveLearnData(&RawData,DoorNo);
	MOVLW       LearnAuto_RawData_L0+0
	MOVWF       FARG_SaveLearnData+0 
	MOVLW       hi_addr(LearnAuto_RawData_L0+0)
	MOVWF       FARG_SaveLearnData+1 
	MOVF        LearnAuto_DoorNo_L0+0, 0 
	MOVWF       FARG_SaveLearnData+0 
	CALL        _SaveLearnData+0, 0
;FirmV_0_7_0.c,2335 :: 		memcpy(LCDLine1," Learn Complete ",16);
	MOVLW       _LCDLine1+0
	MOVWF       FARG_memcpy_d1+0 
	MOVLW       hi_addr(_LCDLine1+0)
	MOVWF       FARG_memcpy_d1+1 
	MOVLW       ?ICS?lstr97_FirmV_0_7_0+0
	MOVWF       TBLPTRL 
	MOVLW       hi_addr(?ICS?lstr97_FirmV_0_7_0+0)
	MOVWF       TBLPTRH 
	MOVLW       higher_addr(?ICS?lstr97_FirmV_0_7_0+0)
	MOVWF       TBLPTRU 
	MOVLW       ?lstr97_FirmV_0_7_0+0
	MOVWF       FSR1L 
	MOVLW       hi_addr(?lstr97_FirmV_0_7_0+0)
	MOVWF       FSR1H 
	MOVLW       17
	MOVWF       R0 
	MOVLW       1
	MOVWF       R1 
	CALL        ___CC2DW+0, 0
	MOVLW       ?lstr97_FirmV_0_7_0+0
	MOVWF       FARG_memcpy_s1+0 
	MOVLW       hi_addr(?lstr97_FirmV_0_7_0+0)
	MOVWF       FARG_memcpy_s1+1 
	MOVLW       16
	MOVWF       FARG_memcpy_n+0 
	MOVLW       0
	MOVWF       FARG_memcpy_n+1 
	CALL        _memcpy+0, 0
;FirmV_0_7_0.c,2336 :: 		memcpy(LCDLine2,"     Ready      ",16);
	MOVLW       _LCDLine2+0
	MOVWF       FARG_memcpy_d1+0 
	MOVLW       hi_addr(_LCDLine2+0)
	MOVWF       FARG_memcpy_d1+1 
	MOVLW       ?ICS?lstr98_FirmV_0_7_0+0
	MOVWF       TBLPTRL 
	MOVLW       hi_addr(?ICS?lstr98_FirmV_0_7_0+0)
	MOVWF       TBLPTRH 
	MOVLW       higher_addr(?ICS?lstr98_FirmV_0_7_0+0)
	MOVWF       TBLPTRU 
	MOVLW       ?lstr98_FirmV_0_7_0+0
	MOVWF       FSR1L 
	MOVLW       hi_addr(?lstr98_FirmV_0_7_0+0)
	MOVWF       FSR1H 
	MOVLW       17
	MOVWF       R0 
	MOVLW       1
	MOVWF       R1 
	CALL        ___CC2DW+0, 0
	MOVLW       ?lstr98_FirmV_0_7_0+0
	MOVWF       FARG_memcpy_s1+0 
	MOVLW       hi_addr(?lstr98_FirmV_0_7_0+0)
	MOVWF       FARG_memcpy_s1+1 
	MOVLW       16
	MOVWF       FARG_memcpy_n+0 
	MOVLW       0
	MOVWF       FARG_memcpy_n+1 
	CALL        _memcpy+0, 0
;FirmV_0_7_0.c,2337 :: 		LCDLines=2;
	MOVLW       2
	MOVWF       _LCDLines+0 
;FirmV_0_7_0.c,2338 :: 		LCDUpdateFlag=1;
	MOVLW       1
	MOVWF       _LCDUpdateFlag+0 
;FirmV_0_7_0.c,2339 :: 		Flasher=0;
	BCF         PORTD+0, 7 
;FirmV_0_7_0.c,2340 :: 		FlashFlag=0;
	CLRF        _FlashFlag+0 
;FirmV_0_7_0.c,2341 :: 		State=0;
	CLRF        _State+0 
;FirmV_0_7_0.c,2342 :: 		break;
	GOTO        L_LearnAuto576
;FirmV_0_7_0.c,2345 :: 		}
L_LearnAuto575:
	MOVF        _LearnPhase+0, 0 
	XORLW       0
	BTFSC       STATUS+0, 2 
	GOTO        L_LearnAuto577
	MOVF        _LearnPhase+0, 0 
	XORLW       1
	BTFSC       STATUS+0, 2 
	GOTO        L_LearnAuto580
	MOVF        _LearnPhase+0, 0 
	XORLW       2
	BTFSC       STATUS+0, 2 
	GOTO        L_LearnAuto581
	MOVF        _LearnPhase+0, 0 
	XORLW       3
	BTFSC       STATUS+0, 2 
	GOTO        L_LearnAuto586
	MOVF        _LearnPhase+0, 0 
	XORLW       4
	BTFSC       STATUS+0, 2 
	GOTO        L_LearnAuto587
	MOVF        _LearnPhase+0, 0 
	XORLW       5
	BTFSC       STATUS+0, 2 
	GOTO        L_LearnAuto592
	MOVF        _LearnPhase+0, 0 
	XORLW       6
	BTFSC       STATUS+0, 2 
	GOTO        L_LearnAuto593
	MOVF        _LearnPhase+0, 0 
	XORLW       7
	BTFSC       STATUS+0, 2 
	GOTO        L_LearnAuto600
	MOVF        _LearnPhase+0, 0 
	XORLW       8
	BTFSC       STATUS+0, 2 
	GOTO        L_LearnAuto601
	MOVF        _LearnPhase+0, 0 
	XORLW       9
	BTFSC       STATUS+0, 2 
	GOTO        L_LearnAuto606
	MOVF        _LearnPhase+0, 0 
	XORLW       10
	BTFSC       STATUS+0, 2 
	GOTO        L_LearnAuto607
	MOVF        _LearnPhase+0, 0 
	XORLW       11
	BTFSC       STATUS+0, 2 
	GOTO        L_LearnAuto612
	MOVF        _LearnPhase+0, 0 
	XORLW       12
	BTFSC       STATUS+0, 2 
	GOTO        L_LearnAuto613
	MOVF        _LearnPhase+0, 0 
	XORLW       13
	BTFSC       STATUS+0, 2 
	GOTO        L_LearnAuto618
L_LearnAuto576:
;FirmV_0_7_0.c,2349 :: 		}
	RETURN      0
; end of _LearnAuto

_AutoLearnCalculator:

;FirmV_0_7_0.c,2369 :: 		void AutoLearnCalculator(Learn *raw)
;FirmV_0_7_0.c,2372 :: 		(*raw).D1OpenTime=(*raw).D1OpenTime+10;
	MOVLW       1
	ADDWF       FARG_AutoLearnCalculator_raw+0, 0 
	MOVWF       R1 
	MOVLW       0
	ADDWFC      FARG_AutoLearnCalculator_raw+1, 0 
	MOVWF       R2 
	MOVFF       R1, FSR0L
	MOVFF       R2, FSR0H
	MOVLW       10
	ADDWF       POSTINC0+0, 0 
	MOVWF       R0 
	MOVFF       R1, FSR1L
	MOVFF       R2, FSR1H
	MOVF        R0, 0 
	MOVWF       POSTINC1+0 
;FirmV_0_7_0.c,2373 :: 		(*raw).D2OpenTime=(*raw).D2OpenTime+10;
	MOVLW       3
	ADDWF       FARG_AutoLearnCalculator_raw+0, 0 
	MOVWF       R1 
	MOVLW       0
	ADDWFC      FARG_AutoLearnCalculator_raw+1, 0 
	MOVWF       R2 
	MOVFF       R1, FSR0L
	MOVFF       R2, FSR0H
	MOVLW       10
	ADDWF       POSTINC0+0, 0 
	MOVWF       R0 
	MOVFF       R1, FSR1L
	MOVFF       R2, FSR1H
	MOVF        R0, 0 
	MOVWF       POSTINC1+0 
;FirmV_0_7_0.c,2374 :: 		(*raw).D1CloseTime=(*raw).D1CloseTime+10;
	MOVFF       FARG_AutoLearnCalculator_raw+0, FSR0L
	MOVFF       FARG_AutoLearnCalculator_raw+1, FSR0H
	MOVF        POSTINC0+0, 0 
	MOVWF       R0 
	MOVFF       FARG_AutoLearnCalculator_raw+0, FSR1L
	MOVFF       FARG_AutoLearnCalculator_raw+1, FSR1H
	MOVLW       10
	ADDWF       R0, 0 
	MOVWF       POSTINC1+0 
;FirmV_0_7_0.c,2375 :: 		(*raw).D2CloseTime=(*raw).D2CloseTime+10;
	MOVLW       2
	ADDWF       FARG_AutoLearnCalculator_raw+0, 0 
	MOVWF       R1 
	MOVLW       0
	ADDWFC      FARG_AutoLearnCalculator_raw+1, 0 
	MOVWF       R2 
	MOVFF       R1, FSR0L
	MOVFF       R2, FSR0H
	MOVLW       10
	ADDWF       POSTINC0+0, 0 
	MOVWF       R0 
	MOVFF       R1, FSR1L
	MOVFF       R2, FSR1H
	MOVF        R0, 0 
	MOVWF       POSTINC1+0 
;FirmV_0_7_0.c,2377 :: 		(*raw).D1OpenSoftStart=4;
	MOVLW       4
	ADDWF       FARG_AutoLearnCalculator_raw+0, 0 
	MOVWF       FSR1L 
	MOVLW       0
	ADDWFC      FARG_AutoLearnCalculator_raw+1, 0 
	MOVWF       FSR1H 
	MOVLW       4
	MOVWF       POSTINC1+0 
;FirmV_0_7_0.c,2378 :: 		(*raw).D1CloseSoftStart=4;
	MOVLW       6
	ADDWF       FARG_AutoLearnCalculator_raw+0, 0 
	MOVWF       FSR1L 
	MOVLW       0
	ADDWFC      FARG_AutoLearnCalculator_raw+1, 0 
	MOVWF       FSR1H 
	MOVLW       4
	MOVWF       POSTINC1+0 
;FirmV_0_7_0.c,2379 :: 		(*raw).D2OpenSoftStart=4;
	MOVLW       8
	ADDWF       FARG_AutoLearnCalculator_raw+0, 0 
	MOVWF       FSR1L 
	MOVLW       0
	ADDWFC      FARG_AutoLearnCalculator_raw+1, 0 
	MOVWF       FSR1H 
	MOVLW       4
	MOVWF       POSTINC1+0 
;FirmV_0_7_0.c,2380 :: 		(*raw).D2CloseSoftStart=4;
	MOVLW       10
	ADDWF       FARG_AutoLearnCalculator_raw+0, 0 
	MOVWF       FSR1L 
	MOVLW       0
	ADDWFC      FARG_AutoLearnCalculator_raw+1, 0 
	MOVWF       FSR1H 
	MOVLW       4
	MOVWF       POSTINC1+0 
;FirmV_0_7_0.c,2382 :: 		(*raw).D1OpenSoftStop=10;
	MOVLW       5
	ADDWF       FARG_AutoLearnCalculator_raw+0, 0 
	MOVWF       FSR1L 
	MOVLW       0
	ADDWFC      FARG_AutoLearnCalculator_raw+1, 0 
	MOVWF       FSR1H 
	MOVLW       10
	MOVWF       POSTINC1+0 
;FirmV_0_7_0.c,2383 :: 		(*raw).D2OpenSoftStop=10;
	MOVLW       9
	ADDWF       FARG_AutoLearnCalculator_raw+0, 0 
	MOVWF       FSR1L 
	MOVLW       0
	ADDWFC      FARG_AutoLearnCalculator_raw+1, 0 
	MOVWF       FSR1H 
	MOVLW       10
	MOVWF       POSTINC1+0 
;FirmV_0_7_0.c,2384 :: 		(*raw).D1CloseSoftStop=10;
	MOVLW       7
	ADDWF       FARG_AutoLearnCalculator_raw+0, 0 
	MOVWF       FSR1L 
	MOVLW       0
	ADDWFC      FARG_AutoLearnCalculator_raw+1, 0 
	MOVWF       FSR1H 
	MOVLW       10
	MOVWF       POSTINC1+0 
;FirmV_0_7_0.c,2385 :: 		(*raw).D2CloseSoftStop=10;
	MOVLW       11
	ADDWF       FARG_AutoLearnCalculator_raw+0, 0 
	MOVWF       FSR1L 
	MOVLW       0
	ADDWFC      FARG_AutoLearnCalculator_raw+1, 0 
	MOVWF       FSR1H 
	MOVLW       10
	MOVWF       POSTINC1+0 
;FirmV_0_7_0.c,2387 :: 		}
	RETURN      0
; end of _AutoLearnCalculator

_SaveLearnData:

;FirmV_0_7_0.c,2399 :: 		void SaveLearnData(Learn *d,char DCount)
;FirmV_0_7_0.c,2401 :: 		Door1OpenTime=(*d).D1OpenTime;
	MOVLW       1
	ADDWF       FARG_SaveLearnData_d+0, 0 
	MOVWF       FSR0L 
	MOVLW       0
	ADDWFC      FARG_SaveLearnData_d+1, 0 
	MOVWF       FSR0H 
	MOVF        POSTINC0+0, 0 
	MOVWF       _Door1OpenTime+0 
;FirmV_0_7_0.c,2402 :: 		Door1CloseTime=(*d).D1CloseTime;
	MOVFF       FARG_SaveLearnData_d+0, FSR0L
	MOVFF       FARG_SaveLearnData_d+1, FSR0H
	MOVF        POSTINC0+0, 0 
	MOVWF       _Door1CloseTime+0 
;FirmV_0_7_0.c,2403 :: 		if(DCount==2)
	MOVF        FARG_SaveLearnData_DCount+0, 0 
	XORLW       2
	BTFSS       STATUS+0, 2 
	GOTO        L_SaveLearnData619
;FirmV_0_7_0.c,2405 :: 		Door2OpenTime=(*d).D2OpenTime;
	MOVLW       3
	ADDWF       FARG_SaveLearnData_d+0, 0 
	MOVWF       FSR0L 
	MOVLW       0
	ADDWFC      FARG_SaveLearnData_d+1, 0 
	MOVWF       FSR0H 
	MOVF        POSTINC0+0, 0 
	MOVWF       _Door2OpenTime+0 
;FirmV_0_7_0.c,2406 :: 		Door2CloseTime=(*d).D2CloseTime;
	MOVLW       2
	ADDWF       FARG_SaveLearnData_d+0, 0 
	MOVWF       FSR0L 
	MOVLW       0
	ADDWFC      FARG_SaveLearnData_d+1, 0 
	MOVWF       FSR0H 
	MOVF        POSTINC0+0, 0 
	MOVWF       _Door2CloseTime+0 
;FirmV_0_7_0.c,2407 :: 		OpenSoftStartTime=((*d).D1OpenSoftStart+(*d).D2OpenSoftStart)/2;
	MOVLW       4
	ADDWF       FARG_SaveLearnData_d+0, 0 
	MOVWF       FSR0L 
	MOVLW       0
	ADDWFC      FARG_SaveLearnData_d+1, 0 
	MOVWF       FSR0H 
	MOVLW       8
	ADDWF       FARG_SaveLearnData_d+0, 0 
	MOVWF       FSR2L 
	MOVLW       0
	ADDWFC      FARG_SaveLearnData_d+1, 0 
	MOVWF       FSR2H 
	MOVF        POSTINC2+0, 0 
	ADDWF       POSTINC0+0, 0 
	MOVWF       R3 
	CLRF        R4 
	MOVLW       0
	ADDWFC      R4, 1 
	MOVF        R3, 0 
	MOVWF       R0 
	MOVF        R4, 0 
	MOVWF       R1 
	RRCF        R1, 1 
	RRCF        R0, 1 
	BCF         R1, 7 
	BTFSC       R1, 6 
	BSF         R1, 7 
	MOVF        R0, 0 
	MOVWF       _OpenSoftStartTime+0 
;FirmV_0_7_0.c,2408 :: 		OpenSoftStopTime=((*d).D1OpenSoftStop+(*d).D2OpenSoftStop)/2;
	MOVLW       5
	ADDWF       FARG_SaveLearnData_d+0, 0 
	MOVWF       FSR0L 
	MOVLW       0
	ADDWFC      FARG_SaveLearnData_d+1, 0 
	MOVWF       FSR0H 
	MOVLW       9
	ADDWF       FARG_SaveLearnData_d+0, 0 
	MOVWF       FSR2L 
	MOVLW       0
	ADDWFC      FARG_SaveLearnData_d+1, 0 
	MOVWF       FSR2H 
	MOVF        POSTINC2+0, 0 
	ADDWF       POSTINC0+0, 0 
	MOVWF       R3 
	CLRF        R4 
	MOVLW       0
	ADDWFC      R4, 1 
	MOVF        R3, 0 
	MOVWF       R0 
	MOVF        R4, 0 
	MOVWF       R1 
	RRCF        R1, 1 
	RRCF        R0, 1 
	BCF         R1, 7 
	BTFSC       R1, 6 
	BSF         R1, 7 
	MOVF        R0, 0 
	MOVWF       _OpenSoftStopTime+0 
;FirmV_0_7_0.c,2409 :: 		CloseSoftStartTime=((*d).D1CloseSoftStart+(*d).D2CloseSoftStart)/2;
	MOVLW       6
	ADDWF       FARG_SaveLearnData_d+0, 0 
	MOVWF       FSR0L 
	MOVLW       0
	ADDWFC      FARG_SaveLearnData_d+1, 0 
	MOVWF       FSR0H 
	MOVLW       10
	ADDWF       FARG_SaveLearnData_d+0, 0 
	MOVWF       FSR2L 
	MOVLW       0
	ADDWFC      FARG_SaveLearnData_d+1, 0 
	MOVWF       FSR2H 
	MOVF        POSTINC2+0, 0 
	ADDWF       POSTINC0+0, 0 
	MOVWF       R3 
	CLRF        R4 
	MOVLW       0
	ADDWFC      R4, 1 
	MOVF        R3, 0 
	MOVWF       R0 
	MOVF        R4, 0 
	MOVWF       R1 
	RRCF        R1, 1 
	RRCF        R0, 1 
	BCF         R1, 7 
	BTFSC       R1, 6 
	BSF         R1, 7 
	MOVF        R0, 0 
	MOVWF       _CloseSoftStartTime+0 
;FirmV_0_7_0.c,2410 :: 		CloseSoftStopTime=((*d).D1CloseSoftStop+(*d).D2CloseSoftStop)/2;
	MOVLW       7
	ADDWF       FARG_SaveLearnData_d+0, 0 
	MOVWF       FSR0L 
	MOVLW       0
	ADDWFC      FARG_SaveLearnData_d+1, 0 
	MOVWF       FSR0H 
	MOVLW       11
	ADDWF       FARG_SaveLearnData_d+0, 0 
	MOVWF       FSR2L 
	MOVLW       0
	ADDWFC      FARG_SaveLearnData_d+1, 0 
	MOVWF       FSR2H 
	MOVF        POSTINC2+0, 0 
	ADDWF       POSTINC0+0, 0 
	MOVWF       R3 
	CLRF        R4 
	MOVLW       0
	ADDWFC      R4, 1 
	MOVF        R3, 0 
	MOVWF       R0 
	MOVF        R4, 0 
	MOVWF       R1 
	RRCF        R1, 1 
	RRCF        R0, 1 
	BCF         R1, 7 
	BTFSC       R1, 6 
	BSF         R1, 7 
	MOVF        R0, 0 
	MOVWF       _CloseSoftStopTime+0 
;FirmV_0_7_0.c,2411 :: 		}
	GOTO        L_SaveLearnData620
L_SaveLearnData619:
;FirmV_0_7_0.c,2414 :: 		Door2OpenTime=0;
	CLRF        _Door2OpenTime+0 
;FirmV_0_7_0.c,2415 :: 		Door2CloseTime=0;
	CLRF        _Door2CloseTime+0 
;FirmV_0_7_0.c,2416 :: 		OpenSoftStartTime=(*d).D1OpenSoftStart;
	MOVLW       4
	ADDWF       FARG_SaveLearnData_d+0, 0 
	MOVWF       FSR0L 
	MOVLW       0
	ADDWFC      FARG_SaveLearnData_d+1, 0 
	MOVWF       FSR0H 
	MOVF        POSTINC0+0, 0 
	MOVWF       _OpenSoftStartTime+0 
;FirmV_0_7_0.c,2417 :: 		OpenSoftStopTime=(*d).D1OpenSoftStop;
	MOVLW       5
	ADDWF       FARG_SaveLearnData_d+0, 0 
	MOVWF       FSR0L 
	MOVLW       0
	ADDWFC      FARG_SaveLearnData_d+1, 0 
	MOVWF       FSR0H 
	MOVF        POSTINC0+0, 0 
	MOVWF       _OpenSoftStopTime+0 
;FirmV_0_7_0.c,2418 :: 		CloseSoftStartTime=(*d).D1CloseSoftStart;
	MOVLW       6
	ADDWF       FARG_SaveLearnData_d+0, 0 
	MOVWF       FSR0L 
	MOVLW       0
	ADDWFC      FARG_SaveLearnData_d+1, 0 
	MOVWF       FSR0H 
	MOVF        POSTINC0+0, 0 
	MOVWF       _CloseSoftStartTime+0 
;FirmV_0_7_0.c,2419 :: 		CloseSoftStopTime=(*d).D1CloseSoftStop;
	MOVLW       7
	ADDWF       FARG_SaveLearnData_d+0, 0 
	MOVWF       FSR0L 
	MOVLW       0
	ADDWFC      FARG_SaveLearnData_d+1, 0 
	MOVWF       FSR0H 
	MOVF        POSTINC0+0, 0 
	MOVWF       _CloseSoftStopTime+0 
;FirmV_0_7_0.c,2420 :: 		}
L_SaveLearnData620:
;FirmV_0_7_0.c,2422 :: 		SaveConfigs();
	CALL        _SaveConfigs+0, 0
;FirmV_0_7_0.c,2423 :: 		}
	RETURN      0
; end of _SaveLearnData

_LearnManual:

;FirmV_0_7_0.c,2438 :: 		void LearnManual()
;FirmV_0_7_0.c,2446 :: 		switch(LearnPhase)
	GOTO        L_LearnManual621
;FirmV_0_7_0.c,2448 :: 		case 0:
L_LearnManual623:
;FirmV_0_7_0.c,2449 :: 		Flasher=1;
	BSF         PORTD+0, 7 
;FirmV_0_7_0.c,2450 :: 		FlashFlag=1;
	MOVLW       1
	MOVWF       _FlashFlag+0 
;FirmV_0_7_0.c,2451 :: 		if(Events.Remote.b0==1){LearnPhase=LearnPhase+1; DoorNo=2;}if(Events.Remote.b1==1){LearnPhase=3; DoorNo=1;}
	BTFSS       _Events+4, 0 
	GOTO        L_LearnManual624
	INCF        _LearnPhase+0, 1 
	MOVLW       2
	MOVWF       LearnManual_DoorNo_L0+0 
L_LearnManual624:
	BTFSS       _Events+4, 1 
	GOTO        L_LearnManual625
	MOVLW       3
	MOVWF       _LearnPhase+0 
	MOVLW       1
	MOVWF       LearnManual_DoorNo_L0+0 
L_LearnManual625:
;FirmV_0_7_0.c,2452 :: 		break;
	GOTO        L_LearnManual622
;FirmV_0_7_0.c,2454 :: 		case 1: //Start D2 and enable overload sensing after 1s
L_LearnManual626:
;FirmV_0_7_0.c,2455 :: 		StartMotor(2,_Close);AddTask(ms500+4,21);LearnPhase=LearnPhase+1;OverloadCheckFlag2=0;
	MOVLW       2
	MOVWF       FARG_StartMotor_Mx+0 
	CLRF        FARG_StartMotor_Dir+0 
	CALL        _StartMotor+0, 0
	MOVLW       4
	ADDWF       _ms500+0, 0 
	MOVWF       FARG_AddTask_OccTime+0 
	MOVLW       0
	ADDWFC      _ms500+1, 0 
	MOVWF       FARG_AddTask_OccTime+1 
	MOVLW       0
	ADDWFC      _ms500+2, 0 
	MOVWF       FARG_AddTask_OccTime+2 
	MOVLW       0
	ADDWFC      _ms500+3, 0 
	MOVWF       FARG_AddTask_OccTime+3 
	MOVLW       21
	MOVWF       FARG_AddTask_tcode+0 
	CALL        _AddTask+0, 0
	INCF        _LearnPhase+0, 1 
	CLRF        _OverloadCheckFlag2+0 
;FirmV_0_7_0.c,2456 :: 		break;
	GOTO        L_LearnManual622
;FirmV_0_7_0.c,2458 :: 		case 2: //Check if D2 reaches end of its course
L_LearnManual627:
;FirmV_0_7_0.c,2459 :: 		if((Events.Overload.b1==1)&&(OverloadCheckFlag2==1)){OverloadCheckFlag2=0;StopMotor(2);LearnPhase=LearnPhase+1;}
	BTFSS       _Events+5, 1 
	GOTO        L_LearnManual630
	MOVF        _OverloadCheckFlag2+0, 0 
	XORLW       1
	BTFSS       STATUS+0, 2 
	GOTO        L_LearnManual630
L__LearnManual803:
	CLRF        _OverloadCheckFlag2+0 
	MOVLW       2
	MOVWF       FARG_StopMotor_Mx+0 
	CALL        _StopMotor+0, 0
	INCF        _LearnPhase+0, 1 
L_LearnManual630:
;FirmV_0_7_0.c,2460 :: 		if(CheckTask(21))OverloadCheckFlag2=1;
	MOVLW       21
	MOVWF       FARG_CheckTask_TaskCode+0 
	CALL        _CheckTask+0, 0
	MOVF        R0, 1 
	BTFSC       STATUS+0, 2 
	GOTO        L_LearnManual631
	MOVLW       1
	MOVWF       _OverloadCheckFlag2+0 
L_LearnManual631:
;FirmV_0_7_0.c,2461 :: 		break;
	GOTO        L_LearnManual622
;FirmV_0_7_0.c,2463 :: 		case 3: //Start D1 and enable overload sensin after 1 s
L_LearnManual632:
;FirmV_0_7_0.c,2464 :: 		StartMotor(1,_Close);AddTask(ms500+4,20);LearnPhase=LearnPhase+1;;OverloadCheckFlag1=0;
	MOVLW       1
	MOVWF       FARG_StartMotor_Mx+0 
	CLRF        FARG_StartMotor_Dir+0 
	CALL        _StartMotor+0, 0
	MOVLW       4
	ADDWF       _ms500+0, 0 
	MOVWF       FARG_AddTask_OccTime+0 
	MOVLW       0
	ADDWFC      _ms500+1, 0 
	MOVWF       FARG_AddTask_OccTime+1 
	MOVLW       0
	ADDWFC      _ms500+2, 0 
	MOVWF       FARG_AddTask_OccTime+2 
	MOVLW       0
	ADDWFC      _ms500+3, 0 
	MOVWF       FARG_AddTask_OccTime+3 
	MOVLW       20
	MOVWF       FARG_AddTask_tcode+0 
	CALL        _AddTask+0, 0
	INCF        _LearnPhase+0, 1 
	CLRF        _OverloadCheckFlag1+0 
;FirmV_0_7_0.c,2466 :: 		case 4: //Check if D1 reaches end of its course
L_LearnManual633:
;FirmV_0_7_0.c,2467 :: 		if((Events.Overload.b0==1)&&(OverloadCheckFlag1==1)){OverloadCheckFlag1=0;StopMotor(1);LearnPhase=LearnPhase+1;}
	BTFSS       _Events+5, 0 
	GOTO        L_LearnManual636
	MOVF        _OverloadCheckFlag1+0, 0 
	XORLW       1
	BTFSS       STATUS+0, 2 
	GOTO        L_LearnManual636
L__LearnManual802:
	CLRF        _OverloadCheckFlag1+0 
	MOVLW       1
	MOVWF       FARG_StopMotor_Mx+0 
	CALL        _StopMotor+0, 0
	INCF        _LearnPhase+0, 1 
L_LearnManual636:
;FirmV_0_7_0.c,2468 :: 		if(CheckTask(20))OverloadCheckFlag1=1;
	MOVLW       20
	MOVWF       FARG_CheckTask_TaskCode+0 
	CALL        _CheckTask+0, 0
	MOVF        R0, 1 
	BTFSC       STATUS+0, 2 
	GOTO        L_LearnManual637
	MOVLW       1
	MOVWF       _OverloadCheckFlag1+0 
L_LearnManual637:
;FirmV_0_7_0.c,2469 :: 		break;
	GOTO        L_LearnManual622
;FirmV_0_7_0.c,2471 :: 		case 5: //Wait for remote to start D1 and slow down
L_LearnManual638:
;FirmV_0_7_0.c,2472 :: 		if(Events.Remote!=0){t1=ms500;StartMotor(1,_Open);SetMotorSpeed(0,Motor2FullSpeed);M1isSlow=1;LearnPhase=LearnPhase+1;}
	MOVF        _Events+4, 0 
	XORLW       0
	BTFSC       STATUS+0, 2 
	GOTO        L_LearnManual639
	MOVF        _ms500+0, 0 
	MOVWF       LearnManual_t1_L0+0 
	MOVF        _ms500+1, 0 
	MOVWF       LearnManual_t1_L0+1 
	MOVF        _ms500+2, 0 
	MOVWF       LearnManual_t1_L0+2 
	MOVF        _ms500+3, 0 
	MOVWF       LearnManual_t1_L0+3 
	MOVLW       1
	MOVWF       FARG_StartMotor_Mx+0 
	MOVLW       1
	MOVWF       FARG_StartMotor_Dir+0 
	CALL        _StartMotor+0, 0
	CLRF        FARG_SetMotorSpeed_M1FullSpeed+0 
	MOVF        _Motor2FullSpeed+0, 0 
	MOVWF       FARG_SetMotorSpeed_M2FullSpeed+0 
	CALL        _SetMotorSpeed+0, 0
	MOVLW       1
	MOVWF       _M1isSlow+0 
	INCF        _LearnPhase+0, 1 
L_LearnManual639:
;FirmV_0_7_0.c,2473 :: 		break;
	GOTO        L_LearnManual622
;FirmV_0_7_0.c,2475 :: 		case 6: //check for Remote press and fast up
L_LearnManual640:
;FirmV_0_7_0.c,2476 :: 		if(Events.Remote!=0){LearnPhase=LearnPhase+1;t2=ms500;SetMotorSpeed(1,Motor2FullSpeed);M1isSlow=0;}
	MOVF        _Events+4, 0 
	XORLW       0
	BTFSC       STATUS+0, 2 
	GOTO        L_LearnManual641
	INCF        _LearnPhase+0, 1 
	MOVF        _ms500+0, 0 
	MOVWF       LearnManual_t2_L0+0 
	MOVF        _ms500+1, 0 
	MOVWF       LearnManual_t2_L0+1 
	MOVF        _ms500+2, 0 
	MOVWF       LearnManual_t2_L0+2 
	MOVF        _ms500+3, 0 
	MOVWF       LearnManual_t2_L0+3 
	MOVLW       1
	MOVWF       FARG_SetMotorSpeed_M1FullSpeed+0 
	MOVF        _Motor2FullSpeed+0, 0 
	MOVWF       FARG_SetMotorSpeed_M2FullSpeed+0 
	CALL        _SetMotorSpeed+0, 0
	CLRF        _M1isSlow+0 
L_LearnManual641:
;FirmV_0_7_0.c,2477 :: 		break;
	GOTO        L_LearnManual622
;FirmV_0_7_0.c,2479 :: 		case 7: //check for Remote press and slow down
L_LearnManual642:
;FirmV_0_7_0.c,2480 :: 		if(Events.Remote!=0){LearnPhase=LearnPhase+1;t3=ms500;SetMotorSpeed(0,Motor2FullSpeed);M1isSlow=1;}
	MOVF        _Events+4, 0 
	XORLW       0
	BTFSC       STATUS+0, 2 
	GOTO        L_LearnManual643
	INCF        _LearnPhase+0, 1 
	MOVF        _ms500+0, 0 
	MOVWF       LearnManual_t3_L0+0 
	MOVF        _ms500+1, 0 
	MOVWF       LearnManual_t3_L0+1 
	MOVF        _ms500+2, 0 
	MOVWF       LearnManual_t3_L0+2 
	MOVF        _ms500+3, 0 
	MOVWF       LearnManual_t3_L0+3 
	CLRF        FARG_SetMotorSpeed_M1FullSpeed+0 
	MOVF        _Motor2FullSpeed+0, 0 
	MOVWF       FARG_SetMotorSpeed_M2FullSpeed+0 
	CALL        _SetMotorSpeed+0, 0
	MOVLW       1
	MOVWF       _M1isSlow+0 
L_LearnManual643:
;FirmV_0_7_0.c,2481 :: 		break;
	GOTO        L_LearnManual622
;FirmV_0_7_0.c,2483 :: 		case 8: //check for Remote press and stop
L_LearnManual644:
;FirmV_0_7_0.c,2484 :: 		if(Events.Remote!=0){if(DoorNo==2)LearnPhase=LearnPhase+1;else LearnPhase=17;t4=ms500;StopMotor(1);
	MOVF        _Events+4, 0 
	XORLW       0
	BTFSC       STATUS+0, 2 
	GOTO        L_LearnManual645
	MOVF        LearnManual_DoorNo_L0+0, 0 
	XORLW       2
	BTFSS       STATUS+0, 2 
	GOTO        L_LearnManual646
	INCF        _LearnPhase+0, 1 
	GOTO        L_LearnManual647
L_LearnManual646:
	MOVLW       17
	MOVWF       _LearnPhase+0 
L_LearnManual647:
	MOVF        _ms500+0, 0 
	MOVWF       LearnManual_t4_L0+0 
	MOVF        _ms500+1, 0 
	MOVWF       LearnManual_t4_L0+1 
	MOVF        _ms500+2, 0 
	MOVWF       LearnManual_t4_L0+2 
	MOVF        _ms500+3, 0 
	MOVWF       LearnManual_t4_L0+3 
	MOVLW       1
	MOVWF       FARG_StopMotor_Mx+0 
	CALL        _StopMotor+0, 0
;FirmV_0_7_0.c,2485 :: 		RawData.D1OpenTime=(char)(t4-t1);
	MOVF        LearnManual_t1_L0+0, 0 
	SUBWF       LearnManual_t4_L0+0, 0 
	MOVWF       R0 
	MOVF        R0, 0 
	MOVWF       LearnManual_RawData_L0+1 
;FirmV_0_7_0.c,2486 :: 		RawData.D1OpenSoftStart=(char)(t2-t1);
	MOVF        LearnManual_t1_L0+0, 0 
	SUBWF       LearnManual_t2_L0+0, 0 
	MOVWF       R0 
	MOVF        R0, 0 
	MOVWF       LearnManual_RawData_L0+4 
;FirmV_0_7_0.c,2487 :: 		RawData.D1OpenSoftStop=(char)(t4-t3);
	MOVF        LearnManual_t3_L0+0, 0 
	SUBWF       LearnManual_t4_L0+0, 0 
	MOVWF       R0 
	MOVF        R0, 0 
	MOVWF       LearnManual_RawData_L0+5 
;FirmV_0_7_0.c,2488 :: 		}
L_LearnManual645:
;FirmV_0_7_0.c,2489 :: 		break;
	GOTO        L_LearnManual622
;FirmV_0_7_0.c,2491 :: 		case 9: //Wait for remote to start D2 and slow down
L_LearnManual648:
;FirmV_0_7_0.c,2492 :: 		if(Events.Remote!=0){t1=ms500;StartMotor(2,_Open);SetMotorSpeed(Motor1FullSpeed,0);M2isSlow=1;LearnPhase=LearnPhase+1;}
	MOVF        _Events+4, 0 
	XORLW       0
	BTFSC       STATUS+0, 2 
	GOTO        L_LearnManual649
	MOVF        _ms500+0, 0 
	MOVWF       LearnManual_t1_L0+0 
	MOVF        _ms500+1, 0 
	MOVWF       LearnManual_t1_L0+1 
	MOVF        _ms500+2, 0 
	MOVWF       LearnManual_t1_L0+2 
	MOVF        _ms500+3, 0 
	MOVWF       LearnManual_t1_L0+3 
	MOVLW       2
	MOVWF       FARG_StartMotor_Mx+0 
	MOVLW       1
	MOVWF       FARG_StartMotor_Dir+0 
	CALL        _StartMotor+0, 0
	MOVF        _Motor1FullSpeed+0, 0 
	MOVWF       FARG_SetMotorSpeed_M1FullSpeed+0 
	CLRF        FARG_SetMotorSpeed_M2FullSpeed+0 
	CALL        _SetMotorSpeed+0, 0
	MOVLW       1
	MOVWF       _M2isSlow+0 
	INCF        _LearnPhase+0, 1 
L_LearnManual649:
;FirmV_0_7_0.c,2493 :: 		break;
	GOTO        L_LearnManual622
;FirmV_0_7_0.c,2495 :: 		case 10: //check for Remote press and fast up
L_LearnManual650:
;FirmV_0_7_0.c,2496 :: 		if(Events.Remote!=0){LearnPhase=LearnPhase+1;t2=ms500;SetMotorSpeed(Motor1FullSpeed,1);M2isSlow=0;}
	MOVF        _Events+4, 0 
	XORLW       0
	BTFSC       STATUS+0, 2 
	GOTO        L_LearnManual651
	INCF        _LearnPhase+0, 1 
	MOVF        _ms500+0, 0 
	MOVWF       LearnManual_t2_L0+0 
	MOVF        _ms500+1, 0 
	MOVWF       LearnManual_t2_L0+1 
	MOVF        _ms500+2, 0 
	MOVWF       LearnManual_t2_L0+2 
	MOVF        _ms500+3, 0 
	MOVWF       LearnManual_t2_L0+3 
	MOVF        _Motor1FullSpeed+0, 0 
	MOVWF       FARG_SetMotorSpeed_M1FullSpeed+0 
	MOVLW       1
	MOVWF       FARG_SetMotorSpeed_M2FullSpeed+0 
	CALL        _SetMotorSpeed+0, 0
	CLRF        _M2isSlow+0 
L_LearnManual651:
;FirmV_0_7_0.c,2497 :: 		break;
	GOTO        L_LearnManual622
;FirmV_0_7_0.c,2499 :: 		case 11: //check for Remote press and slow down
L_LearnManual652:
;FirmV_0_7_0.c,2500 :: 		if(Events.Remote!=0){LearnPhase=LearnPhase+1;t3=ms500;SetMotorSpeed(Motor1FullSpeed,0);M2isSlow=1;}
	MOVF        _Events+4, 0 
	XORLW       0
	BTFSC       STATUS+0, 2 
	GOTO        L_LearnManual653
	INCF        _LearnPhase+0, 1 
	MOVF        _ms500+0, 0 
	MOVWF       LearnManual_t3_L0+0 
	MOVF        _ms500+1, 0 
	MOVWF       LearnManual_t3_L0+1 
	MOVF        _ms500+2, 0 
	MOVWF       LearnManual_t3_L0+2 
	MOVF        _ms500+3, 0 
	MOVWF       LearnManual_t3_L0+3 
	MOVF        _Motor1FullSpeed+0, 0 
	MOVWF       FARG_SetMotorSpeed_M1FullSpeed+0 
	CLRF        FARG_SetMotorSpeed_M2FullSpeed+0 
	CALL        _SetMotorSpeed+0, 0
	MOVLW       1
	MOVWF       _M2isSlow+0 
L_LearnManual653:
;FirmV_0_7_0.c,2501 :: 		break;
	GOTO        L_LearnManual622
;FirmV_0_7_0.c,2503 :: 		case 12: //check for Remote press and stop
L_LearnManual654:
;FirmV_0_7_0.c,2504 :: 		if(Events.Remote!=0){LearnPhase=LearnPhase+1;t4=ms500;StopMotor(2);
	MOVF        _Events+4, 0 
	XORLW       0
	BTFSC       STATUS+0, 2 
	GOTO        L_LearnManual655
	INCF        _LearnPhase+0, 1 
	MOVF        _ms500+0, 0 
	MOVWF       LearnManual_t4_L0+0 
	MOVF        _ms500+1, 0 
	MOVWF       LearnManual_t4_L0+1 
	MOVF        _ms500+2, 0 
	MOVWF       LearnManual_t4_L0+2 
	MOVF        _ms500+3, 0 
	MOVWF       LearnManual_t4_L0+3 
	MOVLW       2
	MOVWF       FARG_StopMotor_Mx+0 
	CALL        _StopMotor+0, 0
;FirmV_0_7_0.c,2505 :: 		RawData.D2OpenTime=(char)(t4-t1);
	MOVF        LearnManual_t1_L0+0, 0 
	SUBWF       LearnManual_t4_L0+0, 0 
	MOVWF       R0 
	MOVF        R0, 0 
	MOVWF       LearnManual_RawData_L0+3 
;FirmV_0_7_0.c,2506 :: 		RawData.D2OpenSoftStart=(char)(t2-t1);
	MOVF        LearnManual_t1_L0+0, 0 
	SUBWF       LearnManual_t2_L0+0, 0 
	MOVWF       R0 
	MOVF        R0, 0 
	MOVWF       LearnManual_RawData_L0+8 
;FirmV_0_7_0.c,2507 :: 		RawData.D2OpenSoftStop=(char)(t4-t3);
	MOVF        LearnManual_t3_L0+0, 0 
	SUBWF       LearnManual_t4_L0+0, 0 
	MOVWF       R0 
	MOVF        R0, 0 
	MOVWF       LearnManual_RawData_L0+9 
;FirmV_0_7_0.c,2508 :: 		}
L_LearnManual655:
;FirmV_0_7_0.c,2509 :: 		break;
	GOTO        L_LearnManual622
;FirmV_0_7_0.c,2511 :: 		case 13: //Wait for remote to start D2 and slow down
L_LearnManual656:
;FirmV_0_7_0.c,2512 :: 		if(Events.Remote!=0){t1=ms500;StartMotor(2,_Close);SetMotorSpeed(Motor1FullSpeed,0);M2isSlow=1;LearnPhase=LearnPhase+1;}
	MOVF        _Events+4, 0 
	XORLW       0
	BTFSC       STATUS+0, 2 
	GOTO        L_LearnManual657
	MOVF        _ms500+0, 0 
	MOVWF       LearnManual_t1_L0+0 
	MOVF        _ms500+1, 0 
	MOVWF       LearnManual_t1_L0+1 
	MOVF        _ms500+2, 0 
	MOVWF       LearnManual_t1_L0+2 
	MOVF        _ms500+3, 0 
	MOVWF       LearnManual_t1_L0+3 
	MOVLW       2
	MOVWF       FARG_StartMotor_Mx+0 
	CLRF        FARG_StartMotor_Dir+0 
	CALL        _StartMotor+0, 0
	MOVF        _Motor1FullSpeed+0, 0 
	MOVWF       FARG_SetMotorSpeed_M1FullSpeed+0 
	CLRF        FARG_SetMotorSpeed_M2FullSpeed+0 
	CALL        _SetMotorSpeed+0, 0
	MOVLW       1
	MOVWF       _M2isSlow+0 
	INCF        _LearnPhase+0, 1 
L_LearnManual657:
;FirmV_0_7_0.c,2513 :: 		break;
	GOTO        L_LearnManual622
;FirmV_0_7_0.c,2515 :: 		case 14: //check for Remote press and fast up
L_LearnManual658:
;FirmV_0_7_0.c,2516 :: 		if(Events.Remote!=0){LearnPhase=LearnPhase+1;t2=ms500;SetMotorSpeed(Motor1FullSpeed,1);M2isSlow=0;}
	MOVF        _Events+4, 0 
	XORLW       0
	BTFSC       STATUS+0, 2 
	GOTO        L_LearnManual659
	INCF        _LearnPhase+0, 1 
	MOVF        _ms500+0, 0 
	MOVWF       LearnManual_t2_L0+0 
	MOVF        _ms500+1, 0 
	MOVWF       LearnManual_t2_L0+1 
	MOVF        _ms500+2, 0 
	MOVWF       LearnManual_t2_L0+2 
	MOVF        _ms500+3, 0 
	MOVWF       LearnManual_t2_L0+3 
	MOVF        _Motor1FullSpeed+0, 0 
	MOVWF       FARG_SetMotorSpeed_M1FullSpeed+0 
	MOVLW       1
	MOVWF       FARG_SetMotorSpeed_M2FullSpeed+0 
	CALL        _SetMotorSpeed+0, 0
	CLRF        _M2isSlow+0 
L_LearnManual659:
;FirmV_0_7_0.c,2517 :: 		break;
	GOTO        L_LearnManual622
;FirmV_0_7_0.c,2519 :: 		case 15: //check for Remote press and slow down
L_LearnManual660:
;FirmV_0_7_0.c,2520 :: 		if(Events.Remote!=0){LearnPhase=LearnPhase+1;t3=ms500;SetMotorSpeed(Motor1FullSpeed,0);M2isSlow=1;}
	MOVF        _Events+4, 0 
	XORLW       0
	BTFSC       STATUS+0, 2 
	GOTO        L_LearnManual661
	INCF        _LearnPhase+0, 1 
	MOVF        _ms500+0, 0 
	MOVWF       LearnManual_t3_L0+0 
	MOVF        _ms500+1, 0 
	MOVWF       LearnManual_t3_L0+1 
	MOVF        _ms500+2, 0 
	MOVWF       LearnManual_t3_L0+2 
	MOVF        _ms500+3, 0 
	MOVWF       LearnManual_t3_L0+3 
	MOVF        _Motor1FullSpeed+0, 0 
	MOVWF       FARG_SetMotorSpeed_M1FullSpeed+0 
	CLRF        FARG_SetMotorSpeed_M2FullSpeed+0 
	CALL        _SetMotorSpeed+0, 0
	MOVLW       1
	MOVWF       _M2isSlow+0 
L_LearnManual661:
;FirmV_0_7_0.c,2521 :: 		break;
	GOTO        L_LearnManual622
;FirmV_0_7_0.c,2523 :: 		case 16: //check for Remote press and stop
L_LearnManual662:
;FirmV_0_7_0.c,2524 :: 		if(Events.Remote!=0){LearnPhase=LearnPhase+1;t4=ms500;StopMotor(2);
	MOVF        _Events+4, 0 
	XORLW       0
	BTFSC       STATUS+0, 2 
	GOTO        L_LearnManual663
	INCF        _LearnPhase+0, 1 
	MOVF        _ms500+0, 0 
	MOVWF       LearnManual_t4_L0+0 
	MOVF        _ms500+1, 0 
	MOVWF       LearnManual_t4_L0+1 
	MOVF        _ms500+2, 0 
	MOVWF       LearnManual_t4_L0+2 
	MOVF        _ms500+3, 0 
	MOVWF       LearnManual_t4_L0+3 
	MOVLW       2
	MOVWF       FARG_StopMotor_Mx+0 
	CALL        _StopMotor+0, 0
;FirmV_0_7_0.c,2525 :: 		RawData.D2CloseTime=(char)(t4-t1);
	MOVF        LearnManual_t1_L0+0, 0 
	SUBWF       LearnManual_t4_L0+0, 0 
	MOVWF       R0 
	MOVF        R0, 0 
	MOVWF       LearnManual_RawData_L0+2 
;FirmV_0_7_0.c,2526 :: 		RawData.D2CloseSoftStart=(char)(t2-t1);
	MOVF        LearnManual_t1_L0+0, 0 
	SUBWF       LearnManual_t2_L0+0, 0 
	MOVWF       R0 
	MOVF        R0, 0 
	MOVWF       LearnManual_RawData_L0+10 
;FirmV_0_7_0.c,2527 :: 		RawData.D2CloseSoftStop=(char)(t4-t3);
	MOVF        LearnManual_t3_L0+0, 0 
	SUBWF       LearnManual_t4_L0+0, 0 
	MOVWF       R0 
	MOVF        R0, 0 
	MOVWF       LearnManual_RawData_L0+11 
;FirmV_0_7_0.c,2528 :: 		}
L_LearnManual663:
;FirmV_0_7_0.c,2529 :: 		break;
	GOTO        L_LearnManual622
;FirmV_0_7_0.c,2531 :: 		case 17: //Wait for remote to start D1 and slow down
L_LearnManual664:
;FirmV_0_7_0.c,2532 :: 		if(Events.Remote!=0){t1=ms500;StartMotor(1,_Close);SetMotorSpeed(0,Motor2FullSpeed);M1isSlow=1;LearnPhase=LearnPhase+1;}
	MOVF        _Events+4, 0 
	XORLW       0
	BTFSC       STATUS+0, 2 
	GOTO        L_LearnManual665
	MOVF        _ms500+0, 0 
	MOVWF       LearnManual_t1_L0+0 
	MOVF        _ms500+1, 0 
	MOVWF       LearnManual_t1_L0+1 
	MOVF        _ms500+2, 0 
	MOVWF       LearnManual_t1_L0+2 
	MOVF        _ms500+3, 0 
	MOVWF       LearnManual_t1_L0+3 
	MOVLW       1
	MOVWF       FARG_StartMotor_Mx+0 
	CLRF        FARG_StartMotor_Dir+0 
	CALL        _StartMotor+0, 0
	CLRF        FARG_SetMotorSpeed_M1FullSpeed+0 
	MOVF        _Motor2FullSpeed+0, 0 
	MOVWF       FARG_SetMotorSpeed_M2FullSpeed+0 
	CALL        _SetMotorSpeed+0, 0
	MOVLW       1
	MOVWF       _M1isSlow+0 
	INCF        _LearnPhase+0, 1 
L_LearnManual665:
;FirmV_0_7_0.c,2533 :: 		break;
	GOTO        L_LearnManual622
;FirmV_0_7_0.c,2535 :: 		case 18: //check for Remote press and fast up
L_LearnManual666:
;FirmV_0_7_0.c,2536 :: 		if(Events.Remote!=0){LearnPhase=LearnPhase+1;t2=ms500;SetMotorSpeed(1,Motor2FullSpeed);M1isSlow=0;}
	MOVF        _Events+4, 0 
	XORLW       0
	BTFSC       STATUS+0, 2 
	GOTO        L_LearnManual667
	INCF        _LearnPhase+0, 1 
	MOVF        _ms500+0, 0 
	MOVWF       LearnManual_t2_L0+0 
	MOVF        _ms500+1, 0 
	MOVWF       LearnManual_t2_L0+1 
	MOVF        _ms500+2, 0 
	MOVWF       LearnManual_t2_L0+2 
	MOVF        _ms500+3, 0 
	MOVWF       LearnManual_t2_L0+3 
	MOVLW       1
	MOVWF       FARG_SetMotorSpeed_M1FullSpeed+0 
	MOVF        _Motor2FullSpeed+0, 0 
	MOVWF       FARG_SetMotorSpeed_M2FullSpeed+0 
	CALL        _SetMotorSpeed+0, 0
	CLRF        _M1isSlow+0 
L_LearnManual667:
;FirmV_0_7_0.c,2537 :: 		break;
	GOTO        L_LearnManual622
;FirmV_0_7_0.c,2539 :: 		case 19: //check for Remote press and slow down
L_LearnManual668:
;FirmV_0_7_0.c,2540 :: 		if(Events.Remote!=0){LearnPhase=LearnPhase+1;t3=ms500;SetMotorSpeed(0,Motor2FullSpeed);M1isSlow=1;}
	MOVF        _Events+4, 0 
	XORLW       0
	BTFSC       STATUS+0, 2 
	GOTO        L_LearnManual669
	INCF        _LearnPhase+0, 1 
	MOVF        _ms500+0, 0 
	MOVWF       LearnManual_t3_L0+0 
	MOVF        _ms500+1, 0 
	MOVWF       LearnManual_t3_L0+1 
	MOVF        _ms500+2, 0 
	MOVWF       LearnManual_t3_L0+2 
	MOVF        _ms500+3, 0 
	MOVWF       LearnManual_t3_L0+3 
	CLRF        FARG_SetMotorSpeed_M1FullSpeed+0 
	MOVF        _Motor2FullSpeed+0, 0 
	MOVWF       FARG_SetMotorSpeed_M2FullSpeed+0 
	CALL        _SetMotorSpeed+0, 0
	MOVLW       1
	MOVWF       _M1isSlow+0 
L_LearnManual669:
;FirmV_0_7_0.c,2541 :: 		break;
	GOTO        L_LearnManual622
;FirmV_0_7_0.c,2543 :: 		case 20: //check for Remote press and stop
L_LearnManual670:
;FirmV_0_7_0.c,2544 :: 		if(Events.Remote!=0){LearnPhase=LearnPhase+1;t4=ms500;StopMotor(1);
	MOVF        _Events+4, 0 
	XORLW       0
	BTFSC       STATUS+0, 2 
	GOTO        L_LearnManual671
	INCF        _LearnPhase+0, 1 
	MOVF        _ms500+0, 0 
	MOVWF       LearnManual_t4_L0+0 
	MOVF        _ms500+1, 0 
	MOVWF       LearnManual_t4_L0+1 
	MOVF        _ms500+2, 0 
	MOVWF       LearnManual_t4_L0+2 
	MOVF        _ms500+3, 0 
	MOVWF       LearnManual_t4_L0+3 
	MOVLW       1
	MOVWF       FARG_StopMotor_Mx+0 
	CALL        _StopMotor+0, 0
;FirmV_0_7_0.c,2545 :: 		RawData.D1CloseTime=(char)(t4-t1);
	MOVF        LearnManual_t1_L0+0, 0 
	SUBWF       LearnManual_t4_L0+0, 0 
	MOVWF       R0 
	MOVF        R0, 0 
	MOVWF       LearnManual_RawData_L0+0 
;FirmV_0_7_0.c,2546 :: 		RawData.D1CloseSoftStart=(char)(t2-t1);
	MOVF        LearnManual_t1_L0+0, 0 
	SUBWF       LearnManual_t2_L0+0, 0 
	MOVWF       R0 
	MOVF        R0, 0 
	MOVWF       LearnManual_RawData_L0+6 
;FirmV_0_7_0.c,2547 :: 		RawData.D1CloseSoftStop=(char)(t4-t3);
	MOVF        LearnManual_t3_L0+0, 0 
	SUBWF       LearnManual_t4_L0+0, 0 
	MOVWF       R0 
	MOVF        R0, 0 
	MOVWF       LearnManual_RawData_L0+7 
;FirmV_0_7_0.c,2548 :: 		}
L_LearnManual671:
;FirmV_0_7_0.c,2549 :: 		break;
	GOTO        L_LearnManual622
;FirmV_0_7_0.c,2551 :: 		case 21:
L_LearnManual672:
;FirmV_0_7_0.c,2552 :: 		SaveLearnData(&RawData,DoorNo);
	MOVLW       LearnManual_RawData_L0+0
	MOVWF       FARG_SaveLearnData_d+0 
	MOVLW       hi_addr(LearnManual_RawData_L0+0)
	MOVWF       FARG_SaveLearnData_d+1 
	MOVF        LearnManual_DoorNo_L0+0, 0 
	MOVWF       FARG_SaveLearnData_DCount+0 
	CALL        _SaveLearnData+0, 0
;FirmV_0_7_0.c,2553 :: 		memcpy(LCDLine1," Learn Complete ",16);
	MOVLW       _LCDLine1+0
	MOVWF       FARG_memcpy_d1+0 
	MOVLW       hi_addr(_LCDLine1+0)
	MOVWF       FARG_memcpy_d1+1 
	MOVLW       ?ICS?lstr99_FirmV_0_7_0+0
	MOVWF       TBLPTRL 
	MOVLW       hi_addr(?ICS?lstr99_FirmV_0_7_0+0)
	MOVWF       TBLPTRH 
	MOVLW       higher_addr(?ICS?lstr99_FirmV_0_7_0+0)
	MOVWF       TBLPTRU 
	MOVLW       ?lstr99_FirmV_0_7_0+0
	MOVWF       FSR1L 
	MOVLW       hi_addr(?lstr99_FirmV_0_7_0+0)
	MOVWF       FSR1H 
	MOVLW       17
	MOVWF       R0 
	MOVLW       1
	MOVWF       R1 
	CALL        ___CC2DW+0, 0
	MOVLW       ?lstr99_FirmV_0_7_0+0
	MOVWF       FARG_memcpy_s1+0 
	MOVLW       hi_addr(?lstr99_FirmV_0_7_0+0)
	MOVWF       FARG_memcpy_s1+1 
	MOVLW       16
	MOVWF       FARG_memcpy_n+0 
	MOVLW       0
	MOVWF       FARG_memcpy_n+1 
	CALL        _memcpy+0, 0
;FirmV_0_7_0.c,2554 :: 		memcpy(LCDLine2,"     Ready      ",16);
	MOVLW       _LCDLine2+0
	MOVWF       FARG_memcpy_d1+0 
	MOVLW       hi_addr(_LCDLine2+0)
	MOVWF       FARG_memcpy_d1+1 
	MOVLW       ?ICS?lstr100_FirmV_0_7_0+0
	MOVWF       TBLPTRL 
	MOVLW       hi_addr(?ICS?lstr100_FirmV_0_7_0+0)
	MOVWF       TBLPTRH 
	MOVLW       higher_addr(?ICS?lstr100_FirmV_0_7_0+0)
	MOVWF       TBLPTRU 
	MOVLW       ?lstr100_FirmV_0_7_0+0
	MOVWF       FSR1L 
	MOVLW       hi_addr(?lstr100_FirmV_0_7_0+0)
	MOVWF       FSR1H 
	MOVLW       17
	MOVWF       R0 
	MOVLW       1
	MOVWF       R1 
	CALL        ___CC2DW+0, 0
	MOVLW       ?lstr100_FirmV_0_7_0+0
	MOVWF       FARG_memcpy_s1+0 
	MOVLW       hi_addr(?lstr100_FirmV_0_7_0+0)
	MOVWF       FARG_memcpy_s1+1 
	MOVLW       16
	MOVWF       FARG_memcpy_n+0 
	MOVLW       0
	MOVWF       FARG_memcpy_n+1 
	CALL        _memcpy+0, 0
;FirmV_0_7_0.c,2555 :: 		LCDLines=2;
	MOVLW       2
	MOVWF       _LCDLines+0 
;FirmV_0_7_0.c,2556 :: 		LCDUpdateFlag=1;
	MOVLW       1
	MOVWF       _LCDUpdateFlag+0 
;FirmV_0_7_0.c,2557 :: 		Flasher=0;
	BCF         PORTD+0, 7 
;FirmV_0_7_0.c,2558 :: 		FlashFlag=0;
	CLRF        _FlashFlag+0 
;FirmV_0_7_0.c,2559 :: 		State=0;
	CLRF        _State+0 
;FirmV_0_7_0.c,2560 :: 		break;
	GOTO        L_LearnManual622
;FirmV_0_7_0.c,2561 :: 		}
L_LearnManual621:
	MOVF        _LearnPhase+0, 0 
	XORLW       0
	BTFSC       STATUS+0, 2 
	GOTO        L_LearnManual623
	MOVF        _LearnPhase+0, 0 
	XORLW       1
	BTFSC       STATUS+0, 2 
	GOTO        L_LearnManual626
	MOVF        _LearnPhase+0, 0 
	XORLW       2
	BTFSC       STATUS+0, 2 
	GOTO        L_LearnManual627
	MOVF        _LearnPhase+0, 0 
	XORLW       3
	BTFSC       STATUS+0, 2 
	GOTO        L_LearnManual632
	MOVF        _LearnPhase+0, 0 
	XORLW       4
	BTFSC       STATUS+0, 2 
	GOTO        L_LearnManual633
	MOVF        _LearnPhase+0, 0 
	XORLW       5
	BTFSC       STATUS+0, 2 
	GOTO        L_LearnManual638
	MOVF        _LearnPhase+0, 0 
	XORLW       6
	BTFSC       STATUS+0, 2 
	GOTO        L_LearnManual640
	MOVF        _LearnPhase+0, 0 
	XORLW       7
	BTFSC       STATUS+0, 2 
	GOTO        L_LearnManual642
	MOVF        _LearnPhase+0, 0 
	XORLW       8
	BTFSC       STATUS+0, 2 
	GOTO        L_LearnManual644
	MOVF        _LearnPhase+0, 0 
	XORLW       9
	BTFSC       STATUS+0, 2 
	GOTO        L_LearnManual648
	MOVF        _LearnPhase+0, 0 
	XORLW       10
	BTFSC       STATUS+0, 2 
	GOTO        L_LearnManual650
	MOVF        _LearnPhase+0, 0 
	XORLW       11
	BTFSC       STATUS+0, 2 
	GOTO        L_LearnManual652
	MOVF        _LearnPhase+0, 0 
	XORLW       12
	BTFSC       STATUS+0, 2 
	GOTO        L_LearnManual654
	MOVF        _LearnPhase+0, 0 
	XORLW       13
	BTFSC       STATUS+0, 2 
	GOTO        L_LearnManual656
	MOVF        _LearnPhase+0, 0 
	XORLW       14
	BTFSC       STATUS+0, 2 
	GOTO        L_LearnManual658
	MOVF        _LearnPhase+0, 0 
	XORLW       15
	BTFSC       STATUS+0, 2 
	GOTO        L_LearnManual660
	MOVF        _LearnPhase+0, 0 
	XORLW       16
	BTFSC       STATUS+0, 2 
	GOTO        L_LearnManual662
	MOVF        _LearnPhase+0, 0 
	XORLW       17
	BTFSC       STATUS+0, 2 
	GOTO        L_LearnManual664
	MOVF        _LearnPhase+0, 0 
	XORLW       18
	BTFSC       STATUS+0, 2 
	GOTO        L_LearnManual666
	MOVF        _LearnPhase+0, 0 
	XORLW       19
	BTFSC       STATUS+0, 2 
	GOTO        L_LearnManual668
	MOVF        _LearnPhase+0, 0 
	XORLW       20
	BTFSC       STATUS+0, 2 
	GOTO        L_LearnManual670
	MOVF        _LearnPhase+0, 0 
	XORLW       21
	BTFSC       STATUS+0, 2 
	GOTO        L_LearnManual672
L_LearnManual622:
;FirmV_0_7_0.c,2562 :: 		}
	RETURN      0
; end of _LearnManual

_charValueToStr:

;FirmV_0_7_0.c,2583 :: 		void charValueToStr(char val, char * string)
;FirmV_0_7_0.c,2585 :: 		bytetostr(val>>1,string);
	MOVF        FARG_charValueToStr_val+0, 0 
	MOVWF       FARG_ByteToStr_input+0 
	RRCF        FARG_ByteToStr_input+0, 1 
	BCF         FARG_ByteToStr_input+0, 7 
	MOVF        FARG_charValueToStr_string+0, 0 
	MOVWF       FARG_ByteToStr_output+0 
	MOVF        FARG_charValueToStr_string+1, 0 
	MOVWF       FARG_ByteToStr_output+1 
	CALL        _ByteToStr+0, 0
;FirmV_0_7_0.c,2586 :: 		if((val%2)==1)
	MOVLW       1
	ANDWF       FARG_charValueToStr_val+0, 0 
	MOVWF       R1 
	MOVF        R1, 0 
	XORLW       1
	BTFSS       STATUS+0, 2 
	GOTO        L_charValueToStr673
;FirmV_0_7_0.c,2587 :: 		memcpy(string+3,".5s",4);
	MOVLW       3
	ADDWF       FARG_charValueToStr_string+0, 0 
	MOVWF       FARG_memcpy_d1+0 
	MOVLW       0
	ADDWFC      FARG_charValueToStr_string+1, 0 
	MOVWF       FARG_memcpy_d1+1 
	MOVLW       46
	MOVWF       ?lstr101_FirmV_0_7_0+0 
	MOVLW       53
	MOVWF       ?lstr101_FirmV_0_7_0+1 
	MOVLW       115
	MOVWF       ?lstr101_FirmV_0_7_0+2 
	CLRF        ?lstr101_FirmV_0_7_0+3 
	MOVLW       ?lstr101_FirmV_0_7_0+0
	MOVWF       FARG_memcpy_s1+0 
	MOVLW       hi_addr(?lstr101_FirmV_0_7_0+0)
	MOVWF       FARG_memcpy_s1+1 
	MOVLW       4
	MOVWF       FARG_memcpy_n+0 
	MOVLW       0
	MOVWF       FARG_memcpy_n+1 
	CALL        _memcpy+0, 0
	GOTO        L_charValueToStr674
L_charValueToStr673:
;FirmV_0_7_0.c,2589 :: 		memcpy(string+3,"s  ",4);
	MOVLW       3
	ADDWF       FARG_charValueToStr_string+0, 0 
	MOVWF       FARG_memcpy_d1+0 
	MOVLW       0
	ADDWFC      FARG_charValueToStr_string+1, 0 
	MOVWF       FARG_memcpy_d1+1 
	MOVLW       115
	MOVWF       ?lstr102_FirmV_0_7_0+0 
	MOVLW       32
	MOVWF       ?lstr102_FirmV_0_7_0+1 
	MOVLW       32
	MOVWF       ?lstr102_FirmV_0_7_0+2 
	CLRF        ?lstr102_FirmV_0_7_0+3 
	MOVLW       ?lstr102_FirmV_0_7_0+0
	MOVWF       FARG_memcpy_s1+0 
	MOVLW       hi_addr(?lstr102_FirmV_0_7_0+0)
	MOVWF       FARG_memcpy_s1+1 
	MOVLW       4
	MOVWF       FARG_memcpy_n+0 
	MOVLW       0
	MOVWF       FARG_memcpy_n+1 
	CALL        _memcpy+0, 0
L_charValueToStr674:
;FirmV_0_7_0.c,2590 :: 		}
	RETURN      0
; end of _charValueToStr

_charValueToStr_AC:

;FirmV_0_7_0.c,2599 :: 		void charValueToStr_AC(char val, char * string)
;FirmV_0_7_0.c,2601 :: 		bytetostr(val>>1,string);
	MOVF        FARG_charValueToStr_AC_val+0, 0 
	MOVWF       FARG_ByteToStr_input+0 
	RRCF        FARG_ByteToStr_input+0, 1 
	BCF         FARG_ByteToStr_input+0, 7 
	MOVF        FARG_charValueToStr_AC_string+0, 0 
	MOVWF       FARG_ByteToStr_output+0 
	MOVF        FARG_charValueToStr_AC_string+1, 0 
	MOVWF       FARG_ByteToStr_output+1 
	CALL        _ByteToStr+0, 0
;FirmV_0_7_0.c,2602 :: 		memcpy(string+3,"s  ",4);
	MOVLW       3
	ADDWF       FARG_charValueToStr_AC_string+0, 0 
	MOVWF       FARG_memcpy_d1+0 
	MOVLW       0
	ADDWFC      FARG_charValueToStr_AC_string+1, 0 
	MOVWF       FARG_memcpy_d1+1 
	MOVLW       115
	MOVWF       ?lstr103_FirmV_0_7_0+0 
	MOVLW       32
	MOVWF       ?lstr103_FirmV_0_7_0+1 
	MOVLW       32
	MOVWF       ?lstr103_FirmV_0_7_0+2 
	CLRF        ?lstr103_FirmV_0_7_0+3 
	MOVLW       ?lstr103_FirmV_0_7_0+0
	MOVWF       FARG_memcpy_s1+0 
	MOVLW       hi_addr(?lstr103_FirmV_0_7_0+0)
	MOVWF       FARG_memcpy_s1+1 
	MOVLW       4
	MOVWF       FARG_memcpy_n+0 
	MOVLW       0
	MOVWF       FARG_memcpy_n+1 
	CALL        _memcpy+0, 0
;FirmV_0_7_0.c,2603 :: 		}
	RETURN      0
; end of _charValueToStr_AC

_intValueToStr:

;FirmV_0_7_0.c,2616 :: 		void intValueToStr(unsigned val, char * string)
;FirmV_0_7_0.c,2618 :: 		wordtostr(val>>1,string);
	MOVF        FARG_intValueToStr_val+0, 0 
	MOVWF       FARG_WordToStr_input+0 
	MOVF        FARG_intValueToStr_val+1, 0 
	MOVWF       FARG_WordToStr_input+1 
	RRCF        FARG_WordToStr_input+1, 1 
	RRCF        FARG_WordToStr_input+0, 1 
	BCF         FARG_WordToStr_input+1, 7 
	MOVF        FARG_intValueToStr_string+0, 0 
	MOVWF       FARG_WordToStr_output+0 
	MOVF        FARG_intValueToStr_string+1, 0 
	MOVWF       FARG_WordToStr_output+1 
	CALL        _WordToStr+0, 0
;FirmV_0_7_0.c,2619 :: 		if((val%2)==1)
	MOVLW       1
	ANDWF       FARG_intValueToStr_val+0, 0 
	MOVWF       R1 
	MOVF        FARG_intValueToStr_val+1, 0 
	MOVWF       R2 
	MOVLW       0
	ANDWF       R2, 1 
	MOVLW       0
	XORWF       R2, 0 
	BTFSS       STATUS+0, 2 
	GOTO        L__intValueToStr846
	MOVLW       1
	XORWF       R1, 0 
L__intValueToStr846:
	BTFSS       STATUS+0, 2 
	GOTO        L_intValueToStr675
;FirmV_0_7_0.c,2620 :: 		memcpy(string+5,".5s",4);
	MOVLW       5
	ADDWF       FARG_intValueToStr_string+0, 0 
	MOVWF       FARG_memcpy_d1+0 
	MOVLW       0
	ADDWFC      FARG_intValueToStr_string+1, 0 
	MOVWF       FARG_memcpy_d1+1 
	MOVLW       46
	MOVWF       ?lstr104_FirmV_0_7_0+0 
	MOVLW       53
	MOVWF       ?lstr104_FirmV_0_7_0+1 
	MOVLW       115
	MOVWF       ?lstr104_FirmV_0_7_0+2 
	CLRF        ?lstr104_FirmV_0_7_0+3 
	MOVLW       ?lstr104_FirmV_0_7_0+0
	MOVWF       FARG_memcpy_s1+0 
	MOVLW       hi_addr(?lstr104_FirmV_0_7_0+0)
	MOVWF       FARG_memcpy_s1+1 
	MOVLW       4
	MOVWF       FARG_memcpy_n+0 
	MOVLW       0
	MOVWF       FARG_memcpy_n+1 
	CALL        _memcpy+0, 0
	GOTO        L_intValueToStr676
L_intValueToStr675:
;FirmV_0_7_0.c,2622 :: 		memcpy(string+5,"s  ",4);
	MOVLW       5
	ADDWF       FARG_intValueToStr_string+0, 0 
	MOVWF       FARG_memcpy_d1+0 
	MOVLW       0
	ADDWFC      FARG_intValueToStr_string+1, 0 
	MOVWF       FARG_memcpy_d1+1 
	MOVLW       115
	MOVWF       ?lstr105_FirmV_0_7_0+0 
	MOVLW       32
	MOVWF       ?lstr105_FirmV_0_7_0+1 
	MOVLW       32
	MOVWF       ?lstr105_FirmV_0_7_0+2 
	CLRF        ?lstr105_FirmV_0_7_0+3 
	MOVLW       ?lstr105_FirmV_0_7_0+0
	MOVWF       FARG_memcpy_s1+0 
	MOVLW       hi_addr(?lstr105_FirmV_0_7_0+0)
	MOVWF       FARG_memcpy_s1+1 
	MOVLW       4
	MOVWF       FARG_memcpy_n+0 
	MOVLW       0
	MOVWF       FARG_memcpy_n+1 
	CALL        _memcpy+0, 0
L_intValueToStr676:
;FirmV_0_7_0.c,2623 :: 		}
	RETURN      0
; end of _intValueToStr

_SetOverloadParams:

;FirmV_0_7_0.c,2635 :: 		void SetOverloadParams(char p)
;FirmV_0_7_0.c,2638 :: 		switch(p)
	GOTO        L_SetOverloadParams677
;FirmV_0_7_0.c,2640 :: 		case 0: OverloadTreshold=750;OverloadDuration=50; break;
L_SetOverloadParams679:
	MOVLW       238
	MOVWF       _OverloadTreshold+0 
	MOVLW       2
	MOVWF       _OverloadTreshold+1 
	MOVLW       50
	MOVWF       _OverloadDuration+0 
	MOVLW       0
	MOVWF       _OverloadDuration+1 
	GOTO        L_SetOverloadParams678
;FirmV_0_7_0.c,2642 :: 		case 1: OverloadTreshold=720;OverloadDuration=50; break;
L_SetOverloadParams680:
	MOVLW       208
	MOVWF       _OverloadTreshold+0 
	MOVLW       2
	MOVWF       _OverloadTreshold+1 
	MOVLW       50
	MOVWF       _OverloadDuration+0 
	MOVLW       0
	MOVWF       _OverloadDuration+1 
	GOTO        L_SetOverloadParams678
;FirmV_0_7_0.c,2644 :: 		case 2: OverloadTreshold=680;OverloadDuration=50; break;
L_SetOverloadParams681:
	MOVLW       168
	MOVWF       _OverloadTreshold+0 
	MOVLW       2
	MOVWF       _OverloadTreshold+1 
	MOVLW       50
	MOVWF       _OverloadDuration+0 
	MOVLW       0
	MOVWF       _OverloadDuration+1 
	GOTO        L_SetOverloadParams678
;FirmV_0_7_0.c,2646 :: 		case 3: OverloadTreshold=650;OverloadDuration=50; break;
L_SetOverloadParams682:
	MOVLW       138
	MOVWF       _OverloadTreshold+0 
	MOVLW       2
	MOVWF       _OverloadTreshold+1 
	MOVLW       50
	MOVWF       _OverloadDuration+0 
	MOVLW       0
	MOVWF       _OverloadDuration+1 
	GOTO        L_SetOverloadParams678
;FirmV_0_7_0.c,2648 :: 		case 4: OverloadTreshold=630;OverloadDuration=50; break;
L_SetOverloadParams683:
	MOVLW       118
	MOVWF       _OverloadTreshold+0 
	MOVLW       2
	MOVWF       _OverloadTreshold+1 
	MOVLW       50
	MOVWF       _OverloadDuration+0 
	MOVLW       0
	MOVWF       _OverloadDuration+1 
	GOTO        L_SetOverloadParams678
;FirmV_0_7_0.c,2650 :: 		case 5: OverloadTreshold=600;OverloadDuration=50; break;
L_SetOverloadParams684:
	MOVLW       88
	MOVWF       _OverloadTreshold+0 
	MOVLW       2
	MOVWF       _OverloadTreshold+1 
	MOVLW       50
	MOVWF       _OverloadDuration+0 
	MOVLW       0
	MOVWF       _OverloadDuration+1 
	GOTO        L_SetOverloadParams678
;FirmV_0_7_0.c,2652 :: 		case 6: OverloadTreshold=550;OverloadDuration=100; break;
L_SetOverloadParams685:
	MOVLW       38
	MOVWF       _OverloadTreshold+0 
	MOVLW       2
	MOVWF       _OverloadTreshold+1 
	MOVLW       100
	MOVWF       _OverloadDuration+0 
	MOVLW       0
	MOVWF       _OverloadDuration+1 
	GOTO        L_SetOverloadParams678
;FirmV_0_7_0.c,2654 :: 		case 7: OverloadTreshold=530;OverloadDuration=100; break;
L_SetOverloadParams686:
	MOVLW       18
	MOVWF       _OverloadTreshold+0 
	MOVLW       2
	MOVWF       _OverloadTreshold+1 
	MOVLW       100
	MOVWF       _OverloadDuration+0 
	MOVLW       0
	MOVWF       _OverloadDuration+1 
	GOTO        L_SetOverloadParams678
;FirmV_0_7_0.c,2656 :: 		case 8: OverloadTreshold=500;OverloadDuration=100; break;
L_SetOverloadParams687:
	MOVLW       244
	MOVWF       _OverloadTreshold+0 
	MOVLW       1
	MOVWF       _OverloadTreshold+1 
	MOVLW       100
	MOVWF       _OverloadDuration+0 
	MOVLW       0
	MOVWF       _OverloadDuration+1 
	GOTO        L_SetOverloadParams678
;FirmV_0_7_0.c,2658 :: 		case 9: OverloadTreshold=490;OverloadDuration=100; break;
L_SetOverloadParams688:
	MOVLW       234
	MOVWF       _OverloadTreshold+0 
	MOVLW       1
	MOVWF       _OverloadTreshold+1 
	MOVLW       100
	MOVWF       _OverloadDuration+0 
	MOVLW       0
	MOVWF       _OverloadDuration+1 
	GOTO        L_SetOverloadParams678
;FirmV_0_7_0.c,2660 :: 		case 10: OverloadTreshold=490;OverloadDuration=300; break;
L_SetOverloadParams689:
	MOVLW       234
	MOVWF       _OverloadTreshold+0 
	MOVLW       1
	MOVWF       _OverloadTreshold+1 
	MOVLW       44
	MOVWF       _OverloadDuration+0 
	MOVLW       1
	MOVWF       _OverloadDuration+1 
	GOTO        L_SetOverloadParams678
;FirmV_0_7_0.c,2662 :: 		case 11: OverloadTreshold=490;OverloadDuration=500; break;
L_SetOverloadParams690:
	MOVLW       234
	MOVWF       _OverloadTreshold+0 
	MOVLW       1
	MOVWF       _OverloadTreshold+1 
	MOVLW       244
	MOVWF       _OverloadDuration+0 
	MOVLW       1
	MOVWF       _OverloadDuration+1 
	GOTO        L_SetOverloadParams678
;FirmV_0_7_0.c,2664 :: 		case 12: OverloadTreshold=480;OverloadDuration=1000; break;
L_SetOverloadParams691:
	MOVLW       224
	MOVWF       _OverloadTreshold+0 
	MOVLW       1
	MOVWF       _OverloadTreshold+1 
	MOVLW       232
	MOVWF       _OverloadDuration+0 
	MOVLW       3
	MOVWF       _OverloadDuration+1 
	GOTO        L_SetOverloadParams678
;FirmV_0_7_0.c,2666 :: 		case 13: OverloadTreshold=480;OverloadDuration=2000; break;
L_SetOverloadParams692:
	MOVLW       224
	MOVWF       _OverloadTreshold+0 
	MOVLW       1
	MOVWF       _OverloadTreshold+1 
	MOVLW       208
	MOVWF       _OverloadDuration+0 
	MOVLW       7
	MOVWF       _OverloadDuration+1 
	GOTO        L_SetOverloadParams678
;FirmV_0_7_0.c,2668 :: 		case 14: OverloadTreshold=480;OverloadDuration=3000; break;
L_SetOverloadParams693:
	MOVLW       224
	MOVWF       _OverloadTreshold+0 
	MOVLW       1
	MOVWF       _OverloadTreshold+1 
	MOVLW       184
	MOVWF       _OverloadDuration+0 
	MOVLW       11
	MOVWF       _OverloadDuration+1 
	GOTO        L_SetOverloadParams678
;FirmV_0_7_0.c,2670 :: 		case 15: OverloadTreshold=0;OverloadDuration=255; break;
L_SetOverloadParams694:
	CLRF        _OverloadTreshold+0 
	CLRF        _OverloadTreshold+1 
	MOVLW       255
	MOVWF       _OverloadDuration+0 
	MOVLW       0
	MOVWF       _OverloadDuration+1 
	GOTO        L_SetOverloadParams678
;FirmV_0_7_0.c,2672 :: 		}
L_SetOverloadParams677:
	MOVF        FARG_SetOverloadParams_p+0, 0 
	XORLW       0
	BTFSC       STATUS+0, 2 
	GOTO        L_SetOverloadParams679
	MOVF        FARG_SetOverloadParams_p+0, 0 
	XORLW       1
	BTFSC       STATUS+0, 2 
	GOTO        L_SetOverloadParams680
	MOVF        FARG_SetOverloadParams_p+0, 0 
	XORLW       2
	BTFSC       STATUS+0, 2 
	GOTO        L_SetOverloadParams681
	MOVF        FARG_SetOverloadParams_p+0, 0 
	XORLW       3
	BTFSC       STATUS+0, 2 
	GOTO        L_SetOverloadParams682
	MOVF        FARG_SetOverloadParams_p+0, 0 
	XORLW       4
	BTFSC       STATUS+0, 2 
	GOTO        L_SetOverloadParams683
	MOVF        FARG_SetOverloadParams_p+0, 0 
	XORLW       5
	BTFSC       STATUS+0, 2 
	GOTO        L_SetOverloadParams684
	MOVF        FARG_SetOverloadParams_p+0, 0 
	XORLW       6
	BTFSC       STATUS+0, 2 
	GOTO        L_SetOverloadParams685
	MOVF        FARG_SetOverloadParams_p+0, 0 
	XORLW       7
	BTFSC       STATUS+0, 2 
	GOTO        L_SetOverloadParams686
	MOVF        FARG_SetOverloadParams_p+0, 0 
	XORLW       8
	BTFSC       STATUS+0, 2 
	GOTO        L_SetOverloadParams687
	MOVF        FARG_SetOverloadParams_p+0, 0 
	XORLW       9
	BTFSC       STATUS+0, 2 
	GOTO        L_SetOverloadParams688
	MOVF        FARG_SetOverloadParams_p+0, 0 
	XORLW       10
	BTFSC       STATUS+0, 2 
	GOTO        L_SetOverloadParams689
	MOVF        FARG_SetOverloadParams_p+0, 0 
	XORLW       11
	BTFSC       STATUS+0, 2 
	GOTO        L_SetOverloadParams690
	MOVF        FARG_SetOverloadParams_p+0, 0 
	XORLW       12
	BTFSC       STATUS+0, 2 
	GOTO        L_SetOverloadParams691
	MOVF        FARG_SetOverloadParams_p+0, 0 
	XORLW       13
	BTFSC       STATUS+0, 2 
	GOTO        L_SetOverloadParams692
	MOVF        FARG_SetOverloadParams_p+0, 0 
	XORLW       14
	BTFSC       STATUS+0, 2 
	GOTO        L_SetOverloadParams693
	MOVF        FARG_SetOverloadParams_p+0, 0 
	XORLW       15
	BTFSC       STATUS+0, 2 
	GOTO        L_SetOverloadParams694
L_SetOverloadParams678:
;FirmV_0_7_0.c,2673 :: 		}
	RETURN      0
; end of _SetOverloadParams
