
_interrupt:

;FirmV_0_7_0.c,205 :: 		void interrupt()
;FirmV_0_7_0.c,207 :: 		if(TMR0IF_bit)
	BTFSS       TMR0IF_bit+0, 2 
	GOTO        L_interrupt0
;FirmV_0_7_0.c,209 :: 		msCounter=msCounter+1;
	INCF        _msCounter+0, 1 
;FirmV_0_7_0.c,210 :: 		LCDBackLight=1;
	BSF         PORTA+0, 4 
;FirmV_0_7_0.c,211 :: 		Flag20ms=1;
	MOVLW       1
	MOVWF       _Flag20ms+0 
;FirmV_0_7_0.c,212 :: 		if(ms20A==255)
	MOVF        _ms20A+0, 0 
	XORLW       255
	BTFSS       STATUS+0, 2 
	GOTO        L_interrupt1
;FirmV_0_7_0.c,213 :: 		{ms20A=0;RemotePulse1=0;}
	CLRF        _ms20A+0 
	CLRF        _RemotePulse1+0 
	GOTO        L_interrupt2
L_interrupt1:
;FirmV_0_7_0.c,215 :: 		ms20A=ms20A+1;
	INCF        _ms20A+0, 1 
L_interrupt2:
;FirmV_0_7_0.c,217 :: 		if(ms20B==255)
	MOVF        _ms20B+0, 0 
	XORLW       255
	BTFSS       STATUS+0, 2 
	GOTO        L_interrupt3
;FirmV_0_7_0.c,218 :: 		{ms20B=0;RemotePulse2=0;}
	CLRF        _ms20B+0 
	CLRF        _RemotePulse2+0 
	GOTO        L_interrupt4
L_interrupt3:
;FirmV_0_7_0.c,220 :: 		ms20B=ms20B+1;
	INCF        _ms20B+0, 1 
L_interrupt4:
;FirmV_0_7_0.c,222 :: 		if(msCounter>=25)
	MOVLW       25
	SUBWF       _msCounter+0, 0 
	BTFSS       STATUS+0, 0 
	GOTO        L_interrupt5
;FirmV_0_7_0.c,224 :: 		msCounter=0;
	CLRF        _msCounter+0 
;FirmV_0_7_0.c,225 :: 		ms500=ms500+1;
	MOVLW       1
	ADDWF       _ms500+0, 1 
	MOVLW       0
	ADDWFC      _ms500+1, 1 
	ADDWFC      _ms500+2, 1 
	ADDWFC      _ms500+3, 1 
;FirmV_0_7_0.c,226 :: 		LCDFlashFlag=!LCDFlashFlag;
	MOVF        _LCDFlashFlag+0, 1 
	MOVLW       1
	BTFSS       STATUS+0, 2 
	MOVLW       0
	MOVWF       _LCDFlashFlag+0 
;FirmV_0_7_0.c,227 :: 		LCDBackLight=0;
	BCF         PORTA+0, 4 
;FirmV_0_7_0.c,228 :: 		Flag500ms=1;
	MOVLW       1
	MOVWF       _Flag500ms+0 
;FirmV_0_7_0.c,229 :: 		}
L_interrupt5:
;FirmV_0_7_0.c,230 :: 		tmr0h=0xF3;
	MOVLW       243
	MOVWF       TMR0H+0 
;FirmV_0_7_0.c,231 :: 		tmr0l=0xCA;
	MOVLW       202
	MOVWF       TMR0L+0 
;FirmV_0_7_0.c,232 :: 		TMR0IF_bit=0;
	BCF         TMR0IF_bit+0, 2 
;FirmV_0_7_0.c,233 :: 		}
L_interrupt0:
;FirmV_0_7_0.c,236 :: 		if(INT1F_bit)
	BTFSS       INT1F_bit+0, 0 
	GOTO        L_interrupt6
;FirmV_0_7_0.c,238 :: 		if(RemotePulse1==0)
	MOVF        _RemotePulse1+0, 0 
	XORLW       0
	BTFSS       STATUS+0, 2 
	GOTO        L_interrupt7
;FirmV_0_7_0.c,239 :: 		{ RemotePulse1=RemotePulse1+1;ms20A=0;}
	INCF        _RemotePulse1+0, 1 
	CLRF        _ms20A+0 
	GOTO        L_interrupt8
L_interrupt7:
;FirmV_0_7_0.c,241 :: 		{ RemotePulse1=RemotePulse1+1;}
	INCF        _RemotePulse1+0, 1 
L_interrupt8:
;FirmV_0_7_0.c,242 :: 		if(RemotePulse1>=5)
	MOVLW       5
	SUBWF       _RemotePulse1+0, 0 
	BTFSS       STATUS+0, 0 
	GOTO        L_interrupt9
;FirmV_0_7_0.c,243 :: 		if((ms20A>=19)&&(ms20A<=21))
	MOVLW       19
	SUBWF       _ms20A+0, 0 
	BTFSS       STATUS+0, 0 
	GOTO        L_interrupt12
	MOVF        _ms20A+0, 0 
	SUBLW       21
	BTFSS       STATUS+0, 0 
	GOTO        L_interrupt12
L__interrupt675:
;FirmV_0_7_0.c,244 :: 		{RemoteAFlag=1;RemotePulse1=0;}
	MOVLW       1
	MOVWF       _RemoteAFlag+0 
	CLRF        _RemotePulse1+0 
	GOTO        L_interrupt13
L_interrupt12:
;FirmV_0_7_0.c,246 :: 		RemotePulse1=0;
	CLRF        _RemotePulse1+0 
L_interrupt13:
L_interrupt9:
;FirmV_0_7_0.c,247 :: 		INT1IF_bit=0;
	BCF         INT1IF_bit+0, 0 
;FirmV_0_7_0.c,248 :: 		}
L_interrupt6:
;FirmV_0_7_0.c,252 :: 		if(INT2IF_bit)
	BTFSS       INT2IF_bit+0, 1 
	GOTO        L_interrupt14
;FirmV_0_7_0.c,254 :: 		if(RemotePulse2==0)
	MOVF        _RemotePulse2+0, 0 
	XORLW       0
	BTFSS       STATUS+0, 2 
	GOTO        L_interrupt15
;FirmV_0_7_0.c,255 :: 		{ RemotePulse2=RemotePulse2+1;ms20B=0;}
	INCF        _RemotePulse2+0, 1 
	CLRF        _ms20B+0 
	GOTO        L_interrupt16
L_interrupt15:
;FirmV_0_7_0.c,257 :: 		{ RemotePulse2=RemotePulse2+1;}
	INCF        _RemotePulse2+0, 1 
L_interrupt16:
;FirmV_0_7_0.c,258 :: 		if(RemotePulse2>=5)
	MOVLW       5
	SUBWF       _RemotePulse2+0, 0 
	BTFSS       STATUS+0, 0 
	GOTO        L_interrupt17
;FirmV_0_7_0.c,259 :: 		if((ms20B>=19)&&(ms20B<=21))
	MOVLW       19
	SUBWF       _ms20B+0, 0 
	BTFSS       STATUS+0, 0 
	GOTO        L_interrupt20
	MOVF        _ms20B+0, 0 
	SUBLW       21
	BTFSS       STATUS+0, 0 
	GOTO        L_interrupt20
L__interrupt674:
;FirmV_0_7_0.c,260 :: 		{RemoteBFlag=1;RemotePulse2=0;}
	MOVLW       1
	MOVWF       _RemoteBFlag+0 
	CLRF        _RemotePulse2+0 
	GOTO        L_interrupt21
L_interrupt20:
;FirmV_0_7_0.c,262 :: 		RemotePulse2=0;
	CLRF        _RemotePulse2+0 
L_interrupt21:
L_interrupt17:
;FirmV_0_7_0.c,263 :: 		INT2IF_bit=0;
	BCF         INT2IF_bit+0, 1 
;FirmV_0_7_0.c,264 :: 		}
L_interrupt14:
;FirmV_0_7_0.c,269 :: 		if(INT0F_bit==1)
	BTFSS       INT0F_bit+0, 1 
	GOTO        L_interrupt22
;FirmV_0_7_0.c,271 :: 		ZCCounter=ZCCounter+1;
	INCF        _ZCCounter+0, 1 
;FirmV_0_7_0.c,272 :: 		if(ZCCounter==255)
	MOVF        _ZCCounter+0, 0 
	XORLW       255
	BTFSS       STATUS+0, 2 
	GOTO        L_interrupt23
;FirmV_0_7_0.c,273 :: 		ZCCounter=0;
	CLRF        _ZCCounter+0 
L_interrupt23:
;FirmV_0_7_0.c,274 :: 		if(ZCCounter%3==1)
	MOVLW       3
	MOVWF       R4 
	MOVF        _ZCCounter+0, 0 
	MOVWF       R0 
	CALL        _Div_8x8_U+0, 0
	MOVF        R8, 0 
	MOVWF       R0 
	MOVF        R0, 0 
	XORLW       1
	BTFSS       STATUS+0, 2 
	GOTO        L_interrupt24
;FirmV_0_7_0.c,276 :: 		if(Motor1Start)
	MOVF        _Motor1Start+0, 1 
	BTFSC       STATUS+0, 2 
	GOTO        L_interrupt25
;FirmV_0_7_0.c,277 :: 		if(Motor1FullSpeed)
	MOVF        _Motor1FullSpeed+0, 1 
	BTFSC       STATUS+0, 2 
	GOTO        L_interrupt26
;FirmV_0_7_0.c,278 :: 		Motor1=1;
	BSF         PORTB+0, 3 
	GOTO        L_interrupt27
L_interrupt26:
;FirmV_0_7_0.c,280 :: 		Motor1=0;
	BCF         PORTB+0, 3 
L_interrupt27:
L_interrupt25:
;FirmV_0_7_0.c,282 :: 		if(Motor2Start)
	MOVF        _Motor2Start+0, 1 
	BTFSC       STATUS+0, 2 
	GOTO        L_interrupt28
;FirmV_0_7_0.c,283 :: 		if(Motor2FullSpeed)
	MOVF        _Motor2FullSpeed+0, 1 
	BTFSC       STATUS+0, 2 
	GOTO        L_interrupt29
;FirmV_0_7_0.c,284 :: 		Motor2=1;
	BSF         PORTB+0, 4 
	GOTO        L_interrupt30
L_interrupt29:
;FirmV_0_7_0.c,286 :: 		Motor2=0;
	BCF         PORTB+0, 4 
L_interrupt30:
L_interrupt28:
;FirmV_0_7_0.c,287 :: 		}
L_interrupt24:
;FirmV_0_7_0.c,288 :: 		if(ZCCounter%3==0)
	MOVLW       3
	MOVWF       R4 
	MOVF        _ZCCounter+0, 0 
	MOVWF       R0 
	CALL        _Div_8x8_U+0, 0
	MOVF        R8, 0 
	MOVWF       R0 
	MOVF        R0, 0 
	XORLW       0
	BTFSS       STATUS+0, 2 
	GOTO        L_interrupt31
;FirmV_0_7_0.c,290 :: 		if(Motor1Start)
	MOVF        _Motor1Start+0, 1 
	BTFSC       STATUS+0, 2 
	GOTO        L_interrupt32
;FirmV_0_7_0.c,291 :: 		Motor1=1;
	BSF         PORTB+0, 3 
L_interrupt32:
;FirmV_0_7_0.c,293 :: 		if(Motor2Start)
	MOVF        _Motor2Start+0, 1 
	BTFSC       STATUS+0, 2 
	GOTO        L_interrupt33
;FirmV_0_7_0.c,294 :: 		Motor2=1;
	BSF         PORTB+0, 4 
L_interrupt33:
;FirmV_0_7_0.c,295 :: 		}
L_interrupt31:
;FirmV_0_7_0.c,296 :: 		INT0F_bit=0;
	BCF         INT0F_bit+0, 1 
;FirmV_0_7_0.c,297 :: 		}
L_interrupt22:
;FirmV_0_7_0.c,298 :: 		}
L__interrupt781:
	RETFIE      1
; end of _interrupt

_ResetTaskEvents:

;FirmV_0_7_0.c,311 :: 		void ResetTaskEvents()
;FirmV_0_7_0.c,313 :: 		Events.Task1=0;
	CLRF        _Events+1 
;FirmV_0_7_0.c,314 :: 		Events.Task2=0;
	CLRF        _Events+2 
;FirmV_0_7_0.c,315 :: 		Events.Task3=0;
	CLRF        _Events+3 
;FirmV_0_7_0.c,316 :: 		}
	RETURN      0
; end of _ResetTaskEvents

_Decrypt:

;FirmV_0_7_0.c,325 :: 		void Decrypt()
;FirmV_0_7_0.c,327 :: 		Sipher[0]=Crypto[1][0]+0x0D;
	MOVLW       13
	ADDWF       _crypto+16, 0 
	MOVWF       _Sipher+0 
;FirmV_0_7_0.c,328 :: 		Sipher[1]=Crypto[1][1]+0x0D;
	MOVLW       13
	ADDWF       _crypto+17, 0 
	MOVWF       _Sipher+1 
;FirmV_0_7_0.c,329 :: 		Sipher[2]=Crypto[1][2]+0x0D;
	MOVLW       13
	ADDWF       _crypto+18, 0 
	MOVWF       _Sipher+2 
;FirmV_0_7_0.c,330 :: 		Sipher[3]=Crypto[1][3]-0x26;
	MOVLW       38
	SUBWF       _crypto+19, 0 
	MOVWF       _Sipher+3 
;FirmV_0_7_0.c,331 :: 		Sipher[4]=Crypto[1][4]-0x3C;
	MOVLW       60
	SUBWF       _crypto+20, 0 
	MOVWF       _Sipher+4 
;FirmV_0_7_0.c,332 :: 		Sipher[5]=Crypto[1][5]-0x41;
	MOVLW       65
	SUBWF       _crypto+21, 0 
	MOVWF       _Sipher+5 
;FirmV_0_7_0.c,333 :: 		Sipher[6]=Crypto[1][6]-0x0C;
	MOVLW       12
	SUBWF       _crypto+22, 0 
	MOVWF       _Sipher+6 
;FirmV_0_7_0.c,334 :: 		Sipher[7]=Crypto[1][7]+0x34;
	MOVLW       52
	ADDWF       _crypto+23, 0 
	MOVWF       _Sipher+7 
;FirmV_0_7_0.c,335 :: 		Sipher[8]=Crypto[1][8]-0x01;
	DECF        _crypto+24, 0 
	MOVWF       _Sipher+8 
;FirmV_0_7_0.c,336 :: 		Sipher[9]=Crypto[1][9]-0x1F;
	MOVLW       31
	SUBWF       _crypto+25, 0 
	MOVWF       _Sipher+9 
;FirmV_0_7_0.c,337 :: 		Sipher[10]=Crypto[1][10]-0x3A;
	MOVLW       58
	SUBWF       _crypto+26, 0 
	MOVWF       _Sipher+10 
;FirmV_0_7_0.c,338 :: 		Sipher[11]=Crypto[1][11]-0x3B;
	MOVLW       59
	SUBWF       _crypto+27, 0 
	MOVWF       _Sipher+11 
;FirmV_0_7_0.c,339 :: 		Sipher[12]=Crypto[1][12]-0x3C;
	MOVLW       60
	SUBWF       _crypto+28, 0 
	MOVWF       _Sipher+12 
;FirmV_0_7_0.c,340 :: 		Sipher[13]=Crypto[1][13]+0x0D;
	MOVLW       13
	ADDWF       _crypto+29, 0 
	MOVWF       _Sipher+13 
;FirmV_0_7_0.c,341 :: 		Sipher[14]=Crypto[1][14]+0x0D;
	MOVLW       13
	ADDWF       _crypto+30, 0 
	MOVWF       _Sipher+14 
;FirmV_0_7_0.c,342 :: 		Sipher[15]=Crypto[1][15]+0x0D;
	MOVLW       13
	ADDWF       _crypto+31, 0 
	MOVWF       _Sipher+15 
;FirmV_0_7_0.c,343 :: 		}
	RETURN      0
; end of _Decrypt

_Logger:

;FirmV_0_7_0.c,355 :: 		void Logger(char* text)
;FirmV_0_7_0.c,358 :: 		longwordtostrwithzeros(ms500,time);
	MOVF        _ms500+0, 0 
	MOVWF       FARG_LongWordToStrWithZeros_input+0 
	MOVF        _ms500+1, 0 
	MOVWF       FARG_LongWordToStrWithZeros_input+1 
	MOVF        _ms500+2, 0 
	MOVWF       FARG_LongWordToStrWithZeros_input+2 
	MOVF        _ms500+3, 0 
	MOVWF       FARG_LongWordToStrWithZeros_input+3 
	MOVLW       Logger_time_L0+0
	MOVWF       FARG_LongWordToStrWithZeros_output+0 
	MOVLW       hi_addr(Logger_time_L0+0)
	MOVWF       FARG_LongWordToStrWithZeros_output+1 
	CALL        _LongWordToStrWithZeros+0, 0
;FirmV_0_7_0.c,359 :: 		uart_write_text(time);
	MOVLW       Logger_time_L0+0
	MOVWF       FARG_UART_Write_Text_uart_text+0 
	MOVLW       hi_addr(Logger_time_L0+0)
	MOVWF       FARG_UART_Write_Text_uart_text+1 
	CALL        _UART_Write_Text+0, 0
;FirmV_0_7_0.c,360 :: 		uart1_write_text(": ");
	MOVLW       58
	MOVWF       ?lstr1_FirmV_0_7_0+0 
	MOVLW       32
	MOVWF       ?lstr1_FirmV_0_7_0+1 
	CLRF        ?lstr1_FirmV_0_7_0+2 
	MOVLW       ?lstr1_FirmV_0_7_0+0
	MOVWF       FARG_UART1_Write_Text_uart_text+0 
	MOVLW       hi_addr(?lstr1_FirmV_0_7_0+0)
	MOVWF       FARG_UART1_Write_Text_uart_text+1 
	CALL        _UART1_Write_Text+0, 0
;FirmV_0_7_0.c,361 :: 		uart1_write_text(text);
	MOVF        FARG_Logger_text+0, 0 
	MOVWF       FARG_UART1_Write_Text_uart_text+0 
	MOVF        FARG_Logger_text+1, 0 
	MOVWF       FARG_UART1_Write_Text_uart_text+1 
	CALL        _UART1_Write_Text+0, 0
;FirmV_0_7_0.c,362 :: 		uart1_write(10);
	MOVLW       10
	MOVWF       FARG_UART1_Write_data_+0 
	CALL        _UART1_Write+0, 0
;FirmV_0_7_0.c,363 :: 		uart1_write(13);
	MOVLW       13
	MOVWF       FARG_UART1_Write_data_+0 
	CALL        _UART1_Write+0, 0
;FirmV_0_7_0.c,364 :: 		}
	RETURN      0
; end of _Logger

_main:

;FirmV_0_7_0.c,381 :: 		void main() {
;FirmV_0_7_0.c,384 :: 		PhotocellRel=1;
	BSF         PORTC+0, 5 
;FirmV_0_7_0.c,386 :: 		Init();
	CALL        _Init+0, 0
;FirmV_0_7_0.c,388 :: 		Decrypt();
	CALL        _Decrypt+0, 0
;FirmV_0_7_0.c,390 :: 		Buzzer=1;
	BSF         PORTB+0, 5 
;FirmV_0_7_0.c,391 :: 		Logger("Start ...");
	MOVLW       83
	MOVWF       ?lstr2_FirmV_0_7_0+0 
	MOVLW       116
	MOVWF       ?lstr2_FirmV_0_7_0+1 
	MOVLW       97
	MOVWF       ?lstr2_FirmV_0_7_0+2 
	MOVLW       114
	MOVWF       ?lstr2_FirmV_0_7_0+3 
	MOVLW       116
	MOVWF       ?lstr2_FirmV_0_7_0+4 
	MOVLW       32
	MOVWF       ?lstr2_FirmV_0_7_0+5 
	MOVLW       46
	MOVWF       ?lstr2_FirmV_0_7_0+6 
	MOVLW       46
	MOVWF       ?lstr2_FirmV_0_7_0+7 
	MOVLW       46
	MOVWF       ?lstr2_FirmV_0_7_0+8 
	CLRF        ?lstr2_FirmV_0_7_0+9 
	MOVLW       ?lstr2_FirmV_0_7_0+0
	MOVWF       FARG_Logger_text+0 
	MOVLW       hi_addr(?lstr2_FirmV_0_7_0+0)
	MOVWF       FARG_Logger_text+1 
	CALL        _Logger+0, 0
;FirmV_0_7_0.c,392 :: 		memcpy(LCDLine1,Sipher,16);
	MOVLW       _LCDLine1+0
	MOVWF       FARG_memcpy_d1+0 
	MOVLW       hi_addr(_LCDLine1+0)
	MOVWF       FARG_memcpy_d1+1 
	MOVLW       _Sipher+0
	MOVWF       FARG_memcpy_s1+0 
	MOVLW       hi_addr(_Sipher+0)
	MOVWF       FARG_memcpy_s1+1 
	MOVLW       16
	MOVWF       FARG_memcpy_n+0 
	MOVLW       0
	MOVWF       FARG_memcpy_n+1 
	CALL        _memcpy+0, 0
;FirmV_0_7_0.c,393 :: 		LCDLines=1;
	MOVLW       1
	MOVWF       _LCDLines+0 
;FirmV_0_7_0.c,394 :: 		LCDUpdateFlag=1;
	MOVLW       1
	MOVWF       _LCDUpdateFlag+0 
;FirmV_0_7_0.c,395 :: 		Buzzer=0;
	BCF         PORTB+0, 5 
;FirmV_0_7_0.c,397 :: 		while(1)
L_main34:
;FirmV_0_7_0.c,399 :: 		if(Flag20ms==1)
	MOVF        _Flag20ms+0, 0 
	XORLW       1
	BTFSS       STATUS+0, 2 
	GOTO        L_main36
;FirmV_0_7_0.c,401 :: 		if((Buzzer==1)&&(BuzzCounter<100))
	BTFSS       PORTB+0, 5 
	GOTO        L_main39
	MOVLW       100
	SUBWF       _BuzzCounter+0, 0 
	BTFSC       STATUS+0, 0 
	GOTO        L_main39
L__main680:
;FirmV_0_7_0.c,402 :: 		{BuzzCounter=BuzzCounter+1;}
	INCF        _BuzzCounter+0, 1 
L_main39:
;FirmV_0_7_0.c,404 :: 		if((Buzzer==1)&&(LongBuzzFlag))
	BTFSS       PORTB+0, 5 
	GOTO        L_main42
	MOVF        _LongBuzzFlag+0, 1 
	BTFSC       STATUS+0, 2 
	GOTO        L_main42
L__main679:
;FirmV_0_7_0.c,405 :: 		if(BuzzCounter>=25){BuzzFlag=0;LongBuzzFlag=0;Buzzer=0;}
	MOVLW       25
	SUBWF       _BuzzCounter+0, 0 
	BTFSS       STATUS+0, 0 
	GOTO        L_main43
	CLRF        _BuzzFlag+0 
	CLRF        _LongBuzzFlag+0 
	BCF         PORTB+0, 5 
L_main43:
L_main42:
;FirmV_0_7_0.c,407 :: 		if((Buzzer==1)&&(BuzzFlag)&&(!LongBuzzFlag))
	BTFSS       PORTB+0, 5 
	GOTO        L_main46
	MOVF        _BuzzFlag+0, 1 
	BTFSC       STATUS+0, 2 
	GOTO        L_main46
	MOVF        _LongBuzzFlag+0, 1 
	BTFSS       STATUS+0, 2 
	GOTO        L_main46
L__main678:
;FirmV_0_7_0.c,408 :: 		{BuzzFlag=0;LongBuzzFlag=0;Buzzer=0;}
	CLRF        _BuzzFlag+0 
	CLRF        _LongBuzzFlag+0 
	BCF         PORTB+0, 5 
L_main46:
;FirmV_0_7_0.c,410 :: 		if(((BuzzFlag)||(LongBuzzFlag))&&(!Buzzer))
	MOVF        _BuzzFlag+0, 1 
	BTFSS       STATUS+0, 2 
	GOTO        L__main677
	MOVF        _LongBuzzFlag+0, 1 
	BTFSS       STATUS+0, 2 
	GOTO        L__main677
	GOTO        L_main51
L__main677:
	BTFSC       PORTB+0, 5 
	GOTO        L_main51
L__main676:
;FirmV_0_7_0.c,411 :: 		{Buzzer=1;BuzzCounter=0;}
	BSF         PORTB+0, 5 
	CLRF        _BuzzCounter+0 
L_main51:
;FirmV_0_7_0.c,414 :: 		if(DebouncingDelay<DebouncingFix)
	MOVLW       5
	SUBWF       _DebouncingDelay+0, 0 
	BTFSC       STATUS+0, 0 
	GOTO        L_main52
;FirmV_0_7_0.c,415 :: 		DebouncingDelay=DebouncingDelay+1;
	INCF        _DebouncingDelay+0, 1 
L_main52:
;FirmV_0_7_0.c,416 :: 		LCDUpdater();
	CALL        _LCDUpdater+0, 0
;FirmV_0_7_0.c,417 :: 		if(KeyFlag<200)
	MOVLW       200
	SUBWF       _KeyFlag+0, 0 
	BTFSC       STATUS+0, 0 
	GOTO        L_main53
;FirmV_0_7_0.c,418 :: 		KeyFlag=KeyFlag+1;
	INCF        _KeyFlag+0, 1 
L_main53:
;FirmV_0_7_0.c,419 :: 		Flag20ms=0;
	CLRF        _Flag20ms+0 
;FirmV_0_7_0.c,420 :: 		}
L_main36:
;FirmV_0_7_0.c,422 :: 		if(Flag500ms==1)
	MOVF        _Flag500ms+0, 0 
	XORLW       1
	BTFSS       STATUS+0, 2 
	GOTO        L_main54
;FirmV_0_7_0.c,424 :: 		ResetTaskEvents();
	CALL        _ResetTaskEvents+0, 0
;FirmV_0_7_0.c,425 :: 		TaskManager();
	CALL        _TaskManager+0, 0
;FirmV_0_7_0.c,426 :: 		Flag500ms=0;
	CLRF        _Flag500ms+0 
;FirmV_0_7_0.c,427 :: 		}
L_main54:
;FirmV_0_7_0.c,428 :: 		EventHandler();
	CALL        _EventHandler+0, 0
;FirmV_0_7_0.c,429 :: 		StateManager();
	CALL        _StateManager+0, 0
;FirmV_0_7_0.c,430 :: 		}
	GOTO        L_main34
;FirmV_0_7_0.c,432 :: 		}
	GOTO        $+0
; end of _main

_StateManager:

;FirmV_0_7_0.c,457 :: 		void StateManager()
;FirmV_0_7_0.c,460 :: 		switch(State)
	GOTO        L_StateManager55
;FirmV_0_7_0.c,463 :: 		case 0: State1(); break;
L_StateManager57:
	CALL        _State1+0, 0
	GOTO        L_StateManager56
;FirmV_0_7_0.c,465 :: 		case 1: State1(); break;
L_StateManager58:
	CALL        _State1+0, 0
	GOTO        L_StateManager56
;FirmV_0_7_0.c,467 :: 		case 2: State2(); break;
L_StateManager59:
	CALL        _State2+0, 0
	GOTO        L_StateManager56
;FirmV_0_7_0.c,469 :: 		case 3: State3(); break;
L_StateManager60:
	CALL        _State3+0, 0
	GOTO        L_StateManager56
;FirmV_0_7_0.c,471 :: 		case 4: State4(); break;
L_StateManager61:
	CALL        _State4+0, 0
	GOTO        L_StateManager56
;FirmV_0_7_0.c,473 :: 		case 5: State5(); break;
L_StateManager62:
	CALL        _State5+0, 0
	GOTO        L_StateManager56
;FirmV_0_7_0.c,475 :: 		case 6: State6(); break;
L_StateManager63:
	CALL        _State6+0, 0
	GOTO        L_StateManager56
;FirmV_0_7_0.c,477 :: 		case 7: State7(); break;
L_StateManager64:
	CALL        _State7+0, 0
	GOTO        L_StateManager56
;FirmV_0_7_0.c,479 :: 		case 8: State8(); break;
L_StateManager65:
	CALL        _State8+0, 0
	GOTO        L_StateManager56
;FirmV_0_7_0.c,481 :: 		case 10:State00(); break;
L_StateManager66:
	CALL        _State00+0, 0
	GOTO        L_StateManager56
;FirmV_0_7_0.c,483 :: 		case 100:Menu0(); break;
L_StateManager67:
	CALL        _Menu0+0, 0
	GOTO        L_StateManager56
;FirmV_0_7_0.c,485 :: 		case 101:Menu1(); break;
L_StateManager68:
	CALL        _Menu1+0, 0
	GOTO        L_StateManager56
;FirmV_0_7_0.c,487 :: 		case 102:Menu2(); break;
L_StateManager69:
	CALL        _Menu2+0, 0
	GOTO        L_StateManager56
;FirmV_0_7_0.c,489 :: 		case 103:Menu3(); break;
L_StateManager70:
	CALL        _Menu3+0, 0
	GOTO        L_StateManager56
;FirmV_0_7_0.c,491 :: 		case 200:LearnAuto(); break;
L_StateManager71:
	CALL        _LearnAuto+0, 0
	GOTO        L_StateManager56
;FirmV_0_7_0.c,493 :: 		case 201:LearnManual(); break;
L_StateManager72:
	CALL        _LearnManual+0, 0
	GOTO        L_StateManager56
;FirmV_0_7_0.c,495 :: 		case 250:About(); break;
L_StateManager73:
	CALL        _About+0, 0
	GOTO        L_StateManager56
;FirmV_0_7_0.c,497 :: 		}
L_StateManager55:
	MOVF        _State+0, 0 
	XORLW       0
	BTFSC       STATUS+0, 2 
	GOTO        L_StateManager57
	MOVF        _State+0, 0 
	XORLW       1
	BTFSC       STATUS+0, 2 
	GOTO        L_StateManager58
	MOVF        _State+0, 0 
	XORLW       2
	BTFSC       STATUS+0, 2 
	GOTO        L_StateManager59
	MOVF        _State+0, 0 
	XORLW       3
	BTFSC       STATUS+0, 2 
	GOTO        L_StateManager60
	MOVF        _State+0, 0 
	XORLW       4
	BTFSC       STATUS+0, 2 
	GOTO        L_StateManager61
	MOVF        _State+0, 0 
	XORLW       5
	BTFSC       STATUS+0, 2 
	GOTO        L_StateManager62
	MOVF        _State+0, 0 
	XORLW       6
	BTFSC       STATUS+0, 2 
	GOTO        L_StateManager63
	MOVF        _State+0, 0 
	XORLW       7
	BTFSC       STATUS+0, 2 
	GOTO        L_StateManager64
	MOVF        _State+0, 0 
	XORLW       8
	BTFSC       STATUS+0, 2 
	GOTO        L_StateManager65
	MOVF        _State+0, 0 
	XORLW       10
	BTFSC       STATUS+0, 2 
	GOTO        L_StateManager66
	MOVF        _State+0, 0 
	XORLW       100
	BTFSC       STATUS+0, 2 
	GOTO        L_StateManager67
	MOVF        _State+0, 0 
	XORLW       101
	BTFSC       STATUS+0, 2 
	GOTO        L_StateManager68
	MOVF        _State+0, 0 
	XORLW       102
	BTFSC       STATUS+0, 2 
	GOTO        L_StateManager69
	MOVF        _State+0, 0 
	XORLW       103
	BTFSC       STATUS+0, 2 
	GOTO        L_StateManager70
	MOVF        _State+0, 0 
	XORLW       200
	BTFSC       STATUS+0, 2 
	GOTO        L_StateManager71
	MOVF        _State+0, 0 
	XORLW       201
	BTFSC       STATUS+0, 2 
	GOTO        L_StateManager72
	MOVF        _State+0, 0 
	XORLW       250
	BTFSC       STATUS+0, 2 
	GOTO        L_StateManager73
L_StateManager56:
;FirmV_0_7_0.c,498 :: 		}
	RETURN      0
; end of _StateManager

_StateTest:

;FirmV_0_7_0.c,502 :: 		void StateTest()
;FirmV_0_7_0.c,504 :: 		if (Events.Photocell==1)
	MOVF        _Events+6, 0 
	XORLW       1
	BTFSS       STATUS+0, 2 
	GOTO        L_StateTest74
;FirmV_0_7_0.c,505 :: 		LCDLine1[0]='1';
	MOVLW       49
	MOVWF       _LCDLine1+0 
	GOTO        L_StateTest75
L_StateTest74:
;FirmV_0_7_0.c,507 :: 		LCDLine1[0]='0';
	MOVLW       48
	MOVWF       _LCDLine1+0 
L_StateTest75:
;FirmV_0_7_0.c,509 :: 		LCDUpdateFlag=1;
	MOVLW       1
	MOVWF       _LCDUpdateFlag+0 
;FirmV_0_7_0.c,511 :: 		}
	RETURN      0
; end of _StateTest

_State00:

;FirmV_0_7_0.c,515 :: 		void State00()
;FirmV_0_7_0.c,520 :: 		Flasher=1;
	BSF         PORTD+0, 7 
;FirmV_0_7_0.c,521 :: 		StartMotor(1,_Close);
	MOVLW       1
	MOVWF       FARG_StartMotor+0 
	CLRF        FARG_StartMotor+0 
	CALL        _StartMotor+0, 0
;FirmV_0_7_0.c,522 :: 		StartMotor(2,_Close);
	MOVLW       2
	MOVWF       FARG_StartMotor+0 
	CLRF        FARG_StartMotor+0 
	CALL        _StartMotor+0, 0
;FirmV_0_7_0.c,526 :: 		if(Events.Remote.b0==1)
	BTFSS       _Events+4, 0 
	GOTO        L_State0076
;FirmV_0_7_0.c,527 :: 		{Flasher=0;StopMotor(1);StopMotor(2);
	BCF         PORTD+0, 7 
	MOVLW       1
	MOVWF       FARG_StopMotor+0 
	CALL        _StopMotor+0, 0
	MOVLW       2
	MOVWF       FARG_StopMotor+0 
	CALL        _StopMotor+0, 0
;FirmV_0_7_0.c,528 :: 		State=1;                }
	MOVLW       1
	MOVWF       _State+0 
L_State0076:
;FirmV_0_7_0.c,529 :: 		}
	RETURN      0
; end of _State00

_State1:

;FirmV_0_7_0.c,538 :: 		void State1()
;FirmV_0_7_0.c,540 :: 		char delay=3;
	MOVLW       3
	MOVWF       State1_delay_L0+0 
;FirmV_0_7_0.c,543 :: 		Flasher=0;
	BCF         PORTD+0, 7 
;FirmV_0_7_0.c,545 :: 		if(Events.Keys==2)
	MOVF        _Events+0, 0 
	XORLW       2
	BTFSS       STATUS+0, 2 
	GOTO        L_State177
;FirmV_0_7_0.c,546 :: 		{State=100;MenuPointer=0;}
	MOVLW       100
	MOVWF       _State+0 
	CLRF        _MenuPointer+0 
L_State177:
;FirmV_0_7_0.c,548 :: 		ActiveDoors=3-Events.Remote;
	MOVF        _Events+4, 0 
	SUBLW       3
	MOVWF       _ActiveDoors+0 
;FirmV_0_7_0.c,552 :: 		if(Events.Remote!=0)
	MOVF        _Events+4, 0 
	XORLW       0
	BTFSC       STATUS+0, 2 
	GOTO        L_State178
;FirmV_0_7_0.c,555 :: 		ClearTasks(9);
	MOVLW       9
	MOVWF       FARG_ClearTasks+0 
	CALL        _ClearTasks+0, 0
;FirmV_0_7_0.c,556 :: 		Flasher=1;
	BSF         PORTD+0, 7 
;FirmV_0_7_0.c,557 :: 		AddTask(ms500+1,12);
	MOVLW       1
	ADDWF       _ms500+0, 0 
	MOVWF       FARG_AddTask+0 
	MOVLW       0
	ADDWFC      _ms500+1, 0 
	MOVWF       FARG_AddTask+1 
	MOVLW       0
	ADDWFC      _ms500+2, 0 
	MOVWF       FARG_AddTask+2 
	MOVLW       0
	ADDWFC      _ms500+3, 0 
	MOVWF       FARG_AddTask+3 
	MOVLW       12
	MOVWF       FARG_AddTask+0 
	CALL        _AddTask+0, 0
;FirmV_0_7_0.c,558 :: 		temp=ms500+delay;
	MOVF        State1_delay_L0+0, 0 
	ADDWF       _ms500+0, 0 
	MOVWF       R0 
	MOVLW       0
	ADDWFC      _ms500+1, 0 
	MOVWF       R1 
	MOVLW       0
	ADDWFC      _ms500+2, 0 
	MOVWF       R2 
	MOVLW       0
	ADDWFC      _ms500+3, 0 
	MOVWF       R3 
	MOVF        R0, 0 
	MOVWF       _temp+0 
	MOVF        R1, 0 
	MOVWF       _temp+1 
	MOVF        R2, 0 
	MOVWF       _temp+2 
	MOVF        R3, 0 
	MOVWF       _temp+3 
;FirmV_0_7_0.c,559 :: 		AddTask(temp,1);
	MOVF        R0, 0 
	MOVWF       FARG_AddTask+0 
	MOVF        R1, 0 
	MOVWF       FARG_AddTask+1 
	MOVF        R2, 0 
	MOVWF       FARG_AddTask+2 
	MOVF        R3, 0 
	MOVWF       FARG_AddTask+3 
	MOVLW       1
	MOVWF       FARG_AddTask+0 
	CALL        _AddTask+0, 0
;FirmV_0_7_0.c,560 :: 		if(OpenSoftStartTime!=0)
	MOVF        _OpenSoftStartTime+0, 0 
	XORLW       0
	BTFSC       STATUS+0, 2 
	GOTO        L_State179
;FirmV_0_7_0.c,561 :: 		{AddTask(temp,7); M1isSlow=1;}//speed down
	MOVF        _temp+0, 0 
	MOVWF       FARG_AddTask+0 
	MOVF        _temp+1, 0 
	MOVWF       FARG_AddTask+1 
	MOVF        _temp+2, 0 
	MOVWF       FARG_AddTask+2 
	MOVF        _temp+3, 0 
	MOVWF       FARG_AddTask+3 
	MOVLW       7
	MOVWF       FARG_AddTask+0 
	CALL        _AddTask+0, 0
	MOVLW       1
	MOVWF       _M1isSlow+0 
	GOTO        L_State180
L_State179:
;FirmV_0_7_0.c,563 :: 		{AddTask(temp,5); M1isSlow=0;}//speed up
	MOVF        _temp+0, 0 
	MOVWF       FARG_AddTask+0 
	MOVF        _temp+1, 0 
	MOVWF       FARG_AddTask+1 
	MOVF        _temp+2, 0 
	MOVWF       FARG_AddTask+2 
	MOVF        _temp+3, 0 
	MOVWF       FARG_AddTask+3 
	MOVLW       5
	MOVWF       FARG_AddTask+0 
	CALL        _AddTask+0, 0
	CLRF        _M1isSlow+0 
L_State180:
;FirmV_0_7_0.c,564 :: 		temp=ms500+OpenSoftStartTime+OverloadDelay+delay;
	MOVF        _OpenSoftStartTime+0, 0 
	ADDWF       _ms500+0, 0 
	MOVWF       R0 
	MOVLW       0
	ADDWFC      _ms500+1, 0 
	MOVWF       R1 
	MOVLW       0
	ADDWFC      _ms500+2, 0 
	MOVWF       R2 
	MOVLW       0
	ADDWFC      _ms500+3, 0 
	MOVWF       R3 
	MOVLW       2
	ADDWF       R0, 1 
	MOVLW       0
	ADDWFC      R1, 1 
	ADDWFC      R2, 1 
	ADDWFC      R3, 1 
	MOVF        State1_delay_L0+0, 0 
	ADDWF       R0, 1 
	MOVLW       0
	ADDWFC      R1, 1 
	ADDWFC      R2, 1 
	ADDWFC      R3, 1 
	MOVF        R0, 0 
	MOVWF       _temp+0 
	MOVF        R1, 0 
	MOVWF       _temp+1 
	MOVF        R2, 0 
	MOVWF       _temp+2 
	MOVF        R3, 0 
	MOVWF       _temp+3 
;FirmV_0_7_0.c,565 :: 		AddTask(temp,10); //overload check
	MOVF        R0, 0 
	MOVWF       FARG_AddTask+0 
	MOVF        R1, 0 
	MOVWF       FARG_AddTask+1 
	MOVF        R2, 0 
	MOVWF       FARG_AddTask+2 
	MOVF        R3, 0 
	MOVWF       FARG_AddTask+3 
	MOVLW       10
	MOVWF       FARG_AddTask+0 
	CALL        _AddTask+0, 0
;FirmV_0_7_0.c,566 :: 		temp=ms500+OpenSoftStartTime+delay;
	MOVF        _OpenSoftStartTime+0, 0 
	ADDWF       _ms500+0, 0 
	MOVWF       R0 
	MOVLW       0
	ADDWFC      _ms500+1, 0 
	MOVWF       R1 
	MOVLW       0
	ADDWFC      _ms500+2, 0 
	MOVWF       R2 
	MOVLW       0
	ADDWFC      _ms500+3, 0 
	MOVWF       R3 
	MOVF        State1_delay_L0+0, 0 
	ADDWF       R0, 1 
	MOVLW       0
	ADDWFC      R1, 1 
	ADDWFC      R2, 1 
	ADDWFC      R3, 1 
	MOVF        R0, 0 
	MOVWF       _temp+0 
	MOVF        R1, 0 
	MOVWF       _temp+1 
	MOVF        R2, 0 
	MOVWF       _temp+2 
	MOVF        R3, 0 
	MOVWF       _temp+3 
;FirmV_0_7_0.c,567 :: 		AddTask(temp,5);//Speed up after soft start
	MOVF        R0, 0 
	MOVWF       FARG_AddTask+0 
	MOVF        R1, 0 
	MOVWF       FARG_AddTask+1 
	MOVF        R2, 0 
	MOVWF       FARG_AddTask+2 
	MOVF        R3, 0 
	MOVWF       FARG_AddTask+3 
	MOVLW       5
	MOVWF       FARG_AddTask+0 
	CALL        _AddTask+0, 0
;FirmV_0_7_0.c,568 :: 		if(OpenSoftStopTime!=0)
	MOVF        _OpenSoftStopTime+0, 0 
	XORLW       0
	BTFSC       STATUS+0, 2 
	GOTO        L_State181
;FirmV_0_7_0.c,569 :: 		{temp=ms500+Door1OpenTime-OpenSoftStopTime+delay;AddTask(temp,7);}//Speed down for soft stop
	MOVF        _Door1OpenTime+0, 0 
	ADDWF       _ms500+0, 0 
	MOVWF       R0 
	MOVLW       0
	ADDWFC      _ms500+1, 0 
	MOVWF       R1 
	MOVLW       0
	ADDWFC      _ms500+2, 0 
	MOVWF       R2 
	MOVLW       0
	ADDWFC      _ms500+3, 0 
	MOVWF       R3 
	MOVF        _OpenSoftStopTime+0, 0 
	SUBWF       R0, 1 
	MOVLW       0
	SUBWFB      R1, 1 
	SUBWFB      R2, 1 
	SUBWFB      R3, 1 
	MOVF        State1_delay_L0+0, 0 
	ADDWF       R0, 1 
	MOVLW       0
	ADDWFC      R1, 1 
	ADDWFC      R2, 1 
	ADDWFC      R3, 1 
	MOVF        R0, 0 
	MOVWF       _temp+0 
	MOVF        R1, 0 
	MOVWF       _temp+1 
	MOVF        R2, 0 
	MOVWF       _temp+2 
	MOVF        R3, 0 
	MOVWF       _temp+3 
	MOVF        R0, 0 
	MOVWF       FARG_AddTask+0 
	MOVF        R1, 0 
	MOVWF       FARG_AddTask+1 
	MOVF        R2, 0 
	MOVWF       FARG_AddTask+2 
	MOVF        R3, 0 
	MOVWF       FARG_AddTask+3 
	MOVLW       7
	MOVWF       FARG_AddTask+0 
	CALL        _AddTask+0, 0
L_State181:
;FirmV_0_7_0.c,570 :: 		temp=ms500+Door1OpenTime+delay;
	MOVF        _Door1OpenTime+0, 0 
	ADDWF       _ms500+0, 0 
	MOVWF       R0 
	MOVLW       0
	ADDWFC      _ms500+1, 0 
	MOVWF       R1 
	MOVLW       0
	ADDWFC      _ms500+2, 0 
	MOVWF       R2 
	MOVLW       0
	ADDWFC      _ms500+3, 0 
	MOVWF       R3 
	MOVF        State1_delay_L0+0, 0 
	ADDWF       R0, 1 
	MOVLW       0
	ADDWFC      R1, 1 
	ADDWFC      R2, 1 
	ADDWFC      R3, 1 
	MOVF        R0, 0 
	MOVWF       _temp+0 
	MOVF        R1, 0 
	MOVWF       _temp+1 
	MOVF        R2, 0 
	MOVWF       _temp+2 
	MOVF        R3, 0 
	MOVWF       _temp+3 
;FirmV_0_7_0.c,571 :: 		AddTask(temp,3);//Stop motor
	MOVF        R0, 0 
	MOVWF       FARG_AddTask+0 
	MOVF        R1, 0 
	MOVWF       FARG_AddTask+1 
	MOVF        R2, 0 
	MOVWF       FARG_AddTask+2 
	MOVF        R3, 0 
	MOVWF       FARG_AddTask+3 
	MOVLW       3
	MOVWF       FARG_AddTask+0 
	CALL        _AddTask+0, 0
;FirmV_0_7_0.c,573 :: 		if((Door2OpenTime!=0)&&(ActiveDoors==2))
	MOVF        _Door2OpenTime+0, 0 
	XORLW       0
	BTFSC       STATUS+0, 2 
	GOTO        L_State184
	MOVF        _ActiveDoors+0, 0 
	XORLW       2
	BTFSS       STATUS+0, 2 
	GOTO        L_State184
L__State1681:
;FirmV_0_7_0.c,575 :: 		temp=ms500+ActionTimeDiff+delay;
	MOVF        _ActionTimeDiff+0, 0 
	ADDWF       _ms500+0, 0 
	MOVWF       R0 
	MOVLW       0
	ADDWFC      _ms500+1, 0 
	MOVWF       R1 
	MOVLW       0
	ADDWFC      _ms500+2, 0 
	MOVWF       R2 
	MOVLW       0
	ADDWFC      _ms500+3, 0 
	MOVWF       R3 
	MOVF        State1_delay_L0+0, 0 
	ADDWF       R0, 1 
	MOVLW       0
	ADDWFC      R1, 1 
	ADDWFC      R2, 1 
	ADDWFC      R3, 1 
	MOVF        R0, 0 
	MOVWF       _temp+0 
	MOVF        R1, 0 
	MOVWF       _temp+1 
	MOVF        R2, 0 
	MOVWF       _temp+2 
	MOVF        R3, 0 
	MOVWF       _temp+3 
;FirmV_0_7_0.c,576 :: 		AddTask(temp,2);
	MOVF        R0, 0 
	MOVWF       FARG_AddTask+0 
	MOVF        R1, 0 
	MOVWF       FARG_AddTask+1 
	MOVF        R2, 0 
	MOVWF       FARG_AddTask+2 
	MOVF        R3, 0 
	MOVWF       FARG_AddTask+3 
	MOVLW       2
	MOVWF       FARG_AddTask+0 
	CALL        _AddTask+0, 0
;FirmV_0_7_0.c,577 :: 		if(OpenSoftStartTime!=0)
	MOVF        _OpenSoftStartTime+0, 0 
	XORLW       0
	BTFSC       STATUS+0, 2 
	GOTO        L_State185
;FirmV_0_7_0.c,578 :: 		{temp=ms500+ActionTimeDiff+delay;AddTask(temp,8); M2isSlow=1;}//speed down
	MOVF        _ActionTimeDiff+0, 0 
	ADDWF       _ms500+0, 0 
	MOVWF       R0 
	MOVLW       0
	ADDWFC      _ms500+1, 0 
	MOVWF       R1 
	MOVLW       0
	ADDWFC      _ms500+2, 0 
	MOVWF       R2 
	MOVLW       0
	ADDWFC      _ms500+3, 0 
	MOVWF       R3 
	MOVF        State1_delay_L0+0, 0 
	ADDWF       R0, 1 
	MOVLW       0
	ADDWFC      R1, 1 
	ADDWFC      R2, 1 
	ADDWFC      R3, 1 
	MOVF        R0, 0 
	MOVWF       _temp+0 
	MOVF        R1, 0 
	MOVWF       _temp+1 
	MOVF        R2, 0 
	MOVWF       _temp+2 
	MOVF        R3, 0 
	MOVWF       _temp+3 
	MOVF        R0, 0 
	MOVWF       FARG_AddTask+0 
	MOVF        R1, 0 
	MOVWF       FARG_AddTask+1 
	MOVF        R2, 0 
	MOVWF       FARG_AddTask+2 
	MOVF        R3, 0 
	MOVWF       FARG_AddTask+3 
	MOVLW       8
	MOVWF       FARG_AddTask+0 
	CALL        _AddTask+0, 0
	MOVLW       1
	MOVWF       _M2isSlow+0 
	GOTO        L_State186
L_State185:
;FirmV_0_7_0.c,580 :: 		{temp=ms500+ActionTimeDiff+delay;AddTask(temp,6); M2isSlow=0;}//speed up
	MOVF        _ActionTimeDiff+0, 0 
	ADDWF       _ms500+0, 0 
	MOVWF       R0 
	MOVLW       0
	ADDWFC      _ms500+1, 0 
	MOVWF       R1 
	MOVLW       0
	ADDWFC      _ms500+2, 0 
	MOVWF       R2 
	MOVLW       0
	ADDWFC      _ms500+3, 0 
	MOVWF       R3 
	MOVF        State1_delay_L0+0, 0 
	ADDWF       R0, 1 
	MOVLW       0
	ADDWFC      R1, 1 
	ADDWFC      R2, 1 
	ADDWFC      R3, 1 
	MOVF        R0, 0 
	MOVWF       _temp+0 
	MOVF        R1, 0 
	MOVWF       _temp+1 
	MOVF        R2, 0 
	MOVWF       _temp+2 
	MOVF        R3, 0 
	MOVWF       _temp+3 
	MOVF        R0, 0 
	MOVWF       FARG_AddTask+0 
	MOVF        R1, 0 
	MOVWF       FARG_AddTask+1 
	MOVF        R2, 0 
	MOVWF       FARG_AddTask+2 
	MOVF        R3, 0 
	MOVWF       FARG_AddTask+3 
	MOVLW       6
	MOVWF       FARG_AddTask+0 
	CALL        _AddTask+0, 0
	CLRF        _M2isSlow+0 
L_State186:
;FirmV_0_7_0.c,581 :: 		temp=ms500+ActionTimeDiff+OpenSoftStartTime+OverloadDelay+delay;
	MOVF        _ActionTimeDiff+0, 0 
	ADDWF       _ms500+0, 0 
	MOVWF       R0 
	MOVLW       0
	ADDWFC      _ms500+1, 0 
	MOVWF       R1 
	MOVLW       0
	ADDWFC      _ms500+2, 0 
	MOVWF       R2 
	MOVLW       0
	ADDWFC      _ms500+3, 0 
	MOVWF       R3 
	MOVF        _OpenSoftStartTime+0, 0 
	ADDWF       R0, 1 
	MOVLW       0
	ADDWFC      R1, 1 
	ADDWFC      R2, 1 
	ADDWFC      R3, 1 
	MOVLW       2
	ADDWF       R0, 1 
	MOVLW       0
	ADDWFC      R1, 1 
	ADDWFC      R2, 1 
	ADDWFC      R3, 1 
	MOVF        State1_delay_L0+0, 0 
	ADDWF       R0, 1 
	MOVLW       0
	ADDWFC      R1, 1 
	ADDWFC      R2, 1 
	ADDWFC      R3, 1 
	MOVF        R0, 0 
	MOVWF       _temp+0 
	MOVF        R1, 0 
	MOVWF       _temp+1 
	MOVF        R2, 0 
	MOVWF       _temp+2 
	MOVF        R3, 0 
	MOVWF       _temp+3 
;FirmV_0_7_0.c,582 :: 		AddTask(temp,11); //overload check
	MOVF        R0, 0 
	MOVWF       FARG_AddTask+0 
	MOVF        R1, 0 
	MOVWF       FARG_AddTask+1 
	MOVF        R2, 0 
	MOVWF       FARG_AddTask+2 
	MOVF        R3, 0 
	MOVWF       FARG_AddTask+3 
	MOVLW       11
	MOVWF       FARG_AddTask+0 
	CALL        _AddTask+0, 0
;FirmV_0_7_0.c,583 :: 		temp=ms500+ActionTimeDiff+OpenSoftStartTime+delay;
	MOVF        _ActionTimeDiff+0, 0 
	ADDWF       _ms500+0, 0 
	MOVWF       R0 
	MOVLW       0
	ADDWFC      _ms500+1, 0 
	MOVWF       R1 
	MOVLW       0
	ADDWFC      _ms500+2, 0 
	MOVWF       R2 
	MOVLW       0
	ADDWFC      _ms500+3, 0 
	MOVWF       R3 
	MOVF        _OpenSoftStartTime+0, 0 
	ADDWF       R0, 1 
	MOVLW       0
	ADDWFC      R1, 1 
	ADDWFC      R2, 1 
	ADDWFC      R3, 1 
	MOVF        State1_delay_L0+0, 0 
	ADDWF       R0, 1 
	MOVLW       0
	ADDWFC      R1, 1 
	ADDWFC      R2, 1 
	ADDWFC      R3, 1 
	MOVF        R0, 0 
	MOVWF       _temp+0 
	MOVF        R1, 0 
	MOVWF       _temp+1 
	MOVF        R2, 0 
	MOVWF       _temp+2 
	MOVF        R3, 0 
	MOVWF       _temp+3 
;FirmV_0_7_0.c,584 :: 		AddTask(temp,6);//Speed up after soft start
	MOVF        R0, 0 
	MOVWF       FARG_AddTask+0 
	MOVF        R1, 0 
	MOVWF       FARG_AddTask+1 
	MOVF        R2, 0 
	MOVWF       FARG_AddTask+2 
	MOVF        R3, 0 
	MOVWF       FARG_AddTask+3 
	MOVLW       6
	MOVWF       FARG_AddTask+0 
	CALL        _AddTask+0, 0
;FirmV_0_7_0.c,585 :: 		if(OpenSoftStopTime!=0)
	MOVF        _OpenSoftStopTime+0, 0 
	XORLW       0
	BTFSC       STATUS+0, 2 
	GOTO        L_State187
;FirmV_0_7_0.c,586 :: 		{temp=ms500+ActionTimeDiff+Door2OpenTime-OpenSoftStopTime+delay;AddTask(temp,8);}//Speed down for soft stop
	MOVF        _ActionTimeDiff+0, 0 
	ADDWF       _ms500+0, 0 
	MOVWF       R0 
	MOVLW       0
	ADDWFC      _ms500+1, 0 
	MOVWF       R1 
	MOVLW       0
	ADDWFC      _ms500+2, 0 
	MOVWF       R2 
	MOVLW       0
	ADDWFC      _ms500+3, 0 
	MOVWF       R3 
	MOVF        _Door2OpenTime+0, 0 
	ADDWF       R0, 1 
	MOVLW       0
	ADDWFC      R1, 1 
	ADDWFC      R2, 1 
	ADDWFC      R3, 1 
	MOVF        _OpenSoftStopTime+0, 0 
	SUBWF       R0, 1 
	MOVLW       0
	SUBWFB      R1, 1 
	SUBWFB      R2, 1 
	SUBWFB      R3, 1 
	MOVF        State1_delay_L0+0, 0 
	ADDWF       R0, 1 
	MOVLW       0
	ADDWFC      R1, 1 
	ADDWFC      R2, 1 
	ADDWFC      R3, 1 
	MOVF        R0, 0 
	MOVWF       _temp+0 
	MOVF        R1, 0 
	MOVWF       _temp+1 
	MOVF        R2, 0 
	MOVWF       _temp+2 
	MOVF        R3, 0 
	MOVWF       _temp+3 
	MOVF        R0, 0 
	MOVWF       FARG_AddTask+0 
	MOVF        R1, 0 
	MOVWF       FARG_AddTask+1 
	MOVF        R2, 0 
	MOVWF       FARG_AddTask+2 
	MOVF        R3, 0 
	MOVWF       FARG_AddTask+3 
	MOVLW       8
	MOVWF       FARG_AddTask+0 
	CALL        _AddTask+0, 0
L_State187:
;FirmV_0_7_0.c,587 :: 		temp=ms500+Door2OpenTime+ActionTimeDiff+delay;
	MOVF        _Door2OpenTime+0, 0 
	ADDWF       _ms500+0, 0 
	MOVWF       R0 
	MOVLW       0
	ADDWFC      _ms500+1, 0 
	MOVWF       R1 
	MOVLW       0
	ADDWFC      _ms500+2, 0 
	MOVWF       R2 
	MOVLW       0
	ADDWFC      _ms500+3, 0 
	MOVWF       R3 
	MOVF        _ActionTimeDiff+0, 0 
	ADDWF       R0, 1 
	MOVLW       0
	ADDWFC      R1, 1 
	ADDWFC      R2, 1 
	ADDWFC      R3, 1 
	MOVF        State1_delay_L0+0, 0 
	ADDWF       R0, 1 
	MOVLW       0
	ADDWFC      R1, 1 
	ADDWFC      R2, 1 
	ADDWFC      R3, 1 
	MOVF        R0, 0 
	MOVWF       _temp+0 
	MOVF        R1, 0 
	MOVWF       _temp+1 
	MOVF        R2, 0 
	MOVWF       _temp+2 
	MOVF        R3, 0 
	MOVWF       _temp+3 
;FirmV_0_7_0.c,588 :: 		AddTask(temp,4);//Stop motor
	MOVF        R0, 0 
	MOVWF       FARG_AddTask+0 
	MOVF        R1, 0 
	MOVWF       FARG_AddTask+1 
	MOVF        R2, 0 
	MOVWF       FARG_AddTask+2 
	MOVF        R3, 0 
	MOVWF       FARG_AddTask+3 
	MOVLW       4
	MOVWF       FARG_AddTask+0 
	CALL        _AddTask+0, 0
;FirmV_0_7_0.c,589 :: 		}
L_State184:
;FirmV_0_7_0.c,591 :: 		if(AutoCloseTime!=0)
	MOVLW       0
	XORWF       _AutoCloseTime+1, 0 
	BTFSS       STATUS+0, 2 
	GOTO        L__State1782
	MOVLW       0
	XORWF       _AutoCloseTime+0, 0 
L__State1782:
	BTFSC       STATUS+0, 2 
	GOTO        L_State188
;FirmV_0_7_0.c,592 :: 		{temp=ms500+AutoCloseTime+delay;AddTask(ms500+AutoCloseTime+delay,9);}
	MOVF        _AutoCloseTime+0, 0 
	ADDWF       _ms500+0, 0 
	MOVWF       R0 
	MOVF        _AutoCloseTime+1, 0 
	ADDWFC      _ms500+1, 0 
	MOVWF       R1 
	MOVLW       0
	ADDWFC      _ms500+2, 0 
	MOVWF       R2 
	MOVLW       0
	ADDWFC      _ms500+3, 0 
	MOVWF       R3 
	MOVF        State1_delay_L0+0, 0 
	ADDWF       R0, 1 
	MOVLW       0
	ADDWFC      R1, 1 
	ADDWFC      R2, 1 
	ADDWFC      R3, 1 
	MOVF        R0, 0 
	MOVWF       _temp+0 
	MOVF        R1, 0 
	MOVWF       _temp+1 
	MOVF        R2, 0 
	MOVWF       _temp+2 
	MOVF        R3, 0 
	MOVWF       _temp+3 
	MOVF        R0, 0 
	MOVWF       FARG_AddTask+0 
	MOVF        R1, 0 
	MOVWF       FARG_AddTask+1 
	MOVF        R2, 0 
	MOVWF       FARG_AddTask+2 
	MOVF        R3, 0 
	MOVWF       FARG_AddTask+3 
	MOVLW       9
	MOVWF       FARG_AddTask+0 
	CALL        _AddTask+0, 0
L_State188:
;FirmV_0_7_0.c,594 :: 		OpenDone=3;
	MOVLW       3
	MOVWF       _OpenDone+0 
;FirmV_0_7_0.c,595 :: 		OverloadCheckFlag1=0;
	CLRF        _OverloadCheckFlag1+0 
;FirmV_0_7_0.c,596 :: 		OverloadCheckFlag2=0;
	CLRF        _OverloadCheckFlag2+0 
;FirmV_0_7_0.c,597 :: 		State=3;
	MOVLW       3
	MOVWF       _State+0 
;FirmV_0_7_0.c,598 :: 		PassFlag=0;
	CLRF        _PassFlag+0 
;FirmV_0_7_0.c,599 :: 		}
L_State178:
;FirmV_0_7_0.c,600 :: 		}
	RETURN      0
; end of _State1

_State2:

;FirmV_0_7_0.c,614 :: 		void State2()
;FirmV_0_7_0.c,616 :: 		char delay=2;
	MOVLW       2
	MOVWF       State2_delay_L0+0 
;FirmV_0_7_0.c,618 :: 		Flasher=0;
	BCF         PORTD+0, 7 
;FirmV_0_7_0.c,620 :: 		if((Events.Remote!=0)||(CheckTask(9)==1))
	MOVF        _Events+4, 0 
	XORLW       0
	BTFSS       STATUS+0, 2 
	GOTO        L__State2686
	MOVLW       9
	MOVWF       FARG_CheckTask+0 
	CALL        _CheckTask+0, 0
	MOVF        R0, 0 
	XORLW       1
	BTFSC       STATUS+0, 2 
	GOTO        L__State2686
	GOTO        L_State291
L__State2686:
;FirmV_0_7_0.c,623 :: 		ClearTasks(9);
	MOVLW       9
	MOVWF       FARG_ClearTasks+0 
	CALL        _ClearTasks+0, 0
;FirmV_0_7_0.c,624 :: 		if((Door2CloseTime==0)||(ActiveDoors==1))
	MOVF        _Door2CloseTime+0, 0 
	XORLW       0
	BTFSC       STATUS+0, 2 
	GOTO        L__State2685
	MOVF        _ActiveDoors+0, 0 
	XORLW       1
	BTFSC       STATUS+0, 2 
	GOTO        L__State2685
	GOTO        L_State294
L__State2685:
;FirmV_0_7_0.c,626 :: 		temp=ms500+delay;
	MOVF        State2_delay_L0+0, 0 
	ADDWF       _ms500+0, 0 
	MOVWF       R0 
	MOVLW       0
	ADDWFC      _ms500+1, 0 
	MOVWF       R1 
	MOVLW       0
	ADDWFC      _ms500+2, 0 
	MOVWF       R2 
	MOVLW       0
	ADDWFC      _ms500+3, 0 
	MOVWF       R3 
	MOVF        R0, 0 
	MOVWF       _temp+0 
	MOVF        R1, 0 
	MOVWF       _temp+1 
	MOVF        R2, 0 
	MOVWF       _temp+2 
	MOVF        R3, 0 
	MOVWF       _temp+3 
;FirmV_0_7_0.c,627 :: 		AddTask(temp,1);
	MOVF        R0, 0 
	MOVWF       FARG_AddTask+0 
	MOVF        R1, 0 
	MOVWF       FARG_AddTask+1 
	MOVF        R2, 0 
	MOVWF       FARG_AddTask+2 
	MOVF        R3, 0 
	MOVWF       FARG_AddTask+3 
	MOVLW       1
	MOVWF       FARG_AddTask+0 
	CALL        _AddTask+0, 0
;FirmV_0_7_0.c,628 :: 		if(CloseSoftStartTime!=0)
	MOVF        _CloseSoftStartTime+0, 0 
	XORLW       0
	BTFSC       STATUS+0, 2 
	GOTO        L_State295
;FirmV_0_7_0.c,629 :: 		{AddTask(temp,7); M1isSlow=1;}//speed down
	MOVF        _temp+0, 0 
	MOVWF       FARG_AddTask+0 
	MOVF        _temp+1, 0 
	MOVWF       FARG_AddTask+1 
	MOVF        _temp+2, 0 
	MOVWF       FARG_AddTask+2 
	MOVF        _temp+3, 0 
	MOVWF       FARG_AddTask+3 
	MOVLW       7
	MOVWF       FARG_AddTask+0 
	CALL        _AddTask+0, 0
	MOVLW       1
	MOVWF       _M1isSlow+0 
	GOTO        L_State296
L_State295:
;FirmV_0_7_0.c,631 :: 		{AddTask(temp,5); M1isSlow=0;}//speed up
	MOVF        _temp+0, 0 
	MOVWF       FARG_AddTask+0 
	MOVF        _temp+1, 0 
	MOVWF       FARG_AddTask+1 
	MOVF        _temp+2, 0 
	MOVWF       FARG_AddTask+2 
	MOVF        _temp+3, 0 
	MOVWF       FARG_AddTask+3 
	MOVLW       5
	MOVWF       FARG_AddTask+0 
	CALL        _AddTask+0, 0
	CLRF        _M1isSlow+0 
L_State296:
;FirmV_0_7_0.c,632 :: 		temp=ms500+CloseSoftStartTime+OverloadDelay+delay;
	MOVF        _CloseSoftStartTime+0, 0 
	ADDWF       _ms500+0, 0 
	MOVWF       R0 
	MOVLW       0
	ADDWFC      _ms500+1, 0 
	MOVWF       R1 
	MOVLW       0
	ADDWFC      _ms500+2, 0 
	MOVWF       R2 
	MOVLW       0
	ADDWFC      _ms500+3, 0 
	MOVWF       R3 
	MOVLW       2
	ADDWF       R0, 1 
	MOVLW       0
	ADDWFC      R1, 1 
	ADDWFC      R2, 1 
	ADDWFC      R3, 1 
	MOVF        State2_delay_L0+0, 0 
	ADDWF       R0, 1 
	MOVLW       0
	ADDWFC      R1, 1 
	ADDWFC      R2, 1 
	ADDWFC      R3, 1 
	MOVF        R0, 0 
	MOVWF       _temp+0 
	MOVF        R1, 0 
	MOVWF       _temp+1 
	MOVF        R2, 0 
	MOVWF       _temp+2 
	MOVF        R3, 0 
	MOVWF       _temp+3 
;FirmV_0_7_0.c,633 :: 		AddTask(temp,10); //overload check
	MOVF        R0, 0 
	MOVWF       FARG_AddTask+0 
	MOVF        R1, 0 
	MOVWF       FARG_AddTask+1 
	MOVF        R2, 0 
	MOVWF       FARG_AddTask+2 
	MOVF        R3, 0 
	MOVWF       FARG_AddTask+3 
	MOVLW       10
	MOVWF       FARG_AddTask+0 
	CALL        _AddTask+0, 0
;FirmV_0_7_0.c,634 :: 		temp=ms500+CloseSoftStartTime+delay;
	MOVF        _CloseSoftStartTime+0, 0 
	ADDWF       _ms500+0, 0 
	MOVWF       R0 
	MOVLW       0
	ADDWFC      _ms500+1, 0 
	MOVWF       R1 
	MOVLW       0
	ADDWFC      _ms500+2, 0 
	MOVWF       R2 
	MOVLW       0
	ADDWFC      _ms500+3, 0 
	MOVWF       R3 
	MOVF        State2_delay_L0+0, 0 
	ADDWF       R0, 1 
	MOVLW       0
	ADDWFC      R1, 1 
	ADDWFC      R2, 1 
	ADDWFC      R3, 1 
	MOVF        R0, 0 
	MOVWF       _temp+0 
	MOVF        R1, 0 
	MOVWF       _temp+1 
	MOVF        R2, 0 
	MOVWF       _temp+2 
	MOVF        R3, 0 
	MOVWF       _temp+3 
;FirmV_0_7_0.c,635 :: 		AddTask(temp,5);//Speed up after soft start
	MOVF        R0, 0 
	MOVWF       FARG_AddTask+0 
	MOVF        R1, 0 
	MOVWF       FARG_AddTask+1 
	MOVF        R2, 0 
	MOVWF       FARG_AddTask+2 
	MOVF        R3, 0 
	MOVWF       FARG_AddTask+3 
	MOVLW       5
	MOVWF       FARG_AddTask+0 
	CALL        _AddTask+0, 0
;FirmV_0_7_0.c,636 :: 		if(CloseSoftStopTime!=0)
	MOVF        _CloseSoftStopTime+0, 0 
	XORLW       0
	BTFSC       STATUS+0, 2 
	GOTO        L_State297
;FirmV_0_7_0.c,637 :: 		{temp=ms500+Door1CloseTime-CloseSoftStopTime+delay;AddTask(temp,7);}//Speed down for soft stop
	MOVF        _Door1CloseTime+0, 0 
	ADDWF       _ms500+0, 0 
	MOVWF       R0 
	MOVLW       0
	ADDWFC      _ms500+1, 0 
	MOVWF       R1 
	MOVLW       0
	ADDWFC      _ms500+2, 0 
	MOVWF       R2 
	MOVLW       0
	ADDWFC      _ms500+3, 0 
	MOVWF       R3 
	MOVF        _CloseSoftStopTime+0, 0 
	SUBWF       R0, 1 
	MOVLW       0
	SUBWFB      R1, 1 
	SUBWFB      R2, 1 
	SUBWFB      R3, 1 
	MOVF        State2_delay_L0+0, 0 
	ADDWF       R0, 1 
	MOVLW       0
	ADDWFC      R1, 1 
	ADDWFC      R2, 1 
	ADDWFC      R3, 1 
	MOVF        R0, 0 
	MOVWF       _temp+0 
	MOVF        R1, 0 
	MOVWF       _temp+1 
	MOVF        R2, 0 
	MOVWF       _temp+2 
	MOVF        R3, 0 
	MOVWF       _temp+3 
	MOVF        R0, 0 
	MOVWF       FARG_AddTask+0 
	MOVF        R1, 0 
	MOVWF       FARG_AddTask+1 
	MOVF        R2, 0 
	MOVWF       FARG_AddTask+2 
	MOVF        R3, 0 
	MOVWF       FARG_AddTask+3 
	MOVLW       7
	MOVWF       FARG_AddTask+0 
	CALL        _AddTask+0, 0
L_State297:
;FirmV_0_7_0.c,638 :: 		if(LockForce!=0)
	MOVF        _LockForce+0, 0 
	XORLW       0
	BTFSC       STATUS+0, 2 
	GOTO        L_State298
;FirmV_0_7_0.c,639 :: 		{temp=ms500+Door1CloseTime+delay;AddTask(temp,5);AddTask(temp+LockForceTime,3);}
	MOVF        _Door1CloseTime+0, 0 
	ADDWF       _ms500+0, 0 
	MOVWF       R0 
	MOVLW       0
	ADDWFC      _ms500+1, 0 
	MOVWF       R1 
	MOVLW       0
	ADDWFC      _ms500+2, 0 
	MOVWF       R2 
	MOVLW       0
	ADDWFC      _ms500+3, 0 
	MOVWF       R3 
	MOVF        State2_delay_L0+0, 0 
	ADDWF       R0, 1 
	MOVLW       0
	ADDWFC      R1, 1 
	ADDWFC      R2, 1 
	ADDWFC      R3, 1 
	MOVF        R0, 0 
	MOVWF       _temp+0 
	MOVF        R1, 0 
	MOVWF       _temp+1 
	MOVF        R2, 0 
	MOVWF       _temp+2 
	MOVF        R3, 0 
	MOVWF       _temp+3 
	MOVF        R0, 0 
	MOVWF       FARG_AddTask+0 
	MOVF        R1, 0 
	MOVWF       FARG_AddTask+1 
	MOVF        R2, 0 
	MOVWF       FARG_AddTask+2 
	MOVF        R3, 0 
	MOVWF       FARG_AddTask+3 
	MOVLW       5
	MOVWF       FARG_AddTask+0 
	CALL        _AddTask+0, 0
	MOVLW       2
	ADDWF       _temp+0, 0 
	MOVWF       FARG_AddTask+0 
	MOVLW       0
	ADDWFC      _temp+1, 0 
	MOVWF       FARG_AddTask+1 
	MOVLW       0
	ADDWFC      _temp+2, 0 
	MOVWF       FARG_AddTask+2 
	MOVLW       0
	ADDWFC      _temp+3, 0 
	MOVWF       FARG_AddTask+3 
	MOVLW       3
	MOVWF       FARG_AddTask+0 
	CALL        _AddTask+0, 0
	GOTO        L_State299
L_State298:
;FirmV_0_7_0.c,641 :: 		{temp=ms500+Door1CloseTime+delay;AddTask(temp,3);}
	MOVF        _Door1CloseTime+0, 0 
	ADDWF       _ms500+0, 0 
	MOVWF       R0 
	MOVLW       0
	ADDWFC      _ms500+1, 0 
	MOVWF       R1 
	MOVLW       0
	ADDWFC      _ms500+2, 0 
	MOVWF       R2 
	MOVLW       0
	ADDWFC      _ms500+3, 0 
	MOVWF       R3 
	MOVF        State2_delay_L0+0, 0 
	ADDWF       R0, 1 
	MOVLW       0
	ADDWFC      R1, 1 
	ADDWFC      R2, 1 
	ADDWFC      R3, 1 
	MOVF        R0, 0 
	MOVWF       _temp+0 
	MOVF        R1, 0 
	MOVWF       _temp+1 
	MOVF        R2, 0 
	MOVWF       _temp+2 
	MOVF        R3, 0 
	MOVWF       _temp+3 
	MOVF        R0, 0 
	MOVWF       FARG_AddTask+0 
	MOVF        R1, 0 
	MOVWF       FARG_AddTask+1 
	MOVF        R2, 0 
	MOVWF       FARG_AddTask+2 
	MOVF        R3, 0 
	MOVWF       FARG_AddTask+3 
	MOVLW       3
	MOVWF       FARG_AddTask+0 
	CALL        _AddTask+0, 0
L_State299:
;FirmV_0_7_0.c,643 :: 		}
L_State294:
;FirmV_0_7_0.c,645 :: 		if((Door2CloseTime!=0)&&(ActiveDoors==2))
	MOVF        _Door2CloseTime+0, 0 
	XORLW       0
	BTFSC       STATUS+0, 2 
	GOTO        L_State2102
	MOVF        _ActiveDoors+0, 0 
	XORLW       2
	BTFSS       STATUS+0, 2 
	GOTO        L_State2102
L__State2684:
;FirmV_0_7_0.c,647 :: 		temp=ms500+delay;
	MOVF        State2_delay_L0+0, 0 
	ADDWF       _ms500+0, 0 
	MOVWF       R0 
	MOVLW       0
	ADDWFC      _ms500+1, 0 
	MOVWF       R1 
	MOVLW       0
	ADDWFC      _ms500+2, 0 
	MOVWF       R2 
	MOVLW       0
	ADDWFC      _ms500+3, 0 
	MOVWF       R3 
	MOVF        R0, 0 
	MOVWF       _temp+0 
	MOVF        R1, 0 
	MOVWF       _temp+1 
	MOVF        R2, 0 
	MOVWF       _temp+2 
	MOVF        R3, 0 
	MOVWF       _temp+3 
;FirmV_0_7_0.c,648 :: 		AddTask(temp,2);
	MOVF        R0, 0 
	MOVWF       FARG_AddTask+0 
	MOVF        R1, 0 
	MOVWF       FARG_AddTask+1 
	MOVF        R2, 0 
	MOVWF       FARG_AddTask+2 
	MOVF        R3, 0 
	MOVWF       FARG_AddTask+3 
	MOVLW       2
	MOVWF       FARG_AddTask+0 
	CALL        _AddTask+0, 0
;FirmV_0_7_0.c,649 :: 		if(CloseSoftStartTime!=0)
	MOVF        _CloseSoftStartTime+0, 0 
	XORLW       0
	BTFSC       STATUS+0, 2 
	GOTO        L_State2103
;FirmV_0_7_0.c,650 :: 		{AddTask(temp,8); M2isSlow=1;}//speed down
	MOVF        _temp+0, 0 
	MOVWF       FARG_AddTask+0 
	MOVF        _temp+1, 0 
	MOVWF       FARG_AddTask+1 
	MOVF        _temp+2, 0 
	MOVWF       FARG_AddTask+2 
	MOVF        _temp+3, 0 
	MOVWF       FARG_AddTask+3 
	MOVLW       8
	MOVWF       FARG_AddTask+0 
	CALL        _AddTask+0, 0
	MOVLW       1
	MOVWF       _M2isSlow+0 
	GOTO        L_State2104
L_State2103:
;FirmV_0_7_0.c,652 :: 		{AddTask(temp,6); M2isSlow=0;}//speed up
	MOVF        _temp+0, 0 
	MOVWF       FARG_AddTask+0 
	MOVF        _temp+1, 0 
	MOVWF       FARG_AddTask+1 
	MOVF        _temp+2, 0 
	MOVWF       FARG_AddTask+2 
	MOVF        _temp+3, 0 
	MOVWF       FARG_AddTask+3 
	MOVLW       6
	MOVWF       FARG_AddTask+0 
	CALL        _AddTask+0, 0
	CLRF        _M2isSlow+0 
L_State2104:
;FirmV_0_7_0.c,653 :: 		temp=ms500+CloseSoftStartTime+OverloadDelay+delay;
	MOVF        _CloseSoftStartTime+0, 0 
	ADDWF       _ms500+0, 0 
	MOVWF       R0 
	MOVLW       0
	ADDWFC      _ms500+1, 0 
	MOVWF       R1 
	MOVLW       0
	ADDWFC      _ms500+2, 0 
	MOVWF       R2 
	MOVLW       0
	ADDWFC      _ms500+3, 0 
	MOVWF       R3 
	MOVLW       2
	ADDWF       R0, 1 
	MOVLW       0
	ADDWFC      R1, 1 
	ADDWFC      R2, 1 
	ADDWFC      R3, 1 
	MOVF        State2_delay_L0+0, 0 
	ADDWF       R0, 1 
	MOVLW       0
	ADDWFC      R1, 1 
	ADDWFC      R2, 1 
	ADDWFC      R3, 1 
	MOVF        R0, 0 
	MOVWF       _temp+0 
	MOVF        R1, 0 
	MOVWF       _temp+1 
	MOVF        R2, 0 
	MOVWF       _temp+2 
	MOVF        R3, 0 
	MOVWF       _temp+3 
;FirmV_0_7_0.c,654 :: 		AddTask(temp,11); //overload check
	MOVF        R0, 0 
	MOVWF       FARG_AddTask+0 
	MOVF        R1, 0 
	MOVWF       FARG_AddTask+1 
	MOVF        R2, 0 
	MOVWF       FARG_AddTask+2 
	MOVF        R3, 0 
	MOVWF       FARG_AddTask+3 
	MOVLW       11
	MOVWF       FARG_AddTask+0 
	CALL        _AddTask+0, 0
;FirmV_0_7_0.c,655 :: 		temp=ms500+CloseSoftStartTime+delay;
	MOVF        _CloseSoftStartTime+0, 0 
	ADDWF       _ms500+0, 0 
	MOVWF       R0 
	MOVLW       0
	ADDWFC      _ms500+1, 0 
	MOVWF       R1 
	MOVLW       0
	ADDWFC      _ms500+2, 0 
	MOVWF       R2 
	MOVLW       0
	ADDWFC      _ms500+3, 0 
	MOVWF       R3 
	MOVF        State2_delay_L0+0, 0 
	ADDWF       R0, 1 
	MOVLW       0
	ADDWFC      R1, 1 
	ADDWFC      R2, 1 
	ADDWFC      R3, 1 
	MOVF        R0, 0 
	MOVWF       _temp+0 
	MOVF        R1, 0 
	MOVWF       _temp+1 
	MOVF        R2, 0 
	MOVWF       _temp+2 
	MOVF        R3, 0 
	MOVWF       _temp+3 
;FirmV_0_7_0.c,656 :: 		AddTask(temp,6);//Speed up after soft start
	MOVF        R0, 0 
	MOVWF       FARG_AddTask+0 
	MOVF        R1, 0 
	MOVWF       FARG_AddTask+1 
	MOVF        R2, 0 
	MOVWF       FARG_AddTask+2 
	MOVF        R3, 0 
	MOVWF       FARG_AddTask+3 
	MOVLW       6
	MOVWF       FARG_AddTask+0 
	CALL        _AddTask+0, 0
;FirmV_0_7_0.c,657 :: 		if(CloseSoftStopTime!=0)
	MOVF        _CloseSoftStopTime+0, 0 
	XORLW       0
	BTFSC       STATUS+0, 2 
	GOTO        L_State2105
;FirmV_0_7_0.c,658 :: 		{temp=ms500+Door2CloseTime-CloseSoftStopTime+delay;AddTask(temp,8);}//Speed down for soft stop
	MOVF        _Door2CloseTime+0, 0 
	ADDWF       _ms500+0, 0 
	MOVWF       R0 
	MOVLW       0
	ADDWFC      _ms500+1, 0 
	MOVWF       R1 
	MOVLW       0
	ADDWFC      _ms500+2, 0 
	MOVWF       R2 
	MOVLW       0
	ADDWFC      _ms500+3, 0 
	MOVWF       R3 
	MOVF        _CloseSoftStopTime+0, 0 
	SUBWF       R0, 1 
	MOVLW       0
	SUBWFB      R1, 1 
	SUBWFB      R2, 1 
	SUBWFB      R3, 1 
	MOVF        State2_delay_L0+0, 0 
	ADDWF       R0, 1 
	MOVLW       0
	ADDWFC      R1, 1 
	ADDWFC      R2, 1 
	ADDWFC      R3, 1 
	MOVF        R0, 0 
	MOVWF       _temp+0 
	MOVF        R1, 0 
	MOVWF       _temp+1 
	MOVF        R2, 0 
	MOVWF       _temp+2 
	MOVF        R3, 0 
	MOVWF       _temp+3 
	MOVF        R0, 0 
	MOVWF       FARG_AddTask+0 
	MOVF        R1, 0 
	MOVWF       FARG_AddTask+1 
	MOVF        R2, 0 
	MOVWF       FARG_AddTask+2 
	MOVF        R3, 0 
	MOVWF       FARG_AddTask+3 
	MOVLW       8
	MOVWF       FARG_AddTask+0 
	CALL        _AddTask+0, 0
L_State2105:
;FirmV_0_7_0.c,660 :: 		temp=ms500+Door2CloseTime+delay;
	MOVF        _Door2CloseTime+0, 0 
	ADDWF       _ms500+0, 0 
	MOVWF       R0 
	MOVLW       0
	ADDWFC      _ms500+1, 0 
	MOVWF       R1 
	MOVLW       0
	ADDWFC      _ms500+2, 0 
	MOVWF       R2 
	MOVLW       0
	ADDWFC      _ms500+3, 0 
	MOVWF       R3 
	MOVF        State2_delay_L0+0, 0 
	ADDWF       R0, 1 
	MOVLW       0
	ADDWFC      R1, 1 
	ADDWFC      R2, 1 
	ADDWFC      R3, 1 
	MOVF        R0, 0 
	MOVWF       _temp+0 
	MOVF        R1, 0 
	MOVWF       _temp+1 
	MOVF        R2, 0 
	MOVWF       _temp+2 
	MOVF        R3, 0 
	MOVWF       _temp+3 
;FirmV_0_7_0.c,661 :: 		AddTask(temp,4);//Stop motor
	MOVF        R0, 0 
	MOVWF       FARG_AddTask+0 
	MOVF        R1, 0 
	MOVWF       FARG_AddTask+1 
	MOVF        R2, 0 
	MOVWF       FARG_AddTask+2 
	MOVF        R3, 0 
	MOVWF       FARG_AddTask+3 
	MOVLW       4
	MOVWF       FARG_AddTask+0 
	CALL        _AddTask+0, 0
;FirmV_0_7_0.c,665 :: 		temp=ms500+ActionTimeDiff+delay;
	MOVF        _ActionTimeDiff+0, 0 
	ADDWF       _ms500+0, 0 
	MOVWF       R0 
	MOVLW       0
	ADDWFC      _ms500+1, 0 
	MOVWF       R1 
	MOVLW       0
	ADDWFC      _ms500+2, 0 
	MOVWF       R2 
	MOVLW       0
	ADDWFC      _ms500+3, 0 
	MOVWF       R3 
	MOVF        State2_delay_L0+0, 0 
	ADDWF       R0, 1 
	MOVLW       0
	ADDWFC      R1, 1 
	ADDWFC      R2, 1 
	ADDWFC      R3, 1 
	MOVF        R0, 0 
	MOVWF       _temp+0 
	MOVF        R1, 0 
	MOVWF       _temp+1 
	MOVF        R2, 0 
	MOVWF       _temp+2 
	MOVF        R3, 0 
	MOVWF       _temp+3 
;FirmV_0_7_0.c,666 :: 		AddTask(temp,1);
	MOVF        R0, 0 
	MOVWF       FARG_AddTask+0 
	MOVF        R1, 0 
	MOVWF       FARG_AddTask+1 
	MOVF        R2, 0 
	MOVWF       FARG_AddTask+2 
	MOVF        R3, 0 
	MOVWF       FARG_AddTask+3 
	MOVLW       1
	MOVWF       FARG_AddTask+0 
	CALL        _AddTask+0, 0
;FirmV_0_7_0.c,667 :: 		if(CloseSoftStartTime!=0)
	MOVF        _CloseSoftStartTime+0, 0 
	XORLW       0
	BTFSC       STATUS+0, 2 
	GOTO        L_State2106
;FirmV_0_7_0.c,668 :: 		{AddTask(temp,7); M1isSlow=1;}//speed down
	MOVF        _temp+0, 0 
	MOVWF       FARG_AddTask+0 
	MOVF        _temp+1, 0 
	MOVWF       FARG_AddTask+1 
	MOVF        _temp+2, 0 
	MOVWF       FARG_AddTask+2 
	MOVF        _temp+3, 0 
	MOVWF       FARG_AddTask+3 
	MOVLW       7
	MOVWF       FARG_AddTask+0 
	CALL        _AddTask+0, 0
	MOVLW       1
	MOVWF       _M1isSlow+0 
	GOTO        L_State2107
L_State2106:
;FirmV_0_7_0.c,670 :: 		{AddTask(temp,5); M1isSlow=0;}//speed up
	MOVF        _temp+0, 0 
	MOVWF       FARG_AddTask+0 
	MOVF        _temp+1, 0 
	MOVWF       FARG_AddTask+1 
	MOVF        _temp+2, 0 
	MOVWF       FARG_AddTask+2 
	MOVF        _temp+3, 0 
	MOVWF       FARG_AddTask+3 
	MOVLW       5
	MOVWF       FARG_AddTask+0 
	CALL        _AddTask+0, 0
	CLRF        _M1isSlow+0 
L_State2107:
;FirmV_0_7_0.c,671 :: 		temp=ms500+ActionTimeDiff+CloseSoftStartTime+OverloadDelay+delay;
	MOVF        _ActionTimeDiff+0, 0 
	ADDWF       _ms500+0, 0 
	MOVWF       R0 
	MOVLW       0
	ADDWFC      _ms500+1, 0 
	MOVWF       R1 
	MOVLW       0
	ADDWFC      _ms500+2, 0 
	MOVWF       R2 
	MOVLW       0
	ADDWFC      _ms500+3, 0 
	MOVWF       R3 
	MOVF        _CloseSoftStartTime+0, 0 
	ADDWF       R0, 1 
	MOVLW       0
	ADDWFC      R1, 1 
	ADDWFC      R2, 1 
	ADDWFC      R3, 1 
	MOVLW       2
	ADDWF       R0, 1 
	MOVLW       0
	ADDWFC      R1, 1 
	ADDWFC      R2, 1 
	ADDWFC      R3, 1 
	MOVF        State2_delay_L0+0, 0 
	ADDWF       R0, 1 
	MOVLW       0
	ADDWFC      R1, 1 
	ADDWFC      R2, 1 
	ADDWFC      R3, 1 
	MOVF        R0, 0 
	MOVWF       _temp+0 
	MOVF        R1, 0 
	MOVWF       _temp+1 
	MOVF        R2, 0 
	MOVWF       _temp+2 
	MOVF        R3, 0 
	MOVWF       _temp+3 
;FirmV_0_7_0.c,672 :: 		AddTask(temp,10); //overload check
	MOVF        R0, 0 
	MOVWF       FARG_AddTask+0 
	MOVF        R1, 0 
	MOVWF       FARG_AddTask+1 
	MOVF        R2, 0 
	MOVWF       FARG_AddTask+2 
	MOVF        R3, 0 
	MOVWF       FARG_AddTask+3 
	MOVLW       10
	MOVWF       FARG_AddTask+0 
	CALL        _AddTask+0, 0
;FirmV_0_7_0.c,673 :: 		temp=ms500+ActionTimeDiff+CloseSoftStartTime+delay;
	MOVF        _ActionTimeDiff+0, 0 
	ADDWF       _ms500+0, 0 
	MOVWF       R0 
	MOVLW       0
	ADDWFC      _ms500+1, 0 
	MOVWF       R1 
	MOVLW       0
	ADDWFC      _ms500+2, 0 
	MOVWF       R2 
	MOVLW       0
	ADDWFC      _ms500+3, 0 
	MOVWF       R3 
	MOVF        _CloseSoftStartTime+0, 0 
	ADDWF       R0, 1 
	MOVLW       0
	ADDWFC      R1, 1 
	ADDWFC      R2, 1 
	ADDWFC      R3, 1 
	MOVF        State2_delay_L0+0, 0 
	ADDWF       R0, 1 
	MOVLW       0
	ADDWFC      R1, 1 
	ADDWFC      R2, 1 
	ADDWFC      R3, 1 
	MOVF        R0, 0 
	MOVWF       _temp+0 
	MOVF        R1, 0 
	MOVWF       _temp+1 
	MOVF        R2, 0 
	MOVWF       _temp+2 
	MOVF        R3, 0 
	MOVWF       _temp+3 
;FirmV_0_7_0.c,674 :: 		AddTask(temp,5);//Speed up after soft start
	MOVF        R0, 0 
	MOVWF       FARG_AddTask+0 
	MOVF        R1, 0 
	MOVWF       FARG_AddTask+1 
	MOVF        R2, 0 
	MOVWF       FARG_AddTask+2 
	MOVF        R3, 0 
	MOVWF       FARG_AddTask+3 
	MOVLW       5
	MOVWF       FARG_AddTask+0 
	CALL        _AddTask+0, 0
;FirmV_0_7_0.c,675 :: 		if(CloseSoftStopTime!=0)
	MOVF        _CloseSoftStopTime+0, 0 
	XORLW       0
	BTFSC       STATUS+0, 2 
	GOTO        L_State2108
;FirmV_0_7_0.c,676 :: 		{temp=ms500+ActionTimeDiff+Door1CloseTime-CloseSoftStopTime+delay;AddTask(temp,7);}//Speed down for soft stop
	MOVF        _ActionTimeDiff+0, 0 
	ADDWF       _ms500+0, 0 
	MOVWF       R0 
	MOVLW       0
	ADDWFC      _ms500+1, 0 
	MOVWF       R1 
	MOVLW       0
	ADDWFC      _ms500+2, 0 
	MOVWF       R2 
	MOVLW       0
	ADDWFC      _ms500+3, 0 
	MOVWF       R3 
	MOVF        _Door1CloseTime+0, 0 
	ADDWF       R0, 1 
	MOVLW       0
	ADDWFC      R1, 1 
	ADDWFC      R2, 1 
	ADDWFC      R3, 1 
	MOVF        _CloseSoftStopTime+0, 0 
	SUBWF       R0, 1 
	MOVLW       0
	SUBWFB      R1, 1 
	SUBWFB      R2, 1 
	SUBWFB      R3, 1 
	MOVF        State2_delay_L0+0, 0 
	ADDWF       R0, 1 
	MOVLW       0
	ADDWFC      R1, 1 
	ADDWFC      R2, 1 
	ADDWFC      R3, 1 
	MOVF        R0, 0 
	MOVWF       _temp+0 
	MOVF        R1, 0 
	MOVWF       _temp+1 
	MOVF        R2, 0 
	MOVWF       _temp+2 
	MOVF        R3, 0 
	MOVWF       _temp+3 
	MOVF        R0, 0 
	MOVWF       FARG_AddTask+0 
	MOVF        R1, 0 
	MOVWF       FARG_AddTask+1 
	MOVF        R2, 0 
	MOVWF       FARG_AddTask+2 
	MOVF        R3, 0 
	MOVWF       FARG_AddTask+3 
	MOVLW       7
	MOVWF       FARG_AddTask+0 
	CALL        _AddTask+0, 0
L_State2108:
;FirmV_0_7_0.c,677 :: 		if(LockForce!=0)
	MOVF        _LockForce+0, 0 
	XORLW       0
	BTFSC       STATUS+0, 2 
	GOTO        L_State2109
;FirmV_0_7_0.c,678 :: 		{temp=ms500+Door1CloseTime+ActionTimeDiff+delay;AddTask(temp,5);AddTask(temp+LockForceTime,3);}
	MOVF        _Door1CloseTime+0, 0 
	ADDWF       _ms500+0, 0 
	MOVWF       R0 
	MOVLW       0
	ADDWFC      _ms500+1, 0 
	MOVWF       R1 
	MOVLW       0
	ADDWFC      _ms500+2, 0 
	MOVWF       R2 
	MOVLW       0
	ADDWFC      _ms500+3, 0 
	MOVWF       R3 
	MOVF        _ActionTimeDiff+0, 0 
	ADDWF       R0, 1 
	MOVLW       0
	ADDWFC      R1, 1 
	ADDWFC      R2, 1 
	ADDWFC      R3, 1 
	MOVF        State2_delay_L0+0, 0 
	ADDWF       R0, 1 
	MOVLW       0
	ADDWFC      R1, 1 
	ADDWFC      R2, 1 
	ADDWFC      R3, 1 
	MOVF        R0, 0 
	MOVWF       _temp+0 
	MOVF        R1, 0 
	MOVWF       _temp+1 
	MOVF        R2, 0 
	MOVWF       _temp+2 
	MOVF        R3, 0 
	MOVWF       _temp+3 
	MOVF        R0, 0 
	MOVWF       FARG_AddTask+0 
	MOVF        R1, 0 
	MOVWF       FARG_AddTask+1 
	MOVF        R2, 0 
	MOVWF       FARG_AddTask+2 
	MOVF        R3, 0 
	MOVWF       FARG_AddTask+3 
	MOVLW       5
	MOVWF       FARG_AddTask+0 
	CALL        _AddTask+0, 0
	MOVLW       2
	ADDWF       _temp+0, 0 
	MOVWF       FARG_AddTask+0 
	MOVLW       0
	ADDWFC      _temp+1, 0 
	MOVWF       FARG_AddTask+1 
	MOVLW       0
	ADDWFC      _temp+2, 0 
	MOVWF       FARG_AddTask+2 
	MOVLW       0
	ADDWFC      _temp+3, 0 
	MOVWF       FARG_AddTask+3 
	MOVLW       3
	MOVWF       FARG_AddTask+0 
	CALL        _AddTask+0, 0
	GOTO        L_State2110
L_State2109:
;FirmV_0_7_0.c,680 :: 		{temp=ms500+Door1CloseTime+ActionTimeDiff+delay;AddTask(temp,3);}
	MOVF        _Door1CloseTime+0, 0 
	ADDWF       _ms500+0, 0 
	MOVWF       R0 
	MOVLW       0
	ADDWFC      _ms500+1, 0 
	MOVWF       R1 
	MOVLW       0
	ADDWFC      _ms500+2, 0 
	MOVWF       R2 
	MOVLW       0
	ADDWFC      _ms500+3, 0 
	MOVWF       R3 
	MOVF        _ActionTimeDiff+0, 0 
	ADDWF       R0, 1 
	MOVLW       0
	ADDWFC      R1, 1 
	ADDWFC      R2, 1 
	ADDWFC      R3, 1 
	MOVF        State2_delay_L0+0, 0 
	ADDWF       R0, 1 
	MOVLW       0
	ADDWFC      R1, 1 
	ADDWFC      R2, 1 
	ADDWFC      R3, 1 
	MOVF        R0, 0 
	MOVWF       _temp+0 
	MOVF        R1, 0 
	MOVWF       _temp+1 
	MOVF        R2, 0 
	MOVWF       _temp+2 
	MOVF        R3, 0 
	MOVWF       _temp+3 
	MOVF        R0, 0 
	MOVWF       FARG_AddTask+0 
	MOVF        R1, 0 
	MOVWF       FARG_AddTask+1 
	MOVF        R2, 0 
	MOVWF       FARG_AddTask+2 
	MOVF        R3, 0 
	MOVWF       FARG_AddTask+3 
	MOVLW       3
	MOVWF       FARG_AddTask+0 
	CALL        _AddTask+0, 0
L_State2110:
;FirmV_0_7_0.c,682 :: 		}
L_State2102:
;FirmV_0_7_0.c,685 :: 		CloseDone=3;
	MOVLW       3
	MOVWF       _CloseDone+0 
;FirmV_0_7_0.c,686 :: 		OverloadCheckFlag1=0;
	CLRF        _OverloadCheckFlag1+0 
;FirmV_0_7_0.c,687 :: 		OverloadCheckFlag2=0;
	CLRF        _OverloadCheckFlag2+0 
;FirmV_0_7_0.c,688 :: 		State=4;
	MOVLW       4
	MOVWF       _State+0 
;FirmV_0_7_0.c,689 :: 		}
L_State291:
;FirmV_0_7_0.c,691 :: 		if((Events.Photocell.b0==1)&&(AutoCloseTime!=0)&&(PassFlag==0))
	BTFSS       _Events+6, 0 
	GOTO        L_State2113
	MOVLW       0
	XORWF       _AutoCloseTime+1, 0 
	BTFSS       STATUS+0, 2 
	GOTO        L__State2783
	MOVLW       0
	XORWF       _AutoCloseTime+0, 0 
L__State2783:
	BTFSC       STATUS+0, 2 
	GOTO        L_State2113
	MOVF        _PassFlag+0, 0 
	XORLW       0
	BTFSS       STATUS+0, 2 
	GOTO        L_State2113
L__State2683:
;FirmV_0_7_0.c,692 :: 		{PassFlag=1; _AC=GetAutocloseTime();Logger("S2 Auto Close Deleted");}
	MOVLW       1
	MOVWF       _PassFlag+0 
	CALL        _GetAutocloseTime+0, 0
	MOVF        R0, 0 
	MOVWF       __AC+0 
	MOVLW       ?ICS?lstr3_FirmV_0_7_0+0
	MOVWF       TBLPTRL 
	MOVLW       hi_addr(?ICS?lstr3_FirmV_0_7_0+0)
	MOVWF       TBLPTRH 
	MOVLW       higher_addr(?ICS?lstr3_FirmV_0_7_0+0)
	MOVWF       TBLPTRU 
	MOVLW       ?lstr3_FirmV_0_7_0+0
	MOVWF       FSR1L 
	MOVLW       hi_addr(?lstr3_FirmV_0_7_0+0)
	MOVWF       FSR1H 
	MOVLW       22
	MOVWF       R0 
	MOVLW       1
	MOVWF       R1 
	CALL        ___CC2DW+0, 0
	MOVLW       ?lstr3_FirmV_0_7_0+0
	MOVWF       FARG_Logger_text+0 
	MOVLW       hi_addr(?lstr3_FirmV_0_7_0+0)
	MOVWF       FARG_Logger_text+1 
	CALL        _Logger+0, 0
L_State2113:
;FirmV_0_7_0.c,694 :: 		if((PassFlag==1)&&(Events.Photocell.b0==0)&&(AutoCloseTime!=0))
	MOVF        _PassFlag+0, 0 
	XORLW       1
	BTFSS       STATUS+0, 2 
	GOTO        L_State2116
	BTFSC       _Events+6, 0 
	GOTO        L_State2116
	MOVLW       0
	XORWF       _AutoCloseTime+1, 0 
	BTFSS       STATUS+0, 2 
	GOTO        L__State2784
	MOVLW       0
	XORWF       _AutoCloseTime+0, 0 
L__State2784:
	BTFSC       STATUS+0, 2 
	GOTO        L_State2116
L__State2682:
;FirmV_0_7_0.c,695 :: 		if(CloseAfterPass==0)
	MOVF        _CloseAfterPass+0, 0 
	XORLW       0
	BTFSS       STATUS+0, 2 
	GOTO        L_State2117
;FirmV_0_7_0.c,696 :: 		{temp=ms500+_AC;AddTask(temp,9);PassFlag=0;longwordtostrwithzeros(temp,t);Logger("S2 Insert 9 at:");Logger(t);}
	MOVF        __AC+0, 0 
	ADDWF       _ms500+0, 0 
	MOVWF       R0 
	MOVLW       0
	ADDWFC      _ms500+1, 0 
	MOVWF       R1 
	MOVLW       0
	ADDWFC      _ms500+2, 0 
	MOVWF       R2 
	MOVLW       0
	ADDWFC      _ms500+3, 0 
	MOVWF       R3 
	MOVF        R0, 0 
	MOVWF       _temp+0 
	MOVF        R1, 0 
	MOVWF       _temp+1 
	MOVF        R2, 0 
	MOVWF       _temp+2 
	MOVF        R3, 0 
	MOVWF       _temp+3 
	MOVF        R0, 0 
	MOVWF       FARG_AddTask+0 
	MOVF        R1, 0 
	MOVWF       FARG_AddTask+1 
	MOVF        R2, 0 
	MOVWF       FARG_AddTask+2 
	MOVF        R3, 0 
	MOVWF       FARG_AddTask+3 
	MOVLW       9
	MOVWF       FARG_AddTask+0 
	CALL        _AddTask+0, 0
	CLRF        _PassFlag+0 
	MOVF        _temp+0, 0 
	MOVWF       FARG_LongWordToStrWithZeros_input+0 
	MOVF        _temp+1, 0 
	MOVWF       FARG_LongWordToStrWithZeros_input+1 
	MOVF        _temp+2, 0 
	MOVWF       FARG_LongWordToStrWithZeros_input+2 
	MOVF        _temp+3, 0 
	MOVWF       FARG_LongWordToStrWithZeros_input+3 
	MOVLW       _t+0
	MOVWF       FARG_LongWordToStrWithZeros_output+0 
	MOVLW       hi_addr(_t+0)
	MOVWF       FARG_LongWordToStrWithZeros_output+1 
	CALL        _LongWordToStrWithZeros+0, 0
	MOVLW       ?ICS?lstr4_FirmV_0_7_0+0
	MOVWF       TBLPTRL 
	MOVLW       hi_addr(?ICS?lstr4_FirmV_0_7_0+0)
	MOVWF       TBLPTRH 
	MOVLW       higher_addr(?ICS?lstr4_FirmV_0_7_0+0)
	MOVWF       TBLPTRU 
	MOVLW       ?lstr4_FirmV_0_7_0+0
	MOVWF       FSR1L 
	MOVLW       hi_addr(?lstr4_FirmV_0_7_0+0)
	MOVWF       FSR1H 
	MOVLW       16
	MOVWF       R0 
	MOVLW       1
	MOVWF       R1 
	CALL        ___CC2DW+0, 0
	MOVLW       ?lstr4_FirmV_0_7_0+0
	MOVWF       FARG_Logger_text+0 
	MOVLW       hi_addr(?lstr4_FirmV_0_7_0+0)
	MOVWF       FARG_Logger_text+1 
	CALL        _Logger+0, 0
	MOVLW       _t+0
	MOVWF       FARG_Logger_text+0 
	MOVLW       hi_addr(_t+0)
	MOVWF       FARG_Logger_text+1 
	CALL        _Logger+0, 0
	GOTO        L_State2118
L_State2117:
;FirmV_0_7_0.c,698 :: 		{temp=ms500+CloseAfterPass;AddTask(temp,9);PassFlag=0;longwordtostrwithzeros(temp,t);Logger("S2 Insert 9 at:");Logger(t);}
	MOVF        _CloseAfterPass+0, 0 
	ADDWF       _ms500+0, 0 
	MOVWF       R0 
	MOVLW       0
	ADDWFC      _ms500+1, 0 
	MOVWF       R1 
	MOVLW       0
	ADDWFC      _ms500+2, 0 
	MOVWF       R2 
	MOVLW       0
	ADDWFC      _ms500+3, 0 
	MOVWF       R3 
	MOVF        R0, 0 
	MOVWF       _temp+0 
	MOVF        R1, 0 
	MOVWF       _temp+1 
	MOVF        R2, 0 
	MOVWF       _temp+2 
	MOVF        R3, 0 
	MOVWF       _temp+3 
	MOVF        R0, 0 
	MOVWF       FARG_AddTask+0 
	MOVF        R1, 0 
	MOVWF       FARG_AddTask+1 
	MOVF        R2, 0 
	MOVWF       FARG_AddTask+2 
	MOVF        R3, 0 
	MOVWF       FARG_AddTask+3 
	MOVLW       9
	MOVWF       FARG_AddTask+0 
	CALL        _AddTask+0, 0
	CLRF        _PassFlag+0 
	MOVF        _temp+0, 0 
	MOVWF       FARG_LongWordToStrWithZeros_input+0 
	MOVF        _temp+1, 0 
	MOVWF       FARG_LongWordToStrWithZeros_input+1 
	MOVF        _temp+2, 0 
	MOVWF       FARG_LongWordToStrWithZeros_input+2 
	MOVF        _temp+3, 0 
	MOVWF       FARG_LongWordToStrWithZeros_input+3 
	MOVLW       _t+0
	MOVWF       FARG_LongWordToStrWithZeros_output+0 
	MOVLW       hi_addr(_t+0)
	MOVWF       FARG_LongWordToStrWithZeros_output+1 
	CALL        _LongWordToStrWithZeros+0, 0
	MOVLW       ?ICS?lstr5_FirmV_0_7_0+0
	MOVWF       TBLPTRL 
	MOVLW       hi_addr(?ICS?lstr5_FirmV_0_7_0+0)
	MOVWF       TBLPTRH 
	MOVLW       higher_addr(?ICS?lstr5_FirmV_0_7_0+0)
	MOVWF       TBLPTRU 
	MOVLW       ?lstr5_FirmV_0_7_0+0
	MOVWF       FSR1L 
	MOVLW       hi_addr(?lstr5_FirmV_0_7_0+0)
	MOVWF       FSR1H 
	MOVLW       16
	MOVWF       R0 
	MOVLW       1
	MOVWF       R1 
	CALL        ___CC2DW+0, 0
	MOVLW       ?lstr5_FirmV_0_7_0+0
	MOVWF       FARG_Logger_text+0 
	MOVLW       hi_addr(?lstr5_FirmV_0_7_0+0)
	MOVWF       FARG_Logger_text+1 
	CALL        _Logger+0, 0
	MOVLW       _t+0
	MOVWF       FARG_Logger_text+0 
	MOVLW       hi_addr(_t+0)
	MOVWF       FARG_Logger_text+1 
	CALL        _Logger+0, 0
L_State2118:
L_State2116:
;FirmV_0_7_0.c,700 :: 		}
	RETURN      0
; end of _State2

_State3:

;FirmV_0_7_0.c,715 :: 		void State3()
;FirmV_0_7_0.c,717 :: 		Flasher=1;
	BSF         PORTD+0, 7 
;FirmV_0_7_0.c,719 :: 		if(CheckTask(1))
	MOVLW       1
	MOVWF       FARG_CheckTask+0 
	CALL        _CheckTask+0, 0
	MOVF        R0, 1 
	BTFSC       STATUS+0, 2 
	GOTO        L_State3119
;FirmV_0_7_0.c,720 :: 		{StartMotor(1,_Open);Logger("S3 Motor1Start"); Lock=0;memcpy(LCDLine1,_opening,16);memcpy(LCDLine2,_Blank,16);LCDUpdateFlag=1;LCDLines=1;}
	MOVLW       1
	MOVWF       FARG_StartMotor+0 
	MOVLW       1
	MOVWF       FARG_StartMotor+0 
	CALL        _StartMotor+0, 0
	MOVLW       83
	MOVWF       ?lstr6_FirmV_0_7_0+0 
	MOVLW       51
	MOVWF       ?lstr6_FirmV_0_7_0+1 
	MOVLW       32
	MOVWF       ?lstr6_FirmV_0_7_0+2 
	MOVLW       77
	MOVWF       ?lstr6_FirmV_0_7_0+3 
	MOVLW       111
	MOVWF       ?lstr6_FirmV_0_7_0+4 
	MOVLW       116
	MOVWF       ?lstr6_FirmV_0_7_0+5 
	MOVLW       111
	MOVWF       ?lstr6_FirmV_0_7_0+6 
	MOVLW       114
	MOVWF       ?lstr6_FirmV_0_7_0+7 
	MOVLW       49
	MOVWF       ?lstr6_FirmV_0_7_0+8 
	MOVLW       83
	MOVWF       ?lstr6_FirmV_0_7_0+9 
	MOVLW       116
	MOVWF       ?lstr6_FirmV_0_7_0+10 
	MOVLW       97
	MOVWF       ?lstr6_FirmV_0_7_0+11 
	MOVLW       114
	MOVWF       ?lstr6_FirmV_0_7_0+12 
	MOVLW       116
	MOVWF       ?lstr6_FirmV_0_7_0+13 
	CLRF        ?lstr6_FirmV_0_7_0+14 
	MOVLW       ?lstr6_FirmV_0_7_0+0
	MOVWF       FARG_Logger_text+0 
	MOVLW       hi_addr(?lstr6_FirmV_0_7_0+0)
	MOVWF       FARG_Logger_text+1 
	CALL        _Logger+0, 0
	BCF         PORTD+0, 6 
	MOVLW       _LCDLine1+0
	MOVWF       FARG_memcpy_d1+0 
	MOVLW       hi_addr(_LCDLine1+0)
	MOVWF       FARG_memcpy_d1+1 
	MOVLW       __opening+0
	MOVWF       FARG_memcpy_s1+0 
	MOVLW       hi_addr(__opening+0)
	MOVWF       FARG_memcpy_s1+1 
	MOVLW       16
	MOVWF       FARG_memcpy_n+0 
	MOVLW       0
	MOVWF       FARG_memcpy_n+1 
	CALL        _memcpy+0, 0
	MOVLW       _LCDLine2+0
	MOVWF       FARG_memcpy_d1+0 
	MOVLW       hi_addr(_LCDLine2+0)
	MOVWF       FARG_memcpy_d1+1 
	MOVLW       __Blank+0
	MOVWF       FARG_memcpy_s1+0 
	MOVLW       hi_addr(__Blank+0)
	MOVWF       FARG_memcpy_s1+1 
	MOVLW       16
	MOVWF       FARG_memcpy_n+0 
	MOVLW       0
	MOVWF       FARG_memcpy_n+1 
	CALL        _memcpy+0, 0
	MOVLW       1
	MOVWF       _LCDUpdateFlag+0 
	MOVLW       1
	MOVWF       _LCDLines+0 
L_State3119:
;FirmV_0_7_0.c,722 :: 		if(CheckTask(2))
	MOVLW       2
	MOVWF       FARG_CheckTask+0 
	CALL        _CheckTask+0, 0
	MOVF        R0, 1 
	BTFSC       STATUS+0, 2 
	GOTO        L_State3120
;FirmV_0_7_0.c,723 :: 		{StartMotor(2,_Open);Logger("S3 Motor2Start"); Lock=0;}
	MOVLW       2
	MOVWF       FARG_StartMotor+0 
	MOVLW       1
	MOVWF       FARG_StartMotor+0 
	CALL        _StartMotor+0, 0
	MOVLW       83
	MOVWF       ?lstr7_FirmV_0_7_0+0 
	MOVLW       51
	MOVWF       ?lstr7_FirmV_0_7_0+1 
	MOVLW       32
	MOVWF       ?lstr7_FirmV_0_7_0+2 
	MOVLW       77
	MOVWF       ?lstr7_FirmV_0_7_0+3 
	MOVLW       111
	MOVWF       ?lstr7_FirmV_0_7_0+4 
	MOVLW       116
	MOVWF       ?lstr7_FirmV_0_7_0+5 
	MOVLW       111
	MOVWF       ?lstr7_FirmV_0_7_0+6 
	MOVLW       114
	MOVWF       ?lstr7_FirmV_0_7_0+7 
	MOVLW       50
	MOVWF       ?lstr7_FirmV_0_7_0+8 
	MOVLW       83
	MOVWF       ?lstr7_FirmV_0_7_0+9 
	MOVLW       116
	MOVWF       ?lstr7_FirmV_0_7_0+10 
	MOVLW       97
	MOVWF       ?lstr7_FirmV_0_7_0+11 
	MOVLW       114
	MOVWF       ?lstr7_FirmV_0_7_0+12 
	MOVLW       116
	MOVWF       ?lstr7_FirmV_0_7_0+13 
	CLRF        ?lstr7_FirmV_0_7_0+14 
	MOVLW       ?lstr7_FirmV_0_7_0+0
	MOVWF       FARG_Logger_text+0 
	MOVLW       hi_addr(?lstr7_FirmV_0_7_0+0)
	MOVWF       FARG_Logger_text+1 
	CALL        _Logger+0, 0
	BCF         PORTD+0, 6 
L_State3120:
;FirmV_0_7_0.c,725 :: 		if(CheckTask(5))
	MOVLW       5
	MOVWF       FARG_CheckTask+0 
	CALL        _CheckTask+0, 0
	MOVF        R0, 1 
	BTFSC       STATUS+0, 2 
	GOTO        L_State3121
;FirmV_0_7_0.c,726 :: 		{SetMotorSpeed(1,Motor2FullSpeed);OverloadCheckFlag1=0; M1isSlow=0;Logger("S3 Motor1 Fast");}
	MOVLW       1
	MOVWF       FARG_SetMotorSpeed+0 
	MOVF        _Motor2FullSpeed+0, 0 
	MOVWF       FARG_SetMotorSpeed+0 
	CALL        _SetMotorSpeed+0, 0
	CLRF        _OverloadCheckFlag1+0 
	CLRF        _M1isSlow+0 
	MOVLW       83
	MOVWF       ?lstr8_FirmV_0_7_0+0 
	MOVLW       51
	MOVWF       ?lstr8_FirmV_0_7_0+1 
	MOVLW       32
	MOVWF       ?lstr8_FirmV_0_7_0+2 
	MOVLW       77
	MOVWF       ?lstr8_FirmV_0_7_0+3 
	MOVLW       111
	MOVWF       ?lstr8_FirmV_0_7_0+4 
	MOVLW       116
	MOVWF       ?lstr8_FirmV_0_7_0+5 
	MOVLW       111
	MOVWF       ?lstr8_FirmV_0_7_0+6 
	MOVLW       114
	MOVWF       ?lstr8_FirmV_0_7_0+7 
	MOVLW       49
	MOVWF       ?lstr8_FirmV_0_7_0+8 
	MOVLW       32
	MOVWF       ?lstr8_FirmV_0_7_0+9 
	MOVLW       70
	MOVWF       ?lstr8_FirmV_0_7_0+10 
	MOVLW       97
	MOVWF       ?lstr8_FirmV_0_7_0+11 
	MOVLW       115
	MOVWF       ?lstr8_FirmV_0_7_0+12 
	MOVLW       116
	MOVWF       ?lstr8_FirmV_0_7_0+13 
	CLRF        ?lstr8_FirmV_0_7_0+14 
	MOVLW       ?lstr8_FirmV_0_7_0+0
	MOVWF       FARG_Logger_text+0 
	MOVLW       hi_addr(?lstr8_FirmV_0_7_0+0)
	MOVWF       FARG_Logger_text+1 
	CALL        _Logger+0, 0
L_State3121:
;FirmV_0_7_0.c,728 :: 		if(CheckTask(7))
	MOVLW       7
	MOVWF       FARG_CheckTask+0 
	CALL        _CheckTask+0, 0
	MOVF        R0, 1 
	BTFSC       STATUS+0, 2 
	GOTO        L_State3122
;FirmV_0_7_0.c,729 :: 		{SetMotorSpeed(0,Motor2FullSpeed); M1isSlow=1;Logger("S3 Motor1 Slow");}
	CLRF        FARG_SetMotorSpeed+0 
	MOVF        _Motor2FullSpeed+0, 0 
	MOVWF       FARG_SetMotorSpeed+0 
	CALL        _SetMotorSpeed+0, 0
	MOVLW       1
	MOVWF       _M1isSlow+0 
	MOVLW       83
	MOVWF       ?lstr9_FirmV_0_7_0+0 
	MOVLW       51
	MOVWF       ?lstr9_FirmV_0_7_0+1 
	MOVLW       32
	MOVWF       ?lstr9_FirmV_0_7_0+2 
	MOVLW       77
	MOVWF       ?lstr9_FirmV_0_7_0+3 
	MOVLW       111
	MOVWF       ?lstr9_FirmV_0_7_0+4 
	MOVLW       116
	MOVWF       ?lstr9_FirmV_0_7_0+5 
	MOVLW       111
	MOVWF       ?lstr9_FirmV_0_7_0+6 
	MOVLW       114
	MOVWF       ?lstr9_FirmV_0_7_0+7 
	MOVLW       49
	MOVWF       ?lstr9_FirmV_0_7_0+8 
	MOVLW       32
	MOVWF       ?lstr9_FirmV_0_7_0+9 
	MOVLW       83
	MOVWF       ?lstr9_FirmV_0_7_0+10 
	MOVLW       108
	MOVWF       ?lstr9_FirmV_0_7_0+11 
	MOVLW       111
	MOVWF       ?lstr9_FirmV_0_7_0+12 
	MOVLW       119
	MOVWF       ?lstr9_FirmV_0_7_0+13 
	CLRF        ?lstr9_FirmV_0_7_0+14 
	MOVLW       ?lstr9_FirmV_0_7_0+0
	MOVWF       FARG_Logger_text+0 
	MOVLW       hi_addr(?lstr9_FirmV_0_7_0+0)
	MOVWF       FARG_Logger_text+1 
	CALL        _Logger+0, 0
L_State3122:
;FirmV_0_7_0.c,731 :: 		if(CheckTask(6))
	MOVLW       6
	MOVWF       FARG_CheckTask+0 
	CALL        _CheckTask+0, 0
	MOVF        R0, 1 
	BTFSC       STATUS+0, 2 
	GOTO        L_State3123
;FirmV_0_7_0.c,732 :: 		{SetMotorSpeed(Motor1FullSpeed,1);OverloadCheckFlag2=0; M2isSlow=0;Logger("S3 Motor2 Fast");}
	MOVF        _Motor1FullSpeed+0, 0 
	MOVWF       FARG_SetMotorSpeed+0 
	MOVLW       1
	MOVWF       FARG_SetMotorSpeed+0 
	CALL        _SetMotorSpeed+0, 0
	CLRF        _OverloadCheckFlag2+0 
	CLRF        _M2isSlow+0 
	MOVLW       83
	MOVWF       ?lstr10_FirmV_0_7_0+0 
	MOVLW       51
	MOVWF       ?lstr10_FirmV_0_7_0+1 
	MOVLW       32
	MOVWF       ?lstr10_FirmV_0_7_0+2 
	MOVLW       77
	MOVWF       ?lstr10_FirmV_0_7_0+3 
	MOVLW       111
	MOVWF       ?lstr10_FirmV_0_7_0+4 
	MOVLW       116
	MOVWF       ?lstr10_FirmV_0_7_0+5 
	MOVLW       111
	MOVWF       ?lstr10_FirmV_0_7_0+6 
	MOVLW       114
	MOVWF       ?lstr10_FirmV_0_7_0+7 
	MOVLW       50
	MOVWF       ?lstr10_FirmV_0_7_0+8 
	MOVLW       32
	MOVWF       ?lstr10_FirmV_0_7_0+9 
	MOVLW       70
	MOVWF       ?lstr10_FirmV_0_7_0+10 
	MOVLW       97
	MOVWF       ?lstr10_FirmV_0_7_0+11 
	MOVLW       115
	MOVWF       ?lstr10_FirmV_0_7_0+12 
	MOVLW       116
	MOVWF       ?lstr10_FirmV_0_7_0+13 
	CLRF        ?lstr10_FirmV_0_7_0+14 
	MOVLW       ?lstr10_FirmV_0_7_0+0
	MOVWF       FARG_Logger_text+0 
	MOVLW       hi_addr(?lstr10_FirmV_0_7_0+0)
	MOVWF       FARG_Logger_text+1 
	CALL        _Logger+0, 0
L_State3123:
;FirmV_0_7_0.c,734 :: 		if(CheckTask(8))
	MOVLW       8
	MOVWF       FARG_CheckTask+0 
	CALL        _CheckTask+0, 0
	MOVF        R0, 1 
	BTFSC       STATUS+0, 2 
	GOTO        L_State3124
;FirmV_0_7_0.c,735 :: 		{SetMotorSpeed(Motor1FullSpeed,0); M2isSlow=1;Logger("S3 Motor2 Slow");}
	MOVF        _Motor1FullSpeed+0, 0 
	MOVWF       FARG_SetMotorSpeed+0 
	CLRF        FARG_SetMotorSpeed+0 
	CALL        _SetMotorSpeed+0, 0
	MOVLW       1
	MOVWF       _M2isSlow+0 
	MOVLW       83
	MOVWF       ?lstr11_FirmV_0_7_0+0 
	MOVLW       51
	MOVWF       ?lstr11_FirmV_0_7_0+1 
	MOVLW       32
	MOVWF       ?lstr11_FirmV_0_7_0+2 
	MOVLW       77
	MOVWF       ?lstr11_FirmV_0_7_0+3 
	MOVLW       111
	MOVWF       ?lstr11_FirmV_0_7_0+4 
	MOVLW       116
	MOVWF       ?lstr11_FirmV_0_7_0+5 
	MOVLW       111
	MOVWF       ?lstr11_FirmV_0_7_0+6 
	MOVLW       114
	MOVWF       ?lstr11_FirmV_0_7_0+7 
	MOVLW       50
	MOVWF       ?lstr11_FirmV_0_7_0+8 
	MOVLW       32
	MOVWF       ?lstr11_FirmV_0_7_0+9 
	MOVLW       83
	MOVWF       ?lstr11_FirmV_0_7_0+10 
	MOVLW       108
	MOVWF       ?lstr11_FirmV_0_7_0+11 
	MOVLW       111
	MOVWF       ?lstr11_FirmV_0_7_0+12 
	MOVLW       119
	MOVWF       ?lstr11_FirmV_0_7_0+13 
	CLRF        ?lstr11_FirmV_0_7_0+14 
	MOVLW       ?lstr11_FirmV_0_7_0+0
	MOVWF       FARG_Logger_text+0 
	MOVLW       hi_addr(?lstr11_FirmV_0_7_0+0)
	MOVWF       FARG_Logger_text+1 
	CALL        _Logger+0, 0
L_State3124:
;FirmV_0_7_0.c,737 :: 		if(CheckTask(10))
	MOVLW       10
	MOVWF       FARG_CheckTask+0 
	CALL        _CheckTask+0, 0
	MOVF        R0, 1 
	BTFSC       STATUS+0, 2 
	GOTO        L_State3125
;FirmV_0_7_0.c,738 :: 		{OverloadCheckFlag1=1; OverloadInit(1);Logger("S3 Overflow Flag1 Set");}
	MOVLW       1
	MOVWF       _OverloadCheckFlag1+0 
	MOVLW       1
	MOVWF       FARG_OverloadInit+0 
	CALL        _OverloadInit+0, 0
	MOVLW       ?ICS?lstr12_FirmV_0_7_0+0
	MOVWF       TBLPTRL 
	MOVLW       hi_addr(?ICS?lstr12_FirmV_0_7_0+0)
	MOVWF       TBLPTRH 
	MOVLW       higher_addr(?ICS?lstr12_FirmV_0_7_0+0)
	MOVWF       TBLPTRU 
	MOVLW       ?lstr12_FirmV_0_7_0+0
	MOVWF       FSR1L 
	MOVLW       hi_addr(?lstr12_FirmV_0_7_0+0)
	MOVWF       FSR1H 
	MOVLW       22
	MOVWF       R0 
	MOVLW       1
	MOVWF       R1 
	CALL        ___CC2DW+0, 0
	MOVLW       ?lstr12_FirmV_0_7_0+0
	MOVWF       FARG_Logger_text+0 
	MOVLW       hi_addr(?lstr12_FirmV_0_7_0+0)
	MOVWF       FARG_Logger_text+1 
	CALL        _Logger+0, 0
L_State3125:
;FirmV_0_7_0.c,740 :: 		if(CheckTask(11))
	MOVLW       11
	MOVWF       FARG_CheckTask+0 
	CALL        _CheckTask+0, 0
	MOVF        R0, 1 
	BTFSC       STATUS+0, 2 
	GOTO        L_State3126
;FirmV_0_7_0.c,741 :: 		{OverloadCheckFlag2=1; OverloadInit(2);Logger("S3 Overflow Flag2 Set");}
	MOVLW       1
	MOVWF       _OverloadCheckFlag2+0 
	MOVLW       2
	MOVWF       FARG_OverloadInit+0 
	CALL        _OverloadInit+0, 0
	MOVLW       ?ICS?lstr13_FirmV_0_7_0+0
	MOVWF       TBLPTRL 
	MOVLW       hi_addr(?ICS?lstr13_FirmV_0_7_0+0)
	MOVWF       TBLPTRH 
	MOVLW       higher_addr(?ICS?lstr13_FirmV_0_7_0+0)
	MOVWF       TBLPTRU 
	MOVLW       ?lstr13_FirmV_0_7_0+0
	MOVWF       FSR1L 
	MOVLW       hi_addr(?lstr13_FirmV_0_7_0+0)
	MOVWF       FSR1H 
	MOVLW       22
	MOVWF       R0 
	MOVLW       1
	MOVWF       R1 
	CALL        ___CC2DW+0, 0
	MOVLW       ?lstr13_FirmV_0_7_0+0
	MOVWF       FARG_Logger_text+0 
	MOVLW       hi_addr(?lstr13_FirmV_0_7_0+0)
	MOVWF       FARG_Logger_text+1 
	CALL        _Logger+0, 0
L_State3126:
;FirmV_0_7_0.c,743 :: 		if(CheckTask(3))
	MOVLW       3
	MOVWF       FARG_CheckTask+0 
	CALL        _CheckTask+0, 0
	MOVF        R0, 1 
	BTFSC       STATUS+0, 2 
	GOTO        L_State3127
;FirmV_0_7_0.c,744 :: 		{OpenDone.b0=0; StopMotor(1);Logger("S3 Motor1 Stop");}
	BCF         _OpenDone+0, 0 
	MOVLW       1
	MOVWF       FARG_StopMotor+0 
	CALL        _StopMotor+0, 0
	MOVLW       83
	MOVWF       ?lstr14_FirmV_0_7_0+0 
	MOVLW       51
	MOVWF       ?lstr14_FirmV_0_7_0+1 
	MOVLW       32
	MOVWF       ?lstr14_FirmV_0_7_0+2 
	MOVLW       77
	MOVWF       ?lstr14_FirmV_0_7_0+3 
	MOVLW       111
	MOVWF       ?lstr14_FirmV_0_7_0+4 
	MOVLW       116
	MOVWF       ?lstr14_FirmV_0_7_0+5 
	MOVLW       111
	MOVWF       ?lstr14_FirmV_0_7_0+6 
	MOVLW       114
	MOVWF       ?lstr14_FirmV_0_7_0+7 
	MOVLW       49
	MOVWF       ?lstr14_FirmV_0_7_0+8 
	MOVLW       32
	MOVWF       ?lstr14_FirmV_0_7_0+9 
	MOVLW       83
	MOVWF       ?lstr14_FirmV_0_7_0+10 
	MOVLW       116
	MOVWF       ?lstr14_FirmV_0_7_0+11 
	MOVLW       111
	MOVWF       ?lstr14_FirmV_0_7_0+12 
	MOVLW       112
	MOVWF       ?lstr14_FirmV_0_7_0+13 
	CLRF        ?lstr14_FirmV_0_7_0+14 
	MOVLW       ?lstr14_FirmV_0_7_0+0
	MOVWF       FARG_Logger_text+0 
	MOVLW       hi_addr(?lstr14_FirmV_0_7_0+0)
	MOVWF       FARG_Logger_text+1 
	CALL        _Logger+0, 0
L_State3127:
;FirmV_0_7_0.c,746 :: 		if(CheckTask(4))
	MOVLW       4
	MOVWF       FARG_CheckTask+0 
	CALL        _CheckTask+0, 0
	MOVF        R0, 1 
	BTFSC       STATUS+0, 2 
	GOTO        L_State3128
;FirmV_0_7_0.c,747 :: 		{OpenDone.b1=0; StopMotor(2);Logger("S3 Motor2 Stop");}
	BCF         _OpenDone+0, 1 
	MOVLW       2
	MOVWF       FARG_StopMotor+0 
	CALL        _StopMotor+0, 0
	MOVLW       83
	MOVWF       ?lstr15_FirmV_0_7_0+0 
	MOVLW       51
	MOVWF       ?lstr15_FirmV_0_7_0+1 
	MOVLW       32
	MOVWF       ?lstr15_FirmV_0_7_0+2 
	MOVLW       77
	MOVWF       ?lstr15_FirmV_0_7_0+3 
	MOVLW       111
	MOVWF       ?lstr15_FirmV_0_7_0+4 
	MOVLW       116
	MOVWF       ?lstr15_FirmV_0_7_0+5 
	MOVLW       111
	MOVWF       ?lstr15_FirmV_0_7_0+6 
	MOVLW       114
	MOVWF       ?lstr15_FirmV_0_7_0+7 
	MOVLW       50
	MOVWF       ?lstr15_FirmV_0_7_0+8 
	MOVLW       32
	MOVWF       ?lstr15_FirmV_0_7_0+9 
	MOVLW       83
	MOVWF       ?lstr15_FirmV_0_7_0+10 
	MOVLW       116
	MOVWF       ?lstr15_FirmV_0_7_0+11 
	MOVLW       111
	MOVWF       ?lstr15_FirmV_0_7_0+12 
	MOVLW       112
	MOVWF       ?lstr15_FirmV_0_7_0+13 
	CLRF        ?lstr15_FirmV_0_7_0+14 
	MOVLW       ?lstr15_FirmV_0_7_0+0
	MOVWF       FARG_Logger_text+0 
	MOVLW       hi_addr(?lstr15_FirmV_0_7_0+0)
	MOVWF       FARG_Logger_text+1 
	CALL        _Logger+0, 0
L_State3128:
;FirmV_0_7_0.c,749 :: 		if(CheckTask(12))
	MOVLW       12
	MOVWF       FARG_CheckTask+0 
	CALL        _CheckTask+0, 0
	MOVF        R0, 1 
	BTFSC       STATUS+0, 2 
	GOTO        L_State3129
;FirmV_0_7_0.c,750 :: 		{Lock=1;}
	BSF         PORTD+0, 6 
L_State3129:
;FirmV_0_7_0.c,752 :: 		if((OverloadCheckFlag1==1)&&(Events.Overload.b0==1)&&(M1isSlow==0))
	MOVF        _OverloadCheckFlag1+0, 0 
	XORLW       1
	BTFSS       STATUS+0, 2 
	GOTO        L_State3132
	BTFSS       _Events+5, 0 
	GOTO        L_State3132
	MOVF        _M1isSlow+0, 0 
	XORLW       0
	BTFSS       STATUS+0, 2 
	GOTO        L_State3132
L__State3692:
;FirmV_0_7_0.c,753 :: 		{StopMotor(1); StopMotor(2); State=5;OverloadCheckFlag1=0;OverloadCheckFlag2=0;Logger("S3 Motor1 Collision");ClearTasks(9);
	MOVLW       1
	MOVWF       FARG_StopMotor+0 
	CALL        _StopMotor+0, 0
	MOVLW       2
	MOVWF       FARG_StopMotor+0 
	CALL        _StopMotor+0, 0
	MOVLW       5
	MOVWF       _State+0 
	CLRF        _OverloadCheckFlag1+0 
	CLRF        _OverloadCheckFlag2+0 
	MOVLW       ?ICS?lstr16_FirmV_0_7_0+0
	MOVWF       TBLPTRL 
	MOVLW       hi_addr(?ICS?lstr16_FirmV_0_7_0+0)
	MOVWF       TBLPTRH 
	MOVLW       higher_addr(?ICS?lstr16_FirmV_0_7_0+0)
	MOVWF       TBLPTRU 
	MOVLW       ?lstr16_FirmV_0_7_0+0
	MOVWF       FSR1L 
	MOVLW       hi_addr(?lstr16_FirmV_0_7_0+0)
	MOVWF       FSR1H 
	MOVLW       20
	MOVWF       R0 
	MOVLW       1
	MOVWF       R1 
	CALL        ___CC2DW+0, 0
	MOVLW       ?lstr16_FirmV_0_7_0+0
	MOVWF       FARG_Logger_text+0 
	MOVLW       hi_addr(?lstr16_FirmV_0_7_0+0)
	MOVWF       FARG_Logger_text+1 
	CALL        _Logger+0, 0
	MOVLW       9
	MOVWF       FARG_ClearTasks+0 
	CALL        _ClearTasks+0, 0
;FirmV_0_7_0.c,754 :: 		memcpy(LCDLine1,_stop,16);memcpy(LCDLine2,_ErrOverload,16);LCDUpdateFlag=1;LCDLines=2;}
	MOVLW       _LCDLine1+0
	MOVWF       FARG_memcpy_d1+0 
	MOVLW       hi_addr(_LCDLine1+0)
	MOVWF       FARG_memcpy_d1+1 
	MOVLW       __stop+0
	MOVWF       FARG_memcpy_s1+0 
	MOVLW       hi_addr(__stop+0)
	MOVWF       FARG_memcpy_s1+1 
	MOVLW       16
	MOVWF       FARG_memcpy_n+0 
	MOVLW       0
	MOVWF       FARG_memcpy_n+1 
	CALL        _memcpy+0, 0
	MOVLW       _LCDLine2+0
	MOVWF       FARG_memcpy_d1+0 
	MOVLW       hi_addr(_LCDLine2+0)
	MOVWF       FARG_memcpy_d1+1 
	MOVLW       __errOverload+0
	MOVWF       FARG_memcpy_s1+0 
	MOVLW       hi_addr(__errOverload+0)
	MOVWF       FARG_memcpy_s1+1 
	MOVLW       16
	MOVWF       FARG_memcpy_n+0 
	MOVLW       0
	MOVWF       FARG_memcpy_n+1 
	CALL        _memcpy+0, 0
	MOVLW       1
	MOVWF       _LCDUpdateFlag+0 
	MOVLW       2
	MOVWF       _LCDLines+0 
L_State3132:
;FirmV_0_7_0.c,756 :: 		if((OverloadCheckFlag2==1)&&(Events.Overload.b1==1)&&(M2isSlow==0))
	MOVF        _OverloadCheckFlag2+0, 0 
	XORLW       1
	BTFSS       STATUS+0, 2 
	GOTO        L_State3135
	BTFSS       _Events+5, 1 
	GOTO        L_State3135
	MOVF        _M2isSlow+0, 0 
	XORLW       0
	BTFSS       STATUS+0, 2 
	GOTO        L_State3135
L__State3691:
;FirmV_0_7_0.c,757 :: 		{StopMotor(1); StopMotor(2); State=5;OverloadCheckFlag1=0;OverloadCheckFlag2=0;Logger("S3 Motor2 Collision");ClearTasks(9);
	MOVLW       1
	MOVWF       FARG_StopMotor+0 
	CALL        _StopMotor+0, 0
	MOVLW       2
	MOVWF       FARG_StopMotor+0 
	CALL        _StopMotor+0, 0
	MOVLW       5
	MOVWF       _State+0 
	CLRF        _OverloadCheckFlag1+0 
	CLRF        _OverloadCheckFlag2+0 
	MOVLW       ?ICS?lstr17_FirmV_0_7_0+0
	MOVWF       TBLPTRL 
	MOVLW       hi_addr(?ICS?lstr17_FirmV_0_7_0+0)
	MOVWF       TBLPTRH 
	MOVLW       higher_addr(?ICS?lstr17_FirmV_0_7_0+0)
	MOVWF       TBLPTRU 
	MOVLW       ?lstr17_FirmV_0_7_0+0
	MOVWF       FSR1L 
	MOVLW       hi_addr(?lstr17_FirmV_0_7_0+0)
	MOVWF       FSR1H 
	MOVLW       20
	MOVWF       R0 
	MOVLW       1
	MOVWF       R1 
	CALL        ___CC2DW+0, 0
	MOVLW       ?lstr17_FirmV_0_7_0+0
	MOVWF       FARG_Logger_text+0 
	MOVLW       hi_addr(?lstr17_FirmV_0_7_0+0)
	MOVWF       FARG_Logger_text+1 
	CALL        _Logger+0, 0
	MOVLW       9
	MOVWF       FARG_ClearTasks+0 
	CALL        _ClearTasks+0, 0
;FirmV_0_7_0.c,758 :: 		memcpy(LCDLine1,_stop,16);memcpy(LCDLine2,_ErrOverload,16);LCDUpdateFlag=1;LCDLines=2;}
	MOVLW       _LCDLine1+0
	MOVWF       FARG_memcpy_d1+0 
	MOVLW       hi_addr(_LCDLine1+0)
	MOVWF       FARG_memcpy_d1+1 
	MOVLW       __stop+0
	MOVWF       FARG_memcpy_s1+0 
	MOVLW       hi_addr(__stop+0)
	MOVWF       FARG_memcpy_s1+1 
	MOVLW       16
	MOVWF       FARG_memcpy_n+0 
	MOVLW       0
	MOVWF       FARG_memcpy_n+1 
	CALL        _memcpy+0, 0
	MOVLW       _LCDLine2+0
	MOVWF       FARG_memcpy_d1+0 
	MOVLW       hi_addr(_LCDLine2+0)
	MOVWF       FARG_memcpy_d1+1 
	MOVLW       __errOverload+0
	MOVWF       FARG_memcpy_s1+0 
	MOVLW       hi_addr(__errOverload+0)
	MOVWF       FARG_memcpy_s1+1 
	MOVLW       16
	MOVWF       FARG_memcpy_n+0 
	MOVLW       0
	MOVWF       FARG_memcpy_n+1 
	CALL        _memcpy+0, 0
	MOVLW       1
	MOVWF       _LCDUpdateFlag+0 
	MOVLW       2
	MOVWF       _LCDLines+0 
L_State3135:
;FirmV_0_7_0.c,760 :: 		if((Door2OpenTime==0)||(ActiveDoors==1))
	MOVF        _Door2OpenTime+0, 0 
	XORLW       0
	BTFSC       STATUS+0, 2 
	GOTO        L__State3690
	MOVF        _ActiveDoors+0, 0 
	XORLW       1
	BTFSC       STATUS+0, 2 
	GOTO        L__State3690
	GOTO        L_State3138
L__State3690:
;FirmV_0_7_0.c,761 :: 		OpenDone.b1=0;
	BCF         _OpenDone+0, 1 
L_State3138:
;FirmV_0_7_0.c,763 :: 		if((Events.Photocell.b0==1)&&(OpenPhEnable))
	BTFSS       _Events+6, 0 
	GOTO        L_State3141
	MOVF        _OpenPhEnable+0, 1 
	BTFSC       STATUS+0, 2 
	GOTO        L_State3141
L__State3689:
;FirmV_0_7_0.c,764 :: 		{StopMotor(1); StopMotor(2);OverloadCheckFlag1=0;OverloadCheckFlag2=0; State=5;Logger("S3 Photocell Int");ClearTasks(9);
	MOVLW       1
	MOVWF       FARG_StopMotor+0 
	CALL        _StopMotor+0, 0
	MOVLW       2
	MOVWF       FARG_StopMotor+0 
	CALL        _StopMotor+0, 0
	CLRF        _OverloadCheckFlag1+0 
	CLRF        _OverloadCheckFlag2+0 
	MOVLW       5
	MOVWF       _State+0 
	MOVLW       ?ICS?lstr18_FirmV_0_7_0+0
	MOVWF       TBLPTRL 
	MOVLW       hi_addr(?ICS?lstr18_FirmV_0_7_0+0)
	MOVWF       TBLPTRH 
	MOVLW       higher_addr(?ICS?lstr18_FirmV_0_7_0+0)
	MOVWF       TBLPTRU 
	MOVLW       ?lstr18_FirmV_0_7_0+0
	MOVWF       FSR1L 
	MOVLW       hi_addr(?lstr18_FirmV_0_7_0+0)
	MOVWF       FSR1H 
	MOVLW       17
	MOVWF       R0 
	MOVLW       1
	MOVWF       R1 
	CALL        ___CC2DW+0, 0
	MOVLW       ?lstr18_FirmV_0_7_0+0
	MOVWF       FARG_Logger_text+0 
	MOVLW       hi_addr(?lstr18_FirmV_0_7_0+0)
	MOVWF       FARG_Logger_text+1 
	CALL        _Logger+0, 0
	MOVLW       9
	MOVWF       FARG_ClearTasks+0 
	CALL        _ClearTasks+0, 0
;FirmV_0_7_0.c,765 :: 		memcpy(LCDLine1,_stop,16);memcpy(LCDLine2,_ErrPhoto,16);LCDUpdateFlag=1;LCDLines=2;}
	MOVLW       _LCDLine1+0
	MOVWF       FARG_memcpy_d1+0 
	MOVLW       hi_addr(_LCDLine1+0)
	MOVWF       FARG_memcpy_d1+1 
	MOVLW       __stop+0
	MOVWF       FARG_memcpy_s1+0 
	MOVLW       hi_addr(__stop+0)
	MOVWF       FARG_memcpy_s1+1 
	MOVLW       16
	MOVWF       FARG_memcpy_n+0 
	MOVLW       0
	MOVWF       FARG_memcpy_n+1 
	CALL        _memcpy+0, 0
	MOVLW       _LCDLine2+0
	MOVWF       FARG_memcpy_d1+0 
	MOVLW       hi_addr(_LCDLine2+0)
	MOVWF       FARG_memcpy_d1+1 
	MOVLW       __errPhoto+0
	MOVWF       FARG_memcpy_s1+0 
	MOVLW       hi_addr(__errPhoto+0)
	MOVWF       FARG_memcpy_s1+1 
	MOVLW       16
	MOVWF       FARG_memcpy_n+0 
	MOVLW       0
	MOVWF       FARG_memcpy_n+1 
	CALL        _memcpy+0, 0
	MOVLW       1
	MOVWF       _LCDUpdateFlag+0 
	MOVLW       2
	MOVWF       _LCDLines+0 
L_State3141:
;FirmV_0_7_0.c,767 :: 		if(Events.Remote!=0)
	MOVF        _Events+4, 0 
	XORLW       0
	BTFSC       STATUS+0, 2 
	GOTO        L_State3142
;FirmV_0_7_0.c,768 :: 		{StopMotor(1); StopMotor(2);OverloadCheckFlag1=0;OverloadCheckFlag2=0; State=5;Logger("S3 Remote Stoped");ClearTasks(9);
	MOVLW       1
	MOVWF       FARG_StopMotor+0 
	CALL        _StopMotor+0, 0
	MOVLW       2
	MOVWF       FARG_StopMotor+0 
	CALL        _StopMotor+0, 0
	CLRF        _OverloadCheckFlag1+0 
	CLRF        _OverloadCheckFlag2+0 
	MOVLW       5
	MOVWF       _State+0 
	MOVLW       ?ICS?lstr19_FirmV_0_7_0+0
	MOVWF       TBLPTRL 
	MOVLW       hi_addr(?ICS?lstr19_FirmV_0_7_0+0)
	MOVWF       TBLPTRH 
	MOVLW       higher_addr(?ICS?lstr19_FirmV_0_7_0+0)
	MOVWF       TBLPTRU 
	MOVLW       ?lstr19_FirmV_0_7_0+0
	MOVWF       FSR1L 
	MOVLW       hi_addr(?lstr19_FirmV_0_7_0+0)
	MOVWF       FSR1H 
	MOVLW       17
	MOVWF       R0 
	MOVLW       1
	MOVWF       R1 
	CALL        ___CC2DW+0, 0
	MOVLW       ?lstr19_FirmV_0_7_0+0
	MOVWF       FARG_Logger_text+0 
	MOVLW       hi_addr(?lstr19_FirmV_0_7_0+0)
	MOVWF       FARG_Logger_text+1 
	CALL        _Logger+0, 0
	MOVLW       9
	MOVWF       FARG_ClearTasks+0 
	CALL        _ClearTasks+0, 0
;FirmV_0_7_0.c,769 :: 		memcpy(LCDLine1,_stop,16);memcpy(LCDLine2,_ErrRemote,16);LCDUpdateFlag=1;LCDLines=2;}
	MOVLW       _LCDLine1+0
	MOVWF       FARG_memcpy_d1+0 
	MOVLW       hi_addr(_LCDLine1+0)
	MOVWF       FARG_memcpy_d1+1 
	MOVLW       __stop+0
	MOVWF       FARG_memcpy_s1+0 
	MOVLW       hi_addr(__stop+0)
	MOVWF       FARG_memcpy_s1+1 
	MOVLW       16
	MOVWF       FARG_memcpy_n+0 
	MOVLW       0
	MOVWF       FARG_memcpy_n+1 
	CALL        _memcpy+0, 0
	MOVLW       _LCDLine2+0
	MOVWF       FARG_memcpy_d1+0 
	MOVLW       hi_addr(_LCDLine2+0)
	MOVWF       FARG_memcpy_d1+1 
	MOVLW       __errRemote+0
	MOVWF       FARG_memcpy_s1+0 
	MOVLW       hi_addr(__errRemote+0)
	MOVWF       FARG_memcpy_s1+1 
	MOVLW       16
	MOVWF       FARG_memcpy_n+0 
	MOVLW       0
	MOVWF       FARG_memcpy_n+1 
	CALL        _memcpy+0, 0
	MOVLW       1
	MOVWF       _LCDUpdateFlag+0 
	MOVLW       2
	MOVWF       _LCDLines+0 
L_State3142:
;FirmV_0_7_0.c,771 :: 		if((Events.Limiter==1)&&(LimiterEnable))
	MOVF        _Events+7, 0 
	XORLW       1
	BTFSS       STATUS+0, 2 
	GOTO        L_State3145
	MOVF        _LimiterEnable+0, 1 
	BTFSC       STATUS+0, 2 
	GOTO        L_State3145
L__State3688:
;FirmV_0_7_0.c,772 :: 		{StopMotor(1); StopMotor(2);OverloadCheckFlag1=0;OverloadCheckFlag2=0; State=5;Logger("S3 Limit Switch Stoped");ClearTasks(9);
	MOVLW       1
	MOVWF       FARG_StopMotor+0 
	CALL        _StopMotor+0, 0
	MOVLW       2
	MOVWF       FARG_StopMotor+0 
	CALL        _StopMotor+0, 0
	CLRF        _OverloadCheckFlag1+0 
	CLRF        _OverloadCheckFlag2+0 
	MOVLW       5
	MOVWF       _State+0 
	MOVLW       ?ICS?lstr20_FirmV_0_7_0+0
	MOVWF       TBLPTRL 
	MOVLW       hi_addr(?ICS?lstr20_FirmV_0_7_0+0)
	MOVWF       TBLPTRH 
	MOVLW       higher_addr(?ICS?lstr20_FirmV_0_7_0+0)
	MOVWF       TBLPTRU 
	MOVLW       ?lstr20_FirmV_0_7_0+0
	MOVWF       FSR1L 
	MOVLW       hi_addr(?lstr20_FirmV_0_7_0+0)
	MOVWF       FSR1H 
	MOVLW       23
	MOVWF       R0 
	MOVLW       1
	MOVWF       R1 
	CALL        ___CC2DW+0, 0
	MOVLW       ?lstr20_FirmV_0_7_0+0
	MOVWF       FARG_Logger_text+0 
	MOVLW       hi_addr(?lstr20_FirmV_0_7_0+0)
	MOVWF       FARG_Logger_text+1 
	CALL        _Logger+0, 0
	MOVLW       9
	MOVWF       FARG_ClearTasks+0 
	CALL        _ClearTasks+0, 0
;FirmV_0_7_0.c,773 :: 		memcpy(LCDLine1,_stop,16);memcpy(LCDLine2,_ErrLimit,16);LCDUpdateFlag=1;LCDLines=2;}
	MOVLW       _LCDLine1+0
	MOVWF       FARG_memcpy_d1+0 
	MOVLW       hi_addr(_LCDLine1+0)
	MOVWF       FARG_memcpy_d1+1 
	MOVLW       __stop+0
	MOVWF       FARG_memcpy_s1+0 
	MOVLW       hi_addr(__stop+0)
	MOVWF       FARG_memcpy_s1+1 
	MOVLW       16
	MOVWF       FARG_memcpy_n+0 
	MOVLW       0
	MOVWF       FARG_memcpy_n+1 
	CALL        _memcpy+0, 0
	MOVLW       _LCDLine2+0
	MOVWF       FARG_memcpy_d1+0 
	MOVLW       hi_addr(_LCDLine2+0)
	MOVWF       FARG_memcpy_d1+1 
	MOVLW       __errLimit+0
	MOVWF       FARG_memcpy_s1+0 
	MOVLW       hi_addr(__errLimit+0)
	MOVWF       FARG_memcpy_s1+1 
	MOVLW       16
	MOVWF       FARG_memcpy_n+0 
	MOVLW       0
	MOVWF       FARG_memcpy_n+1 
	CALL        _memcpy+0, 0
	MOVLW       1
	MOVWF       _LCDUpdateFlag+0 
	MOVLW       2
	MOVWF       _LCDLines+0 
L_State3145:
;FirmV_0_7_0.c,775 :: 		if(OpenDone==0)
	MOVF        _OpenDone+0, 0 
	XORLW       0
	BTFSS       STATUS+0, 2 
	GOTO        L_State3146
;FirmV_0_7_0.c,776 :: 		{State=2; PassFlag=0;ClearTasks(9);memcpy(LCDLine1,_open,16);memcpy(LCDLine2,_blank,16);LCDUpdateFlag=1;LCDLines=1;}
	MOVLW       2
	MOVWF       _State+0 
	CLRF        _PassFlag+0 
	MOVLW       9
	MOVWF       FARG_ClearTasks+0 
	CALL        _ClearTasks+0, 0
	MOVLW       _LCDLine1+0
	MOVWF       FARG_memcpy_d1+0 
	MOVLW       hi_addr(_LCDLine1+0)
	MOVWF       FARG_memcpy_d1+1 
	MOVLW       __open+0
	MOVWF       FARG_memcpy_s1+0 
	MOVLW       hi_addr(__open+0)
	MOVWF       FARG_memcpy_s1+1 
	MOVLW       16
	MOVWF       FARG_memcpy_n+0 
	MOVLW       0
	MOVWF       FARG_memcpy_n+1 
	CALL        _memcpy+0, 0
	MOVLW       _LCDLine2+0
	MOVWF       FARG_memcpy_d1+0 
	MOVLW       hi_addr(_LCDLine2+0)
	MOVWF       FARG_memcpy_d1+1 
	MOVLW       __Blank+0
	MOVWF       FARG_memcpy_s1+0 
	MOVLW       hi_addr(__Blank+0)
	MOVWF       FARG_memcpy_s1+1 
	MOVLW       16
	MOVWF       FARG_memcpy_n+0 
	MOVLW       0
	MOVWF       FARG_memcpy_n+1 
	CALL        _memcpy+0, 0
	MOVLW       1
	MOVWF       _LCDUpdateFlag+0 
	MOVLW       1
	MOVWF       _LCDLines+0 
L_State3146:
;FirmV_0_7_0.c,778 :: 		if((State==5)||(State==6))
	MOVF        _State+0, 0 
	XORLW       5
	BTFSC       STATUS+0, 2 
	GOTO        L__State3687
	MOVF        _State+0, 0 
	XORLW       6
	BTFSC       STATUS+0, 2 
	GOTO        L__State3687
	GOTO        L_State3149
L__State3687:
;FirmV_0_7_0.c,779 :: 		{ClearTasks(0);if(AutoCloseTime!=0){AddTask(ms500+AutoCloseTime,9);Logger("S3 Autoclose Renewed");memcpy(LCDLine2,_autoclose,16);LCDUpdateFlag=1;LCDLines=2;}}
	CLRF        FARG_ClearTasks+0 
	CALL        _ClearTasks+0, 0
	MOVLW       0
	XORWF       _AutoCloseTime+1, 0 
	BTFSS       STATUS+0, 2 
	GOTO        L__State3785
	MOVLW       0
	XORWF       _AutoCloseTime+0, 0 
L__State3785:
	BTFSC       STATUS+0, 2 
	GOTO        L_State3150
	MOVF        _AutoCloseTime+0, 0 
	ADDWF       _ms500+0, 0 
	MOVWF       FARG_AddTask+0 
	MOVF        _AutoCloseTime+1, 0 
	ADDWFC      _ms500+1, 0 
	MOVWF       FARG_AddTask+1 
	MOVLW       0
	ADDWFC      _ms500+2, 0 
	MOVWF       FARG_AddTask+2 
	MOVLW       0
	ADDWFC      _ms500+3, 0 
	MOVWF       FARG_AddTask+3 
	MOVLW       9
	MOVWF       FARG_AddTask+0 
	CALL        _AddTask+0, 0
	MOVLW       ?ICS?lstr21_FirmV_0_7_0+0
	MOVWF       TBLPTRL 
	MOVLW       hi_addr(?ICS?lstr21_FirmV_0_7_0+0)
	MOVWF       TBLPTRH 
	MOVLW       higher_addr(?ICS?lstr21_FirmV_0_7_0+0)
	MOVWF       TBLPTRU 
	MOVLW       ?lstr21_FirmV_0_7_0+0
	MOVWF       FSR1L 
	MOVLW       hi_addr(?lstr21_FirmV_0_7_0+0)
	MOVWF       FSR1H 
	MOVLW       21
	MOVWF       R0 
	MOVLW       1
	MOVWF       R1 
	CALL        ___CC2DW+0, 0
	MOVLW       ?lstr21_FirmV_0_7_0+0
	MOVWF       FARG_Logger_text+0 
	MOVLW       hi_addr(?lstr21_FirmV_0_7_0+0)
	MOVWF       FARG_Logger_text+1 
	CALL        _Logger+0, 0
	MOVLW       _LCDLine2+0
	MOVWF       FARG_memcpy_d1+0 
	MOVLW       hi_addr(_LCDLine2+0)
	MOVWF       FARG_memcpy_d1+1 
	MOVLW       __autoclose+0
	MOVWF       FARG_memcpy_s1+0 
	MOVLW       hi_addr(__autoclose+0)
	MOVWF       FARG_memcpy_s1+1 
	MOVLW       16
	MOVWF       FARG_memcpy_n+0 
	MOVLW       0
	MOVWF       FARG_memcpy_n+1 
	CALL        _memcpy+0, 0
	MOVLW       1
	MOVWF       _LCDUpdateFlag+0 
	MOVLW       2
	MOVWF       _LCDLines+0 
L_State3150:
L_State3149:
;FirmV_0_7_0.c,781 :: 		}
	RETURN      0
; end of _State3

_State4:

;FirmV_0_7_0.c,795 :: 		void State4()
;FirmV_0_7_0.c,797 :: 		Flasher=1;
	BSF         PORTD+0, 7 
;FirmV_0_7_0.c,800 :: 		if(CheckTask(1))
	MOVLW       1
	MOVWF       FARG_CheckTask+0 
	CALL        _CheckTask+0, 0
	MOVF        R0, 1 
	BTFSC       STATUS+0, 2 
	GOTO        L_State4151
;FirmV_0_7_0.c,801 :: 		{StartMotor(1,_Close);Logger("S4 Motor1Start");}
	MOVLW       1
	MOVWF       FARG_StartMotor+0 
	CLRF        FARG_StartMotor+0 
	CALL        _StartMotor+0, 0
	MOVLW       83
	MOVWF       ?lstr22_FirmV_0_7_0+0 
	MOVLW       52
	MOVWF       ?lstr22_FirmV_0_7_0+1 
	MOVLW       32
	MOVWF       ?lstr22_FirmV_0_7_0+2 
	MOVLW       77
	MOVWF       ?lstr22_FirmV_0_7_0+3 
	MOVLW       111
	MOVWF       ?lstr22_FirmV_0_7_0+4 
	MOVLW       116
	MOVWF       ?lstr22_FirmV_0_7_0+5 
	MOVLW       111
	MOVWF       ?lstr22_FirmV_0_7_0+6 
	MOVLW       114
	MOVWF       ?lstr22_FirmV_0_7_0+7 
	MOVLW       49
	MOVWF       ?lstr22_FirmV_0_7_0+8 
	MOVLW       83
	MOVWF       ?lstr22_FirmV_0_7_0+9 
	MOVLW       116
	MOVWF       ?lstr22_FirmV_0_7_0+10 
	MOVLW       97
	MOVWF       ?lstr22_FirmV_0_7_0+11 
	MOVLW       114
	MOVWF       ?lstr22_FirmV_0_7_0+12 
	MOVLW       116
	MOVWF       ?lstr22_FirmV_0_7_0+13 
	CLRF        ?lstr22_FirmV_0_7_0+14 
	MOVLW       ?lstr22_FirmV_0_7_0+0
	MOVWF       FARG_Logger_text+0 
	MOVLW       hi_addr(?lstr22_FirmV_0_7_0+0)
	MOVWF       FARG_Logger_text+1 
	CALL        _Logger+0, 0
L_State4151:
;FirmV_0_7_0.c,803 :: 		if(CheckTask(2))
	MOVLW       2
	MOVWF       FARG_CheckTask+0 
	CALL        _CheckTask+0, 0
	MOVF        R0, 1 
	BTFSC       STATUS+0, 2 
	GOTO        L_State4152
;FirmV_0_7_0.c,804 :: 		{StartMotor(2,_Close);Logger("S4 Motor2Start");memcpy(LCDLine1,_closing,16);memcpy(LCDLine2,_Blank,16);LCDUpdateFlag=1;LCDLines=1;}
	MOVLW       2
	MOVWF       FARG_StartMotor+0 
	CLRF        FARG_StartMotor+0 
	CALL        _StartMotor+0, 0
	MOVLW       83
	MOVWF       ?lstr23_FirmV_0_7_0+0 
	MOVLW       52
	MOVWF       ?lstr23_FirmV_0_7_0+1 
	MOVLW       32
	MOVWF       ?lstr23_FirmV_0_7_0+2 
	MOVLW       77
	MOVWF       ?lstr23_FirmV_0_7_0+3 
	MOVLW       111
	MOVWF       ?lstr23_FirmV_0_7_0+4 
	MOVLW       116
	MOVWF       ?lstr23_FirmV_0_7_0+5 
	MOVLW       111
	MOVWF       ?lstr23_FirmV_0_7_0+6 
	MOVLW       114
	MOVWF       ?lstr23_FirmV_0_7_0+7 
	MOVLW       50
	MOVWF       ?lstr23_FirmV_0_7_0+8 
	MOVLW       83
	MOVWF       ?lstr23_FirmV_0_7_0+9 
	MOVLW       116
	MOVWF       ?lstr23_FirmV_0_7_0+10 
	MOVLW       97
	MOVWF       ?lstr23_FirmV_0_7_0+11 
	MOVLW       114
	MOVWF       ?lstr23_FirmV_0_7_0+12 
	MOVLW       116
	MOVWF       ?lstr23_FirmV_0_7_0+13 
	CLRF        ?lstr23_FirmV_0_7_0+14 
	MOVLW       ?lstr23_FirmV_0_7_0+0
	MOVWF       FARG_Logger_text+0 
	MOVLW       hi_addr(?lstr23_FirmV_0_7_0+0)
	MOVWF       FARG_Logger_text+1 
	CALL        _Logger+0, 0
	MOVLW       _LCDLine1+0
	MOVWF       FARG_memcpy_d1+0 
	MOVLW       hi_addr(_LCDLine1+0)
	MOVWF       FARG_memcpy_d1+1 
	MOVLW       __closing+0
	MOVWF       FARG_memcpy_s1+0 
	MOVLW       hi_addr(__closing+0)
	MOVWF       FARG_memcpy_s1+1 
	MOVLW       16
	MOVWF       FARG_memcpy_n+0 
	MOVLW       0
	MOVWF       FARG_memcpy_n+1 
	CALL        _memcpy+0, 0
	MOVLW       _LCDLine2+0
	MOVWF       FARG_memcpy_d1+0 
	MOVLW       hi_addr(_LCDLine2+0)
	MOVWF       FARG_memcpy_d1+1 
	MOVLW       __Blank+0
	MOVWF       FARG_memcpy_s1+0 
	MOVLW       hi_addr(__Blank+0)
	MOVWF       FARG_memcpy_s1+1 
	MOVLW       16
	MOVWF       FARG_memcpy_n+0 
	MOVLW       0
	MOVWF       FARG_memcpy_n+1 
	CALL        _memcpy+0, 0
	MOVLW       1
	MOVWF       _LCDUpdateFlag+0 
	MOVLW       1
	MOVWF       _LCDLines+0 
L_State4152:
;FirmV_0_7_0.c,806 :: 		if(CheckTask(10))
	MOVLW       10
	MOVWF       FARG_CheckTask+0 
	CALL        _CheckTask+0, 0
	MOVF        R0, 1 
	BTFSC       STATUS+0, 2 
	GOTO        L_State4153
;FirmV_0_7_0.c,807 :: 		{OverloadCheckFlag1=1; OverloadInit(1);Logger("S4 M1 Overload Check");}
	MOVLW       1
	MOVWF       _OverloadCheckFlag1+0 
	MOVLW       1
	MOVWF       FARG_OverloadInit+0 
	CALL        _OverloadInit+0, 0
	MOVLW       ?ICS?lstr24_FirmV_0_7_0+0
	MOVWF       TBLPTRL 
	MOVLW       hi_addr(?ICS?lstr24_FirmV_0_7_0+0)
	MOVWF       TBLPTRH 
	MOVLW       higher_addr(?ICS?lstr24_FirmV_0_7_0+0)
	MOVWF       TBLPTRU 
	MOVLW       ?lstr24_FirmV_0_7_0+0
	MOVWF       FSR1L 
	MOVLW       hi_addr(?lstr24_FirmV_0_7_0+0)
	MOVWF       FSR1H 
	MOVLW       21
	MOVWF       R0 
	MOVLW       1
	MOVWF       R1 
	CALL        ___CC2DW+0, 0
	MOVLW       ?lstr24_FirmV_0_7_0+0
	MOVWF       FARG_Logger_text+0 
	MOVLW       hi_addr(?lstr24_FirmV_0_7_0+0)
	MOVWF       FARG_Logger_text+1 
	CALL        _Logger+0, 0
L_State4153:
;FirmV_0_7_0.c,809 :: 		if(CheckTask(11))
	MOVLW       11
	MOVWF       FARG_CheckTask+0 
	CALL        _CheckTask+0, 0
	MOVF        R0, 1 
	BTFSC       STATUS+0, 2 
	GOTO        L_State4154
;FirmV_0_7_0.c,810 :: 		{OverloadCheckFlag2=1; OverloadInit(2);Logger("S4 M2 Overload Check");}
	MOVLW       1
	MOVWF       _OverloadCheckFlag2+0 
	MOVLW       2
	MOVWF       FARG_OverloadInit+0 
	CALL        _OverloadInit+0, 0
	MOVLW       ?ICS?lstr25_FirmV_0_7_0+0
	MOVWF       TBLPTRL 
	MOVLW       hi_addr(?ICS?lstr25_FirmV_0_7_0+0)
	MOVWF       TBLPTRH 
	MOVLW       higher_addr(?ICS?lstr25_FirmV_0_7_0+0)
	MOVWF       TBLPTRU 
	MOVLW       ?lstr25_FirmV_0_7_0+0
	MOVWF       FSR1L 
	MOVLW       hi_addr(?lstr25_FirmV_0_7_0+0)
	MOVWF       FSR1H 
	MOVLW       21
	MOVWF       R0 
	MOVLW       1
	MOVWF       R1 
	CALL        ___CC2DW+0, 0
	MOVLW       ?lstr25_FirmV_0_7_0+0
	MOVWF       FARG_Logger_text+0 
	MOVLW       hi_addr(?lstr25_FirmV_0_7_0+0)
	MOVWF       FARG_Logger_text+1 
	CALL        _Logger+0, 0
L_State4154:
;FirmV_0_7_0.c,812 :: 		if(CheckTask(5))
	MOVLW       5
	MOVWF       FARG_CheckTask+0 
	CALL        _CheckTask+0, 0
	MOVF        R0, 1 
	BTFSC       STATUS+0, 2 
	GOTO        L_State4155
;FirmV_0_7_0.c,813 :: 		{SetMotorSpeed(1,Motor2FullSpeed); OverloadCheckFlag1=0; M1isSlow=0;Logger("S4 M1 Speed UP");}
	MOVLW       1
	MOVWF       FARG_SetMotorSpeed+0 
	MOVF        _Motor2FullSpeed+0, 0 
	MOVWF       FARG_SetMotorSpeed+0 
	CALL        _SetMotorSpeed+0, 0
	CLRF        _OverloadCheckFlag1+0 
	CLRF        _M1isSlow+0 
	MOVLW       83
	MOVWF       ?lstr26_FirmV_0_7_0+0 
	MOVLW       52
	MOVWF       ?lstr26_FirmV_0_7_0+1 
	MOVLW       32
	MOVWF       ?lstr26_FirmV_0_7_0+2 
	MOVLW       77
	MOVWF       ?lstr26_FirmV_0_7_0+3 
	MOVLW       49
	MOVWF       ?lstr26_FirmV_0_7_0+4 
	MOVLW       32
	MOVWF       ?lstr26_FirmV_0_7_0+5 
	MOVLW       83
	MOVWF       ?lstr26_FirmV_0_7_0+6 
	MOVLW       112
	MOVWF       ?lstr26_FirmV_0_7_0+7 
	MOVLW       101
	MOVWF       ?lstr26_FirmV_0_7_0+8 
	MOVLW       101
	MOVWF       ?lstr26_FirmV_0_7_0+9 
	MOVLW       100
	MOVWF       ?lstr26_FirmV_0_7_0+10 
	MOVLW       32
	MOVWF       ?lstr26_FirmV_0_7_0+11 
	MOVLW       85
	MOVWF       ?lstr26_FirmV_0_7_0+12 
	MOVLW       80
	MOVWF       ?lstr26_FirmV_0_7_0+13 
	CLRF        ?lstr26_FirmV_0_7_0+14 
	MOVLW       ?lstr26_FirmV_0_7_0+0
	MOVWF       FARG_Logger_text+0 
	MOVLW       hi_addr(?lstr26_FirmV_0_7_0+0)
	MOVWF       FARG_Logger_text+1 
	CALL        _Logger+0, 0
L_State4155:
;FirmV_0_7_0.c,815 :: 		if(CheckTask(7))
	MOVLW       7
	MOVWF       FARG_CheckTask+0 
	CALL        _CheckTask+0, 0
	MOVF        R0, 1 
	BTFSC       STATUS+0, 2 
	GOTO        L_State4156
;FirmV_0_7_0.c,816 :: 		{SetMotorSpeed(0,Motor2FullSpeed); OverloadCheckFlag2=0; M1isSlow=1;Logger("S4 M1 Speed Down");}
	CLRF        FARG_SetMotorSpeed+0 
	MOVF        _Motor2FullSpeed+0, 0 
	MOVWF       FARG_SetMotorSpeed+0 
	CALL        _SetMotorSpeed+0, 0
	CLRF        _OverloadCheckFlag2+0 
	MOVLW       1
	MOVWF       _M1isSlow+0 
	MOVLW       ?ICS?lstr27_FirmV_0_7_0+0
	MOVWF       TBLPTRL 
	MOVLW       hi_addr(?ICS?lstr27_FirmV_0_7_0+0)
	MOVWF       TBLPTRH 
	MOVLW       higher_addr(?ICS?lstr27_FirmV_0_7_0+0)
	MOVWF       TBLPTRU 
	MOVLW       ?lstr27_FirmV_0_7_0+0
	MOVWF       FSR1L 
	MOVLW       hi_addr(?lstr27_FirmV_0_7_0+0)
	MOVWF       FSR1H 
	MOVLW       17
	MOVWF       R0 
	MOVLW       1
	MOVWF       R1 
	CALL        ___CC2DW+0, 0
	MOVLW       ?lstr27_FirmV_0_7_0+0
	MOVWF       FARG_Logger_text+0 
	MOVLW       hi_addr(?lstr27_FirmV_0_7_0+0)
	MOVWF       FARG_Logger_text+1 
	CALL        _Logger+0, 0
L_State4156:
;FirmV_0_7_0.c,818 :: 		if(CheckTask(6))
	MOVLW       6
	MOVWF       FARG_CheckTask+0 
	CALL        _CheckTask+0, 0
	MOVF        R0, 1 
	BTFSC       STATUS+0, 2 
	GOTO        L_State4157
;FirmV_0_7_0.c,819 :: 		{SetMotorSpeed(Motor1FullSpeed,1); M2isSlow=0;Logger("S4 M2 Speed UP");}
	MOVF        _Motor1FullSpeed+0, 0 
	MOVWF       FARG_SetMotorSpeed+0 
	MOVLW       1
	MOVWF       FARG_SetMotorSpeed+0 
	CALL        _SetMotorSpeed+0, 0
	CLRF        _M2isSlow+0 
	MOVLW       83
	MOVWF       ?lstr28_FirmV_0_7_0+0 
	MOVLW       52
	MOVWF       ?lstr28_FirmV_0_7_0+1 
	MOVLW       32
	MOVWF       ?lstr28_FirmV_0_7_0+2 
	MOVLW       77
	MOVWF       ?lstr28_FirmV_0_7_0+3 
	MOVLW       50
	MOVWF       ?lstr28_FirmV_0_7_0+4 
	MOVLW       32
	MOVWF       ?lstr28_FirmV_0_7_0+5 
	MOVLW       83
	MOVWF       ?lstr28_FirmV_0_7_0+6 
	MOVLW       112
	MOVWF       ?lstr28_FirmV_0_7_0+7 
	MOVLW       101
	MOVWF       ?lstr28_FirmV_0_7_0+8 
	MOVLW       101
	MOVWF       ?lstr28_FirmV_0_7_0+9 
	MOVLW       100
	MOVWF       ?lstr28_FirmV_0_7_0+10 
	MOVLW       32
	MOVWF       ?lstr28_FirmV_0_7_0+11 
	MOVLW       85
	MOVWF       ?lstr28_FirmV_0_7_0+12 
	MOVLW       80
	MOVWF       ?lstr28_FirmV_0_7_0+13 
	CLRF        ?lstr28_FirmV_0_7_0+14 
	MOVLW       ?lstr28_FirmV_0_7_0+0
	MOVWF       FARG_Logger_text+0 
	MOVLW       hi_addr(?lstr28_FirmV_0_7_0+0)
	MOVWF       FARG_Logger_text+1 
	CALL        _Logger+0, 0
L_State4157:
;FirmV_0_7_0.c,821 :: 		if(CheckTask(8))
	MOVLW       8
	MOVWF       FARG_CheckTask+0 
	CALL        _CheckTask+0, 0
	MOVF        R0, 1 
	BTFSC       STATUS+0, 2 
	GOTO        L_State4158
;FirmV_0_7_0.c,822 :: 		{SetMotorSpeed(Motor1FullSpeed,0); M2isSlow=1;Logger("S4 M2 Speed Down");}
	MOVF        _Motor1FullSpeed+0, 0 
	MOVWF       FARG_SetMotorSpeed+0 
	CLRF        FARG_SetMotorSpeed+0 
	CALL        _SetMotorSpeed+0, 0
	MOVLW       1
	MOVWF       _M2isSlow+0 
	MOVLW       ?ICS?lstr29_FirmV_0_7_0+0
	MOVWF       TBLPTRL 
	MOVLW       hi_addr(?ICS?lstr29_FirmV_0_7_0+0)
	MOVWF       TBLPTRH 
	MOVLW       higher_addr(?ICS?lstr29_FirmV_0_7_0+0)
	MOVWF       TBLPTRU 
	MOVLW       ?lstr29_FirmV_0_7_0+0
	MOVWF       FSR1L 
	MOVLW       hi_addr(?lstr29_FirmV_0_7_0+0)
	MOVWF       FSR1H 
	MOVLW       17
	MOVWF       R0 
	MOVLW       1
	MOVWF       R1 
	CALL        ___CC2DW+0, 0
	MOVLW       ?lstr29_FirmV_0_7_0+0
	MOVWF       FARG_Logger_text+0 
	MOVLW       hi_addr(?lstr29_FirmV_0_7_0+0)
	MOVWF       FARG_Logger_text+1 
	CALL        _Logger+0, 0
L_State4158:
;FirmV_0_7_0.c,824 :: 		if(CheckTask(3))
	MOVLW       3
	MOVWF       FARG_CheckTask+0 
	CALL        _CheckTask+0, 0
	MOVF        R0, 1 
	BTFSC       STATUS+0, 2 
	GOTO        L_State4159
;FirmV_0_7_0.c,825 :: 		{CloseDone.b0=0; StopMotor(1);Logger("S4 M1 Stoped");}
	BCF         _CloseDone+0, 0 
	MOVLW       1
	MOVWF       FARG_StopMotor+0 
	CALL        _StopMotor+0, 0
	MOVLW       83
	MOVWF       ?lstr30_FirmV_0_7_0+0 
	MOVLW       52
	MOVWF       ?lstr30_FirmV_0_7_0+1 
	MOVLW       32
	MOVWF       ?lstr30_FirmV_0_7_0+2 
	MOVLW       77
	MOVWF       ?lstr30_FirmV_0_7_0+3 
	MOVLW       49
	MOVWF       ?lstr30_FirmV_0_7_0+4 
	MOVLW       32
	MOVWF       ?lstr30_FirmV_0_7_0+5 
	MOVLW       83
	MOVWF       ?lstr30_FirmV_0_7_0+6 
	MOVLW       116
	MOVWF       ?lstr30_FirmV_0_7_0+7 
	MOVLW       111
	MOVWF       ?lstr30_FirmV_0_7_0+8 
	MOVLW       112
	MOVWF       ?lstr30_FirmV_0_7_0+9 
	MOVLW       101
	MOVWF       ?lstr30_FirmV_0_7_0+10 
	MOVLW       100
	MOVWF       ?lstr30_FirmV_0_7_0+11 
	CLRF        ?lstr30_FirmV_0_7_0+12 
	MOVLW       ?lstr30_FirmV_0_7_0+0
	MOVWF       FARG_Logger_text+0 
	MOVLW       hi_addr(?lstr30_FirmV_0_7_0+0)
	MOVWF       FARG_Logger_text+1 
	CALL        _Logger+0, 0
L_State4159:
;FirmV_0_7_0.c,827 :: 		if(CheckTask(4))
	MOVLW       4
	MOVWF       FARG_CheckTask+0 
	CALL        _CheckTask+0, 0
	MOVF        R0, 1 
	BTFSC       STATUS+0, 2 
	GOTO        L_State4160
;FirmV_0_7_0.c,828 :: 		{CloseDone.b1=0; StopMotor(2);Logger("S4 M2 Stoped");}
	BCF         _CloseDone+0, 1 
	MOVLW       2
	MOVWF       FARG_StopMotor+0 
	CALL        _StopMotor+0, 0
	MOVLW       83
	MOVWF       ?lstr31_FirmV_0_7_0+0 
	MOVLW       52
	MOVWF       ?lstr31_FirmV_0_7_0+1 
	MOVLW       32
	MOVWF       ?lstr31_FirmV_0_7_0+2 
	MOVLW       77
	MOVWF       ?lstr31_FirmV_0_7_0+3 
	MOVLW       50
	MOVWF       ?lstr31_FirmV_0_7_0+4 
	MOVLW       32
	MOVWF       ?lstr31_FirmV_0_7_0+5 
	MOVLW       83
	MOVWF       ?lstr31_FirmV_0_7_0+6 
	MOVLW       116
	MOVWF       ?lstr31_FirmV_0_7_0+7 
	MOVLW       111
	MOVWF       ?lstr31_FirmV_0_7_0+8 
	MOVLW       112
	MOVWF       ?lstr31_FirmV_0_7_0+9 
	MOVLW       101
	MOVWF       ?lstr31_FirmV_0_7_0+10 
	MOVLW       100
	MOVWF       ?lstr31_FirmV_0_7_0+11 
	CLRF        ?lstr31_FirmV_0_7_0+12 
	MOVLW       ?lstr31_FirmV_0_7_0+0
	MOVWF       FARG_Logger_text+0 
	MOVLW       hi_addr(?lstr31_FirmV_0_7_0+0)
	MOVWF       FARG_Logger_text+1 
	CALL        _Logger+0, 0
L_State4160:
;FirmV_0_7_0.c,830 :: 		if((OverloadCheckFlag1==1)&&(Events.Overload.b0==1)&&(M1isSlow==0))
	MOVF        _OverloadCheckFlag1+0, 0 
	XORLW       1
	BTFSS       STATUS+0, 2 
	GOTO        L_State4163
	BTFSS       _Events+5, 0 
	GOTO        L_State4163
	MOVF        _M1isSlow+0, 0 
	XORLW       0
	BTFSS       STATUS+0, 2 
	GOTO        L_State4163
L__State4697:
;FirmV_0_7_0.c,831 :: 		{StopMotor(1); StopMotor(2); State=6;OverloadCheckFlag1=0;OverloadCheckFlag2=0;Logger("S4 M1 Overloaded");ClearTasks(9);
	MOVLW       1
	MOVWF       FARG_StopMotor+0 
	CALL        _StopMotor+0, 0
	MOVLW       2
	MOVWF       FARG_StopMotor+0 
	CALL        _StopMotor+0, 0
	MOVLW       6
	MOVWF       _State+0 
	CLRF        _OverloadCheckFlag1+0 
	CLRF        _OverloadCheckFlag2+0 
	MOVLW       ?ICS?lstr32_FirmV_0_7_0+0
	MOVWF       TBLPTRL 
	MOVLW       hi_addr(?ICS?lstr32_FirmV_0_7_0+0)
	MOVWF       TBLPTRH 
	MOVLW       higher_addr(?ICS?lstr32_FirmV_0_7_0+0)
	MOVWF       TBLPTRU 
	MOVLW       ?lstr32_FirmV_0_7_0+0
	MOVWF       FSR1L 
	MOVLW       hi_addr(?lstr32_FirmV_0_7_0+0)
	MOVWF       FSR1H 
	MOVLW       17
	MOVWF       R0 
	MOVLW       1
	MOVWF       R1 
	CALL        ___CC2DW+0, 0
	MOVLW       ?lstr32_FirmV_0_7_0+0
	MOVWF       FARG_Logger_text+0 
	MOVLW       hi_addr(?lstr32_FirmV_0_7_0+0)
	MOVWF       FARG_Logger_text+1 
	CALL        _Logger+0, 0
	MOVLW       9
	MOVWF       FARG_ClearTasks+0 
	CALL        _ClearTasks+0, 0
;FirmV_0_7_0.c,832 :: 		memcpy(LCDLine1,_stop,16);memcpy(LCDLine2,_ErrOverload,16);LCDUpdateFlag=1;LCDLines=2;}
	MOVLW       _LCDLine1+0
	MOVWF       FARG_memcpy_d1+0 
	MOVLW       hi_addr(_LCDLine1+0)
	MOVWF       FARG_memcpy_d1+1 
	MOVLW       __stop+0
	MOVWF       FARG_memcpy_s1+0 
	MOVLW       hi_addr(__stop+0)
	MOVWF       FARG_memcpy_s1+1 
	MOVLW       16
	MOVWF       FARG_memcpy_n+0 
	MOVLW       0
	MOVWF       FARG_memcpy_n+1 
	CALL        _memcpy+0, 0
	MOVLW       _LCDLine2+0
	MOVWF       FARG_memcpy_d1+0 
	MOVLW       hi_addr(_LCDLine2+0)
	MOVWF       FARG_memcpy_d1+1 
	MOVLW       __errOverload+0
	MOVWF       FARG_memcpy_s1+0 
	MOVLW       hi_addr(__errOverload+0)
	MOVWF       FARG_memcpy_s1+1 
	MOVLW       16
	MOVWF       FARG_memcpy_n+0 
	MOVLW       0
	MOVWF       FARG_memcpy_n+1 
	CALL        _memcpy+0, 0
	MOVLW       1
	MOVWF       _LCDUpdateFlag+0 
	MOVLW       2
	MOVWF       _LCDLines+0 
L_State4163:
;FirmV_0_7_0.c,834 :: 		if((OverloadCheckFlag2==1)&&(Events.Overload.b1==1)&&(M2isSlow==0))
	MOVF        _OverloadCheckFlag2+0, 0 
	XORLW       1
	BTFSS       STATUS+0, 2 
	GOTO        L_State4166
	BTFSS       _Events+5, 1 
	GOTO        L_State4166
	MOVF        _M2isSlow+0, 0 
	XORLW       0
	BTFSS       STATUS+0, 2 
	GOTO        L_State4166
L__State4696:
;FirmV_0_7_0.c,835 :: 		{StopMotor(1); StopMotor(2); State=6;OverloadCheckFlag1=0;OverloadCheckFlag2=0;Logger("S4 M2 Overloaded");ClearTasks(9);
	MOVLW       1
	MOVWF       FARG_StopMotor+0 
	CALL        _StopMotor+0, 0
	MOVLW       2
	MOVWF       FARG_StopMotor+0 
	CALL        _StopMotor+0, 0
	MOVLW       6
	MOVWF       _State+0 
	CLRF        _OverloadCheckFlag1+0 
	CLRF        _OverloadCheckFlag2+0 
	MOVLW       ?ICS?lstr33_FirmV_0_7_0+0
	MOVWF       TBLPTRL 
	MOVLW       hi_addr(?ICS?lstr33_FirmV_0_7_0+0)
	MOVWF       TBLPTRH 
	MOVLW       higher_addr(?ICS?lstr33_FirmV_0_7_0+0)
	MOVWF       TBLPTRU 
	MOVLW       ?lstr33_FirmV_0_7_0+0
	MOVWF       FSR1L 
	MOVLW       hi_addr(?lstr33_FirmV_0_7_0+0)
	MOVWF       FSR1H 
	MOVLW       17
	MOVWF       R0 
	MOVLW       1
	MOVWF       R1 
	CALL        ___CC2DW+0, 0
	MOVLW       ?lstr33_FirmV_0_7_0+0
	MOVWF       FARG_Logger_text+0 
	MOVLW       hi_addr(?lstr33_FirmV_0_7_0+0)
	MOVWF       FARG_Logger_text+1 
	CALL        _Logger+0, 0
	MOVLW       9
	MOVWF       FARG_ClearTasks+0 
	CALL        _ClearTasks+0, 0
;FirmV_0_7_0.c,836 :: 		memcpy(LCDLine1,_stop,16);memcpy(LCDLine2,_ErrOverload,16);LCDUpdateFlag=1;LCDLines=2;}
	MOVLW       _LCDLine1+0
	MOVWF       FARG_memcpy_d1+0 
	MOVLW       hi_addr(_LCDLine1+0)
	MOVWF       FARG_memcpy_d1+1 
	MOVLW       __stop+0
	MOVWF       FARG_memcpy_s1+0 
	MOVLW       hi_addr(__stop+0)
	MOVWF       FARG_memcpy_s1+1 
	MOVLW       16
	MOVWF       FARG_memcpy_n+0 
	MOVLW       0
	MOVWF       FARG_memcpy_n+1 
	CALL        _memcpy+0, 0
	MOVLW       _LCDLine2+0
	MOVWF       FARG_memcpy_d1+0 
	MOVLW       hi_addr(_LCDLine2+0)
	MOVWF       FARG_memcpy_d1+1 
	MOVLW       __errOverload+0
	MOVWF       FARG_memcpy_s1+0 
	MOVLW       hi_addr(__errOverload+0)
	MOVWF       FARG_memcpy_s1+1 
	MOVLW       16
	MOVWF       FARG_memcpy_n+0 
	MOVLW       0
	MOVWF       FARG_memcpy_n+1 
	CALL        _memcpy+0, 0
	MOVLW       1
	MOVWF       _LCDUpdateFlag+0 
	MOVLW       2
	MOVWF       _LCDLines+0 
L_State4166:
;FirmV_0_7_0.c,838 :: 		if((Door2OpenTime==0)||(ActiveDoors==1))
	MOVF        _Door2OpenTime+0, 0 
	XORLW       0
	BTFSC       STATUS+0, 2 
	GOTO        L__State4695
	MOVF        _ActiveDoors+0, 0 
	XORLW       1
	BTFSC       STATUS+0, 2 
	GOTO        L__State4695
	GOTO        L_State4169
L__State4695:
;FirmV_0_7_0.c,839 :: 		CloseDone.b1=0;
	BCF         _CloseDone+0, 1 
L_State4169:
;FirmV_0_7_0.c,841 :: 		if((Events.Photocell.b0==1))
	BTFSS       _Events+6, 0 
	GOTO        L_State4170
;FirmV_0_7_0.c,842 :: 		{StopMotor(1); StopMotor(2); OverloadCheckFlag1=0;OverloadCheckFlag2=0;State=6;PhotocellOpenFlag=1;Logger("S4 Photocell Int");ClearTasks(9);
	MOVLW       1
	MOVWF       FARG_StopMotor+0 
	CALL        _StopMotor+0, 0
	MOVLW       2
	MOVWF       FARG_StopMotor+0 
	CALL        _StopMotor+0, 0
	CLRF        _OverloadCheckFlag1+0 
	CLRF        _OverloadCheckFlag2+0 
	MOVLW       6
	MOVWF       _State+0 
	MOVLW       1
	MOVWF       _PhotocellOpenFlag+0 
	MOVLW       ?ICS?lstr34_FirmV_0_7_0+0
	MOVWF       TBLPTRL 
	MOVLW       hi_addr(?ICS?lstr34_FirmV_0_7_0+0)
	MOVWF       TBLPTRH 
	MOVLW       higher_addr(?ICS?lstr34_FirmV_0_7_0+0)
	MOVWF       TBLPTRU 
	MOVLW       ?lstr34_FirmV_0_7_0+0
	MOVWF       FSR1L 
	MOVLW       hi_addr(?lstr34_FirmV_0_7_0+0)
	MOVWF       FSR1H 
	MOVLW       17
	MOVWF       R0 
	MOVLW       1
	MOVWF       R1 
	CALL        ___CC2DW+0, 0
	MOVLW       ?lstr34_FirmV_0_7_0+0
	MOVWF       FARG_Logger_text+0 
	MOVLW       hi_addr(?lstr34_FirmV_0_7_0+0)
	MOVWF       FARG_Logger_text+1 
	CALL        _Logger+0, 0
	MOVLW       9
	MOVWF       FARG_ClearTasks+0 
	CALL        _ClearTasks+0, 0
;FirmV_0_7_0.c,843 :: 		memcpy(LCDLine1,_stop,16);memcpy(LCDLine2,_ErrPhoto,16);LCDUpdateFlag=1;LCDLines=2;}
	MOVLW       _LCDLine1+0
	MOVWF       FARG_memcpy_d1+0 
	MOVLW       hi_addr(_LCDLine1+0)
	MOVWF       FARG_memcpy_d1+1 
	MOVLW       __stop+0
	MOVWF       FARG_memcpy_s1+0 
	MOVLW       hi_addr(__stop+0)
	MOVWF       FARG_memcpy_s1+1 
	MOVLW       16
	MOVWF       FARG_memcpy_n+0 
	MOVLW       0
	MOVWF       FARG_memcpy_n+1 
	CALL        _memcpy+0, 0
	MOVLW       _LCDLine2+0
	MOVWF       FARG_memcpy_d1+0 
	MOVLW       hi_addr(_LCDLine2+0)
	MOVWF       FARG_memcpy_d1+1 
	MOVLW       __errPhoto+0
	MOVWF       FARG_memcpy_s1+0 
	MOVLW       hi_addr(__errPhoto+0)
	MOVWF       FARG_memcpy_s1+1 
	MOVLW       16
	MOVWF       FARG_memcpy_n+0 
	MOVLW       0
	MOVWF       FARG_memcpy_n+1 
	CALL        _memcpy+0, 0
	MOVLW       1
	MOVWF       _LCDUpdateFlag+0 
	MOVLW       2
	MOVWF       _LCDLines+0 
L_State4170:
;FirmV_0_7_0.c,845 :: 		if((Events.Limiter==1)&&(LimiterEnable))
	MOVF        _Events+7, 0 
	XORLW       1
	BTFSS       STATUS+0, 2 
	GOTO        L_State4173
	MOVF        _LimiterEnable+0, 1 
	BTFSC       STATUS+0, 2 
	GOTO        L_State4173
L__State4694:
;FirmV_0_7_0.c,846 :: 		{StopMotor(1); StopMotor(2); State=6;OverloadCheckFlag1=0;OverloadCheckFlag2=0;Logger("S4 Limit Switch Stop");ClearTasks(9);
	MOVLW       1
	MOVWF       FARG_StopMotor+0 
	CALL        _StopMotor+0, 0
	MOVLW       2
	MOVWF       FARG_StopMotor+0 
	CALL        _StopMotor+0, 0
	MOVLW       6
	MOVWF       _State+0 
	CLRF        _OverloadCheckFlag1+0 
	CLRF        _OverloadCheckFlag2+0 
	MOVLW       ?ICS?lstr35_FirmV_0_7_0+0
	MOVWF       TBLPTRL 
	MOVLW       hi_addr(?ICS?lstr35_FirmV_0_7_0+0)
	MOVWF       TBLPTRH 
	MOVLW       higher_addr(?ICS?lstr35_FirmV_0_7_0+0)
	MOVWF       TBLPTRU 
	MOVLW       ?lstr35_FirmV_0_7_0+0
	MOVWF       FSR1L 
	MOVLW       hi_addr(?lstr35_FirmV_0_7_0+0)
	MOVWF       FSR1H 
	MOVLW       21
	MOVWF       R0 
	MOVLW       1
	MOVWF       R1 
	CALL        ___CC2DW+0, 0
	MOVLW       ?lstr35_FirmV_0_7_0+0
	MOVWF       FARG_Logger_text+0 
	MOVLW       hi_addr(?lstr35_FirmV_0_7_0+0)
	MOVWF       FARG_Logger_text+1 
	CALL        _Logger+0, 0
	MOVLW       9
	MOVWF       FARG_ClearTasks+0 
	CALL        _ClearTasks+0, 0
;FirmV_0_7_0.c,847 :: 		memcpy(LCDLine1,_stop,16);memcpy(LCDLine2,_ErrLimit,16);LCDUpdateFlag=1;LCDLines=2;}
	MOVLW       _LCDLine1+0
	MOVWF       FARG_memcpy_d1+0 
	MOVLW       hi_addr(_LCDLine1+0)
	MOVWF       FARG_memcpy_d1+1 
	MOVLW       __stop+0
	MOVWF       FARG_memcpy_s1+0 
	MOVLW       hi_addr(__stop+0)
	MOVWF       FARG_memcpy_s1+1 
	MOVLW       16
	MOVWF       FARG_memcpy_n+0 
	MOVLW       0
	MOVWF       FARG_memcpy_n+1 
	CALL        _memcpy+0, 0
	MOVLW       _LCDLine2+0
	MOVWF       FARG_memcpy_d1+0 
	MOVLW       hi_addr(_LCDLine2+0)
	MOVWF       FARG_memcpy_d1+1 
	MOVLW       __errLimit+0
	MOVWF       FARG_memcpy_s1+0 
	MOVLW       hi_addr(__errLimit+0)
	MOVWF       FARG_memcpy_s1+1 
	MOVLW       16
	MOVWF       FARG_memcpy_n+0 
	MOVLW       0
	MOVWF       FARG_memcpy_n+1 
	CALL        _memcpy+0, 0
	MOVLW       1
	MOVWF       _LCDUpdateFlag+0 
	MOVLW       2
	MOVWF       _LCDLines+0 
L_State4173:
;FirmV_0_7_0.c,849 :: 		if((Events.Remote!=0))
	MOVF        _Events+4, 0 
	XORLW       0
	BTFSC       STATUS+0, 2 
	GOTO        L_State4174
;FirmV_0_7_0.c,850 :: 		{StopMotor(1); StopMotor(2); State=6;OverloadCheckFlag1=0;OverloadCheckFlag2=0;Logger("S4 Remote Pressed");ClearTasks(9);
	MOVLW       1
	MOVWF       FARG_StopMotor+0 
	CALL        _StopMotor+0, 0
	MOVLW       2
	MOVWF       FARG_StopMotor+0 
	CALL        _StopMotor+0, 0
	MOVLW       6
	MOVWF       _State+0 
	CLRF        _OverloadCheckFlag1+0 
	CLRF        _OverloadCheckFlag2+0 
	MOVLW       ?ICS?lstr36_FirmV_0_7_0+0
	MOVWF       TBLPTRL 
	MOVLW       hi_addr(?ICS?lstr36_FirmV_0_7_0+0)
	MOVWF       TBLPTRH 
	MOVLW       higher_addr(?ICS?lstr36_FirmV_0_7_0+0)
	MOVWF       TBLPTRU 
	MOVLW       ?lstr36_FirmV_0_7_0+0
	MOVWF       FSR1L 
	MOVLW       hi_addr(?lstr36_FirmV_0_7_0+0)
	MOVWF       FSR1H 
	MOVLW       18
	MOVWF       R0 
	MOVLW       1
	MOVWF       R1 
	CALL        ___CC2DW+0, 0
	MOVLW       ?lstr36_FirmV_0_7_0+0
	MOVWF       FARG_Logger_text+0 
	MOVLW       hi_addr(?lstr36_FirmV_0_7_0+0)
	MOVWF       FARG_Logger_text+1 
	CALL        _Logger+0, 0
	MOVLW       9
	MOVWF       FARG_ClearTasks+0 
	CALL        _ClearTasks+0, 0
;FirmV_0_7_0.c,851 :: 		memcpy(LCDLine1,_stop,16);memcpy(LCDLine2,_ErrRemote,16);LCDUpdateFlag=1;LCDLines=2;}
	MOVLW       _LCDLine1+0
	MOVWF       FARG_memcpy_d1+0 
	MOVLW       hi_addr(_LCDLine1+0)
	MOVWF       FARG_memcpy_d1+1 
	MOVLW       __stop+0
	MOVWF       FARG_memcpy_s1+0 
	MOVLW       hi_addr(__stop+0)
	MOVWF       FARG_memcpy_s1+1 
	MOVLW       16
	MOVWF       FARG_memcpy_n+0 
	MOVLW       0
	MOVWF       FARG_memcpy_n+1 
	CALL        _memcpy+0, 0
	MOVLW       _LCDLine2+0
	MOVWF       FARG_memcpy_d1+0 
	MOVLW       hi_addr(_LCDLine2+0)
	MOVWF       FARG_memcpy_d1+1 
	MOVLW       __errRemote+0
	MOVWF       FARG_memcpy_s1+0 
	MOVLW       hi_addr(__errRemote+0)
	MOVWF       FARG_memcpy_s1+1 
	MOVLW       16
	MOVWF       FARG_memcpy_n+0 
	MOVLW       0
	MOVWF       FARG_memcpy_n+1 
	CALL        _memcpy+0, 0
	MOVLW       1
	MOVWF       _LCDUpdateFlag+0 
	MOVLW       2
	MOVWF       _LCDLines+0 
L_State4174:
;FirmV_0_7_0.c,853 :: 		if(CloseDone==0)
	MOVF        _CloseDone+0, 0 
	XORLW       0
	BTFSS       STATUS+0, 2 
	GOTO        L_State4175
;FirmV_0_7_0.c,854 :: 		{State=1; PassFlag=0;ClearTasks(9);memcpy(LCDLine1,_close,16);memcpy(LCDLine2,_Blank,16);LCDUpdateFlag=1;LCDLines=1;}
	MOVLW       1
	MOVWF       _State+0 
	CLRF        _PassFlag+0 
	MOVLW       9
	MOVWF       FARG_ClearTasks+0 
	CALL        _ClearTasks+0, 0
	MOVLW       _LCDLine1+0
	MOVWF       FARG_memcpy_d1+0 
	MOVLW       hi_addr(_LCDLine1+0)
	MOVWF       FARG_memcpy_d1+1 
	MOVLW       __close+0
	MOVWF       FARG_memcpy_s1+0 
	MOVLW       hi_addr(__close+0)
	MOVWF       FARG_memcpy_s1+1 
	MOVLW       16
	MOVWF       FARG_memcpy_n+0 
	MOVLW       0
	MOVWF       FARG_memcpy_n+1 
	CALL        _memcpy+0, 0
	MOVLW       _LCDLine2+0
	MOVWF       FARG_memcpy_d1+0 
	MOVLW       hi_addr(_LCDLine2+0)
	MOVWF       FARG_memcpy_d1+1 
	MOVLW       __Blank+0
	MOVWF       FARG_memcpy_s1+0 
	MOVLW       hi_addr(__Blank+0)
	MOVWF       FARG_memcpy_s1+1 
	MOVLW       16
	MOVWF       FARG_memcpy_n+0 
	MOVLW       0
	MOVWF       FARG_memcpy_n+1 
	CALL        _memcpy+0, 0
	MOVLW       1
	MOVWF       _LCDUpdateFlag+0 
	MOVLW       1
	MOVWF       _LCDLines+0 
L_State4175:
;FirmV_0_7_0.c,856 :: 		if((State==5)||(State==6))
	MOVF        _State+0, 0 
	XORLW       5
	BTFSC       STATUS+0, 2 
	GOTO        L__State4693
	MOVF        _State+0, 0 
	XORLW       6
	BTFSC       STATUS+0, 2 
	GOTO        L__State4693
	GOTO        L_State4178
L__State4693:
;FirmV_0_7_0.c,857 :: 		{ClearTasks(0);if(AutoCloseTime!=0){AddTask(ms500+AutoCloseTime,9);Logger("S4 Autoclose Renewed");memcpy(LCDLine2,_autoclose,16);LCDUpdateFlag=1;LCDLines=2;}}
	CLRF        FARG_ClearTasks+0 
	CALL        _ClearTasks+0, 0
	MOVLW       0
	XORWF       _AutoCloseTime+1, 0 
	BTFSS       STATUS+0, 2 
	GOTO        L__State4786
	MOVLW       0
	XORWF       _AutoCloseTime+0, 0 
L__State4786:
	BTFSC       STATUS+0, 2 
	GOTO        L_State4179
	MOVF        _AutoCloseTime+0, 0 
	ADDWF       _ms500+0, 0 
	MOVWF       FARG_AddTask+0 
	MOVF        _AutoCloseTime+1, 0 
	ADDWFC      _ms500+1, 0 
	MOVWF       FARG_AddTask+1 
	MOVLW       0
	ADDWFC      _ms500+2, 0 
	MOVWF       FARG_AddTask+2 
	MOVLW       0
	ADDWFC      _ms500+3, 0 
	MOVWF       FARG_AddTask+3 
	MOVLW       9
	MOVWF       FARG_AddTask+0 
	CALL        _AddTask+0, 0
	MOVLW       ?ICS?lstr37_FirmV_0_7_0+0
	MOVWF       TBLPTRL 
	MOVLW       hi_addr(?ICS?lstr37_FirmV_0_7_0+0)
	MOVWF       TBLPTRH 
	MOVLW       higher_addr(?ICS?lstr37_FirmV_0_7_0+0)
	MOVWF       TBLPTRU 
	MOVLW       ?lstr37_FirmV_0_7_0+0
	MOVWF       FSR1L 
	MOVLW       hi_addr(?lstr37_FirmV_0_7_0+0)
	MOVWF       FSR1H 
	MOVLW       21
	MOVWF       R0 
	MOVLW       1
	MOVWF       R1 
	CALL        ___CC2DW+0, 0
	MOVLW       ?lstr37_FirmV_0_7_0+0
	MOVWF       FARG_Logger_text+0 
	MOVLW       hi_addr(?lstr37_FirmV_0_7_0+0)
	MOVWF       FARG_Logger_text+1 
	CALL        _Logger+0, 0
	MOVLW       _LCDLine2+0
	MOVWF       FARG_memcpy_d1+0 
	MOVLW       hi_addr(_LCDLine2+0)
	MOVWF       FARG_memcpy_d1+1 
	MOVLW       __autoclose+0
	MOVWF       FARG_memcpy_s1+0 
	MOVLW       hi_addr(__autoclose+0)
	MOVWF       FARG_memcpy_s1+1 
	MOVLW       16
	MOVWF       FARG_memcpy_n+0 
	MOVLW       0
	MOVWF       FARG_memcpy_n+1 
	CALL        _memcpy+0, 0
	MOVLW       1
	MOVWF       _LCDUpdateFlag+0 
	MOVLW       2
	MOVWF       _LCDLines+0 
L_State4179:
L_State4178:
;FirmV_0_7_0.c,859 :: 		}
	RETURN      0
; end of _State4

_State5:

;FirmV_0_7_0.c,874 :: 		void State5()
;FirmV_0_7_0.c,876 :: 		char delay=2;
	MOVLW       2
	MOVWF       State5_delay_L0+0 
;FirmV_0_7_0.c,877 :: 		Flasher=0;
	BCF         PORTD+0, 7 
;FirmV_0_7_0.c,878 :: 		if((Events.Remote!=0)||(CheckTask(9)==1))
	MOVF        _Events+4, 0 
	XORLW       0
	BTFSS       STATUS+0, 2 
	GOTO        L__State5702
	MOVLW       9
	MOVWF       FARG_CheckTask+0 
	CALL        _CheckTask+0, 0
	MOVF        R0, 0 
	XORLW       1
	BTFSC       STATUS+0, 2 
	GOTO        L__State5702
	GOTO        L_State5182
L__State5702:
;FirmV_0_7_0.c,880 :: 		if((Door2CloseTime==0)||(ActiveDoors==1))
	MOVF        _Door2CloseTime+0, 0 
	XORLW       0
	BTFSC       STATUS+0, 2 
	GOTO        L__State5701
	MOVF        _ActiveDoors+0, 0 
	XORLW       1
	BTFSC       STATUS+0, 2 
	GOTO        L__State5701
	GOTO        L_State5185
L__State5701:
;FirmV_0_7_0.c,882 :: 		ClearTasks(9);
	MOVLW       9
	MOVWF       FARG_ClearTasks+0 
	CALL        _ClearTasks+0, 0
;FirmV_0_7_0.c,883 :: 		temp=ms500+delay;
	MOVF        State5_delay_L0+0, 0 
	ADDWF       _ms500+0, 0 
	MOVWF       R0 
	MOVLW       0
	ADDWFC      _ms500+1, 0 
	MOVWF       R1 
	MOVLW       0
	ADDWFC      _ms500+2, 0 
	MOVWF       R2 
	MOVLW       0
	ADDWFC      _ms500+3, 0 
	MOVWF       R3 
	MOVF        R0, 0 
	MOVWF       _temp+0 
	MOVF        R1, 0 
	MOVWF       _temp+1 
	MOVF        R2, 0 
	MOVWF       _temp+2 
	MOVF        R3, 0 
	MOVWF       _temp+3 
;FirmV_0_7_0.c,884 :: 		AddTask(temp,1);
	MOVF        R0, 0 
	MOVWF       FARG_AddTask+0 
	MOVF        R1, 0 
	MOVWF       FARG_AddTask+1 
	MOVF        R2, 0 
	MOVWF       FARG_AddTask+2 
	MOVF        R3, 0 
	MOVWF       FARG_AddTask+3 
	MOVLW       1
	MOVWF       FARG_AddTask+0 
	CALL        _AddTask+0, 0
;FirmV_0_7_0.c,885 :: 		AddTask(temp,5);
	MOVF        _temp+0, 0 
	MOVWF       FARG_AddTask+0 
	MOVF        _temp+1, 0 
	MOVWF       FARG_AddTask+1 
	MOVF        _temp+2, 0 
	MOVWF       FARG_AddTask+2 
	MOVF        _temp+3, 0 
	MOVWF       FARG_AddTask+3 
	MOVLW       5
	MOVWF       FARG_AddTask+0 
	CALL        _AddTask+0, 0
;FirmV_0_7_0.c,886 :: 		M1isSlow=0;//speed up
	CLRF        _M1isSlow+0 
;FirmV_0_7_0.c,887 :: 		temp=ms500+OverloadDelay+delay;
	MOVLW       2
	ADDWF       _ms500+0, 0 
	MOVWF       R0 
	MOVLW       0
	ADDWFC      _ms500+1, 0 
	MOVWF       R1 
	MOVLW       0
	ADDWFC      _ms500+2, 0 
	MOVWF       R2 
	MOVLW       0
	ADDWFC      _ms500+3, 0 
	MOVWF       R3 
	MOVF        State5_delay_L0+0, 0 
	ADDWF       R0, 1 
	MOVLW       0
	ADDWFC      R1, 1 
	ADDWFC      R2, 1 
	ADDWFC      R3, 1 
	MOVF        R0, 0 
	MOVWF       _temp+0 
	MOVF        R1, 0 
	MOVWF       _temp+1 
	MOVF        R2, 0 
	MOVWF       _temp+2 
	MOVF        R3, 0 
	MOVWF       _temp+3 
;FirmV_0_7_0.c,888 :: 		AddTask(temp,10); //overload check
	MOVF        R0, 0 
	MOVWF       FARG_AddTask+0 
	MOVF        R1, 0 
	MOVWF       FARG_AddTask+1 
	MOVF        R2, 0 
	MOVWF       FARG_AddTask+2 
	MOVF        R3, 0 
	MOVWF       FARG_AddTask+3 
	MOVLW       10
	MOVWF       FARG_AddTask+0 
	CALL        _AddTask+0, 0
;FirmV_0_7_0.c,889 :: 		temp=ms500+Door1CloseTime+delay;
	MOVF        _Door1CloseTime+0, 0 
	ADDWF       _ms500+0, 0 
	MOVWF       R0 
	MOVLW       0
	ADDWFC      _ms500+1, 0 
	MOVWF       R1 
	MOVLW       0
	ADDWFC      _ms500+2, 0 
	MOVWF       R2 
	MOVLW       0
	ADDWFC      _ms500+3, 0 
	MOVWF       R3 
	MOVF        State5_delay_L0+0, 0 
	ADDWF       R0, 1 
	MOVLW       0
	ADDWFC      R1, 1 
	ADDWFC      R2, 1 
	ADDWFC      R3, 1 
	MOVF        R0, 0 
	MOVWF       _temp+0 
	MOVF        R1, 0 
	MOVWF       _temp+1 
	MOVF        R2, 0 
	MOVWF       _temp+2 
	MOVF        R3, 0 
	MOVWF       _temp+3 
;FirmV_0_7_0.c,890 :: 		AddTask(temp,3);//Stop motor
	MOVF        R0, 0 
	MOVWF       FARG_AddTask+0 
	MOVF        R1, 0 
	MOVWF       FARG_AddTask+1 
	MOVF        R2, 0 
	MOVWF       FARG_AddTask+2 
	MOVF        R3, 0 
	MOVWF       FARG_AddTask+3 
	MOVLW       3
	MOVWF       FARG_AddTask+0 
	CALL        _AddTask+0, 0
;FirmV_0_7_0.c,891 :: 		}
L_State5185:
;FirmV_0_7_0.c,892 :: 		if((Door2CloseTime!=0)&&(ActiveDoors==2))
	MOVF        _Door2CloseTime+0, 0 
	XORLW       0
	BTFSC       STATUS+0, 2 
	GOTO        L_State5188
	MOVF        _ActiveDoors+0, 0 
	XORLW       2
	BTFSS       STATUS+0, 2 
	GOTO        L_State5188
L__State5700:
;FirmV_0_7_0.c,894 :: 		ClearTasks(9);
	MOVLW       9
	MOVWF       FARG_ClearTasks+0 
	CALL        _ClearTasks+0, 0
;FirmV_0_7_0.c,895 :: 		temp=ms500+delay;
	MOVF        State5_delay_L0+0, 0 
	ADDWF       _ms500+0, 0 
	MOVWF       R0 
	MOVLW       0
	ADDWFC      _ms500+1, 0 
	MOVWF       R1 
	MOVLW       0
	ADDWFC      _ms500+2, 0 
	MOVWF       R2 
	MOVLW       0
	ADDWFC      _ms500+3, 0 
	MOVWF       R3 
	MOVF        R0, 0 
	MOVWF       _temp+0 
	MOVF        R1, 0 
	MOVWF       _temp+1 
	MOVF        R2, 0 
	MOVWF       _temp+2 
	MOVF        R3, 0 
	MOVWF       _temp+3 
;FirmV_0_7_0.c,896 :: 		AddTask(temp,2);
	MOVF        R0, 0 
	MOVWF       FARG_AddTask+0 
	MOVF        R1, 0 
	MOVWF       FARG_AddTask+1 
	MOVF        R2, 0 
	MOVWF       FARG_AddTask+2 
	MOVF        R3, 0 
	MOVWF       FARG_AddTask+3 
	MOVLW       2
	MOVWF       FARG_AddTask+0 
	CALL        _AddTask+0, 0
;FirmV_0_7_0.c,897 :: 		AddTask(temp,6);
	MOVF        _temp+0, 0 
	MOVWF       FARG_AddTask+0 
	MOVF        _temp+1, 0 
	MOVWF       FARG_AddTask+1 
	MOVF        _temp+2, 0 
	MOVWF       FARG_AddTask+2 
	MOVF        _temp+3, 0 
	MOVWF       FARG_AddTask+3 
	MOVLW       6
	MOVWF       FARG_AddTask+0 
	CALL        _AddTask+0, 0
;FirmV_0_7_0.c,898 :: 		M1isSlow=0;//speed up
	CLRF        _M1isSlow+0 
;FirmV_0_7_0.c,899 :: 		temp=ms500+OverloadDelay+delay;
	MOVLW       2
	ADDWF       _ms500+0, 0 
	MOVWF       R0 
	MOVLW       0
	ADDWFC      _ms500+1, 0 
	MOVWF       R1 
	MOVLW       0
	ADDWFC      _ms500+2, 0 
	MOVWF       R2 
	MOVLW       0
	ADDWFC      _ms500+3, 0 
	MOVWF       R3 
	MOVF        State5_delay_L0+0, 0 
	ADDWF       R0, 1 
	MOVLW       0
	ADDWFC      R1, 1 
	ADDWFC      R2, 1 
	ADDWFC      R3, 1 
	MOVF        R0, 0 
	MOVWF       _temp+0 
	MOVF        R1, 0 
	MOVWF       _temp+1 
	MOVF        R2, 0 
	MOVWF       _temp+2 
	MOVF        R3, 0 
	MOVWF       _temp+3 
;FirmV_0_7_0.c,900 :: 		AddTask(temp,11); //overload check
	MOVF        R0, 0 
	MOVWF       FARG_AddTask+0 
	MOVF        R1, 0 
	MOVWF       FARG_AddTask+1 
	MOVF        R2, 0 
	MOVWF       FARG_AddTask+2 
	MOVF        R3, 0 
	MOVWF       FARG_AddTask+3 
	MOVLW       11
	MOVWF       FARG_AddTask+0 
	CALL        _AddTask+0, 0
;FirmV_0_7_0.c,901 :: 		temp=ms500+Door1CloseTime+delay;
	MOVF        _Door1CloseTime+0, 0 
	ADDWF       _ms500+0, 0 
	MOVWF       R0 
	MOVLW       0
	ADDWFC      _ms500+1, 0 
	MOVWF       R1 
	MOVLW       0
	ADDWFC      _ms500+2, 0 
	MOVWF       R2 
	MOVLW       0
	ADDWFC      _ms500+3, 0 
	MOVWF       R3 
	MOVF        State5_delay_L0+0, 0 
	ADDWF       R0, 1 
	MOVLW       0
	ADDWFC      R1, 1 
	ADDWFC      R2, 1 
	ADDWFC      R3, 1 
	MOVF        R0, 0 
	MOVWF       _temp+0 
	MOVF        R1, 0 
	MOVWF       _temp+1 
	MOVF        R2, 0 
	MOVWF       _temp+2 
	MOVF        R3, 0 
	MOVWF       _temp+3 
;FirmV_0_7_0.c,902 :: 		AddTask(temp,4);//Stop motor
	MOVF        R0, 0 
	MOVWF       FARG_AddTask+0 
	MOVF        R1, 0 
	MOVWF       FARG_AddTask+1 
	MOVF        R2, 0 
	MOVWF       FARG_AddTask+2 
	MOVF        R3, 0 
	MOVWF       FARG_AddTask+3 
	MOVLW       4
	MOVWF       FARG_AddTask+0 
	CALL        _AddTask+0, 0
;FirmV_0_7_0.c,907 :: 		temp=ms500+ActionTimeDiff+delay;
	MOVF        _ActionTimeDiff+0, 0 
	ADDWF       _ms500+0, 0 
	MOVWF       R0 
	MOVLW       0
	ADDWFC      _ms500+1, 0 
	MOVWF       R1 
	MOVLW       0
	ADDWFC      _ms500+2, 0 
	MOVWF       R2 
	MOVLW       0
	ADDWFC      _ms500+3, 0 
	MOVWF       R3 
	MOVF        State5_delay_L0+0, 0 
	ADDWF       R0, 1 
	MOVLW       0
	ADDWFC      R1, 1 
	ADDWFC      R2, 1 
	ADDWFC      R3, 1 
	MOVF        R0, 0 
	MOVWF       _temp+0 
	MOVF        R1, 0 
	MOVWF       _temp+1 
	MOVF        R2, 0 
	MOVWF       _temp+2 
	MOVF        R3, 0 
	MOVWF       _temp+3 
;FirmV_0_7_0.c,908 :: 		AddTask(temp,1);
	MOVF        R0, 0 
	MOVWF       FARG_AddTask+0 
	MOVF        R1, 0 
	MOVWF       FARG_AddTask+1 
	MOVF        R2, 0 
	MOVWF       FARG_AddTask+2 
	MOVF        R3, 0 
	MOVWF       FARG_AddTask+3 
	MOVLW       1
	MOVWF       FARG_AddTask+0 
	CALL        _AddTask+0, 0
;FirmV_0_7_0.c,909 :: 		temp=ms500+ActionTimeDiff+delay;
	MOVF        _ActionTimeDiff+0, 0 
	ADDWF       _ms500+0, 0 
	MOVWF       R0 
	MOVLW       0
	ADDWFC      _ms500+1, 0 
	MOVWF       R1 
	MOVLW       0
	ADDWFC      _ms500+2, 0 
	MOVWF       R2 
	MOVLW       0
	ADDWFC      _ms500+3, 0 
	MOVWF       R3 
	MOVF        State5_delay_L0+0, 0 
	ADDWF       R0, 1 
	MOVLW       0
	ADDWFC      R1, 1 
	ADDWFC      R2, 1 
	ADDWFC      R3, 1 
	MOVF        R0, 0 
	MOVWF       _temp+0 
	MOVF        R1, 0 
	MOVWF       _temp+1 
	MOVF        R2, 0 
	MOVWF       _temp+2 
	MOVF        R3, 0 
	MOVWF       _temp+3 
;FirmV_0_7_0.c,910 :: 		AddTask(temp,5);
	MOVF        R0, 0 
	MOVWF       FARG_AddTask+0 
	MOVF        R1, 0 
	MOVWF       FARG_AddTask+1 
	MOVF        R2, 0 
	MOVWF       FARG_AddTask+2 
	MOVF        R3, 0 
	MOVWF       FARG_AddTask+3 
	MOVLW       5
	MOVWF       FARG_AddTask+0 
	CALL        _AddTask+0, 0
;FirmV_0_7_0.c,911 :: 		M2isSlow=0;//speed up
	CLRF        _M2isSlow+0 
;FirmV_0_7_0.c,912 :: 		temp=ms500+ActionTimeDiff+OverloadDelay+delay;
	MOVF        _ActionTimeDiff+0, 0 
	ADDWF       _ms500+0, 0 
	MOVWF       R0 
	MOVLW       0
	ADDWFC      _ms500+1, 0 
	MOVWF       R1 
	MOVLW       0
	ADDWFC      _ms500+2, 0 
	MOVWF       R2 
	MOVLW       0
	ADDWFC      _ms500+3, 0 
	MOVWF       R3 
	MOVLW       2
	ADDWF       R0, 1 
	MOVLW       0
	ADDWFC      R1, 1 
	ADDWFC      R2, 1 
	ADDWFC      R3, 1 
	MOVF        State5_delay_L0+0, 0 
	ADDWF       R0, 1 
	MOVLW       0
	ADDWFC      R1, 1 
	ADDWFC      R2, 1 
	ADDWFC      R3, 1 
	MOVF        R0, 0 
	MOVWF       _temp+0 
	MOVF        R1, 0 
	MOVWF       _temp+1 
	MOVF        R2, 0 
	MOVWF       _temp+2 
	MOVF        R3, 0 
	MOVWF       _temp+3 
;FirmV_0_7_0.c,913 :: 		AddTask(temp,10); //overload check
	MOVF        R0, 0 
	MOVWF       FARG_AddTask+0 
	MOVF        R1, 0 
	MOVWF       FARG_AddTask+1 
	MOVF        R2, 0 
	MOVWF       FARG_AddTask+2 
	MOVF        R3, 0 
	MOVWF       FARG_AddTask+3 
	MOVLW       10
	MOVWF       FARG_AddTask+0 
	CALL        _AddTask+0, 0
;FirmV_0_7_0.c,914 :: 		temp=ms500+Door2CloseTime+delay+ActionTimeDiff;
	MOVF        _Door2CloseTime+0, 0 
	ADDWF       _ms500+0, 0 
	MOVWF       R0 
	MOVLW       0
	ADDWFC      _ms500+1, 0 
	MOVWF       R1 
	MOVLW       0
	ADDWFC      _ms500+2, 0 
	MOVWF       R2 
	MOVLW       0
	ADDWFC      _ms500+3, 0 
	MOVWF       R3 
	MOVF        State5_delay_L0+0, 0 
	ADDWF       R0, 1 
	MOVLW       0
	ADDWFC      R1, 1 
	ADDWFC      R2, 1 
	ADDWFC      R3, 1 
	MOVF        _ActionTimeDiff+0, 0 
	ADDWF       R0, 1 
	MOVLW       0
	ADDWFC      R1, 1 
	ADDWFC      R2, 1 
	ADDWFC      R3, 1 
	MOVF        R0, 0 
	MOVWF       _temp+0 
	MOVF        R1, 0 
	MOVWF       _temp+1 
	MOVF        R2, 0 
	MOVWF       _temp+2 
	MOVF        R3, 0 
	MOVWF       _temp+3 
;FirmV_0_7_0.c,915 :: 		AddTask(temp,3);//Stop motor
	MOVF        R0, 0 
	MOVWF       FARG_AddTask+0 
	MOVF        R1, 0 
	MOVWF       FARG_AddTask+1 
	MOVF        R2, 0 
	MOVWF       FARG_AddTask+2 
	MOVF        R3, 0 
	MOVWF       FARG_AddTask+3 
	MOVLW       3
	MOVWF       FARG_AddTask+0 
	CALL        _AddTask+0, 0
;FirmV_0_7_0.c,916 :: 		}
L_State5188:
;FirmV_0_7_0.c,917 :: 		CloseDone=3;
	MOVLW       3
	MOVWF       _CloseDone+0 
;FirmV_0_7_0.c,918 :: 		OverloadCheckFlag1=0;
	CLRF        _OverloadCheckFlag1+0 
;FirmV_0_7_0.c,919 :: 		OverloadCheckFlag2=0;
	CLRF        _OverloadCheckFlag2+0 
;FirmV_0_7_0.c,920 :: 		State=7;
	MOVLW       7
	MOVWF       _State+0 
;FirmV_0_7_0.c,921 :: 		}
L_State5182:
;FirmV_0_7_0.c,923 :: 		if((Events.Photocell.b0==1)&&(AutoCloseTime!=0)&&(PassFlag==0))
	BTFSS       _Events+6, 0 
	GOTO        L_State5191
	MOVLW       0
	XORWF       _AutoCloseTime+1, 0 
	BTFSS       STATUS+0, 2 
	GOTO        L__State5787
	MOVLW       0
	XORWF       _AutoCloseTime+0, 0 
L__State5787:
	BTFSC       STATUS+0, 2 
	GOTO        L_State5191
	MOVF        _PassFlag+0, 0 
	XORLW       0
	BTFSS       STATUS+0, 2 
	GOTO        L_State5191
L__State5699:
;FirmV_0_7_0.c,924 :: 		{PassFlag=1; _AC=GetAutocloseTime();Logger("S5 Auto Close Deleted");}
	MOVLW       1
	MOVWF       _PassFlag+0 
	CALL        _GetAutocloseTime+0, 0
	MOVF        R0, 0 
	MOVWF       __AC+0 
	MOVLW       ?ICS?lstr38_FirmV_0_7_0+0
	MOVWF       TBLPTRL 
	MOVLW       hi_addr(?ICS?lstr38_FirmV_0_7_0+0)
	MOVWF       TBLPTRH 
	MOVLW       higher_addr(?ICS?lstr38_FirmV_0_7_0+0)
	MOVWF       TBLPTRU 
	MOVLW       ?lstr38_FirmV_0_7_0+0
	MOVWF       FSR1L 
	MOVLW       hi_addr(?lstr38_FirmV_0_7_0+0)
	MOVWF       FSR1H 
	MOVLW       22
	MOVWF       R0 
	MOVLW       1
	MOVWF       R1 
	CALL        ___CC2DW+0, 0
	MOVLW       ?lstr38_FirmV_0_7_0+0
	MOVWF       FARG_Logger_text+0 
	MOVLW       hi_addr(?lstr38_FirmV_0_7_0+0)
	MOVWF       FARG_Logger_text+1 
	CALL        _Logger+0, 0
L_State5191:
;FirmV_0_7_0.c,926 :: 		if((PassFlag==1)&&(Events.Photocell.b0==0)&&(AutoCloseTime!=0))
	MOVF        _PassFlag+0, 0 
	XORLW       1
	BTFSS       STATUS+0, 2 
	GOTO        L_State5194
	BTFSC       _Events+6, 0 
	GOTO        L_State5194
	MOVLW       0
	XORWF       _AutoCloseTime+1, 0 
	BTFSS       STATUS+0, 2 
	GOTO        L__State5788
	MOVLW       0
	XORWF       _AutoCloseTime+0, 0 
L__State5788:
	BTFSC       STATUS+0, 2 
	GOTO        L_State5194
L__State5698:
;FirmV_0_7_0.c,929 :: 		{temp=ms500+_AC;AddTask(temp,9);PassFlag=0;longwordtostrwithzeros(temp,t);Logger("S5 Insert 9 at:");Logger(t);}
	MOVF        __AC+0, 0 
	ADDWF       _ms500+0, 0 
	MOVWF       R0 
	MOVLW       0
	ADDWFC      _ms500+1, 0 
	MOVWF       R1 
	MOVLW       0
	ADDWFC      _ms500+2, 0 
	MOVWF       R2 
	MOVLW       0
	ADDWFC      _ms500+3, 0 
	MOVWF       R3 
	MOVF        R0, 0 
	MOVWF       _temp+0 
	MOVF        R1, 0 
	MOVWF       _temp+1 
	MOVF        R2, 0 
	MOVWF       _temp+2 
	MOVF        R3, 0 
	MOVWF       _temp+3 
	MOVF        R0, 0 
	MOVWF       FARG_AddTask+0 
	MOVF        R1, 0 
	MOVWF       FARG_AddTask+1 
	MOVF        R2, 0 
	MOVWF       FARG_AddTask+2 
	MOVF        R3, 0 
	MOVWF       FARG_AddTask+3 
	MOVLW       9
	MOVWF       FARG_AddTask+0 
	CALL        _AddTask+0, 0
	CLRF        _PassFlag+0 
	MOVF        _temp+0, 0 
	MOVWF       FARG_LongWordToStrWithZeros_input+0 
	MOVF        _temp+1, 0 
	MOVWF       FARG_LongWordToStrWithZeros_input+1 
	MOVF        _temp+2, 0 
	MOVWF       FARG_LongWordToStrWithZeros_input+2 
	MOVF        _temp+3, 0 
	MOVWF       FARG_LongWordToStrWithZeros_input+3 
	MOVLW       _t+0
	MOVWF       FARG_LongWordToStrWithZeros_output+0 
	MOVLW       hi_addr(_t+0)
	MOVWF       FARG_LongWordToStrWithZeros_output+1 
	CALL        _LongWordToStrWithZeros+0, 0
	MOVLW       ?ICS?lstr39_FirmV_0_7_0+0
	MOVWF       TBLPTRL 
	MOVLW       hi_addr(?ICS?lstr39_FirmV_0_7_0+0)
	MOVWF       TBLPTRH 
	MOVLW       higher_addr(?ICS?lstr39_FirmV_0_7_0+0)
	MOVWF       TBLPTRU 
	MOVLW       ?lstr39_FirmV_0_7_0+0
	MOVWF       FSR1L 
	MOVLW       hi_addr(?lstr39_FirmV_0_7_0+0)
	MOVWF       FSR1H 
	MOVLW       16
	MOVWF       R0 
	MOVLW       1
	MOVWF       R1 
	CALL        ___CC2DW+0, 0
	MOVLW       ?lstr39_FirmV_0_7_0+0
	MOVWF       FARG_Logger_text+0 
	MOVLW       hi_addr(?lstr39_FirmV_0_7_0+0)
	MOVWF       FARG_Logger_text+1 
	CALL        _Logger+0, 0
	MOVLW       _t+0
	MOVWF       FARG_Logger_text+0 
	MOVLW       hi_addr(_t+0)
	MOVWF       FARG_Logger_text+1 
	CALL        _Logger+0, 0
;FirmV_0_7_0.c,931 :: 		{temp=ms500+CloseAfterPass;AddTask(temp,9);PassFlag=0;longwordtostrwithzeros(temp,t);Logger("S5 Insert 9 at:");Logger(t);}
L_State5196:
;FirmV_0_7_0.c,932 :: 		}
L_State5194:
;FirmV_0_7_0.c,934 :: 		}
	RETURN      0
; end of _State5

_State6:

;FirmV_0_7_0.c,954 :: 		void State6()
;FirmV_0_7_0.c,958 :: 		char delay=3;
	MOVLW       3
	MOVWF       State6_delay_L0+0 
;FirmV_0_7_0.c,959 :: 		Flasher=0;
	BCF         PORTD+0, 7 
;FirmV_0_7_0.c,960 :: 		if((Events.Remote!=0)||(PhotocellOpenFlag))
	MOVF        _Events+4, 0 
	XORLW       0
	BTFSS       STATUS+0, 2 
	GOTO        L__State6707
	MOVF        _PhotocellOpenFlag+0, 1 
	BTFSS       STATUS+0, 2 
	GOTO        L__State6707
	GOTO        L_State6199
L__State6707:
;FirmV_0_7_0.c,962 :: 		PhotocellOpenFlag=0;
	CLRF        _PhotocellOpenFlag+0 
;FirmV_0_7_0.c,963 :: 		Flasher=1;
	BSF         PORTD+0, 7 
;FirmV_0_7_0.c,964 :: 		ClearTasks(9);
	MOVLW       9
	MOVWF       FARG_ClearTasks+0 
	CALL        _ClearTasks+0, 0
;FirmV_0_7_0.c,965 :: 		AddTask(ms500+1,12);
	MOVLW       1
	ADDWF       _ms500+0, 0 
	MOVWF       FARG_AddTask+0 
	MOVLW       0
	ADDWFC      _ms500+1, 0 
	MOVWF       FARG_AddTask+1 
	MOVLW       0
	ADDWFC      _ms500+2, 0 
	MOVWF       FARG_AddTask+2 
	MOVLW       0
	ADDWFC      _ms500+3, 0 
	MOVWF       FARG_AddTask+3 
	MOVLW       12
	MOVWF       FARG_AddTask+0 
	CALL        _AddTask+0, 0
;FirmV_0_7_0.c,966 :: 		temp=ms500+delay;
	MOVF        State6_delay_L0+0, 0 
	ADDWF       _ms500+0, 0 
	MOVWF       R0 
	MOVLW       0
	ADDWFC      _ms500+1, 0 
	MOVWF       R1 
	MOVLW       0
	ADDWFC      _ms500+2, 0 
	MOVWF       R2 
	MOVLW       0
	ADDWFC      _ms500+3, 0 
	MOVWF       R3 
	MOVF        R0, 0 
	MOVWF       _temp+0 
	MOVF        R1, 0 
	MOVWF       _temp+1 
	MOVF        R2, 0 
	MOVWF       _temp+2 
	MOVF        R3, 0 
	MOVWF       _temp+3 
;FirmV_0_7_0.c,967 :: 		AddTask(temp,1);
	MOVF        R0, 0 
	MOVWF       FARG_AddTask+0 
	MOVF        R1, 0 
	MOVWF       FARG_AddTask+1 
	MOVF        R2, 0 
	MOVWF       FARG_AddTask+2 
	MOVF        R3, 0 
	MOVWF       FARG_AddTask+3 
	MOVLW       1
	MOVWF       FARG_AddTask+0 
	CALL        _AddTask+0, 0
;FirmV_0_7_0.c,968 :: 		AddTask(temp,5);
	MOVF        _temp+0, 0 
	MOVWF       FARG_AddTask+0 
	MOVF        _temp+1, 0 
	MOVWF       FARG_AddTask+1 
	MOVF        _temp+2, 0 
	MOVWF       FARG_AddTask+2 
	MOVF        _temp+3, 0 
	MOVWF       FARG_AddTask+3 
	MOVLW       5
	MOVWF       FARG_AddTask+0 
	CALL        _AddTask+0, 0
;FirmV_0_7_0.c,969 :: 		M1isSlow=0;//speed up
	CLRF        _M1isSlow+0 
;FirmV_0_7_0.c,970 :: 		temp=ms500+OverloadDelay+delay;
	MOVLW       2
	ADDWF       _ms500+0, 0 
	MOVWF       R0 
	MOVLW       0
	ADDWFC      _ms500+1, 0 
	MOVWF       R1 
	MOVLW       0
	ADDWFC      _ms500+2, 0 
	MOVWF       R2 
	MOVLW       0
	ADDWFC      _ms500+3, 0 
	MOVWF       R3 
	MOVF        State6_delay_L0+0, 0 
	ADDWF       R0, 1 
	MOVLW       0
	ADDWFC      R1, 1 
	ADDWFC      R2, 1 
	ADDWFC      R3, 1 
	MOVF        R0, 0 
	MOVWF       _temp+0 
	MOVF        R1, 0 
	MOVWF       _temp+1 
	MOVF        R2, 0 
	MOVWF       _temp+2 
	MOVF        R3, 0 
	MOVWF       _temp+3 
;FirmV_0_7_0.c,971 :: 		AddTask(temp,10); //overload check
	MOVF        R0, 0 
	MOVWF       FARG_AddTask+0 
	MOVF        R1, 0 
	MOVWF       FARG_AddTask+1 
	MOVF        R2, 0 
	MOVWF       FARG_AddTask+2 
	MOVF        R3, 0 
	MOVWF       FARG_AddTask+3 
	MOVLW       10
	MOVWF       FARG_AddTask+0 
	CALL        _AddTask+0, 0
;FirmV_0_7_0.c,972 :: 		temp=ms500+Door1OpenTime+delay;
	MOVF        _Door1OpenTime+0, 0 
	ADDWF       _ms500+0, 0 
	MOVWF       R0 
	MOVLW       0
	ADDWFC      _ms500+1, 0 
	MOVWF       R1 
	MOVLW       0
	ADDWFC      _ms500+2, 0 
	MOVWF       R2 
	MOVLW       0
	ADDWFC      _ms500+3, 0 
	MOVWF       R3 
	MOVF        State6_delay_L0+0, 0 
	ADDWF       R0, 1 
	MOVLW       0
	ADDWFC      R1, 1 
	ADDWFC      R2, 1 
	ADDWFC      R3, 1 
	MOVF        R0, 0 
	MOVWF       _temp+0 
	MOVF        R1, 0 
	MOVWF       _temp+1 
	MOVF        R2, 0 
	MOVWF       _temp+2 
	MOVF        R3, 0 
	MOVWF       _temp+3 
;FirmV_0_7_0.c,973 :: 		AddTask(temp,3);//Stop motor
	MOVF        R0, 0 
	MOVWF       FARG_AddTask+0 
	MOVF        R1, 0 
	MOVWF       FARG_AddTask+1 
	MOVF        R2, 0 
	MOVWF       FARG_AddTask+2 
	MOVF        R3, 0 
	MOVWF       FARG_AddTask+3 
	MOVLW       3
	MOVWF       FARG_AddTask+0 
	CALL        _AddTask+0, 0
;FirmV_0_7_0.c,974 :: 		if((Door2OpenTime!=0)&&(ActiveDoors==2))
	MOVF        _Door2OpenTime+0, 0 
	XORLW       0
	BTFSC       STATUS+0, 2 
	GOTO        L_State6202
	MOVF        _ActiveDoors+0, 0 
	XORLW       2
	BTFSS       STATUS+0, 2 
	GOTO        L_State6202
L__State6706:
;FirmV_0_7_0.c,976 :: 		AddTask(ms500+ActionTimeDiff+delay,2);
	MOVF        _ActionTimeDiff+0, 0 
	ADDWF       _ms500+0, 0 
	MOVWF       FARG_AddTask+0 
	MOVLW       0
	ADDWFC      _ms500+1, 0 
	MOVWF       FARG_AddTask+1 
	MOVLW       0
	ADDWFC      _ms500+2, 0 
	MOVWF       FARG_AddTask+2 
	MOVLW       0
	ADDWFC      _ms500+3, 0 
	MOVWF       FARG_AddTask+3 
	MOVF        State6_delay_L0+0, 0 
	ADDWF       FARG_AddTask+0, 1 
	MOVLW       0
	ADDWFC      FARG_AddTask+1, 1 
	ADDWFC      FARG_AddTask+2, 1 
	ADDWFC      FARG_AddTask+3, 1 
	MOVLW       2
	MOVWF       FARG_AddTask+0 
	CALL        _AddTask+0, 0
;FirmV_0_7_0.c,977 :: 		AddTask(ms500+ActionTimeDiff+delay,6);
	MOVF        _ActionTimeDiff+0, 0 
	ADDWF       _ms500+0, 0 
	MOVWF       FARG_AddTask+0 
	MOVLW       0
	ADDWFC      _ms500+1, 0 
	MOVWF       FARG_AddTask+1 
	MOVLW       0
	ADDWFC      _ms500+2, 0 
	MOVWF       FARG_AddTask+2 
	MOVLW       0
	ADDWFC      _ms500+3, 0 
	MOVWF       FARG_AddTask+3 
	MOVF        State6_delay_L0+0, 0 
	ADDWF       FARG_AddTask+0, 1 
	MOVLW       0
	ADDWFC      FARG_AddTask+1, 1 
	ADDWFC      FARG_AddTask+2, 1 
	ADDWFC      FARG_AddTask+3, 1 
	MOVLW       6
	MOVWF       FARG_AddTask+0 
	CALL        _AddTask+0, 0
;FirmV_0_7_0.c,978 :: 		M2isSlow=0;//speed up
	CLRF        _M2isSlow+0 
;FirmV_0_7_0.c,979 :: 		AddTask(ms500+ActionTimeDiff+OverloadDelay+delay,11); //overload check
	MOVF        _ActionTimeDiff+0, 0 
	ADDWF       _ms500+0, 0 
	MOVWF       FARG_AddTask+0 
	MOVLW       0
	ADDWFC      _ms500+1, 0 
	MOVWF       FARG_AddTask+1 
	MOVLW       0
	ADDWFC      _ms500+2, 0 
	MOVWF       FARG_AddTask+2 
	MOVLW       0
	ADDWFC      _ms500+3, 0 
	MOVWF       FARG_AddTask+3 
	MOVLW       2
	ADDWF       FARG_AddTask+0, 1 
	MOVLW       0
	ADDWFC      FARG_AddTask+1, 1 
	ADDWFC      FARG_AddTask+2, 1 
	ADDWFC      FARG_AddTask+3, 1 
	MOVF        State6_delay_L0+0, 0 
	ADDWF       FARG_AddTask+0, 1 
	MOVLW       0
	ADDWFC      FARG_AddTask+1, 1 
	ADDWFC      FARG_AddTask+2, 1 
	ADDWFC      FARG_AddTask+3, 1 
	MOVLW       11
	MOVWF       FARG_AddTask+0 
	CALL        _AddTask+0, 0
;FirmV_0_7_0.c,980 :: 		AddTask(ms500+Door2OpenTime+ActionTimeDiff+delay,4);//Stop motor
	MOVF        _Door2OpenTime+0, 0 
	ADDWF       _ms500+0, 0 
	MOVWF       FARG_AddTask+0 
	MOVLW       0
	ADDWFC      _ms500+1, 0 
	MOVWF       FARG_AddTask+1 
	MOVLW       0
	ADDWFC      _ms500+2, 0 
	MOVWF       FARG_AddTask+2 
	MOVLW       0
	ADDWFC      _ms500+3, 0 
	MOVWF       FARG_AddTask+3 
	MOVF        _ActionTimeDiff+0, 0 
	ADDWF       FARG_AddTask+0, 1 
	MOVLW       0
	ADDWFC      FARG_AddTask+1, 1 
	ADDWFC      FARG_AddTask+2, 1 
	ADDWFC      FARG_AddTask+3, 1 
	MOVF        State6_delay_L0+0, 0 
	ADDWF       FARG_AddTask+0, 1 
	MOVLW       0
	ADDWFC      FARG_AddTask+1, 1 
	ADDWFC      FARG_AddTask+2, 1 
	ADDWFC      FARG_AddTask+3, 1 
	MOVLW       4
	MOVWF       FARG_AddTask+0 
	CALL        _AddTask+0, 0
;FirmV_0_7_0.c,981 :: 		}
L_State6202:
;FirmV_0_7_0.c,982 :: 		OpenDone=3;
	MOVLW       3
	MOVWF       _OpenDone+0 
;FirmV_0_7_0.c,983 :: 		OverloadCheckFlag1=0;
	CLRF        _OverloadCheckFlag1+0 
;FirmV_0_7_0.c,984 :: 		OverloadCheckFlag2=0;
	CLRF        _OverloadCheckFlag2+0 
;FirmV_0_7_0.c,985 :: 		PassFlag=0;
	CLRF        _PassFlag+0 
;FirmV_0_7_0.c,986 :: 		State=8;
	MOVLW       8
	MOVWF       _State+0 
;FirmV_0_7_0.c,987 :: 		}
L_State6199:
;FirmV_0_7_0.c,990 :: 		if(CheckTask(9)==1)
	MOVLW       9
	MOVWF       FARG_CheckTask+0 
	CALL        _CheckTask+0, 0
	MOVF        R0, 0 
	XORLW       1
	BTFSS       STATUS+0, 2 
	GOTO        L_State6203
;FirmV_0_7_0.c,992 :: 		ClearTasks(9);
	MOVLW       9
	MOVWF       FARG_ClearTasks+0 
	CALL        _ClearTasks+0, 0
;FirmV_0_7_0.c,993 :: 		temp=ms500+delay;
	MOVF        State6_delay_L0+0, 0 
	ADDWF       _ms500+0, 0 
	MOVWF       R0 
	MOVLW       0
	ADDWFC      _ms500+1, 0 
	MOVWF       R1 
	MOVLW       0
	ADDWFC      _ms500+2, 0 
	MOVWF       R2 
	MOVLW       0
	ADDWFC      _ms500+3, 0 
	MOVWF       R3 
	MOVF        R0, 0 
	MOVWF       _temp+0 
	MOVF        R1, 0 
	MOVWF       _temp+1 
	MOVF        R2, 0 
	MOVWF       _temp+2 
	MOVF        R3, 0 
	MOVWF       _temp+3 
;FirmV_0_7_0.c,994 :: 		AddTask(temp,1);
	MOVF        R0, 0 
	MOVWF       FARG_AddTask+0 
	MOVF        R1, 0 
	MOVWF       FARG_AddTask+1 
	MOVF        R2, 0 
	MOVWF       FARG_AddTask+2 
	MOVF        R3, 0 
	MOVWF       FARG_AddTask+3 
	MOVLW       1
	MOVWF       FARG_AddTask+0 
	CALL        _AddTask+0, 0
;FirmV_0_7_0.c,995 :: 		AddTask(temp,5);
	MOVF        _temp+0, 0 
	MOVWF       FARG_AddTask+0 
	MOVF        _temp+1, 0 
	MOVWF       FARG_AddTask+1 
	MOVF        _temp+2, 0 
	MOVWF       FARG_AddTask+2 
	MOVF        _temp+3, 0 
	MOVWF       FARG_AddTask+3 
	MOVLW       5
	MOVWF       FARG_AddTask+0 
	CALL        _AddTask+0, 0
;FirmV_0_7_0.c,996 :: 		M1isSlow=0;//speed up
	CLRF        _M1isSlow+0 
;FirmV_0_7_0.c,997 :: 		temp=ms500+OverloadDelay+delay;
	MOVLW       2
	ADDWF       _ms500+0, 0 
	MOVWF       R0 
	MOVLW       0
	ADDWFC      _ms500+1, 0 
	MOVWF       R1 
	MOVLW       0
	ADDWFC      _ms500+2, 0 
	MOVWF       R2 
	MOVLW       0
	ADDWFC      _ms500+3, 0 
	MOVWF       R3 
	MOVF        State6_delay_L0+0, 0 
	ADDWF       R0, 1 
	MOVLW       0
	ADDWFC      R1, 1 
	ADDWFC      R2, 1 
	ADDWFC      R3, 1 
	MOVF        R0, 0 
	MOVWF       _temp+0 
	MOVF        R1, 0 
	MOVWF       _temp+1 
	MOVF        R2, 0 
	MOVWF       _temp+2 
	MOVF        R3, 0 
	MOVWF       _temp+3 
;FirmV_0_7_0.c,998 :: 		AddTask(temp,10); //overload check
	MOVF        R0, 0 
	MOVWF       FARG_AddTask+0 
	MOVF        R1, 0 
	MOVWF       FARG_AddTask+1 
	MOVF        R2, 0 
	MOVWF       FARG_AddTask+2 
	MOVF        R3, 0 
	MOVWF       FARG_AddTask+3 
	MOVLW       10
	MOVWF       FARG_AddTask+0 
	CALL        _AddTask+0, 0
;FirmV_0_7_0.c,999 :: 		temp=ms500+Door1CloseTime+delay;
	MOVF        _Door1CloseTime+0, 0 
	ADDWF       _ms500+0, 0 
	MOVWF       R0 
	MOVLW       0
	ADDWFC      _ms500+1, 0 
	MOVWF       R1 
	MOVLW       0
	ADDWFC      _ms500+2, 0 
	MOVWF       R2 
	MOVLW       0
	ADDWFC      _ms500+3, 0 
	MOVWF       R3 
	MOVF        State6_delay_L0+0, 0 
	ADDWF       R0, 1 
	MOVLW       0
	ADDWFC      R1, 1 
	ADDWFC      R2, 1 
	ADDWFC      R3, 1 
	MOVF        R0, 0 
	MOVWF       _temp+0 
	MOVF        R1, 0 
	MOVWF       _temp+1 
	MOVF        R2, 0 
	MOVWF       _temp+2 
	MOVF        R3, 0 
	MOVWF       _temp+3 
;FirmV_0_7_0.c,1000 :: 		AddTask(temp,3);//Stop motor
	MOVF        R0, 0 
	MOVWF       FARG_AddTask+0 
	MOVF        R1, 0 
	MOVWF       FARG_AddTask+1 
	MOVF        R2, 0 
	MOVWF       FARG_AddTask+2 
	MOVF        R3, 0 
	MOVWF       FARG_AddTask+3 
	MOVLW       3
	MOVWF       FARG_AddTask+0 
	CALL        _AddTask+0, 0
;FirmV_0_7_0.c,1002 :: 		if((Door2CloseTime!=0)&&(ActiveDoors==2))
	MOVF        _Door2CloseTime+0, 0 
	XORLW       0
	BTFSC       STATUS+0, 2 
	GOTO        L_State6206
	MOVF        _ActiveDoors+0, 0 
	XORLW       2
	BTFSS       STATUS+0, 2 
	GOTO        L_State6206
L__State6705:
;FirmV_0_7_0.c,1004 :: 		AddTask(ms500+ActionTimeDiff+delay,2);
	MOVF        _ActionTimeDiff+0, 0 
	ADDWF       _ms500+0, 0 
	MOVWF       FARG_AddTask+0 
	MOVLW       0
	ADDWFC      _ms500+1, 0 
	MOVWF       FARG_AddTask+1 
	MOVLW       0
	ADDWFC      _ms500+2, 0 
	MOVWF       FARG_AddTask+2 
	MOVLW       0
	ADDWFC      _ms500+3, 0 
	MOVWF       FARG_AddTask+3 
	MOVF        State6_delay_L0+0, 0 
	ADDWF       FARG_AddTask+0, 1 
	MOVLW       0
	ADDWFC      FARG_AddTask+1, 1 
	ADDWFC      FARG_AddTask+2, 1 
	ADDWFC      FARG_AddTask+3, 1 
	MOVLW       2
	MOVWF       FARG_AddTask+0 
	CALL        _AddTask+0, 0
;FirmV_0_7_0.c,1005 :: 		AddTask(ms500+ActionTimeDiff+delay,6);
	MOVF        _ActionTimeDiff+0, 0 
	ADDWF       _ms500+0, 0 
	MOVWF       FARG_AddTask+0 
	MOVLW       0
	ADDWFC      _ms500+1, 0 
	MOVWF       FARG_AddTask+1 
	MOVLW       0
	ADDWFC      _ms500+2, 0 
	MOVWF       FARG_AddTask+2 
	MOVLW       0
	ADDWFC      _ms500+3, 0 
	MOVWF       FARG_AddTask+3 
	MOVF        State6_delay_L0+0, 0 
	ADDWF       FARG_AddTask+0, 1 
	MOVLW       0
	ADDWFC      FARG_AddTask+1, 1 
	ADDWFC      FARG_AddTask+2, 1 
	ADDWFC      FARG_AddTask+3, 1 
	MOVLW       6
	MOVWF       FARG_AddTask+0 
	CALL        _AddTask+0, 0
;FirmV_0_7_0.c,1006 :: 		M2isSlow=0;//speed up
	CLRF        _M2isSlow+0 
;FirmV_0_7_0.c,1007 :: 		AddTask(ms500+ActionTimeDiff+OverloadDelay+delay,11); //overload check
	MOVF        _ActionTimeDiff+0, 0 
	ADDWF       _ms500+0, 0 
	MOVWF       FARG_AddTask+0 
	MOVLW       0
	ADDWFC      _ms500+1, 0 
	MOVWF       FARG_AddTask+1 
	MOVLW       0
	ADDWFC      _ms500+2, 0 
	MOVWF       FARG_AddTask+2 
	MOVLW       0
	ADDWFC      _ms500+3, 0 
	MOVWF       FARG_AddTask+3 
	MOVLW       2
	ADDWF       FARG_AddTask+0, 1 
	MOVLW       0
	ADDWFC      FARG_AddTask+1, 1 
	ADDWFC      FARG_AddTask+2, 1 
	ADDWFC      FARG_AddTask+3, 1 
	MOVF        State6_delay_L0+0, 0 
	ADDWF       FARG_AddTask+0, 1 
	MOVLW       0
	ADDWFC      FARG_AddTask+1, 1 
	ADDWFC      FARG_AddTask+2, 1 
	ADDWFC      FARG_AddTask+3, 1 
	MOVLW       11
	MOVWF       FARG_AddTask+0 
	CALL        _AddTask+0, 0
;FirmV_0_7_0.c,1008 :: 		AddTask(ms500+Door1CloseTime+ActionTimeDiff+delay,4);//Stop motor
	MOVF        _Door1CloseTime+0, 0 
	ADDWF       _ms500+0, 0 
	MOVWF       FARG_AddTask+0 
	MOVLW       0
	ADDWFC      _ms500+1, 0 
	MOVWF       FARG_AddTask+1 
	MOVLW       0
	ADDWFC      _ms500+2, 0 
	MOVWF       FARG_AddTask+2 
	MOVLW       0
	ADDWFC      _ms500+3, 0 
	MOVWF       FARG_AddTask+3 
	MOVF        _ActionTimeDiff+0, 0 
	ADDWF       FARG_AddTask+0, 1 
	MOVLW       0
	ADDWFC      FARG_AddTask+1, 1 
	ADDWFC      FARG_AddTask+2, 1 
	ADDWFC      FARG_AddTask+3, 1 
	MOVF        State6_delay_L0+0, 0 
	ADDWF       FARG_AddTask+0, 1 
	MOVLW       0
	ADDWFC      FARG_AddTask+1, 1 
	ADDWFC      FARG_AddTask+2, 1 
	ADDWFC      FARG_AddTask+3, 1 
	MOVLW       4
	MOVWF       FARG_AddTask+0 
	CALL        _AddTask+0, 0
;FirmV_0_7_0.c,1009 :: 		}
L_State6206:
;FirmV_0_7_0.c,1010 :: 		CloseDone=3;
	MOVLW       3
	MOVWF       _CloseDone+0 
;FirmV_0_7_0.c,1011 :: 		OverloadCheckFlag1=0;
	CLRF        _OverloadCheckFlag1+0 
;FirmV_0_7_0.c,1012 :: 		OverloadCheckFlag2=0;
	CLRF        _OverloadCheckFlag2+0 
;FirmV_0_7_0.c,1013 :: 		PassFlag=0;
	CLRF        _PassFlag+0 
;FirmV_0_7_0.c,1014 :: 		State=7;
	MOVLW       7
	MOVWF       _State+0 
;FirmV_0_7_0.c,1015 :: 		}
L_State6203:
;FirmV_0_7_0.c,1017 :: 		if((Events.Photocell.b0==1)&&(AutoCloseTime!=0)&&(PassFlag==0))
	BTFSS       _Events+6, 0 
	GOTO        L_State6209
	MOVLW       0
	XORWF       _AutoCloseTime+1, 0 
	BTFSS       STATUS+0, 2 
	GOTO        L__State6789
	MOVLW       0
	XORWF       _AutoCloseTime+0, 0 
L__State6789:
	BTFSC       STATUS+0, 2 
	GOTO        L_State6209
	MOVF        _PassFlag+0, 0 
	XORLW       0
	BTFSS       STATUS+0, 2 
	GOTO        L_State6209
L__State6704:
;FirmV_0_7_0.c,1018 :: 		{PassFlag=1; _AC=GetAutocloseTime();Logger("S6 Auto Close Deleted");}
	MOVLW       1
	MOVWF       _PassFlag+0 
	CALL        _GetAutocloseTime+0, 0
	MOVF        R0, 0 
	MOVWF       __AC+0 
	MOVLW       ?ICS?lstr41_FirmV_0_7_0+0
	MOVWF       TBLPTRL 
	MOVLW       hi_addr(?ICS?lstr41_FirmV_0_7_0+0)
	MOVWF       TBLPTRH 
	MOVLW       higher_addr(?ICS?lstr41_FirmV_0_7_0+0)
	MOVWF       TBLPTRU 
	MOVLW       ?lstr41_FirmV_0_7_0+0
	MOVWF       FSR1L 
	MOVLW       hi_addr(?lstr41_FirmV_0_7_0+0)
	MOVWF       FSR1H 
	MOVLW       22
	MOVWF       R0 
	MOVLW       1
	MOVWF       R1 
	CALL        ___CC2DW+0, 0
	MOVLW       ?lstr41_FirmV_0_7_0+0
	MOVWF       FARG_Logger_text+0 
	MOVLW       hi_addr(?lstr41_FirmV_0_7_0+0)
	MOVWF       FARG_Logger_text+1 
	CALL        _Logger+0, 0
L_State6209:
;FirmV_0_7_0.c,1020 :: 		if((PassFlag==1)&&(Events.Photocell.b0==0)&&(AutoCloseTime!=0))
	MOVF        _PassFlag+0, 0 
	XORLW       1
	BTFSS       STATUS+0, 2 
	GOTO        L_State6212
	BTFSC       _Events+6, 0 
	GOTO        L_State6212
	MOVLW       0
	XORWF       _AutoCloseTime+1, 0 
	BTFSS       STATUS+0, 2 
	GOTO        L__State6790
	MOVLW       0
	XORWF       _AutoCloseTime+0, 0 
L__State6790:
	BTFSC       STATUS+0, 2 
	GOTO        L_State6212
L__State6703:
;FirmV_0_7_0.c,1022 :: 		{temp=ms500+_AC;AddTask(temp,9);PassFlag=0;longwordtostrwithzeros(temp,t);Logger("S6 Insert 9 at:");Logger(t);}
	MOVF        __AC+0, 0 
	ADDWF       _ms500+0, 0 
	MOVWF       R0 
	MOVLW       0
	ADDWFC      _ms500+1, 0 
	MOVWF       R1 
	MOVLW       0
	ADDWFC      _ms500+2, 0 
	MOVWF       R2 
	MOVLW       0
	ADDWFC      _ms500+3, 0 
	MOVWF       R3 
	MOVF        R0, 0 
	MOVWF       _temp+0 
	MOVF        R1, 0 
	MOVWF       _temp+1 
	MOVF        R2, 0 
	MOVWF       _temp+2 
	MOVF        R3, 0 
	MOVWF       _temp+3 
	MOVF        R0, 0 
	MOVWF       FARG_AddTask+0 
	MOVF        R1, 0 
	MOVWF       FARG_AddTask+1 
	MOVF        R2, 0 
	MOVWF       FARG_AddTask+2 
	MOVF        R3, 0 
	MOVWF       FARG_AddTask+3 
	MOVLW       9
	MOVWF       FARG_AddTask+0 
	CALL        _AddTask+0, 0
	CLRF        _PassFlag+0 
	MOVF        _temp+0, 0 
	MOVWF       FARG_LongWordToStrWithZeros_input+0 
	MOVF        _temp+1, 0 
	MOVWF       FARG_LongWordToStrWithZeros_input+1 
	MOVF        _temp+2, 0 
	MOVWF       FARG_LongWordToStrWithZeros_input+2 
	MOVF        _temp+3, 0 
	MOVWF       FARG_LongWordToStrWithZeros_input+3 
	MOVLW       _t+0
	MOVWF       FARG_LongWordToStrWithZeros_output+0 
	MOVLW       hi_addr(_t+0)
	MOVWF       FARG_LongWordToStrWithZeros_output+1 
	CALL        _LongWordToStrWithZeros+0, 0
	MOVLW       ?ICS?lstr42_FirmV_0_7_0+0
	MOVWF       TBLPTRL 
	MOVLW       hi_addr(?ICS?lstr42_FirmV_0_7_0+0)
	MOVWF       TBLPTRH 
	MOVLW       higher_addr(?ICS?lstr42_FirmV_0_7_0+0)
	MOVWF       TBLPTRU 
	MOVLW       ?lstr42_FirmV_0_7_0+0
	MOVWF       FSR1L 
	MOVLW       hi_addr(?lstr42_FirmV_0_7_0+0)
	MOVWF       FSR1H 
	MOVLW       16
	MOVWF       R0 
	MOVLW       1
	MOVWF       R1 
	CALL        ___CC2DW+0, 0
	MOVLW       ?lstr42_FirmV_0_7_0+0
	MOVWF       FARG_Logger_text+0 
	MOVLW       hi_addr(?lstr42_FirmV_0_7_0+0)
	MOVWF       FARG_Logger_text+1 
	CALL        _Logger+0, 0
	MOVLW       _t+0
	MOVWF       FARG_Logger_text+0 
	MOVLW       hi_addr(_t+0)
	MOVWF       FARG_Logger_text+1 
	CALL        _Logger+0, 0
;FirmV_0_7_0.c,1024 :: 		{temp=ms500+CloseAfterPass;AddTask(temp,9);PassFlag=0;longwordtostrwithzeros(temp,t);Logger("S6 Insert 9 at:");Logger(t);}
L_State6214:
;FirmV_0_7_0.c,1025 :: 		}
L_State6212:
;FirmV_0_7_0.c,1027 :: 		}
	RETURN      0
; end of _State6

_State7:

;FirmV_0_7_0.c,1049 :: 		void State7()
;FirmV_0_7_0.c,1051 :: 		Flasher=1;
	BSF         PORTD+0, 7 
;FirmV_0_7_0.c,1053 :: 		if(CheckTask(1))
	MOVLW       1
	MOVWF       FARG_CheckTask+0 
	CALL        _CheckTask+0, 0
	MOVF        R0, 1 
	BTFSC       STATUS+0, 2 
	GOTO        L_State7215
;FirmV_0_7_0.c,1054 :: 		{StartMotor(1,_Close);Logger("S7 Motor1Start");}
	MOVLW       1
	MOVWF       FARG_StartMotor+0 
	CLRF        FARG_StartMotor+0 
	CALL        _StartMotor+0, 0
	MOVLW       83
	MOVWF       ?lstr44_FirmV_0_7_0+0 
	MOVLW       55
	MOVWF       ?lstr44_FirmV_0_7_0+1 
	MOVLW       32
	MOVWF       ?lstr44_FirmV_0_7_0+2 
	MOVLW       77
	MOVWF       ?lstr44_FirmV_0_7_0+3 
	MOVLW       111
	MOVWF       ?lstr44_FirmV_0_7_0+4 
	MOVLW       116
	MOVWF       ?lstr44_FirmV_0_7_0+5 
	MOVLW       111
	MOVWF       ?lstr44_FirmV_0_7_0+6 
	MOVLW       114
	MOVWF       ?lstr44_FirmV_0_7_0+7 
	MOVLW       49
	MOVWF       ?lstr44_FirmV_0_7_0+8 
	MOVLW       83
	MOVWF       ?lstr44_FirmV_0_7_0+9 
	MOVLW       116
	MOVWF       ?lstr44_FirmV_0_7_0+10 
	MOVLW       97
	MOVWF       ?lstr44_FirmV_0_7_0+11 
	MOVLW       114
	MOVWF       ?lstr44_FirmV_0_7_0+12 
	MOVLW       116
	MOVWF       ?lstr44_FirmV_0_7_0+13 
	CLRF        ?lstr44_FirmV_0_7_0+14 
	MOVLW       ?lstr44_FirmV_0_7_0+0
	MOVWF       FARG_Logger_text+0 
	MOVLW       hi_addr(?lstr44_FirmV_0_7_0+0)
	MOVWF       FARG_Logger_text+1 
	CALL        _Logger+0, 0
L_State7215:
;FirmV_0_7_0.c,1056 :: 		if(CheckTask(2))
	MOVLW       2
	MOVWF       FARG_CheckTask+0 
	CALL        _CheckTask+0, 0
	MOVF        R0, 1 
	BTFSC       STATUS+0, 2 
	GOTO        L_State7216
;FirmV_0_7_0.c,1057 :: 		{StartMotor(2,_Close);Logger("S7 Motor2Start");memcpy(LCDLine1,_closing,16);memcpy(LCDLine2,_Blank,16);LCDUpdateFlag=1;LCDLines=1;}
	MOVLW       2
	MOVWF       FARG_StartMotor+0 
	CLRF        FARG_StartMotor+0 
	CALL        _StartMotor+0, 0
	MOVLW       83
	MOVWF       ?lstr45_FirmV_0_7_0+0 
	MOVLW       55
	MOVWF       ?lstr45_FirmV_0_7_0+1 
	MOVLW       32
	MOVWF       ?lstr45_FirmV_0_7_0+2 
	MOVLW       77
	MOVWF       ?lstr45_FirmV_0_7_0+3 
	MOVLW       111
	MOVWF       ?lstr45_FirmV_0_7_0+4 
	MOVLW       116
	MOVWF       ?lstr45_FirmV_0_7_0+5 
	MOVLW       111
	MOVWF       ?lstr45_FirmV_0_7_0+6 
	MOVLW       114
	MOVWF       ?lstr45_FirmV_0_7_0+7 
	MOVLW       50
	MOVWF       ?lstr45_FirmV_0_7_0+8 
	MOVLW       83
	MOVWF       ?lstr45_FirmV_0_7_0+9 
	MOVLW       116
	MOVWF       ?lstr45_FirmV_0_7_0+10 
	MOVLW       97
	MOVWF       ?lstr45_FirmV_0_7_0+11 
	MOVLW       114
	MOVWF       ?lstr45_FirmV_0_7_0+12 
	MOVLW       116
	MOVWF       ?lstr45_FirmV_0_7_0+13 
	CLRF        ?lstr45_FirmV_0_7_0+14 
	MOVLW       ?lstr45_FirmV_0_7_0+0
	MOVWF       FARG_Logger_text+0 
	MOVLW       hi_addr(?lstr45_FirmV_0_7_0+0)
	MOVWF       FARG_Logger_text+1 
	CALL        _Logger+0, 0
	MOVLW       _LCDLine1+0
	MOVWF       FARG_memcpy_d1+0 
	MOVLW       hi_addr(_LCDLine1+0)
	MOVWF       FARG_memcpy_d1+1 
	MOVLW       __closing+0
	MOVWF       FARG_memcpy_s1+0 
	MOVLW       hi_addr(__closing+0)
	MOVWF       FARG_memcpy_s1+1 
	MOVLW       16
	MOVWF       FARG_memcpy_n+0 
	MOVLW       0
	MOVWF       FARG_memcpy_n+1 
	CALL        _memcpy+0, 0
	MOVLW       _LCDLine2+0
	MOVWF       FARG_memcpy_d1+0 
	MOVLW       hi_addr(_LCDLine2+0)
	MOVWF       FARG_memcpy_d1+1 
	MOVLW       __Blank+0
	MOVWF       FARG_memcpy_s1+0 
	MOVLW       hi_addr(__Blank+0)
	MOVWF       FARG_memcpy_s1+1 
	MOVLW       16
	MOVWF       FARG_memcpy_n+0 
	MOVLW       0
	MOVWF       FARG_memcpy_n+1 
	CALL        _memcpy+0, 0
	MOVLW       1
	MOVWF       _LCDUpdateFlag+0 
	MOVLW       1
	MOVWF       _LCDLines+0 
L_State7216:
;FirmV_0_7_0.c,1059 :: 		if(CheckTask(10))
	MOVLW       10
	MOVWF       FARG_CheckTask+0 
	CALL        _CheckTask+0, 0
	MOVF        R0, 1 
	BTFSC       STATUS+0, 2 
	GOTO        L_State7217
;FirmV_0_7_0.c,1060 :: 		{OverloadCheckFlag1=1; OverloadInit(1);Logger("S7 M1 Overload Check");}
	MOVLW       1
	MOVWF       _OverloadCheckFlag1+0 
	MOVLW       1
	MOVWF       FARG_OverloadInit+0 
	CALL        _OverloadInit+0, 0
	MOVLW       ?ICS?lstr46_FirmV_0_7_0+0
	MOVWF       TBLPTRL 
	MOVLW       hi_addr(?ICS?lstr46_FirmV_0_7_0+0)
	MOVWF       TBLPTRH 
	MOVLW       higher_addr(?ICS?lstr46_FirmV_0_7_0+0)
	MOVWF       TBLPTRU 
	MOVLW       ?lstr46_FirmV_0_7_0+0
	MOVWF       FSR1L 
	MOVLW       hi_addr(?lstr46_FirmV_0_7_0+0)
	MOVWF       FSR1H 
	MOVLW       21
	MOVWF       R0 
	MOVLW       1
	MOVWF       R1 
	CALL        ___CC2DW+0, 0
	MOVLW       ?lstr46_FirmV_0_7_0+0
	MOVWF       FARG_Logger_text+0 
	MOVLW       hi_addr(?lstr46_FirmV_0_7_0+0)
	MOVWF       FARG_Logger_text+1 
	CALL        _Logger+0, 0
L_State7217:
;FirmV_0_7_0.c,1062 :: 		if(CheckTask(11))
	MOVLW       11
	MOVWF       FARG_CheckTask+0 
	CALL        _CheckTask+0, 0
	MOVF        R0, 1 
	BTFSC       STATUS+0, 2 
	GOTO        L_State7218
;FirmV_0_7_0.c,1063 :: 		{OverloadCheckFlag2=1; OverloadInit(2);Logger("S7 M2 Overload Check");}
	MOVLW       1
	MOVWF       _OverloadCheckFlag2+0 
	MOVLW       2
	MOVWF       FARG_OverloadInit+0 
	CALL        _OverloadInit+0, 0
	MOVLW       ?ICS?lstr47_FirmV_0_7_0+0
	MOVWF       TBLPTRL 
	MOVLW       hi_addr(?ICS?lstr47_FirmV_0_7_0+0)
	MOVWF       TBLPTRH 
	MOVLW       higher_addr(?ICS?lstr47_FirmV_0_7_0+0)
	MOVWF       TBLPTRU 
	MOVLW       ?lstr47_FirmV_0_7_0+0
	MOVWF       FSR1L 
	MOVLW       hi_addr(?lstr47_FirmV_0_7_0+0)
	MOVWF       FSR1H 
	MOVLW       21
	MOVWF       R0 
	MOVLW       1
	MOVWF       R1 
	CALL        ___CC2DW+0, 0
	MOVLW       ?lstr47_FirmV_0_7_0+0
	MOVWF       FARG_Logger_text+0 
	MOVLW       hi_addr(?lstr47_FirmV_0_7_0+0)
	MOVWF       FARG_Logger_text+1 
	CALL        _Logger+0, 0
L_State7218:
;FirmV_0_7_0.c,1065 :: 		if(CheckTask(5))
	MOVLW       5
	MOVWF       FARG_CheckTask+0 
	CALL        _CheckTask+0, 0
	MOVF        R0, 1 
	BTFSC       STATUS+0, 2 
	GOTO        L_State7219
;FirmV_0_7_0.c,1066 :: 		{SetMotorSpeed(1,Motor2FullSpeed); M1isSlow=0;Logger("S7 M1 Speed UP");}
	MOVLW       1
	MOVWF       FARG_SetMotorSpeed+0 
	MOVF        _Motor2FullSpeed+0, 0 
	MOVWF       FARG_SetMotorSpeed+0 
	CALL        _SetMotorSpeed+0, 0
	CLRF        _M1isSlow+0 
	MOVLW       83
	MOVWF       ?lstr48_FirmV_0_7_0+0 
	MOVLW       55
	MOVWF       ?lstr48_FirmV_0_7_0+1 
	MOVLW       32
	MOVWF       ?lstr48_FirmV_0_7_0+2 
	MOVLW       77
	MOVWF       ?lstr48_FirmV_0_7_0+3 
	MOVLW       49
	MOVWF       ?lstr48_FirmV_0_7_0+4 
	MOVLW       32
	MOVWF       ?lstr48_FirmV_0_7_0+5 
	MOVLW       83
	MOVWF       ?lstr48_FirmV_0_7_0+6 
	MOVLW       112
	MOVWF       ?lstr48_FirmV_0_7_0+7 
	MOVLW       101
	MOVWF       ?lstr48_FirmV_0_7_0+8 
	MOVLW       101
	MOVWF       ?lstr48_FirmV_0_7_0+9 
	MOVLW       100
	MOVWF       ?lstr48_FirmV_0_7_0+10 
	MOVLW       32
	MOVWF       ?lstr48_FirmV_0_7_0+11 
	MOVLW       85
	MOVWF       ?lstr48_FirmV_0_7_0+12 
	MOVLW       80
	MOVWF       ?lstr48_FirmV_0_7_0+13 
	CLRF        ?lstr48_FirmV_0_7_0+14 
	MOVLW       ?lstr48_FirmV_0_7_0+0
	MOVWF       FARG_Logger_text+0 
	MOVLW       hi_addr(?lstr48_FirmV_0_7_0+0)
	MOVWF       FARG_Logger_text+1 
	CALL        _Logger+0, 0
L_State7219:
;FirmV_0_7_0.c,1068 :: 		if(CheckTask(6))
	MOVLW       6
	MOVWF       FARG_CheckTask+0 
	CALL        _CheckTask+0, 0
	MOVF        R0, 1 
	BTFSC       STATUS+0, 2 
	GOTO        L_State7220
;FirmV_0_7_0.c,1069 :: 		{SetMotorSpeed(Motor1FullSpeed,1); M2isSlow=0;Logger("S7 M2 Speed UP");}
	MOVF        _Motor1FullSpeed+0, 0 
	MOVWF       FARG_SetMotorSpeed+0 
	MOVLW       1
	MOVWF       FARG_SetMotorSpeed+0 
	CALL        _SetMotorSpeed+0, 0
	CLRF        _M2isSlow+0 
	MOVLW       83
	MOVWF       ?lstr49_FirmV_0_7_0+0 
	MOVLW       55
	MOVWF       ?lstr49_FirmV_0_7_0+1 
	MOVLW       32
	MOVWF       ?lstr49_FirmV_0_7_0+2 
	MOVLW       77
	MOVWF       ?lstr49_FirmV_0_7_0+3 
	MOVLW       50
	MOVWF       ?lstr49_FirmV_0_7_0+4 
	MOVLW       32
	MOVWF       ?lstr49_FirmV_0_7_0+5 
	MOVLW       83
	MOVWF       ?lstr49_FirmV_0_7_0+6 
	MOVLW       112
	MOVWF       ?lstr49_FirmV_0_7_0+7 
	MOVLW       101
	MOVWF       ?lstr49_FirmV_0_7_0+8 
	MOVLW       101
	MOVWF       ?lstr49_FirmV_0_7_0+9 
	MOVLW       100
	MOVWF       ?lstr49_FirmV_0_7_0+10 
	MOVLW       32
	MOVWF       ?lstr49_FirmV_0_7_0+11 
	MOVLW       85
	MOVWF       ?lstr49_FirmV_0_7_0+12 
	MOVLW       80
	MOVWF       ?lstr49_FirmV_0_7_0+13 
	CLRF        ?lstr49_FirmV_0_7_0+14 
	MOVLW       ?lstr49_FirmV_0_7_0+0
	MOVWF       FARG_Logger_text+0 
	MOVLW       hi_addr(?lstr49_FirmV_0_7_0+0)
	MOVWF       FARG_Logger_text+1 
	CALL        _Logger+0, 0
L_State7220:
;FirmV_0_7_0.c,1071 :: 		if((CheckTask(3)||((OverloadCheckFlag1==1)&&(Events.Overload.b0==1)))&&(CloseDone.b0))
	MOVLW       3
	MOVWF       FARG_CheckTask+0 
	CALL        _CheckTask+0, 0
	MOVF        R0, 1 
	BTFSS       STATUS+0, 2 
	GOTO        L__State7715
	MOVF        _OverloadCheckFlag1+0, 0 
	XORLW       1
	BTFSS       STATUS+0, 2 
	GOTO        L__State7716
	BTFSS       _Events+5, 0 
	GOTO        L__State7716
	GOTO        L__State7715
L__State7716:
	GOTO        L_State7227
L__State7715:
	BTFSS       _CloseDone+0, 0 
	GOTO        L_State7227
L__State7714:
;FirmV_0_7_0.c,1072 :: 		{CloseDone.b0=0; StopMotor(1);Logger("S7 M1 Stoped");}
	BCF         _CloseDone+0, 0 
	MOVLW       1
	MOVWF       FARG_StopMotor+0 
	CALL        _StopMotor+0, 0
	MOVLW       83
	MOVWF       ?lstr50_FirmV_0_7_0+0 
	MOVLW       55
	MOVWF       ?lstr50_FirmV_0_7_0+1 
	MOVLW       32
	MOVWF       ?lstr50_FirmV_0_7_0+2 
	MOVLW       77
	MOVWF       ?lstr50_FirmV_0_7_0+3 
	MOVLW       49
	MOVWF       ?lstr50_FirmV_0_7_0+4 
	MOVLW       32
	MOVWF       ?lstr50_FirmV_0_7_0+5 
	MOVLW       83
	MOVWF       ?lstr50_FirmV_0_7_0+6 
	MOVLW       116
	MOVWF       ?lstr50_FirmV_0_7_0+7 
	MOVLW       111
	MOVWF       ?lstr50_FirmV_0_7_0+8 
	MOVLW       112
	MOVWF       ?lstr50_FirmV_0_7_0+9 
	MOVLW       101
	MOVWF       ?lstr50_FirmV_0_7_0+10 
	MOVLW       100
	MOVWF       ?lstr50_FirmV_0_7_0+11 
	CLRF        ?lstr50_FirmV_0_7_0+12 
	MOVLW       ?lstr50_FirmV_0_7_0+0
	MOVWF       FARG_Logger_text+0 
	MOVLW       hi_addr(?lstr50_FirmV_0_7_0+0)
	MOVWF       FARG_Logger_text+1 
	CALL        _Logger+0, 0
L_State7227:
;FirmV_0_7_0.c,1074 :: 		if((CheckTask(4)||((OverloadCheckFlag2==1)&&(Events.Overload.b1==1)))&&(CloseDone.b1))
	MOVLW       4
	MOVWF       FARG_CheckTask+0 
	CALL        _CheckTask+0, 0
	MOVF        R0, 1 
	BTFSS       STATUS+0, 2 
	GOTO        L__State7712
	MOVF        _OverloadCheckFlag2+0, 0 
	XORLW       1
	BTFSS       STATUS+0, 2 
	GOTO        L__State7713
	BTFSS       _Events+5, 1 
	GOTO        L__State7713
	GOTO        L__State7712
L__State7713:
	GOTO        L_State7234
L__State7712:
	BTFSS       _CloseDone+0, 1 
	GOTO        L_State7234
L__State7711:
;FirmV_0_7_0.c,1075 :: 		{CloseDone.b1=0; StopMotor(2);Logger("S7 M2 Stoped");}
	BCF         _CloseDone+0, 1 
	MOVLW       2
	MOVWF       FARG_StopMotor+0 
	CALL        _StopMotor+0, 0
	MOVLW       83
	MOVWF       ?lstr51_FirmV_0_7_0+0 
	MOVLW       55
	MOVWF       ?lstr51_FirmV_0_7_0+1 
	MOVLW       32
	MOVWF       ?lstr51_FirmV_0_7_0+2 
	MOVLW       77
	MOVWF       ?lstr51_FirmV_0_7_0+3 
	MOVLW       50
	MOVWF       ?lstr51_FirmV_0_7_0+4 
	MOVLW       32
	MOVWF       ?lstr51_FirmV_0_7_0+5 
	MOVLW       83
	MOVWF       ?lstr51_FirmV_0_7_0+6 
	MOVLW       116
	MOVWF       ?lstr51_FirmV_0_7_0+7 
	MOVLW       111
	MOVWF       ?lstr51_FirmV_0_7_0+8 
	MOVLW       112
	MOVWF       ?lstr51_FirmV_0_7_0+9 
	MOVLW       101
	MOVWF       ?lstr51_FirmV_0_7_0+10 
	MOVLW       100
	MOVWF       ?lstr51_FirmV_0_7_0+11 
	CLRF        ?lstr51_FirmV_0_7_0+12 
	MOVLW       ?lstr51_FirmV_0_7_0+0
	MOVWF       FARG_Logger_text+0 
	MOVLW       hi_addr(?lstr51_FirmV_0_7_0+0)
	MOVWF       FARG_Logger_text+1 
	CALL        _Logger+0, 0
L_State7234:
;FirmV_0_7_0.c,1077 :: 		if((Door2OpenTime==0)||(ActiveDoors==1))
	MOVF        _Door2OpenTime+0, 0 
	XORLW       0
	BTFSC       STATUS+0, 2 
	GOTO        L__State7710
	MOVF        _ActiveDoors+0, 0 
	XORLW       1
	BTFSC       STATUS+0, 2 
	GOTO        L__State7710
	GOTO        L_State7237
L__State7710:
;FirmV_0_7_0.c,1078 :: 		CloseDone.b1=0;
	BCF         _CloseDone+0, 1 
L_State7237:
;FirmV_0_7_0.c,1080 :: 		if((Events.Photocell.b0==1))
	BTFSS       _Events+6, 0 
	GOTO        L_State7238
;FirmV_0_7_0.c,1081 :: 		{StopMotor(1); StopMotor(2); OverloadCheckFlag1=0;OverloadCheckFlag2=0;State=6;PhotocellOpenFlag=1;Logger("S7 Photocell Int");ClearTasks(9);
	MOVLW       1
	MOVWF       FARG_StopMotor+0 
	CALL        _StopMotor+0, 0
	MOVLW       2
	MOVWF       FARG_StopMotor+0 
	CALL        _StopMotor+0, 0
	CLRF        _OverloadCheckFlag1+0 
	CLRF        _OverloadCheckFlag2+0 
	MOVLW       6
	MOVWF       _State+0 
	MOVLW       1
	MOVWF       _PhotocellOpenFlag+0 
	MOVLW       ?ICS?lstr52_FirmV_0_7_0+0
	MOVWF       TBLPTRL 
	MOVLW       hi_addr(?ICS?lstr52_FirmV_0_7_0+0)
	MOVWF       TBLPTRH 
	MOVLW       higher_addr(?ICS?lstr52_FirmV_0_7_0+0)
	MOVWF       TBLPTRU 
	MOVLW       ?lstr52_FirmV_0_7_0+0
	MOVWF       FSR1L 
	MOVLW       hi_addr(?lstr52_FirmV_0_7_0+0)
	MOVWF       FSR1H 
	MOVLW       17
	MOVWF       R0 
	MOVLW       1
	MOVWF       R1 
	CALL        ___CC2DW+0, 0
	MOVLW       ?lstr52_FirmV_0_7_0+0
	MOVWF       FARG_Logger_text+0 
	MOVLW       hi_addr(?lstr52_FirmV_0_7_0+0)
	MOVWF       FARG_Logger_text+1 
	CALL        _Logger+0, 0
	MOVLW       9
	MOVWF       FARG_ClearTasks+0 
	CALL        _ClearTasks+0, 0
;FirmV_0_7_0.c,1082 :: 		memcpy(LCDLine1,_stop,16);memcpy(LCDLine2,_ErrPhoto,16);LCDUpdateFlag=1;LCDLines=2;}
	MOVLW       _LCDLine1+0
	MOVWF       FARG_memcpy_d1+0 
	MOVLW       hi_addr(_LCDLine1+0)
	MOVWF       FARG_memcpy_d1+1 
	MOVLW       __stop+0
	MOVWF       FARG_memcpy_s1+0 
	MOVLW       hi_addr(__stop+0)
	MOVWF       FARG_memcpy_s1+1 
	MOVLW       16
	MOVWF       FARG_memcpy_n+0 
	MOVLW       0
	MOVWF       FARG_memcpy_n+1 
	CALL        _memcpy+0, 0
	MOVLW       _LCDLine2+0
	MOVWF       FARG_memcpy_d1+0 
	MOVLW       hi_addr(_LCDLine2+0)
	MOVWF       FARG_memcpy_d1+1 
	MOVLW       __errPhoto+0
	MOVWF       FARG_memcpy_s1+0 
	MOVLW       hi_addr(__errPhoto+0)
	MOVWF       FARG_memcpy_s1+1 
	MOVLW       16
	MOVWF       FARG_memcpy_n+0 
	MOVLW       0
	MOVWF       FARG_memcpy_n+1 
	CALL        _memcpy+0, 0
	MOVLW       1
	MOVWF       _LCDUpdateFlag+0 
	MOVLW       2
	MOVWF       _LCDLines+0 
L_State7238:
;FirmV_0_7_0.c,1084 :: 		if((Events.Remote!=0))
	MOVF        _Events+4, 0 
	XORLW       0
	BTFSC       STATUS+0, 2 
	GOTO        L_State7239
;FirmV_0_7_0.c,1085 :: 		{StopMotor(1); StopMotor(2); State=6;OverloadCheckFlag1=0;OverloadCheckFlag2=0;Logger("S7 Remote Pressed");ClearTasks(9);
	MOVLW       1
	MOVWF       FARG_StopMotor+0 
	CALL        _StopMotor+0, 0
	MOVLW       2
	MOVWF       FARG_StopMotor+0 
	CALL        _StopMotor+0, 0
	MOVLW       6
	MOVWF       _State+0 
	CLRF        _OverloadCheckFlag1+0 
	CLRF        _OverloadCheckFlag2+0 
	MOVLW       ?ICS?lstr53_FirmV_0_7_0+0
	MOVWF       TBLPTRL 
	MOVLW       hi_addr(?ICS?lstr53_FirmV_0_7_0+0)
	MOVWF       TBLPTRH 
	MOVLW       higher_addr(?ICS?lstr53_FirmV_0_7_0+0)
	MOVWF       TBLPTRU 
	MOVLW       ?lstr53_FirmV_0_7_0+0
	MOVWF       FSR1L 
	MOVLW       hi_addr(?lstr53_FirmV_0_7_0+0)
	MOVWF       FSR1H 
	MOVLW       18
	MOVWF       R0 
	MOVLW       1
	MOVWF       R1 
	CALL        ___CC2DW+0, 0
	MOVLW       ?lstr53_FirmV_0_7_0+0
	MOVWF       FARG_Logger_text+0 
	MOVLW       hi_addr(?lstr53_FirmV_0_7_0+0)
	MOVWF       FARG_Logger_text+1 
	CALL        _Logger+0, 0
	MOVLW       9
	MOVWF       FARG_ClearTasks+0 
	CALL        _ClearTasks+0, 0
;FirmV_0_7_0.c,1086 :: 		memcpy(LCDLine1,_stop,16);memcpy(LCDLine2,_ErrRemote,16);LCDUpdateFlag=1;LCDLines=2;}
	MOVLW       _LCDLine1+0
	MOVWF       FARG_memcpy_d1+0 
	MOVLW       hi_addr(_LCDLine1+0)
	MOVWF       FARG_memcpy_d1+1 
	MOVLW       __stop+0
	MOVWF       FARG_memcpy_s1+0 
	MOVLW       hi_addr(__stop+0)
	MOVWF       FARG_memcpy_s1+1 
	MOVLW       16
	MOVWF       FARG_memcpy_n+0 
	MOVLW       0
	MOVWF       FARG_memcpy_n+1 
	CALL        _memcpy+0, 0
	MOVLW       _LCDLine2+0
	MOVWF       FARG_memcpy_d1+0 
	MOVLW       hi_addr(_LCDLine2+0)
	MOVWF       FARG_memcpy_d1+1 
	MOVLW       __errRemote+0
	MOVWF       FARG_memcpy_s1+0 
	MOVLW       hi_addr(__errRemote+0)
	MOVWF       FARG_memcpy_s1+1 
	MOVLW       16
	MOVWF       FARG_memcpy_n+0 
	MOVLW       0
	MOVWF       FARG_memcpy_n+1 
	CALL        _memcpy+0, 0
	MOVLW       1
	MOVWF       _LCDUpdateFlag+0 
	MOVLW       2
	MOVWF       _LCDLines+0 
L_State7239:
;FirmV_0_7_0.c,1088 :: 		if((Events.Limiter==1)&&(LimiterEnable))
	MOVF        _Events+7, 0 
	XORLW       1
	BTFSS       STATUS+0, 2 
	GOTO        L_State7242
	MOVF        _LimiterEnable+0, 1 
	BTFSC       STATUS+0, 2 
	GOTO        L_State7242
L__State7709:
;FirmV_0_7_0.c,1089 :: 		{StopMotor(1); StopMotor(2); State=6;OverloadCheckFlag1=0;OverloadCheckFlag2=0;Logger("S7 Limit Switch Stop");ClearTasks(9);
	MOVLW       1
	MOVWF       FARG_StopMotor+0 
	CALL        _StopMotor+0, 0
	MOVLW       2
	MOVWF       FARG_StopMotor+0 
	CALL        _StopMotor+0, 0
	MOVLW       6
	MOVWF       _State+0 
	CLRF        _OverloadCheckFlag1+0 
	CLRF        _OverloadCheckFlag2+0 
	MOVLW       ?ICS?lstr54_FirmV_0_7_0+0
	MOVWF       TBLPTRL 
	MOVLW       hi_addr(?ICS?lstr54_FirmV_0_7_0+0)
	MOVWF       TBLPTRH 
	MOVLW       higher_addr(?ICS?lstr54_FirmV_0_7_0+0)
	MOVWF       TBLPTRU 
	MOVLW       ?lstr54_FirmV_0_7_0+0
	MOVWF       FSR1L 
	MOVLW       hi_addr(?lstr54_FirmV_0_7_0+0)
	MOVWF       FSR1H 
	MOVLW       21
	MOVWF       R0 
	MOVLW       1
	MOVWF       R1 
	CALL        ___CC2DW+0, 0
	MOVLW       ?lstr54_FirmV_0_7_0+0
	MOVWF       FARG_Logger_text+0 
	MOVLW       hi_addr(?lstr54_FirmV_0_7_0+0)
	MOVWF       FARG_Logger_text+1 
	CALL        _Logger+0, 0
	MOVLW       9
	MOVWF       FARG_ClearTasks+0 
	CALL        _ClearTasks+0, 0
;FirmV_0_7_0.c,1090 :: 		memcpy(LCDLine1,_stop,16);memcpy(LCDLine2,_ErrLimit,16);LCDUpdateFlag=1;LCDLines=2;}
	MOVLW       _LCDLine1+0
	MOVWF       FARG_memcpy_d1+0 
	MOVLW       hi_addr(_LCDLine1+0)
	MOVWF       FARG_memcpy_d1+1 
	MOVLW       __stop+0
	MOVWF       FARG_memcpy_s1+0 
	MOVLW       hi_addr(__stop+0)
	MOVWF       FARG_memcpy_s1+1 
	MOVLW       16
	MOVWF       FARG_memcpy_n+0 
	MOVLW       0
	MOVWF       FARG_memcpy_n+1 
	CALL        _memcpy+0, 0
	MOVLW       _LCDLine2+0
	MOVWF       FARG_memcpy_d1+0 
	MOVLW       hi_addr(_LCDLine2+0)
	MOVWF       FARG_memcpy_d1+1 
	MOVLW       __errLimit+0
	MOVWF       FARG_memcpy_s1+0 
	MOVLW       hi_addr(__errLimit+0)
	MOVWF       FARG_memcpy_s1+1 
	MOVLW       16
	MOVWF       FARG_memcpy_n+0 
	MOVLW       0
	MOVWF       FARG_memcpy_n+1 
	CALL        _memcpy+0, 0
	MOVLW       1
	MOVWF       _LCDUpdateFlag+0 
	MOVLW       2
	MOVWF       _LCDLines+0 
L_State7242:
;FirmV_0_7_0.c,1092 :: 		if(CloseDone==0)
	MOVF        _CloseDone+0, 0 
	XORLW       0
	BTFSS       STATUS+0, 2 
	GOTO        L_State7243
;FirmV_0_7_0.c,1093 :: 		{State=1; PassFlag=0;ClearTasks(9);memcpy(LCDLine1,_close,16);memcpy(LCDLine2,_Blank,16);LCDUpdateFlag=1;LCDLines=1;}
	MOVLW       1
	MOVWF       _State+0 
	CLRF        _PassFlag+0 
	MOVLW       9
	MOVWF       FARG_ClearTasks+0 
	CALL        _ClearTasks+0, 0
	MOVLW       _LCDLine1+0
	MOVWF       FARG_memcpy_d1+0 
	MOVLW       hi_addr(_LCDLine1+0)
	MOVWF       FARG_memcpy_d1+1 
	MOVLW       __close+0
	MOVWF       FARG_memcpy_s1+0 
	MOVLW       hi_addr(__close+0)
	MOVWF       FARG_memcpy_s1+1 
	MOVLW       16
	MOVWF       FARG_memcpy_n+0 
	MOVLW       0
	MOVWF       FARG_memcpy_n+1 
	CALL        _memcpy+0, 0
	MOVLW       _LCDLine2+0
	MOVWF       FARG_memcpy_d1+0 
	MOVLW       hi_addr(_LCDLine2+0)
	MOVWF       FARG_memcpy_d1+1 
	MOVLW       __Blank+0
	MOVWF       FARG_memcpy_s1+0 
	MOVLW       hi_addr(__Blank+0)
	MOVWF       FARG_memcpy_s1+1 
	MOVLW       16
	MOVWF       FARG_memcpy_n+0 
	MOVLW       0
	MOVWF       FARG_memcpy_n+1 
	CALL        _memcpy+0, 0
	MOVLW       1
	MOVWF       _LCDUpdateFlag+0 
	MOVLW       1
	MOVWF       _LCDLines+0 
L_State7243:
;FirmV_0_7_0.c,1095 :: 		if((State==5)||(State==6))
	MOVF        _State+0, 0 
	XORLW       5
	BTFSC       STATUS+0, 2 
	GOTO        L__State7708
	MOVF        _State+0, 0 
	XORLW       6
	BTFSC       STATUS+0, 2 
	GOTO        L__State7708
	GOTO        L_State7246
L__State7708:
;FirmV_0_7_0.c,1096 :: 		{ClearTasks(0);if(AutoCloseTime!=0){AddTask(ms500+AutoCloseTime,9);Logger("S7 Autoclose Renewed");memcpy(LCDLine2,_autoclose,16);LCDUpdateFlag=1;LCDLines=2;}}
	CLRF        FARG_ClearTasks+0 
	CALL        _ClearTasks+0, 0
	MOVLW       0
	XORWF       _AutoCloseTime+1, 0 
	BTFSS       STATUS+0, 2 
	GOTO        L__State7791
	MOVLW       0
	XORWF       _AutoCloseTime+0, 0 
L__State7791:
	BTFSC       STATUS+0, 2 
	GOTO        L_State7247
	MOVF        _AutoCloseTime+0, 0 
	ADDWF       _ms500+0, 0 
	MOVWF       FARG_AddTask+0 
	MOVF        _AutoCloseTime+1, 0 
	ADDWFC      _ms500+1, 0 
	MOVWF       FARG_AddTask+1 
	MOVLW       0
	ADDWFC      _ms500+2, 0 
	MOVWF       FARG_AddTask+2 
	MOVLW       0
	ADDWFC      _ms500+3, 0 
	MOVWF       FARG_AddTask+3 
	MOVLW       9
	MOVWF       FARG_AddTask+0 
	CALL        _AddTask+0, 0
	MOVLW       ?ICS?lstr55_FirmV_0_7_0+0
	MOVWF       TBLPTRL 
	MOVLW       hi_addr(?ICS?lstr55_FirmV_0_7_0+0)
	MOVWF       TBLPTRH 
	MOVLW       higher_addr(?ICS?lstr55_FirmV_0_7_0+0)
	MOVWF       TBLPTRU 
	MOVLW       ?lstr55_FirmV_0_7_0+0
	MOVWF       FSR1L 
	MOVLW       hi_addr(?lstr55_FirmV_0_7_0+0)
	MOVWF       FSR1H 
	MOVLW       21
	MOVWF       R0 
	MOVLW       1
	MOVWF       R1 
	CALL        ___CC2DW+0, 0
	MOVLW       ?lstr55_FirmV_0_7_0+0
	MOVWF       FARG_Logger_text+0 
	MOVLW       hi_addr(?lstr55_FirmV_0_7_0+0)
	MOVWF       FARG_Logger_text+1 
	CALL        _Logger+0, 0
	MOVLW       _LCDLine2+0
	MOVWF       FARG_memcpy_d1+0 
	MOVLW       hi_addr(_LCDLine2+0)
	MOVWF       FARG_memcpy_d1+1 
	MOVLW       __autoclose+0
	MOVWF       FARG_memcpy_s1+0 
	MOVLW       hi_addr(__autoclose+0)
	MOVWF       FARG_memcpy_s1+1 
	MOVLW       16
	MOVWF       FARG_memcpy_n+0 
	MOVLW       0
	MOVWF       FARG_memcpy_n+1 
	CALL        _memcpy+0, 0
	MOVLW       1
	MOVWF       _LCDUpdateFlag+0 
	MOVLW       2
	MOVWF       _LCDLines+0 
L_State7247:
L_State7246:
;FirmV_0_7_0.c,1099 :: 		}
	RETURN      0
; end of _State7

_State8:

;FirmV_0_7_0.c,1116 :: 		void State8()
;FirmV_0_7_0.c,1118 :: 		Flasher=1;
	BSF         PORTD+0, 7 
;FirmV_0_7_0.c,1120 :: 		if(CheckTask(1))
	MOVLW       1
	MOVWF       FARG_CheckTask+0 
	CALL        _CheckTask+0, 0
	MOVF        R0, 1 
	BTFSC       STATUS+0, 2 
	GOTO        L_State8248
;FirmV_0_7_0.c,1121 :: 		{StartMotor(1,_Open);Logger("S8 Motor1Start"); Lock=0;memcpy(LCDLine1,_opening,16);memcpy(LCDLine2,_Blank,16);LCDUpdateFlag=1;LCDLines=1;}
	MOVLW       1
	MOVWF       FARG_StartMotor+0 
	MOVLW       1
	MOVWF       FARG_StartMotor+0 
	CALL        _StartMotor+0, 0
	MOVLW       83
	MOVWF       ?lstr56_FirmV_0_7_0+0 
	MOVLW       56
	MOVWF       ?lstr56_FirmV_0_7_0+1 
	MOVLW       32
	MOVWF       ?lstr56_FirmV_0_7_0+2 
	MOVLW       77
	MOVWF       ?lstr56_FirmV_0_7_0+3 
	MOVLW       111
	MOVWF       ?lstr56_FirmV_0_7_0+4 
	MOVLW       116
	MOVWF       ?lstr56_FirmV_0_7_0+5 
	MOVLW       111
	MOVWF       ?lstr56_FirmV_0_7_0+6 
	MOVLW       114
	MOVWF       ?lstr56_FirmV_0_7_0+7 
	MOVLW       49
	MOVWF       ?lstr56_FirmV_0_7_0+8 
	MOVLW       83
	MOVWF       ?lstr56_FirmV_0_7_0+9 
	MOVLW       116
	MOVWF       ?lstr56_FirmV_0_7_0+10 
	MOVLW       97
	MOVWF       ?lstr56_FirmV_0_7_0+11 
	MOVLW       114
	MOVWF       ?lstr56_FirmV_0_7_0+12 
	MOVLW       116
	MOVWF       ?lstr56_FirmV_0_7_0+13 
	CLRF        ?lstr56_FirmV_0_7_0+14 
	MOVLW       ?lstr56_FirmV_0_7_0+0
	MOVWF       FARG_Logger_text+0 
	MOVLW       hi_addr(?lstr56_FirmV_0_7_0+0)
	MOVWF       FARG_Logger_text+1 
	CALL        _Logger+0, 0
	BCF         PORTD+0, 6 
	MOVLW       _LCDLine1+0
	MOVWF       FARG_memcpy_d1+0 
	MOVLW       hi_addr(_LCDLine1+0)
	MOVWF       FARG_memcpy_d1+1 
	MOVLW       __opening+0
	MOVWF       FARG_memcpy_s1+0 
	MOVLW       hi_addr(__opening+0)
	MOVWF       FARG_memcpy_s1+1 
	MOVLW       16
	MOVWF       FARG_memcpy_n+0 
	MOVLW       0
	MOVWF       FARG_memcpy_n+1 
	CALL        _memcpy+0, 0
	MOVLW       _LCDLine2+0
	MOVWF       FARG_memcpy_d1+0 
	MOVLW       hi_addr(_LCDLine2+0)
	MOVWF       FARG_memcpy_d1+1 
	MOVLW       __Blank+0
	MOVWF       FARG_memcpy_s1+0 
	MOVLW       hi_addr(__Blank+0)
	MOVWF       FARG_memcpy_s1+1 
	MOVLW       16
	MOVWF       FARG_memcpy_n+0 
	MOVLW       0
	MOVWF       FARG_memcpy_n+1 
	CALL        _memcpy+0, 0
	MOVLW       1
	MOVWF       _LCDUpdateFlag+0 
	MOVLW       1
	MOVWF       _LCDLines+0 
L_State8248:
;FirmV_0_7_0.c,1123 :: 		if(CheckTask(2))
	MOVLW       2
	MOVWF       FARG_CheckTask+0 
	CALL        _CheckTask+0, 0
	MOVF        R0, 1 
	BTFSC       STATUS+0, 2 
	GOTO        L_State8249
;FirmV_0_7_0.c,1124 :: 		{StartMotor(2,_Open);Logger("S8 Motor2Start"); Lock=0;}
	MOVLW       2
	MOVWF       FARG_StartMotor+0 
	MOVLW       1
	MOVWF       FARG_StartMotor+0 
	CALL        _StartMotor+0, 0
	MOVLW       83
	MOVWF       ?lstr57_FirmV_0_7_0+0 
	MOVLW       56
	MOVWF       ?lstr57_FirmV_0_7_0+1 
	MOVLW       32
	MOVWF       ?lstr57_FirmV_0_7_0+2 
	MOVLW       77
	MOVWF       ?lstr57_FirmV_0_7_0+3 
	MOVLW       111
	MOVWF       ?lstr57_FirmV_0_7_0+4 
	MOVLW       116
	MOVWF       ?lstr57_FirmV_0_7_0+5 
	MOVLW       111
	MOVWF       ?lstr57_FirmV_0_7_0+6 
	MOVLW       114
	MOVWF       ?lstr57_FirmV_0_7_0+7 
	MOVLW       50
	MOVWF       ?lstr57_FirmV_0_7_0+8 
	MOVLW       83
	MOVWF       ?lstr57_FirmV_0_7_0+9 
	MOVLW       116
	MOVWF       ?lstr57_FirmV_0_7_0+10 
	MOVLW       97
	MOVWF       ?lstr57_FirmV_0_7_0+11 
	MOVLW       114
	MOVWF       ?lstr57_FirmV_0_7_0+12 
	MOVLW       116
	MOVWF       ?lstr57_FirmV_0_7_0+13 
	CLRF        ?lstr57_FirmV_0_7_0+14 
	MOVLW       ?lstr57_FirmV_0_7_0+0
	MOVWF       FARG_Logger_text+0 
	MOVLW       hi_addr(?lstr57_FirmV_0_7_0+0)
	MOVWF       FARG_Logger_text+1 
	CALL        _Logger+0, 0
	BCF         PORTD+0, 6 
L_State8249:
;FirmV_0_7_0.c,1126 :: 		if(CheckTask(10))
	MOVLW       10
	MOVWF       FARG_CheckTask+0 
	CALL        _CheckTask+0, 0
	MOVF        R0, 1 
	BTFSC       STATUS+0, 2 
	GOTO        L_State8250
;FirmV_0_7_0.c,1127 :: 		{OverloadCheckFlag1=1; OverloadInit(1);Logger("S8 Overflow Flag1 Set");}
	MOVLW       1
	MOVWF       _OverloadCheckFlag1+0 
	MOVLW       1
	MOVWF       FARG_OverloadInit+0 
	CALL        _OverloadInit+0, 0
	MOVLW       ?ICS?lstr58_FirmV_0_7_0+0
	MOVWF       TBLPTRL 
	MOVLW       hi_addr(?ICS?lstr58_FirmV_0_7_0+0)
	MOVWF       TBLPTRH 
	MOVLW       higher_addr(?ICS?lstr58_FirmV_0_7_0+0)
	MOVWF       TBLPTRU 
	MOVLW       ?lstr58_FirmV_0_7_0+0
	MOVWF       FSR1L 
	MOVLW       hi_addr(?lstr58_FirmV_0_7_0+0)
	MOVWF       FSR1H 
	MOVLW       22
	MOVWF       R0 
	MOVLW       1
	MOVWF       R1 
	CALL        ___CC2DW+0, 0
	MOVLW       ?lstr58_FirmV_0_7_0+0
	MOVWF       FARG_Logger_text+0 
	MOVLW       hi_addr(?lstr58_FirmV_0_7_0+0)
	MOVWF       FARG_Logger_text+1 
	CALL        _Logger+0, 0
L_State8250:
;FirmV_0_7_0.c,1129 :: 		if(CheckTask(11))
	MOVLW       11
	MOVWF       FARG_CheckTask+0 
	CALL        _CheckTask+0, 0
	MOVF        R0, 1 
	BTFSC       STATUS+0, 2 
	GOTO        L_State8251
;FirmV_0_7_0.c,1130 :: 		{OverloadCheckFlag2=1; OverloadInit(2);Logger("S8 Overflow Flag2 Set");}
	MOVLW       1
	MOVWF       _OverloadCheckFlag2+0 
	MOVLW       2
	MOVWF       FARG_OverloadInit+0 
	CALL        _OverloadInit+0, 0
	MOVLW       ?ICS?lstr59_FirmV_0_7_0+0
	MOVWF       TBLPTRL 
	MOVLW       hi_addr(?ICS?lstr59_FirmV_0_7_0+0)
	MOVWF       TBLPTRH 
	MOVLW       higher_addr(?ICS?lstr59_FirmV_0_7_0+0)
	MOVWF       TBLPTRU 
	MOVLW       ?lstr59_FirmV_0_7_0+0
	MOVWF       FSR1L 
	MOVLW       hi_addr(?lstr59_FirmV_0_7_0+0)
	MOVWF       FSR1H 
	MOVLW       22
	MOVWF       R0 
	MOVLW       1
	MOVWF       R1 
	CALL        ___CC2DW+0, 0
	MOVLW       ?lstr59_FirmV_0_7_0+0
	MOVWF       FARG_Logger_text+0 
	MOVLW       hi_addr(?lstr59_FirmV_0_7_0+0)
	MOVWF       FARG_Logger_text+1 
	CALL        _Logger+0, 0
L_State8251:
;FirmV_0_7_0.c,1132 :: 		if(CheckTask(5))
	MOVLW       5
	MOVWF       FARG_CheckTask+0 
	CALL        _CheckTask+0, 0
	MOVF        R0, 1 
	BTFSC       STATUS+0, 2 
	GOTO        L_State8252
;FirmV_0_7_0.c,1133 :: 		{SetMotorSpeed(1,Motor2FullSpeed); M1isSlow=0;Logger("S8 Motor1 Fast");}
	MOVLW       1
	MOVWF       FARG_SetMotorSpeed+0 
	MOVF        _Motor2FullSpeed+0, 0 
	MOVWF       FARG_SetMotorSpeed+0 
	CALL        _SetMotorSpeed+0, 0
	CLRF        _M1isSlow+0 
	MOVLW       83
	MOVWF       ?lstr60_FirmV_0_7_0+0 
	MOVLW       56
	MOVWF       ?lstr60_FirmV_0_7_0+1 
	MOVLW       32
	MOVWF       ?lstr60_FirmV_0_7_0+2 
	MOVLW       77
	MOVWF       ?lstr60_FirmV_0_7_0+3 
	MOVLW       111
	MOVWF       ?lstr60_FirmV_0_7_0+4 
	MOVLW       116
	MOVWF       ?lstr60_FirmV_0_7_0+5 
	MOVLW       111
	MOVWF       ?lstr60_FirmV_0_7_0+6 
	MOVLW       114
	MOVWF       ?lstr60_FirmV_0_7_0+7 
	MOVLW       49
	MOVWF       ?lstr60_FirmV_0_7_0+8 
	MOVLW       32
	MOVWF       ?lstr60_FirmV_0_7_0+9 
	MOVLW       70
	MOVWF       ?lstr60_FirmV_0_7_0+10 
	MOVLW       97
	MOVWF       ?lstr60_FirmV_0_7_0+11 
	MOVLW       115
	MOVWF       ?lstr60_FirmV_0_7_0+12 
	MOVLW       116
	MOVWF       ?lstr60_FirmV_0_7_0+13 
	CLRF        ?lstr60_FirmV_0_7_0+14 
	MOVLW       ?lstr60_FirmV_0_7_0+0
	MOVWF       FARG_Logger_text+0 
	MOVLW       hi_addr(?lstr60_FirmV_0_7_0+0)
	MOVWF       FARG_Logger_text+1 
	CALL        _Logger+0, 0
L_State8252:
;FirmV_0_7_0.c,1135 :: 		if(CheckTask(6))
	MOVLW       6
	MOVWF       FARG_CheckTask+0 
	CALL        _CheckTask+0, 0
	MOVF        R0, 1 
	BTFSC       STATUS+0, 2 
	GOTO        L_State8253
;FirmV_0_7_0.c,1136 :: 		{SetMotorSpeed(Motor1FullSpeed,1); M2isSlow=0;Logger("S8 Motor2 Fast");}
	MOVF        _Motor1FullSpeed+0, 0 
	MOVWF       FARG_SetMotorSpeed+0 
	MOVLW       1
	MOVWF       FARG_SetMotorSpeed+0 
	CALL        _SetMotorSpeed+0, 0
	CLRF        _M2isSlow+0 
	MOVLW       83
	MOVWF       ?lstr61_FirmV_0_7_0+0 
	MOVLW       56
	MOVWF       ?lstr61_FirmV_0_7_0+1 
	MOVLW       32
	MOVWF       ?lstr61_FirmV_0_7_0+2 
	MOVLW       77
	MOVWF       ?lstr61_FirmV_0_7_0+3 
	MOVLW       111
	MOVWF       ?lstr61_FirmV_0_7_0+4 
	MOVLW       116
	MOVWF       ?lstr61_FirmV_0_7_0+5 
	MOVLW       111
	MOVWF       ?lstr61_FirmV_0_7_0+6 
	MOVLW       114
	MOVWF       ?lstr61_FirmV_0_7_0+7 
	MOVLW       50
	MOVWF       ?lstr61_FirmV_0_7_0+8 
	MOVLW       32
	MOVWF       ?lstr61_FirmV_0_7_0+9 
	MOVLW       70
	MOVWF       ?lstr61_FirmV_0_7_0+10 
	MOVLW       97
	MOVWF       ?lstr61_FirmV_0_7_0+11 
	MOVLW       115
	MOVWF       ?lstr61_FirmV_0_7_0+12 
	MOVLW       116
	MOVWF       ?lstr61_FirmV_0_7_0+13 
	CLRF        ?lstr61_FirmV_0_7_0+14 
	MOVLW       ?lstr61_FirmV_0_7_0+0
	MOVWF       FARG_Logger_text+0 
	MOVLW       hi_addr(?lstr61_FirmV_0_7_0+0)
	MOVWF       FARG_Logger_text+1 
	CALL        _Logger+0, 0
L_State8253:
;FirmV_0_7_0.c,1138 :: 		if((CheckTask(3)||((OverloadCheckFlag1==1)&&(Events.Overload.b0==1)))&&(OpenDone.b0))
	MOVLW       3
	MOVWF       FARG_CheckTask+0 
	CALL        _CheckTask+0, 0
	MOVF        R0, 1 
	BTFSS       STATUS+0, 2 
	GOTO        L__State8725
	MOVF        _OverloadCheckFlag1+0, 0 
	XORLW       1
	BTFSS       STATUS+0, 2 
	GOTO        L__State8726
	BTFSS       _Events+5, 0 
	GOTO        L__State8726
	GOTO        L__State8725
L__State8726:
	GOTO        L_State8260
L__State8725:
	BTFSS       _OpenDone+0, 0 
	GOTO        L_State8260
L__State8724:
;FirmV_0_7_0.c,1139 :: 		{OpenDone.b0=0; StopMotor(1);Logger("S8 Motor1 Stop");}
	BCF         _OpenDone+0, 0 
	MOVLW       1
	MOVWF       FARG_StopMotor+0 
	CALL        _StopMotor+0, 0
	MOVLW       83
	MOVWF       ?lstr62_FirmV_0_7_0+0 
	MOVLW       56
	MOVWF       ?lstr62_FirmV_0_7_0+1 
	MOVLW       32
	MOVWF       ?lstr62_FirmV_0_7_0+2 
	MOVLW       77
	MOVWF       ?lstr62_FirmV_0_7_0+3 
	MOVLW       111
	MOVWF       ?lstr62_FirmV_0_7_0+4 
	MOVLW       116
	MOVWF       ?lstr62_FirmV_0_7_0+5 
	MOVLW       111
	MOVWF       ?lstr62_FirmV_0_7_0+6 
	MOVLW       114
	MOVWF       ?lstr62_FirmV_0_7_0+7 
	MOVLW       49
	MOVWF       ?lstr62_FirmV_0_7_0+8 
	MOVLW       32
	MOVWF       ?lstr62_FirmV_0_7_0+9 
	MOVLW       83
	MOVWF       ?lstr62_FirmV_0_7_0+10 
	MOVLW       116
	MOVWF       ?lstr62_FirmV_0_7_0+11 
	MOVLW       111
	MOVWF       ?lstr62_FirmV_0_7_0+12 
	MOVLW       112
	MOVWF       ?lstr62_FirmV_0_7_0+13 
	CLRF        ?lstr62_FirmV_0_7_0+14 
	MOVLW       ?lstr62_FirmV_0_7_0+0
	MOVWF       FARG_Logger_text+0 
	MOVLW       hi_addr(?lstr62_FirmV_0_7_0+0)
	MOVWF       FARG_Logger_text+1 
	CALL        _Logger+0, 0
L_State8260:
;FirmV_0_7_0.c,1141 :: 		if((CheckTask(4)||((OverloadCheckFlag2==1)&&(Events.Overload.b1==1)))&&(OpenDone.b1))
	MOVLW       4
	MOVWF       FARG_CheckTask+0 
	CALL        _CheckTask+0, 0
	MOVF        R0, 1 
	BTFSS       STATUS+0, 2 
	GOTO        L__State8722
	MOVF        _OverloadCheckFlag2+0, 0 
	XORLW       1
	BTFSS       STATUS+0, 2 
	GOTO        L__State8723
	BTFSS       _Events+5, 1 
	GOTO        L__State8723
	GOTO        L__State8722
L__State8723:
	GOTO        L_State8267
L__State8722:
	BTFSS       _OpenDone+0, 1 
	GOTO        L_State8267
L__State8721:
;FirmV_0_7_0.c,1142 :: 		{OpenDone.b1=0; StopMotor(2);Logger("S8 Motor2 Stop");}
	BCF         _OpenDone+0, 1 
	MOVLW       2
	MOVWF       FARG_StopMotor+0 
	CALL        _StopMotor+0, 0
	MOVLW       83
	MOVWF       ?lstr63_FirmV_0_7_0+0 
	MOVLW       56
	MOVWF       ?lstr63_FirmV_0_7_0+1 
	MOVLW       32
	MOVWF       ?lstr63_FirmV_0_7_0+2 
	MOVLW       77
	MOVWF       ?lstr63_FirmV_0_7_0+3 
	MOVLW       111
	MOVWF       ?lstr63_FirmV_0_7_0+4 
	MOVLW       116
	MOVWF       ?lstr63_FirmV_0_7_0+5 
	MOVLW       111
	MOVWF       ?lstr63_FirmV_0_7_0+6 
	MOVLW       114
	MOVWF       ?lstr63_FirmV_0_7_0+7 
	MOVLW       50
	MOVWF       ?lstr63_FirmV_0_7_0+8 
	MOVLW       32
	MOVWF       ?lstr63_FirmV_0_7_0+9 
	MOVLW       83
	MOVWF       ?lstr63_FirmV_0_7_0+10 
	MOVLW       116
	MOVWF       ?lstr63_FirmV_0_7_0+11 
	MOVLW       111
	MOVWF       ?lstr63_FirmV_0_7_0+12 
	MOVLW       112
	MOVWF       ?lstr63_FirmV_0_7_0+13 
	CLRF        ?lstr63_FirmV_0_7_0+14 
	MOVLW       ?lstr63_FirmV_0_7_0+0
	MOVWF       FARG_Logger_text+0 
	MOVLW       hi_addr(?lstr63_FirmV_0_7_0+0)
	MOVWF       FARG_Logger_text+1 
	CALL        _Logger+0, 0
L_State8267:
;FirmV_0_7_0.c,1144 :: 		if(CheckTask(12))
	MOVLW       12
	MOVWF       FARG_CheckTask+0 
	CALL        _CheckTask+0, 0
	MOVF        R0, 1 
	BTFSC       STATUS+0, 2 
	GOTO        L_State8268
;FirmV_0_7_0.c,1145 :: 		{Lock=1;}
	BSF         PORTD+0, 6 
L_State8268:
;FirmV_0_7_0.c,1147 :: 		if((Door2OpenTime==0)||(ActiveDoors==1))
	MOVF        _Door2OpenTime+0, 0 
	XORLW       0
	BTFSC       STATUS+0, 2 
	GOTO        L__State8720
	MOVF        _ActiveDoors+0, 0 
	XORLW       1
	BTFSC       STATUS+0, 2 
	GOTO        L__State8720
	GOTO        L_State8271
L__State8720:
;FirmV_0_7_0.c,1148 :: 		OpenDone.b1=0;
	BCF         _OpenDone+0, 1 
L_State8271:
;FirmV_0_7_0.c,1150 :: 		if((Events.Photocell.b0==1)&&(OpenPhEnable))
	BTFSS       _Events+6, 0 
	GOTO        L_State8274
	MOVF        _OpenPhEnable+0, 1 
	BTFSC       STATUS+0, 2 
	GOTO        L_State8274
L__State8719:
;FirmV_0_7_0.c,1151 :: 		{StopMotor(1); StopMotor(2);OverloadCheckFlag1=0;OverloadCheckFlag2=0; State=5;Logger("S8 Photocell Int");ClearTasks(9);
	MOVLW       1
	MOVWF       FARG_StopMotor+0 
	CALL        _StopMotor+0, 0
	MOVLW       2
	MOVWF       FARG_StopMotor+0 
	CALL        _StopMotor+0, 0
	CLRF        _OverloadCheckFlag1+0 
	CLRF        _OverloadCheckFlag2+0 
	MOVLW       5
	MOVWF       _State+0 
	MOVLW       ?ICS?lstr64_FirmV_0_7_0+0
	MOVWF       TBLPTRL 
	MOVLW       hi_addr(?ICS?lstr64_FirmV_0_7_0+0)
	MOVWF       TBLPTRH 
	MOVLW       higher_addr(?ICS?lstr64_FirmV_0_7_0+0)
	MOVWF       TBLPTRU 
	MOVLW       ?lstr64_FirmV_0_7_0+0
	MOVWF       FSR1L 
	MOVLW       hi_addr(?lstr64_FirmV_0_7_0+0)
	MOVWF       FSR1H 
	MOVLW       17
	MOVWF       R0 
	MOVLW       1
	MOVWF       R1 
	CALL        ___CC2DW+0, 0
	MOVLW       ?lstr64_FirmV_0_7_0+0
	MOVWF       FARG_Logger_text+0 
	MOVLW       hi_addr(?lstr64_FirmV_0_7_0+0)
	MOVWF       FARG_Logger_text+1 
	CALL        _Logger+0, 0
	MOVLW       9
	MOVWF       FARG_ClearTasks+0 
	CALL        _ClearTasks+0, 0
;FirmV_0_7_0.c,1152 :: 		memcpy(LCDLine1,_stop,16);memcpy(LCDLine2,_ErrPhoto,16);LCDUpdateFlag=1;LCDLines=2;}
	MOVLW       _LCDLine1+0
	MOVWF       FARG_memcpy_d1+0 
	MOVLW       hi_addr(_LCDLine1+0)
	MOVWF       FARG_memcpy_d1+1 
	MOVLW       __stop+0
	MOVWF       FARG_memcpy_s1+0 
	MOVLW       hi_addr(__stop+0)
	MOVWF       FARG_memcpy_s1+1 
	MOVLW       16
	MOVWF       FARG_memcpy_n+0 
	MOVLW       0
	MOVWF       FARG_memcpy_n+1 
	CALL        _memcpy+0, 0
	MOVLW       _LCDLine2+0
	MOVWF       FARG_memcpy_d1+0 
	MOVLW       hi_addr(_LCDLine2+0)
	MOVWF       FARG_memcpy_d1+1 
	MOVLW       __errPhoto+0
	MOVWF       FARG_memcpy_s1+0 
	MOVLW       hi_addr(__errPhoto+0)
	MOVWF       FARG_memcpy_s1+1 
	MOVLW       16
	MOVWF       FARG_memcpy_n+0 
	MOVLW       0
	MOVWF       FARG_memcpy_n+1 
	CALL        _memcpy+0, 0
	MOVLW       1
	MOVWF       _LCDUpdateFlag+0 
	MOVLW       2
	MOVWF       _LCDLines+0 
L_State8274:
;FirmV_0_7_0.c,1154 :: 		if((Events.Remote!=0))
	MOVF        _Events+4, 0 
	XORLW       0
	BTFSC       STATUS+0, 2 
	GOTO        L_State8275
;FirmV_0_7_0.c,1155 :: 		{StopMotor(1); StopMotor(2); State=5;OverloadCheckFlag1=0;OverloadCheckFlag2=0; Logger("S8 Motors Stoped (Remote)");ClearTasks(9);
	MOVLW       1
	MOVWF       FARG_StopMotor+0 
	CALL        _StopMotor+0, 0
	MOVLW       2
	MOVWF       FARG_StopMotor+0 
	CALL        _StopMotor+0, 0
	MOVLW       5
	MOVWF       _State+0 
	CLRF        _OverloadCheckFlag1+0 
	CLRF        _OverloadCheckFlag2+0 
	MOVLW       ?ICS?lstr65_FirmV_0_7_0+0
	MOVWF       TBLPTRL 
	MOVLW       hi_addr(?ICS?lstr65_FirmV_0_7_0+0)
	MOVWF       TBLPTRH 
	MOVLW       higher_addr(?ICS?lstr65_FirmV_0_7_0+0)
	MOVWF       TBLPTRU 
	MOVLW       ?lstr65_FirmV_0_7_0+0
	MOVWF       FSR1L 
	MOVLW       hi_addr(?lstr65_FirmV_0_7_0+0)
	MOVWF       FSR1H 
	MOVLW       26
	MOVWF       R0 
	MOVLW       1
	MOVWF       R1 
	CALL        ___CC2DW+0, 0
	MOVLW       ?lstr65_FirmV_0_7_0+0
	MOVWF       FARG_Logger_text+0 
	MOVLW       hi_addr(?lstr65_FirmV_0_7_0+0)
	MOVWF       FARG_Logger_text+1 
	CALL        _Logger+0, 0
	MOVLW       9
	MOVWF       FARG_ClearTasks+0 
	CALL        _ClearTasks+0, 0
;FirmV_0_7_0.c,1156 :: 		memcpy(LCDLine1,_stop,16);memcpy(LCDLine2,_ErrRemote,16);LCDUpdateFlag=1;LCDLines=2;}
	MOVLW       _LCDLine1+0
	MOVWF       FARG_memcpy_d1+0 
	MOVLW       hi_addr(_LCDLine1+0)
	MOVWF       FARG_memcpy_d1+1 
	MOVLW       __stop+0
	MOVWF       FARG_memcpy_s1+0 
	MOVLW       hi_addr(__stop+0)
	MOVWF       FARG_memcpy_s1+1 
	MOVLW       16
	MOVWF       FARG_memcpy_n+0 
	MOVLW       0
	MOVWF       FARG_memcpy_n+1 
	CALL        _memcpy+0, 0
	MOVLW       _LCDLine2+0
	MOVWF       FARG_memcpy_d1+0 
	MOVLW       hi_addr(_LCDLine2+0)
	MOVWF       FARG_memcpy_d1+1 
	MOVLW       __errRemote+0
	MOVWF       FARG_memcpy_s1+0 
	MOVLW       hi_addr(__errRemote+0)
	MOVWF       FARG_memcpy_s1+1 
	MOVLW       16
	MOVWF       FARG_memcpy_n+0 
	MOVLW       0
	MOVWF       FARG_memcpy_n+1 
	CALL        _memcpy+0, 0
	MOVLW       1
	MOVWF       _LCDUpdateFlag+0 
	MOVLW       2
	MOVWF       _LCDLines+0 
L_State8275:
;FirmV_0_7_0.c,1158 :: 		if((Events.Limiter==1)&&(LimiterEnable))
	MOVF        _Events+7, 0 
	XORLW       1
	BTFSS       STATUS+0, 2 
	GOTO        L_State8278
	MOVF        _LimiterEnable+0, 1 
	BTFSC       STATUS+0, 2 
	GOTO        L_State8278
L__State8718:
;FirmV_0_7_0.c,1159 :: 		{StopMotor(1); StopMotor(2); State=5;OverloadCheckFlag1=0;OverloadCheckFlag2=0; Logger("S8 Limit Switch Stop");ClearTasks(9);
	MOVLW       1
	MOVWF       FARG_StopMotor+0 
	CALL        _StopMotor+0, 0
	MOVLW       2
	MOVWF       FARG_StopMotor+0 
	CALL        _StopMotor+0, 0
	MOVLW       5
	MOVWF       _State+0 
	CLRF        _OverloadCheckFlag1+0 
	CLRF        _OverloadCheckFlag2+0 
	MOVLW       ?ICS?lstr66_FirmV_0_7_0+0
	MOVWF       TBLPTRL 
	MOVLW       hi_addr(?ICS?lstr66_FirmV_0_7_0+0)
	MOVWF       TBLPTRH 
	MOVLW       higher_addr(?ICS?lstr66_FirmV_0_7_0+0)
	MOVWF       TBLPTRU 
	MOVLW       ?lstr66_FirmV_0_7_0+0
	MOVWF       FSR1L 
	MOVLW       hi_addr(?lstr66_FirmV_0_7_0+0)
	MOVWF       FSR1H 
	MOVLW       21
	MOVWF       R0 
	MOVLW       1
	MOVWF       R1 
	CALL        ___CC2DW+0, 0
	MOVLW       ?lstr66_FirmV_0_7_0+0
	MOVWF       FARG_Logger_text+0 
	MOVLW       hi_addr(?lstr66_FirmV_0_7_0+0)
	MOVWF       FARG_Logger_text+1 
	CALL        _Logger+0, 0
	MOVLW       9
	MOVWF       FARG_ClearTasks+0 
	CALL        _ClearTasks+0, 0
;FirmV_0_7_0.c,1160 :: 		memcpy(LCDLine1,_stop,16);memcpy(LCDLine2,_ErrLimit,16);LCDUpdateFlag=1;LCDLines=2;}
	MOVLW       _LCDLine1+0
	MOVWF       FARG_memcpy_d1+0 
	MOVLW       hi_addr(_LCDLine1+0)
	MOVWF       FARG_memcpy_d1+1 
	MOVLW       __stop+0
	MOVWF       FARG_memcpy_s1+0 
	MOVLW       hi_addr(__stop+0)
	MOVWF       FARG_memcpy_s1+1 
	MOVLW       16
	MOVWF       FARG_memcpy_n+0 
	MOVLW       0
	MOVWF       FARG_memcpy_n+1 
	CALL        _memcpy+0, 0
	MOVLW       _LCDLine2+0
	MOVWF       FARG_memcpy_d1+0 
	MOVLW       hi_addr(_LCDLine2+0)
	MOVWF       FARG_memcpy_d1+1 
	MOVLW       __errLimit+0
	MOVWF       FARG_memcpy_s1+0 
	MOVLW       hi_addr(__errLimit+0)
	MOVWF       FARG_memcpy_s1+1 
	MOVLW       16
	MOVWF       FARG_memcpy_n+0 
	MOVLW       0
	MOVWF       FARG_memcpy_n+1 
	CALL        _memcpy+0, 0
	MOVLW       1
	MOVWF       _LCDUpdateFlag+0 
	MOVLW       2
	MOVWF       _LCDLines+0 
L_State8278:
;FirmV_0_7_0.c,1162 :: 		if(OpenDone==0)
	MOVF        _OpenDone+0, 0 
	XORLW       0
	BTFSS       STATUS+0, 2 
	GOTO        L_State8279
;FirmV_0_7_0.c,1163 :: 		{State=2; PassFlag=0;ClearTasks(9);memcpy(LCDLine1,_open,16);memcpy(LCDLine2,_Blank,16);LCDUpdateFlag=1;LCDLines=1;}
	MOVLW       2
	MOVWF       _State+0 
	CLRF        _PassFlag+0 
	MOVLW       9
	MOVWF       FARG_ClearTasks+0 
	CALL        _ClearTasks+0, 0
	MOVLW       _LCDLine1+0
	MOVWF       FARG_memcpy_d1+0 
	MOVLW       hi_addr(_LCDLine1+0)
	MOVWF       FARG_memcpy_d1+1 
	MOVLW       __open+0
	MOVWF       FARG_memcpy_s1+0 
	MOVLW       hi_addr(__open+0)
	MOVWF       FARG_memcpy_s1+1 
	MOVLW       16
	MOVWF       FARG_memcpy_n+0 
	MOVLW       0
	MOVWF       FARG_memcpy_n+1 
	CALL        _memcpy+0, 0
	MOVLW       _LCDLine2+0
	MOVWF       FARG_memcpy_d1+0 
	MOVLW       hi_addr(_LCDLine2+0)
	MOVWF       FARG_memcpy_d1+1 
	MOVLW       __Blank+0
	MOVWF       FARG_memcpy_s1+0 
	MOVLW       hi_addr(__Blank+0)
	MOVWF       FARG_memcpy_s1+1 
	MOVLW       16
	MOVWF       FARG_memcpy_n+0 
	MOVLW       0
	MOVWF       FARG_memcpy_n+1 
	CALL        _memcpy+0, 0
	MOVLW       1
	MOVWF       _LCDUpdateFlag+0 
	MOVLW       1
	MOVWF       _LCDLines+0 
L_State8279:
;FirmV_0_7_0.c,1165 :: 		if((State==5)||(State==6))
	MOVF        _State+0, 0 
	XORLW       5
	BTFSC       STATUS+0, 2 
	GOTO        L__State8717
	MOVF        _State+0, 0 
	XORLW       6
	BTFSC       STATUS+0, 2 
	GOTO        L__State8717
	GOTO        L_State8282
L__State8717:
;FirmV_0_7_0.c,1166 :: 		{ClearTasks(0);if(AutoCloseTime!=0){AddTask(ms500+AutoCloseTime,9);Logger("S8 Autoclose Renewed");memcpy(LCDLine2,_autoclose,16);LCDUpdateFlag=1;LCDLines=2;}}
	CLRF        FARG_ClearTasks+0 
	CALL        _ClearTasks+0, 0
	MOVLW       0
	XORWF       _AutoCloseTime+1, 0 
	BTFSS       STATUS+0, 2 
	GOTO        L__State8792
	MOVLW       0
	XORWF       _AutoCloseTime+0, 0 
L__State8792:
	BTFSC       STATUS+0, 2 
	GOTO        L_State8283
	MOVF        _AutoCloseTime+0, 0 
	ADDWF       _ms500+0, 0 
	MOVWF       FARG_AddTask+0 
	MOVF        _AutoCloseTime+1, 0 
	ADDWFC      _ms500+1, 0 
	MOVWF       FARG_AddTask+1 
	MOVLW       0
	ADDWFC      _ms500+2, 0 
	MOVWF       FARG_AddTask+2 
	MOVLW       0
	ADDWFC      _ms500+3, 0 
	MOVWF       FARG_AddTask+3 
	MOVLW       9
	MOVWF       FARG_AddTask+0 
	CALL        _AddTask+0, 0
	MOVLW       ?ICS?lstr67_FirmV_0_7_0+0
	MOVWF       TBLPTRL 
	MOVLW       hi_addr(?ICS?lstr67_FirmV_0_7_0+0)
	MOVWF       TBLPTRH 
	MOVLW       higher_addr(?ICS?lstr67_FirmV_0_7_0+0)
	MOVWF       TBLPTRU 
	MOVLW       ?lstr67_FirmV_0_7_0+0
	MOVWF       FSR1L 
	MOVLW       hi_addr(?lstr67_FirmV_0_7_0+0)
	MOVWF       FSR1H 
	MOVLW       21
	MOVWF       R0 
	MOVLW       1
	MOVWF       R1 
	CALL        ___CC2DW+0, 0
	MOVLW       ?lstr67_FirmV_0_7_0+0
	MOVWF       FARG_Logger_text+0 
	MOVLW       hi_addr(?lstr67_FirmV_0_7_0+0)
	MOVWF       FARG_Logger_text+1 
	CALL        _Logger+0, 0
	MOVLW       _LCDLine2+0
	MOVWF       FARG_memcpy_d1+0 
	MOVLW       hi_addr(_LCDLine2+0)
	MOVWF       FARG_memcpy_d1+1 
	MOVLW       __autoclose+0
	MOVWF       FARG_memcpy_s1+0 
	MOVLW       hi_addr(__autoclose+0)
	MOVWF       FARG_memcpy_s1+1 
	MOVLW       16
	MOVWF       FARG_memcpy_n+0 
	MOVLW       0
	MOVWF       FARG_memcpy_n+1 
	CALL        _memcpy+0, 0
	MOVLW       1
	MOVWF       _LCDUpdateFlag+0 
	MOVLW       2
	MOVWF       _LCDLines+0 
L_State8283:
L_State8282:
;FirmV_0_7_0.c,1169 :: 		}
	RETURN      0
; end of _State8

_LCDUpdater:

;FirmV_0_7_0.c,1178 :: 		void LCDUpdater()
;FirmV_0_7_0.c,1183 :: 		if(LCDUpdateFlag==1)
	MOVF        _LCDUpdateFlag+0, 0 
	XORLW       1
	BTFSS       STATUS+0, 2 
	GOTO        L_LCDUpdater284
;FirmV_0_7_0.c,1185 :: 		if(LCDLines!=line)
	MOVF        _LCDLines+0, 0 
	XORWF       LCDUpdater_line_L0+0, 0 
	BTFSC       STATUS+0, 2 
	GOTO        L_LCDUpdater285
;FirmV_0_7_0.c,1187 :: 		line=LCDLines;
	MOVF        _LCDLines+0, 0 
	MOVWF       LCDUpdater_line_L0+0 
;FirmV_0_7_0.c,1188 :: 		LCD_init(LCDLines);
	MOVF        _LCDLines+0, 0 
	MOVWF       FARG_LCD_Init+0 
	CALL        _LCD_Init+0, 0
;FirmV_0_7_0.c,1189 :: 		delay_ms(50);
	MOVLW       3
	MOVWF       R11, 0
	MOVLW       138
	MOVWF       R12, 0
	MOVLW       85
	MOVWF       R13, 0
L_LCDUpdater286:
	DECFSZ      R13, 1, 0
	BRA         L_LCDUpdater286
	DECFSZ      R12, 1, 0
	BRA         L_LCDUpdater286
	DECFSZ      R11, 1, 0
	BRA         L_LCDUpdater286
	NOP
	NOP
;FirmV_0_7_0.c,1190 :: 		}
L_LCDUpdater285:
;FirmV_0_7_0.c,1191 :: 		lcd_out(1,0,LCDLine1);
	MOVLW       1
	MOVWF       FARG_LCD_out+0 
	CLRF        FARG_LCD_out+0 
	MOVLW       _LCDLine1+0
	MOVWF       FARG_LCD_out+0 
	MOVLW       hi_addr(_LCDLine1+0)
	MOVWF       FARG_LCD_out+1 
	CALL        _LCD_out+0, 0
;FirmV_0_7_0.c,1192 :: 		if(!LCDFlash)
	MOVF        _LCDFlash+0, 1 
	BTFSS       STATUS+0, 2 
	GOTO        L_LCDUpdater287
;FirmV_0_7_0.c,1193 :: 		lcd_out(2,0,LCDLine2);
	MOVLW       2
	MOVWF       FARG_LCD_out+0 
	CLRF        FARG_LCD_out+0 
	MOVLW       _LCDLine2+0
	MOVWF       FARG_LCD_out+0 
	MOVLW       hi_addr(_LCDLine2+0)
	MOVWF       FARG_LCD_out+1 
	CALL        _LCD_out+0, 0
L_LCDUpdater287:
;FirmV_0_7_0.c,1194 :: 		LCDUpdateFlag=0;
	CLRF        _LCDUpdateFlag+0 
;FirmV_0_7_0.c,1195 :: 		}
L_LCDUpdater284:
;FirmV_0_7_0.c,1197 :: 		if(LCDFlash)
	MOVF        _LCDFlash+0, 1 
	BTFSC       STATUS+0, 2 
	GOTO        L_LCDUpdater288
;FirmV_0_7_0.c,1199 :: 		if((LCDFlashFlag)&&(LastLCDFlashState==0))
	MOVF        _LCDFlashFlag+0, 1 
	BTFSC       STATUS+0, 2 
	GOTO        L_LCDUpdater291
	MOVF        LCDUpdater_LastLCDFlashState_L0+0, 0 
	XORLW       0
	BTFSS       STATUS+0, 2 
	GOTO        L_LCDUpdater291
L__LCDUpdater728:
;FirmV_0_7_0.c,1200 :: 		{memcpy(LCDLineTemp,LCDLine2,16);LCDLineTemp[0]='>';LCDLineTemp[1]='>';LCDLineTemp[2]='>';LCDLineTemp[13]='<';LCDLineTemp[14]='<';LCDLineTemp[15]='<';lcd_out(2,0,LCDLineTemp);LastLCDFlashState=1;}
	MOVLW       LCDUpdater_LCDLineTemp_L0+0
	MOVWF       FARG_memcpy_d1+0 
	MOVLW       hi_addr(LCDUpdater_LCDLineTemp_L0+0)
	MOVWF       FARG_memcpy_d1+1 
	MOVLW       _LCDLine2+0
	MOVWF       FARG_memcpy_s1+0 
	MOVLW       hi_addr(_LCDLine2+0)
	MOVWF       FARG_memcpy_s1+1 
	MOVLW       16
	MOVWF       FARG_memcpy_n+0 
	MOVLW       0
	MOVWF       FARG_memcpy_n+1 
	CALL        _memcpy+0, 0
	MOVLW       62
	MOVWF       LCDUpdater_LCDLineTemp_L0+0 
	MOVLW       62
	MOVWF       LCDUpdater_LCDLineTemp_L0+1 
	MOVLW       62
	MOVWF       LCDUpdater_LCDLineTemp_L0+2 
	MOVLW       60
	MOVWF       LCDUpdater_LCDLineTemp_L0+13 
	MOVLW       60
	MOVWF       LCDUpdater_LCDLineTemp_L0+14 
	MOVLW       60
	MOVWF       LCDUpdater_LCDLineTemp_L0+15 
	MOVLW       2
	MOVWF       FARG_LCD_out+0 
	CLRF        FARG_LCD_out+0 
	MOVLW       LCDUpdater_LCDLineTemp_L0+0
	MOVWF       FARG_LCD_out+0 
	MOVLW       hi_addr(LCDUpdater_LCDLineTemp_L0+0)
	MOVWF       FARG_LCD_out+1 
	CALL        _LCD_out+0, 0
	MOVLW       1
	MOVWF       LCDUpdater_LastLCDFlashState_L0+0 
L_LCDUpdater291:
;FirmV_0_7_0.c,1201 :: 		if((!LCDFlashFlag)&&(LastLCDFlashState!=0))
	MOVF        _LCDFlashFlag+0, 1 
	BTFSS       STATUS+0, 2 
	GOTO        L_LCDUpdater294
	MOVF        LCDUpdater_LastLCDFlashState_L0+0, 0 
	XORLW       0
	BTFSC       STATUS+0, 2 
	GOTO        L_LCDUpdater294
L__LCDUpdater727:
;FirmV_0_7_0.c,1202 :: 		{lcd_out(2,0,LCDLine2);LastLCDFlashState=0;}
	MOVLW       2
	MOVWF       FARG_LCD_out+0 
	CLRF        FARG_LCD_out+0 
	MOVLW       _LCDLine2+0
	MOVWF       FARG_LCD_out+0 
	MOVLW       hi_addr(_LCDLine2+0)
	MOVWF       FARG_LCD_out+1 
	CALL        _LCD_out+0, 0
	CLRF        LCDUpdater_LastLCDFlashState_L0+0 
L_LCDUpdater294:
;FirmV_0_7_0.c,1203 :: 		}
L_LCDUpdater288:
;FirmV_0_7_0.c,1206 :: 		}
	RETURN      0
; end of _LCDUpdater

_Init:

;FirmV_0_7_0.c,1226 :: 		void Init()
;FirmV_0_7_0.c,1228 :: 		char i=0;
	CLRF        Init_i_L0+0 
;FirmV_0_7_0.c,1230 :: 		porta=0;
	CLRF        PORTA+0 
;FirmV_0_7_0.c,1231 :: 		portb=0;
	CLRF        PORTB+0 
;FirmV_0_7_0.c,1232 :: 		portc=0;
	CLRF        PORTC+0 
;FirmV_0_7_0.c,1233 :: 		portd=0;
	CLRF        PORTD+0 
;FirmV_0_7_0.c,1234 :: 		porte=0;
	CLRF        PORTE+0 
;FirmV_0_7_0.c,1235 :: 		trisa=0b101111;
	MOVLW       47
	MOVWF       TRISA+0 
;FirmV_0_7_0.c,1236 :: 		trisb=0b10000111;
	MOVLW       135
	MOVWF       TRISB+0 
;FirmV_0_7_0.c,1237 :: 		trisc=0b10000100;
	MOVLW       132
	MOVWF       TRISC+0 
;FirmV_0_7_0.c,1238 :: 		trisd=0b00111111;
	MOVLW       63
	MOVWF       TRISD+0 
;FirmV_0_7_0.c,1239 :: 		trise=0b001;
	MOVLW       1
	MOVWF       TRISE+0 
;FirmV_0_7_0.c,1240 :: 		adcon1=0b0010;  // an6, an5 and an7 is digital
	MOVLW       2
	MOVWF       ADCON1+0 
;FirmV_0_7_0.c,1246 :: 		LCDBackLight=1;
	BSF         PORTA+0, 4 
;FirmV_0_7_0.c,1247 :: 		I2C1_init(100000);
	MOVLW       100
	MOVWF       SSPADD+0 
	CALL        _I2C1_Init+0, 0
;FirmV_0_7_0.c,1249 :: 		delay_ms(100);
	MOVLW       6
	MOVWF       R11, 0
	MOVLW       19
	MOVWF       R12, 0
	MOVLW       173
	MOVWF       R13, 0
L_Init295:
	DECFSZ      R13, 1, 0
	BRA         L_Init295
	DECFSZ      R12, 1, 0
	BRA         L_Init295
	DECFSZ      R11, 1, 0
	BRA         L_Init295
	NOP
	NOP
;FirmV_0_7_0.c,1251 :: 		LCD_init(1);
	MOVLW       1
	MOVWF       FARG_LCD_Init+0 
	CALL        _LCD_Init+0, 0
;FirmV_0_7_0.c,1252 :: 		LCDLines=1;
	MOVLW       1
	MOVWF       _LCDLines+0 
;FirmV_0_7_0.c,1253 :: 		delay_ms(300);
	MOVLW       16
	MOVWF       R11, 0
	MOVLW       57
	MOVWF       R12, 0
	MOVLW       13
	MOVWF       R13, 0
L_Init296:
	DECFSZ      R13, 1, 0
	BRA         L_Init296
	DECFSZ      R12, 1, 0
	BRA         L_Init296
	DECFSZ      R11, 1, 0
	BRA         L_Init296
	NOP
	NOP
;FirmV_0_7_0.c,1254 :: 		SetContrast(20);
	MOVLW       20
	MOVWF       FARG_SetContrast+0 
	CALL        _SetContrast+0, 0
;FirmV_0_7_0.c,1257 :: 		ms500=0;
	CLRF        _ms500+0 
	CLRF        _ms500+1 
	CLRF        _ms500+2 
	CLRF        _ms500+3 
;FirmV_0_7_0.c,1258 :: 		t0con=0b10000101; //enable tmr0 and prescalar
	MOVLW       133
	MOVWF       T0CON+0 
;FirmV_0_7_0.c,1259 :: 		intcon.b7=1;   //global int enable
	BSF         INTCON+0, 7 
;FirmV_0_7_0.c,1260 :: 		intcon.b5=1;  //tmr0 int enable
	BSF         INTCON+0, 5 
;FirmV_0_7_0.c,1261 :: 		intcon.b2=0; //tmr0 flag
	BCF         INTCON+0, 2 
;FirmV_0_7_0.c,1262 :: 		tmr0h=0xF3;
	MOVLW       243
	MOVWF       TMR0H+0 
;FirmV_0_7_0.c,1263 :: 		tmr0l=0xCA;
	MOVLW       202
	MOVWF       TMR0L+0 
;FirmV_0_7_0.c,1266 :: 		INT1IP_bit=1;
	BSF         INT1IP_bit+0, 6 
;FirmV_0_7_0.c,1267 :: 		INT1E_bit=1;
	BSF         INT1E_bit+0, 3 
;FirmV_0_7_0.c,1268 :: 		INT1F_bit=0;
	BCF         INT1F_bit+0, 0 
;FirmV_0_7_0.c,1269 :: 		INT2IP_bit=1;
	BSF         INT2IP_bit+0, 7 
;FirmV_0_7_0.c,1270 :: 		INT2E_bit=1;
	BSF         INT2E_bit+0, 4 
;FirmV_0_7_0.c,1271 :: 		INT2F_bit=0;
	BCF         INT2F_bit+0, 1 
;FirmV_0_7_0.c,1272 :: 		INTEDG1_bit=1;
	BSF         INTEDG1_bit+0, 5 
;FirmV_0_7_0.c,1273 :: 		INTEDG2_bit=1;
	BSF         INTEDG2_bit+0, 4 
;FirmV_0_7_0.c,1276 :: 		INT0F_bit=0;
	BCF         INT0F_bit+0, 1 
;FirmV_0_7_0.c,1277 :: 		INT0E_bit=0;
	BCF         INT0E_bit+0, 4 
;FirmV_0_7_0.c,1280 :: 		for(i=0;i<20;i++)
	CLRF        Init_i_L0+0 
L_Init297:
	MOVLW       20
	SUBWF       Init_i_L0+0, 0 
	BTFSC       STATUS+0, 0 
	GOTO        L_Init298
;FirmV_0_7_0.c,1281 :: 		Tasks[i].Expired=1;
	MOVF        Init_i_L0+0, 0 
	MOVWF       R0 
	MOVLW       0
	MOVWF       R1 
	MOVLW       7
	MOVWF       R4 
	MOVLW       0
	MOVWF       R5 
	CALL        _Mul_16x16_U+0, 0
	MOVLW       _Tasks+0
	ADDWF       R0, 1 
	MOVLW       hi_addr(_Tasks+0)
	ADDWFC      R1, 1 
	MOVLW       5
	ADDWF       R0, 0 
	MOVWF       FSR1L 
	MOVLW       0
	ADDWFC      R1, 0 
	MOVWF       FSR1H 
	MOVLW       1
	MOVWF       POSTINC1+0 
;FirmV_0_7_0.c,1280 :: 		for(i=0;i<20;i++)
	INCF        Init_i_L0+0, 1 
;FirmV_0_7_0.c,1281 :: 		Tasks[i].Expired=1;
	GOTO        L_Init297
L_Init298:
;FirmV_0_7_0.c,1284 :: 		Events.Keys=0;
	CLRF        _Events+0 
;FirmV_0_7_0.c,1285 :: 		Events.Task1=0;
	CLRF        _Events+1 
;FirmV_0_7_0.c,1286 :: 		Events.Task2=0;
	CLRF        _Events+2 
;FirmV_0_7_0.c,1287 :: 		Events.Task3=0;
	CLRF        _Events+3 
;FirmV_0_7_0.c,1288 :: 		Events.Remote=0;
	CLRF        _Events+4 
;FirmV_0_7_0.c,1289 :: 		Events.Overload=0;
	CLRF        _Events+5 
;FirmV_0_7_0.c,1290 :: 		Events.Photocell=0;
	CLRF        _Events+6 
;FirmV_0_7_0.c,1293 :: 		State=0;
	CLRF        _State+0 
;FirmV_0_7_0.c,1296 :: 		UART1_init(115200);
	MOVLW       21
	MOVWF       SPBRG+0 
	BSF         TXSTA+0, 2, 0
	CALL        _UART1_Init+0, 0
;FirmV_0_7_0.c,1299 :: 		LoadConfigs();
	CALL        _LoadConfigs+0, 0
;FirmV_0_7_0.c,1303 :: 		}
	RETURN      0
; end of _Init

_TaskManager:

;FirmV_0_7_0.c,1317 :: 		void TaskManager()
;FirmV_0_7_0.c,1319 :: 		char i=0;
	CLRF        TaskManager_i_L0+0 
;FirmV_0_7_0.c,1320 :: 		for(i=0;i<20;i++)
	CLRF        TaskManager_i_L0+0 
L_TaskManager300:
	MOVLW       20
	SUBWF       TaskManager_i_L0+0, 0 
	BTFSC       STATUS+0, 0 
	GOTO        L_TaskManager301
;FirmV_0_7_0.c,1321 :: 		if((Tasks[i].Expired==0)&&(Tasks[i].Time==ms500)&&(Tasks[i].Fired==0))
	MOVF        TaskManager_i_L0+0, 0 
	MOVWF       R0 
	MOVLW       0
	MOVWF       R1 
	MOVLW       7
	MOVWF       R4 
	MOVLW       0
	MOVWF       R5 
	CALL        _Mul_16x16_U+0, 0
	MOVLW       _Tasks+0
	ADDWF       R0, 1 
	MOVLW       hi_addr(_Tasks+0)
	ADDWFC      R1, 1 
	MOVLW       5
	ADDWF       R0, 0 
	MOVWF       FSR0L 
	MOVLW       0
	ADDWFC      R1, 0 
	MOVWF       FSR0H 
	MOVF        POSTINC0+0, 0 
	XORLW       0
	BTFSS       STATUS+0, 2 
	GOTO        L_TaskManager305
	MOVF        TaskManager_i_L0+0, 0 
	MOVWF       R0 
	MOVLW       0
	MOVWF       R1 
	MOVLW       7
	MOVWF       R4 
	MOVLW       0
	MOVWF       R5 
	CALL        _Mul_16x16_U+0, 0
	MOVLW       _Tasks+0
	ADDWF       R0, 1 
	MOVLW       hi_addr(_Tasks+0)
	ADDWFC      R1, 1 
	MOVLW       1
	ADDWF       R0, 0 
	MOVWF       FSR0L 
	MOVLW       0
	ADDWFC      R1, 0 
	MOVWF       FSR0H 
	MOVF        POSTINC0+0, 0 
	MOVWF       R1 
	MOVF        POSTINC0+0, 0 
	MOVWF       R2 
	MOVF        POSTINC0+0, 0 
	MOVWF       R3 
	MOVF        POSTINC0+0, 0 
	MOVWF       R4 
	MOVF        R4, 0 
	XORWF       _ms500+3, 0 
	BTFSS       STATUS+0, 2 
	GOTO        L__TaskManager793
	MOVF        R3, 0 
	XORWF       _ms500+2, 0 
	BTFSS       STATUS+0, 2 
	GOTO        L__TaskManager793
	MOVF        R2, 0 
	XORWF       _ms500+1, 0 
	BTFSS       STATUS+0, 2 
	GOTO        L__TaskManager793
	MOVF        R1, 0 
	XORWF       _ms500+0, 0 
L__TaskManager793:
	BTFSS       STATUS+0, 2 
	GOTO        L_TaskManager305
	MOVF        TaskManager_i_L0+0, 0 
	MOVWF       R0 
	MOVLW       0
	MOVWF       R1 
	MOVLW       7
	MOVWF       R4 
	MOVLW       0
	MOVWF       R5 
	CALL        _Mul_16x16_U+0, 0
	MOVLW       _Tasks+0
	ADDWF       R0, 1 
	MOVLW       hi_addr(_Tasks+0)
	ADDWFC      R1, 1 
	MOVLW       6
	ADDWF       R0, 0 
	MOVWF       FSR0L 
	MOVLW       0
	ADDWFC      R1, 0 
	MOVWF       FSR0H 
	MOVF        POSTINC0+0, 0 
	XORLW       0
	BTFSS       STATUS+0, 2 
	GOTO        L_TaskManager305
L__TaskManager729:
;FirmV_0_7_0.c,1322 :: 		Tasks[i].Fired=1;
	MOVF        TaskManager_i_L0+0, 0 
	MOVWF       R0 
	MOVLW       0
	MOVWF       R1 
	MOVLW       7
	MOVWF       R4 
	MOVLW       0
	MOVWF       R5 
	CALL        _Mul_16x16_U+0, 0
	MOVLW       _Tasks+0
	ADDWF       R0, 1 
	MOVLW       hi_addr(_Tasks+0)
	ADDWFC      R1, 1 
	MOVLW       6
	ADDWF       R0, 0 
	MOVWF       FSR1L 
	MOVLW       0
	ADDWFC      R1, 0 
	MOVWF       FSR1H 
	MOVLW       1
	MOVWF       POSTINC1+0 
L_TaskManager305:
;FirmV_0_7_0.c,1320 :: 		for(i=0;i<20;i++)
	INCF        TaskManager_i_L0+0, 1 
;FirmV_0_7_0.c,1322 :: 		Tasks[i].Fired=1;
	GOTO        L_TaskManager300
L_TaskManager301:
;FirmV_0_7_0.c,1323 :: 		}
	RETURN      0
; end of _TaskManager

_AddTask:

;FirmV_0_7_0.c,1335 :: 		void AddTask(unsigned long OccTime,char tcode)
;FirmV_0_7_0.c,1338 :: 		for(i=0;i<20;i++)
	CLRF        AddTask_i_L0+0 
L_AddTask306:
	MOVLW       20
	SUBWF       AddTask_i_L0+0, 0 
	BTFSC       STATUS+0, 0 
	GOTO        L_AddTask307
;FirmV_0_7_0.c,1339 :: 		if(Tasks[i].Expired==1)
	MOVF        AddTask_i_L0+0, 0 
	MOVWF       R0 
	MOVLW       0
	MOVWF       R1 
	MOVLW       7
	MOVWF       R4 
	MOVLW       0
	MOVWF       R5 
	CALL        _Mul_16x16_U+0, 0
	MOVLW       _Tasks+0
	ADDWF       R0, 1 
	MOVLW       hi_addr(_Tasks+0)
	ADDWFC      R1, 1 
	MOVLW       5
	ADDWF       R0, 0 
	MOVWF       FSR0L 
	MOVLW       0
	ADDWFC      R1, 0 
	MOVWF       FSR0H 
	MOVF        POSTINC0+0, 0 
	XORLW       1
	BTFSS       STATUS+0, 2 
	GOTO        L_AddTask309
;FirmV_0_7_0.c,1341 :: 		Tasks[i].TaskCode=tcode;
	MOVF        AddTask_i_L0+0, 0 
	MOVWF       R0 
	MOVLW       0
	MOVWF       R1 
	MOVLW       7
	MOVWF       R4 
	MOVLW       0
	MOVWF       R5 
	CALL        _Mul_16x16_U+0, 0
	MOVLW       _Tasks+0
	ADDWF       R0, 0 
	MOVWF       FSR1L 
	MOVLW       hi_addr(_Tasks+0)
	ADDWFC      R1, 0 
	MOVWF       FSR1H 
	MOVF        FARG_AddTask_tcode+0, 0 
	MOVWF       POSTINC1+0 
;FirmV_0_7_0.c,1342 :: 		Tasks[i].Time=OccTime;
	MOVF        AddTask_i_L0+0, 0 
	MOVWF       R0 
	MOVLW       0
	MOVWF       R1 
	MOVLW       7
	MOVWF       R4 
	MOVLW       0
	MOVWF       R5 
	CALL        _Mul_16x16_U+0, 0
	MOVLW       _Tasks+0
	ADDWF       R0, 1 
	MOVLW       hi_addr(_Tasks+0)
	ADDWFC      R1, 1 
	MOVLW       1
	ADDWF       R0, 0 
	MOVWF       FSR1L 
	MOVLW       0
	ADDWFC      R1, 0 
	MOVWF       FSR1H 
	MOVF        FARG_AddTask_OccTime+0, 0 
	MOVWF       POSTINC1+0 
	MOVF        FARG_AddTask_OccTime+1, 0 
	MOVWF       POSTINC1+0 
	MOVF        FARG_AddTask_OccTime+2, 0 
	MOVWF       POSTINC1+0 
	MOVF        FARG_AddTask_OccTime+3, 0 
	MOVWF       POSTINC1+0 
;FirmV_0_7_0.c,1343 :: 		Tasks[i].Expired=0;
	MOVF        AddTask_i_L0+0, 0 
	MOVWF       R0 
	MOVLW       0
	MOVWF       R1 
	MOVLW       7
	MOVWF       R4 
	MOVLW       0
	MOVWF       R5 
	CALL        _Mul_16x16_U+0, 0
	MOVLW       _Tasks+0
	ADDWF       R0, 1 
	MOVLW       hi_addr(_Tasks+0)
	ADDWFC      R1, 1 
	MOVLW       5
	ADDWF       R0, 0 
	MOVWF       FSR1L 
	MOVLW       0
	ADDWFC      R1, 0 
	MOVWF       FSR1H 
	CLRF        POSTINC1+0 
;FirmV_0_7_0.c,1344 :: 		Tasks[i].Fired=0;
	MOVF        AddTask_i_L0+0, 0 
	MOVWF       R0 
	MOVLW       0
	MOVWF       R1 
	MOVLW       7
	MOVWF       R4 
	MOVLW       0
	MOVWF       R5 
	CALL        _Mul_16x16_U+0, 0
	MOVLW       _Tasks+0
	ADDWF       R0, 1 
	MOVLW       hi_addr(_Tasks+0)
	ADDWFC      R1, 1 
	MOVLW       6
	ADDWF       R0, 0 
	MOVWF       FSR1L 
	MOVLW       0
	ADDWFC      R1, 0 
	MOVWF       FSR1H 
	CLRF        POSTINC1+0 
;FirmV_0_7_0.c,1345 :: 		break;
	GOTO        L_AddTask307
;FirmV_0_7_0.c,1346 :: 		}
L_AddTask309:
;FirmV_0_7_0.c,1338 :: 		for(i=0;i<20;i++)
	INCF        AddTask_i_L0+0, 1 
;FirmV_0_7_0.c,1346 :: 		}
	GOTO        L_AddTask306
L_AddTask307:
;FirmV_0_7_0.c,1347 :: 		}
	RETURN      0
; end of _AddTask

_EventHandler:

;FirmV_0_7_0.c,1357 :: 		void EventHandler()
;FirmV_0_7_0.c,1360 :: 		Events.ExternalKeys=GetExternalKeysState();
	CALL        _GetExternalKeysState+0, 0
	MOVF        R0, 0 
	MOVWF       _Events+8 
;FirmV_0_7_0.c,1361 :: 		Events.Limiter=GetLimitSwitchState();
	CALL        _GetLimitSwitchState+0, 0
	MOVF        R0, 0 
	MOVWF       _Events+7 
;FirmV_0_7_0.c,1362 :: 		Events.Keys=GetKeysState();
	CALL        _GetKeysState+0, 0
	MOVF        R0, 0 
	MOVWF       _Events+0 
;FirmV_0_7_0.c,1363 :: 		Events.Remote=GetRemoteState();
	CALL        _GetRemoteState+0, 0
	MOVF        R0, 0 
	MOVWF       _Events+4 
;FirmV_0_7_0.c,1364 :: 		Events.Overload=GetOverloadState();
	CALL        _GetOverloadState+0, 0
	MOVF        R0, 0 
	MOVWF       _Events+5 
;FirmV_0_7_0.c,1365 :: 		Events.Photocell=GetPhotocellState();
	CALL        _GetPhotocellState+0, 0
	MOVF        R0, 0 
	MOVWF       _Events+6 
;FirmV_0_7_0.c,1367 :: 		for(i=0;i<20;i++)
	CLRF        EventHandler_i_L0+0 
L_EventHandler310:
	MOVLW       20
	SUBWF       EventHandler_i_L0+0, 0 
	BTFSC       STATUS+0, 0 
	GOTO        L_EventHandler311
;FirmV_0_7_0.c,1368 :: 		if((Tasks[i].Expired==0)&&(Tasks[i].Fired==1))
	MOVF        EventHandler_i_L0+0, 0 
	MOVWF       R0 
	MOVLW       0
	MOVWF       R1 
	MOVLW       7
	MOVWF       R4 
	MOVLW       0
	MOVWF       R5 
	CALL        _Mul_16x16_U+0, 0
	MOVLW       _Tasks+0
	ADDWF       R0, 1 
	MOVLW       hi_addr(_Tasks+0)
	ADDWFC      R1, 1 
	MOVLW       5
	ADDWF       R0, 0 
	MOVWF       FSR0L 
	MOVLW       0
	ADDWFC      R1, 0 
	MOVWF       FSR0H 
	MOVF        POSTINC0+0, 0 
	XORLW       0
	BTFSS       STATUS+0, 2 
	GOTO        L_EventHandler315
	MOVF        EventHandler_i_L0+0, 0 
	MOVWF       R0 
	MOVLW       0
	MOVWF       R1 
	MOVLW       7
	MOVWF       R4 
	MOVLW       0
	MOVWF       R5 
	CALL        _Mul_16x16_U+0, 0
	MOVLW       _Tasks+0
	ADDWF       R0, 1 
	MOVLW       hi_addr(_Tasks+0)
	ADDWFC      R1, 1 
	MOVLW       6
	ADDWF       R0, 0 
	MOVWF       FSR0L 
	MOVLW       0
	ADDWFC      R1, 0 
	MOVWF       FSR0H 
	MOVF        POSTINC0+0, 0 
	XORLW       1
	BTFSS       STATUS+0, 2 
	GOTO        L_EventHandler315
L__EventHandler730:
;FirmV_0_7_0.c,1370 :: 		if(Events.Task1==0)
	MOVF        _Events+1, 0 
	XORLW       0
	BTFSS       STATUS+0, 2 
	GOTO        L_EventHandler316
;FirmV_0_7_0.c,1371 :: 		{Events.Task1=Tasks[i].TaskCode; Tasks[i].Expired=1;Tasks[i].Fired=0;}
	MOVF        EventHandler_i_L0+0, 0 
	MOVWF       R0 
	MOVLW       0
	MOVWF       R1 
	MOVLW       7
	MOVWF       R4 
	MOVLW       0
	MOVWF       R5 
	CALL        _Mul_16x16_U+0, 0
	MOVLW       _Tasks+0
	ADDWF       R0, 0 
	MOVWF       R2 
	MOVLW       hi_addr(_Tasks+0)
	ADDWFC      R1, 0 
	MOVWF       R3 
	MOVFF       R2, FSR0L
	MOVFF       R3, FSR0H
	MOVF        POSTINC0+0, 0 
	MOVWF       R0 
	MOVF        R0, 0 
	MOVWF       _Events+1 
	MOVLW       5
	ADDWF       R2, 0 
	MOVWF       FSR1L 
	MOVLW       0
	ADDWFC      R3, 0 
	MOVWF       FSR1H 
	MOVLW       1
	MOVWF       POSTINC1+0 
	MOVF        EventHandler_i_L0+0, 0 
	MOVWF       R0 
	MOVLW       0
	MOVWF       R1 
	MOVLW       7
	MOVWF       R4 
	MOVLW       0
	MOVWF       R5 
	CALL        _Mul_16x16_U+0, 0
	MOVLW       _Tasks+0
	ADDWF       R0, 1 
	MOVLW       hi_addr(_Tasks+0)
	ADDWFC      R1, 1 
	MOVLW       6
	ADDWF       R0, 0 
	MOVWF       FSR1L 
	MOVLW       0
	ADDWFC      R1, 0 
	MOVWF       FSR1H 
	CLRF        POSTINC1+0 
	GOTO        L_EventHandler317
L_EventHandler316:
;FirmV_0_7_0.c,1372 :: 		else if(Events.Task2==0)
	MOVF        _Events+2, 0 
	XORLW       0
	BTFSS       STATUS+0, 2 
	GOTO        L_EventHandler318
;FirmV_0_7_0.c,1373 :: 		{Events.Task2=Tasks[i].TaskCode;Tasks[i].Expired=1;Tasks[i].Fired=0;}
	MOVF        EventHandler_i_L0+0, 0 
	MOVWF       R0 
	MOVLW       0
	MOVWF       R1 
	MOVLW       7
	MOVWF       R4 
	MOVLW       0
	MOVWF       R5 
	CALL        _Mul_16x16_U+0, 0
	MOVLW       _Tasks+0
	ADDWF       R0, 0 
	MOVWF       R2 
	MOVLW       hi_addr(_Tasks+0)
	ADDWFC      R1, 0 
	MOVWF       R3 
	MOVFF       R2, FSR0L
	MOVFF       R3, FSR0H
	MOVF        POSTINC0+0, 0 
	MOVWF       R0 
	MOVF        R0, 0 
	MOVWF       _Events+2 
	MOVLW       5
	ADDWF       R2, 0 
	MOVWF       FSR1L 
	MOVLW       0
	ADDWFC      R3, 0 
	MOVWF       FSR1H 
	MOVLW       1
	MOVWF       POSTINC1+0 
	MOVF        EventHandler_i_L0+0, 0 
	MOVWF       R0 
	MOVLW       0
	MOVWF       R1 
	MOVLW       7
	MOVWF       R4 
	MOVLW       0
	MOVWF       R5 
	CALL        _Mul_16x16_U+0, 0
	MOVLW       _Tasks+0
	ADDWF       R0, 1 
	MOVLW       hi_addr(_Tasks+0)
	ADDWFC      R1, 1 
	MOVLW       6
	ADDWF       R0, 0 
	MOVWF       FSR1L 
	MOVLW       0
	ADDWFC      R1, 0 
	MOVWF       FSR1H 
	CLRF        POSTINC1+0 
	GOTO        L_EventHandler319
L_EventHandler318:
;FirmV_0_7_0.c,1374 :: 		else if(Events.Task3==0)
	MOVF        _Events+3, 0 
	XORLW       0
	BTFSS       STATUS+0, 2 
	GOTO        L_EventHandler320
;FirmV_0_7_0.c,1375 :: 		{Events.Task3=Tasks[i].TaskCode;Tasks[i].Expired=1;Tasks[i].Fired=0;}
	MOVF        EventHandler_i_L0+0, 0 
	MOVWF       R0 
	MOVLW       0
	MOVWF       R1 
	MOVLW       7
	MOVWF       R4 
	MOVLW       0
	MOVWF       R5 
	CALL        _Mul_16x16_U+0, 0
	MOVLW       _Tasks+0
	ADDWF       R0, 0 
	MOVWF       R2 
	MOVLW       hi_addr(_Tasks+0)
	ADDWFC      R1, 0 
	MOVWF       R3 
	MOVFF       R2, FSR0L
	MOVFF       R3, FSR0H
	MOVF        POSTINC0+0, 0 
	MOVWF       R0 
	MOVF        R0, 0 
	MOVWF       _Events+3 
	MOVLW       5
	ADDWF       R2, 0 
	MOVWF       FSR1L 
	MOVLW       0
	ADDWFC      R3, 0 
	MOVWF       FSR1H 
	MOVLW       1
	MOVWF       POSTINC1+0 
	MOVF        EventHandler_i_L0+0, 0 
	MOVWF       R0 
	MOVLW       0
	MOVWF       R1 
	MOVLW       7
	MOVWF       R4 
	MOVLW       0
	MOVWF       R5 
	CALL        _Mul_16x16_U+0, 0
	MOVLW       _Tasks+0
	ADDWF       R0, 1 
	MOVLW       hi_addr(_Tasks+0)
	ADDWFC      R1, 1 
	MOVLW       6
	ADDWF       R0, 0 
	MOVWF       FSR1L 
	MOVLW       0
	ADDWFC      R1, 0 
	MOVWF       FSR1H 
	CLRF        POSTINC1+0 
L_EventHandler320:
L_EventHandler319:
L_EventHandler317:
;FirmV_0_7_0.c,1376 :: 		}
L_EventHandler315:
;FirmV_0_7_0.c,1367 :: 		for(i=0;i<20;i++)
	INCF        EventHandler_i_L0+0, 1 
;FirmV_0_7_0.c,1376 :: 		}
	GOTO        L_EventHandler310
L_EventHandler311:
;FirmV_0_7_0.c,1377 :: 		}
	RETURN      0
; end of _EventHandler

_GetKeysState:

;FirmV_0_7_0.c,1387 :: 		char GetKeysState()
;FirmV_0_7_0.c,1389 :: 		unsigned res=0;
	CLRF        GetKeysState_res_L0+0 
	CLRF        GetKeysState_res_L0+1 
;FirmV_0_7_0.c,1393 :: 		char resch=0,fin;
	CLRF        GetKeysState_resch_L0+0 
;FirmV_0_7_0.c,1394 :: 		resch.b0=~KeyDown;
	BTFSC       PORTD+0, 5 
	GOTO        L__GetKeysState794
	BSF         GetKeysState_resch_L0+0, 0 
	GOTO        L__GetKeysState795
L__GetKeysState794:
	BCF         GetKeysState_resch_L0+0, 0 
L__GetKeysState795:
;FirmV_0_7_0.c,1395 :: 		resch.b1=~KeyMenu;
	BTFSC       PORTE+0, 0 
	GOTO        L__GetKeysState796
	BSF         GetKeysState_resch_L0+0, 1 
	GOTO        L__GetKeysState797
L__GetKeysState796:
	BCF         GetKeysState_resch_L0+0, 1 
L__GetKeysState797:
;FirmV_0_7_0.c,1396 :: 		resch.b2=~KeyUp;
	BTFSC       PORTD+0, 4 
	GOTO        L__GetKeysState798
	BSF         GetKeysState_resch_L0+0, 2 
	GOTO        L__GetKeysState799
L__GetKeysState798:
	BCF         GetKeysState_resch_L0+0, 2 
L__GetKeysState799:
;FirmV_0_7_0.c,1398 :: 		if((resch==0))
	MOVF        GetKeysState_resch_L0+0, 0 
	XORLW       0
	BTFSS       STATUS+0, 2 
	GOTO        L_GetKeysState321
;FirmV_0_7_0.c,1400 :: 		if(Pressed==0)
	MOVF        _Pressed+0, 0 
	XORLW       0
	BTFSS       STATUS+0, 2 
	GOTO        L_GetKeysState322
;FirmV_0_7_0.c,1401 :: 		{Repeat=0;RepeatCount=0;Pressed=0;fin=0;RepeatRate=0;}
	CLRF        GetKeysState_Repeat_L0+0 
	CLRF        GetKeysState_RepeatCount_L0+0 
	CLRF        _Pressed+0 
	CLRF        GetKeysState_fin_L0+0 
	CLRF        GetKeysState_RepeatRate_L0+0 
L_GetKeysState322:
;FirmV_0_7_0.c,1402 :: 		if(Pressed==1)
	MOVF        _Pressed+0, 0 
	XORLW       1
	BTFSS       STATUS+0, 2 
	GOTO        L_GetKeysState323
;FirmV_0_7_0.c,1403 :: 		if(DebouncingDelay>=DebouncingFix)
	MOVLW       5
	SUBWF       _DebouncingDelay+0, 0 
	BTFSS       STATUS+0, 0 
	GOTO        L_GetKeysState324
;FirmV_0_7_0.c,1404 :: 		{Repeat=0;RepeatCount=0;Pressed=0;fin=0;RepeatRate=0;}
	CLRF        GetKeysState_Repeat_L0+0 
	CLRF        GetKeysState_RepeatCount_L0+0 
	CLRF        _Pressed+0 
	CLRF        GetKeysState_fin_L0+0 
	CLRF        GetKeysState_RepeatRate_L0+0 
L_GetKeysState324:
L_GetKeysState323:
;FirmV_0_7_0.c,1405 :: 		}
L_GetKeysState321:
;FirmV_0_7_0.c,1408 :: 		if(RepeatCount<=6)
	MOVF        GetKeysState_RepeatCount_L0+0, 0 
	SUBLW       6
	BTFSS       STATUS+0, 0 
	GOTO        L_GetKeysState325
;FirmV_0_7_0.c,1409 :: 		{RepeatSpeed=20;}
	MOVLW       20
	MOVWF       GetKeysState_RepeatSpeed_L0+0 
L_GetKeysState325:
;FirmV_0_7_0.c,1410 :: 		if((RepeatCount>6)&&(RepeatCount<=20))
	MOVF        GetKeysState_RepeatCount_L0+0, 0 
	SUBLW       6
	BTFSC       STATUS+0, 0 
	GOTO        L_GetKeysState328
	MOVF        GetKeysState_RepeatCount_L0+0, 0 
	SUBLW       20
	BTFSS       STATUS+0, 0 
	GOTO        L_GetKeysState328
L__GetKeysState736:
;FirmV_0_7_0.c,1411 :: 		{RepeatSpeed=10;}
	MOVLW       10
	MOVWF       GetKeysState_RepeatSpeed_L0+0 
L_GetKeysState328:
;FirmV_0_7_0.c,1412 :: 		if(RepeatCount>20)
	MOVF        GetKeysState_RepeatCount_L0+0, 0 
	SUBLW       20
	BTFSC       STATUS+0, 0 
	GOTO        L_GetKeysState329
;FirmV_0_7_0.c,1413 :: 		{RepeatSpeed=5;}
	MOVLW       5
	MOVWF       GetKeysState_RepeatSpeed_L0+0 
L_GetKeysState329:
;FirmV_0_7_0.c,1416 :: 		if((Repeat==1)&&(KeyFlag>=RepeatSpeed))
	MOVF        GetKeysState_Repeat_L0+0, 0 
	XORLW       1
	BTFSS       STATUS+0, 2 
	GOTO        L_GetKeysState332
	MOVF        GetKeysState_RepeatSpeed_L0+0, 0 
	SUBWF       _KeyFlag+0, 0 
	BTFSS       STATUS+0, 0 
	GOTO        L_GetKeysState332
L__GetKeysState735:
;FirmV_0_7_0.c,1417 :: 		{RepeatRate=1;KeyFlag=0;if(RepeatCount<25)RepeatCount=RepeatCount+1;}
	MOVLW       1
	MOVWF       GetKeysState_RepeatRate_L0+0 
	CLRF        _KeyFlag+0 
	MOVLW       25
	SUBWF       GetKeysState_RepeatCount_L0+0, 0 
	BTFSC       STATUS+0, 0 
	GOTO        L_GetKeysState333
	INCF        GetKeysState_RepeatCount_L0+0, 1 
L_GetKeysState333:
L_GetKeysState332:
;FirmV_0_7_0.c,1421 :: 		if((resch!=0)&&(Pressed==1)&&(Repeat==0)&&(ms500==PressTime+KeyRepeatDelay))
	MOVF        GetKeysState_resch_L0+0, 0 
	XORLW       0
	BTFSC       STATUS+0, 2 
	GOTO        L_GetKeysState336
	MOVF        _Pressed+0, 0 
	XORLW       1
	BTFSS       STATUS+0, 2 
	GOTO        L_GetKeysState336
	MOVF        GetKeysState_Repeat_L0+0, 0 
	XORLW       0
	BTFSS       STATUS+0, 2 
	GOTO        L_GetKeysState336
	MOVLW       2
	ADDWF       GetKeysState_PressTime_L0+0, 0 
	MOVWF       R1 
	MOVLW       0
	ADDWFC      GetKeysState_PressTime_L0+1, 0 
	MOVWF       R2 
	MOVLW       0
	ADDWFC      GetKeysState_PressTime_L0+2, 0 
	MOVWF       R3 
	MOVLW       0
	ADDWFC      GetKeysState_PressTime_L0+3, 0 
	MOVWF       R4 
	MOVF        _ms500+3, 0 
	XORWF       R4, 0 
	BTFSS       STATUS+0, 2 
	GOTO        L__GetKeysState800
	MOVF        _ms500+2, 0 
	XORWF       R3, 0 
	BTFSS       STATUS+0, 2 
	GOTO        L__GetKeysState800
	MOVF        _ms500+1, 0 
	XORWF       R2, 0 
	BTFSS       STATUS+0, 2 
	GOTO        L__GetKeysState800
	MOVF        _ms500+0, 0 
	XORWF       R1, 0 
L__GetKeysState800:
	BTFSS       STATUS+0, 2 
	GOTO        L_GetKeysState336
L__GetKeysState734:
;FirmV_0_7_0.c,1422 :: 		{Repeat=1;KeyFlag=0;}
	MOVLW       1
	MOVWF       GetKeysState_Repeat_L0+0 
	CLRF        _KeyFlag+0 
L_GetKeysState336:
;FirmV_0_7_0.c,1424 :: 		if((resch!=0)&&(Pressed==1)&&(Repeat==0))
	MOVF        GetKeysState_resch_L0+0, 0 
	XORLW       0
	BTFSC       STATUS+0, 2 
	GOTO        L_GetKeysState339
	MOVF        _Pressed+0, 0 
	XORLW       1
	BTFSS       STATUS+0, 2 
	GOTO        L_GetKeysState339
	MOVF        GetKeysState_Repeat_L0+0, 0 
	XORLW       0
	BTFSS       STATUS+0, 2 
	GOTO        L_GetKeysState339
L__GetKeysState733:
;FirmV_0_7_0.c,1425 :: 		fin=0;
	CLRF        GetKeysState_fin_L0+0 
L_GetKeysState339:
;FirmV_0_7_0.c,1427 :: 		if((resch!=0)&&(Pressed==1)&&(Repeat==1))
	MOVF        GetKeysState_resch_L0+0, 0 
	XORLW       0
	BTFSC       STATUS+0, 2 
	GOTO        L_GetKeysState342
	MOVF        _Pressed+0, 0 
	XORLW       1
	BTFSS       STATUS+0, 2 
	GOTO        L_GetKeysState342
	MOVF        GetKeysState_Repeat_L0+0, 0 
	XORLW       1
	BTFSS       STATUS+0, 2 
	GOTO        L_GetKeysState342
L__GetKeysState732:
;FirmV_0_7_0.c,1428 :: 		{fin=resch*RepeatRate;RepeatRate=0;}
	MOVF        GetKeysState_resch_L0+0, 0 
	MULWF       GetKeysState_RepeatRate_L0+0 
	MOVF        PRODL+0, 0 
	MOVWF       GetKeysState_fin_L0+0 
	CLRF        GetKeysState_RepeatRate_L0+0 
L_GetKeysState342:
;FirmV_0_7_0.c,1431 :: 		if((resch!=0)&&(Pressed==0))
	MOVF        GetKeysState_resch_L0+0, 0 
	XORLW       0
	BTFSC       STATUS+0, 2 
	GOTO        L_GetKeysState345
	MOVF        _Pressed+0, 0 
	XORLW       0
	BTFSS       STATUS+0, 2 
	GOTO        L_GetKeysState345
L__GetKeysState731:
;FirmV_0_7_0.c,1432 :: 		{fin=resch; Pressed=1;PressTime=ms500;DebouncingDelay=0;}
	MOVF        GetKeysState_resch_L0+0, 0 
	MOVWF       GetKeysState_fin_L0+0 
	MOVLW       1
	MOVWF       _Pressed+0 
	MOVF        _ms500+0, 0 
	MOVWF       GetKeysState_PressTime_L0+0 
	MOVF        _ms500+1, 0 
	MOVWF       GetKeysState_PressTime_L0+1 
	MOVF        _ms500+2, 0 
	MOVWF       GetKeysState_PressTime_L0+2 
	MOVF        _ms500+3, 0 
	MOVWF       GetKeysState_PressTime_L0+3 
	CLRF        _DebouncingDelay+0 
L_GetKeysState345:
;FirmV_0_7_0.c,1436 :: 		if(fin != 0)
	MOVF        GetKeysState_fin_L0+0, 0 
	XORLW       0
	BTFSC       STATUS+0, 2 
	GOTO        L_GetKeysState346
;FirmV_0_7_0.c,1437 :: 		BuzzFlag=1;
	MOVLW       1
	MOVWF       _BuzzFlag+0 
L_GetKeysState346:
;FirmV_0_7_0.c,1439 :: 		return fin;
	MOVF        GetKeysState_fin_L0+0, 0 
	MOVWF       R0 
;FirmV_0_7_0.c,1440 :: 		}
	RETURN      0
; end of _GetKeysState

_GetExternalKeysState:

;FirmV_0_7_0.c,1450 :: 		char GetExternalKeysState()
;FirmV_0_7_0.c,1452 :: 		char out=0;
	CLRF        GetExternalKeysState_out_L0+0 
;FirmV_0_7_0.c,1453 :: 		if(KeyUp==0)
	BTFSC       PORTD+0, 4 
	GOTO        L_GetExternalKeysState347
;FirmV_0_7_0.c,1454 :: 		out.b0=1;
	BSF         GetExternalKeysState_out_L0+0, 0 
L_GetExternalKeysState347:
;FirmV_0_7_0.c,1455 :: 		if(KeyDown==0)
	BTFSC       PORTD+0, 5 
	GOTO        L_GetExternalKeysState348
;FirmV_0_7_0.c,1456 :: 		out.b1=1;
	BSF         GetExternalKeysState_out_L0+0, 1 
L_GetExternalKeysState348:
;FirmV_0_7_0.c,1457 :: 		return out;
	MOVF        GetExternalKeysState_out_L0+0, 0 
	MOVWF       R0 
;FirmV_0_7_0.c,1458 :: 		}
	RETURN      0
; end of _GetExternalKeysState

_GetLimitSwitchState:

;FirmV_0_7_0.c,1471 :: 		char GetLimitSwitchState()
;FirmV_0_7_0.c,1473 :: 		if((Limit1==0)||(Limit2==0))
	BTFSS       PORTD+0, 0 
	GOTO        L__GetLimitSwitchState737
	BTFSS       PORTD+0, 1 
	GOTO        L__GetLimitSwitchState737
	GOTO        L_GetLimitSwitchState351
L__GetLimitSwitchState737:
;FirmV_0_7_0.c,1474 :: 		return 1;
	MOVLW       1
	MOVWF       R0 
	RETURN      0
L_GetLimitSwitchState351:
;FirmV_0_7_0.c,1476 :: 		return 0;
	CLRF        R0 
;FirmV_0_7_0.c,1477 :: 		}
	RETURN      0
; end of _GetLimitSwitchState

_GetRemoteState:

;FirmV_0_7_0.c,1486 :: 		char GetRemoteState()
;FirmV_0_7_0.c,1488 :: 		char res=0;
	CLRF        GetRemoteState_res_L0+0 
;FirmV_0_7_0.c,1489 :: 		res.b0=RemoteAFlag.b0;
	BTFSC       _RemoteAFlag+0, 0 
	GOTO        L__GetRemoteState801
	BCF         GetRemoteState_res_L0+0, 0 
	GOTO        L__GetRemoteState802
L__GetRemoteState801:
	BSF         GetRemoteState_res_L0+0, 0 
L__GetRemoteState802:
;FirmV_0_7_0.c,1490 :: 		res.b1=RemoteBFlag.b0;
	BTFSC       _RemoteBFlag+0, 0 
	GOTO        L__GetRemoteState803
	BCF         GetRemoteState_res_L0+0, 1 
	GOTO        L__GetRemoteState804
L__GetRemoteState803:
	BSF         GetRemoteState_res_L0+0, 1 
L__GetRemoteState804:
;FirmV_0_7_0.c,1491 :: 		RemoteAFlag=0;
	CLRF        _RemoteAFlag+0 
;FirmV_0_7_0.c,1492 :: 		RemoteBFlag=0;
	CLRF        _RemoteBFlag+0 
;FirmV_0_7_0.c,1493 :: 		res.b0=res.b0;
;FirmV_0_7_0.c,1494 :: 		res.b1=res.b1;
;FirmV_0_7_0.c,1495 :: 		if(State<20)
	MOVLW       20
	SUBWF       _State+0, 0 
	BTFSC       STATUS+0, 0 
	GOTO        L_GetRemoteState353
;FirmV_0_7_0.c,1497 :: 		res.b0=res.b0|Events.Keys.b2;//up key
	BTFSC       GetRemoteState_res_L0+0, 0 
	GOTO        L__GetRemoteState805
	BTFSC       _Events+0, 2 
	GOTO        L__GetRemoteState805
	BCF         GetRemoteState_res_L0+0, 0 
	GOTO        L__GetRemoteState806
L__GetRemoteState805:
	BSF         GetRemoteState_res_L0+0, 0 
L__GetRemoteState806:
;FirmV_0_7_0.c,1498 :: 		res.b1=res.b1|Events.Keys.b0;//down key
	BTFSC       GetRemoteState_res_L0+0, 1 
	GOTO        L__GetRemoteState807
	BTFSC       _Events+0, 0 
	GOTO        L__GetRemoteState807
	BCF         GetRemoteState_res_L0+0, 1 
	GOTO        L__GetRemoteState808
L__GetRemoteState807:
	BSF         GetRemoteState_res_L0+0, 1 
L__GetRemoteState808:
;FirmV_0_7_0.c,1499 :: 		}
L_GetRemoteState353:
;FirmV_0_7_0.c,1500 :: 		return res;
	MOVF        GetRemoteState_res_L0+0, 0 
	MOVWF       R0 
;FirmV_0_7_0.c,1501 :: 		}
	RETURN      0
; end of _GetRemoteState

_GetOverloadState:

;FirmV_0_7_0.c,1511 :: 		char GetOverloadState()
;FirmV_0_7_0.c,1513 :: 		char res=0;
	CLRF        GetOverloadState_res_L0+0 
;FirmV_0_7_0.c,1516 :: 		VCapM1=ADC_Read(0);
	CLRF        FARG_ADC_Read_channel+0 
	CALL        _ADC_Read+0, 0
	MOVF        R0, 0 
	MOVWF       GetOverloadState_VCapM1_L0+0 
	MOVF        R1, 0 
	MOVWF       GetOverloadState_VCapM1_L0+1 
;FirmV_0_7_0.c,1517 :: 		VCapM2=ADC_Read(1);
	MOVLW       1
	MOVWF       FARG_ADC_Read_channel+0 
	CALL        _ADC_Read+0, 0
	MOVF        R0, 0 
	MOVWF       GetOverloadState_VCapM2_L0+0 
	MOVF        R1, 0 
	MOVWF       GetOverloadState_VCapM2_L0+1 
;FirmV_0_7_0.c,1521 :: 		LCDUpdateFlag=1;
	MOVLW       1
	MOVWF       _LCDUpdateFlag+0 
;FirmV_0_7_0.c,1523 :: 		if(Motor1FullSpeed!=0)
	MOVF        _Motor1FullSpeed+0, 0 
	XORLW       0
	BTFSC       STATUS+0, 2 
	GOTO        L_GetOverloadState354
;FirmV_0_7_0.c,1525 :: 		if(VCapM1<OverloadTreshold)
	MOVF        _OverloadTreshold+1, 0 
	SUBWF       GetOverloadState_VCapM1_L0+1, 0 
	BTFSS       STATUS+0, 2 
	GOTO        L__GetOverloadState809
	MOVF        _OverloadTreshold+0, 0 
	SUBWF       GetOverloadState_VCapM1_L0+0, 0 
L__GetOverloadState809:
	BTFSC       STATUS+0, 0 
	GOTO        L_GetOverloadState355
;FirmV_0_7_0.c,1527 :: 		if(OverloadCounter1<255)
	MOVLW       255
	SUBWF       _OverloadCounter1+0, 0 
	BTFSC       STATUS+0, 0 
	GOTO        L_GetOverloadState356
;FirmV_0_7_0.c,1528 :: 		OverloadCounter1=OverloadCounter1+1;
	INCF        _OverloadCounter1+0, 1 
L_GetOverloadState356:
;FirmV_0_7_0.c,1529 :: 		}
	GOTO        L_GetOverloadState357
L_GetOverloadState355:
;FirmV_0_7_0.c,1532 :: 		if(OverloadCounter1>0)
	MOVF        _OverloadCounter1+0, 0 
	SUBLW       0
	BTFSC       STATUS+0, 0 
	GOTO        L_GetOverloadState358
;FirmV_0_7_0.c,1533 :: 		OverloadCounter1=OverloadCounter1-1;
	DECF        _OverloadCounter1+0, 1 
L_GetOverloadState358:
;FirmV_0_7_0.c,1534 :: 		}
L_GetOverloadState357:
;FirmV_0_7_0.c,1535 :: 		}
	GOTO        L_GetOverloadState359
L_GetOverloadState354:
;FirmV_0_7_0.c,1537 :: 		{OverloadCounter1=0;}
	CLRF        _OverloadCounter1+0 
L_GetOverloadState359:
;FirmV_0_7_0.c,1539 :: 		if (OverloadCounter1>OverloadDuration)
	MOVF        _OverloadCounter1+0, 0 
	SUBWF       _OverloadDuration+0, 0 
	BTFSC       STATUS+0, 0 
	GOTO        L_GetOverloadState360
;FirmV_0_7_0.c,1540 :: 		res.b0=1;
	BSF         GetOverloadState_res_L0+0, 0 
L_GetOverloadState360:
;FirmV_0_7_0.c,1545 :: 		if(Motor2FullSpeed!=0)
	MOVF        _Motor2FullSpeed+0, 0 
	XORLW       0
	BTFSC       STATUS+0, 2 
	GOTO        L_GetOverloadState361
;FirmV_0_7_0.c,1547 :: 		if(VCapM2<OverloadTreshold)
	MOVF        _OverloadTreshold+1, 0 
	SUBWF       GetOverloadState_VCapM2_L0+1, 0 
	BTFSS       STATUS+0, 2 
	GOTO        L__GetOverloadState810
	MOVF        _OverloadTreshold+0, 0 
	SUBWF       GetOverloadState_VCapM2_L0+0, 0 
L__GetOverloadState810:
	BTFSC       STATUS+0, 0 
	GOTO        L_GetOverloadState362
;FirmV_0_7_0.c,1549 :: 		if(OverloadCounter2<255)
	MOVLW       255
	SUBWF       _OverloadCounter2+0, 0 
	BTFSC       STATUS+0, 0 
	GOTO        L_GetOverloadState363
;FirmV_0_7_0.c,1550 :: 		OverloadCounter2=OverloadCounter2+1;
	INCF        _OverloadCounter2+0, 1 
L_GetOverloadState363:
;FirmV_0_7_0.c,1551 :: 		}
	GOTO        L_GetOverloadState364
L_GetOverloadState362:
;FirmV_0_7_0.c,1554 :: 		if(OverloadCounter2>0)
	MOVF        _OverloadCounter2+0, 0 
	SUBLW       0
	BTFSC       STATUS+0, 0 
	GOTO        L_GetOverloadState365
;FirmV_0_7_0.c,1555 :: 		OverloadCounter2=OverloadCounter2-1;
	DECF        _OverloadCounter2+0, 1 
L_GetOverloadState365:
;FirmV_0_7_0.c,1556 :: 		}
L_GetOverloadState364:
;FirmV_0_7_0.c,1557 :: 		}
	GOTO        L_GetOverloadState366
L_GetOverloadState361:
;FirmV_0_7_0.c,1559 :: 		{OverloadCounter2=0;}
	CLRF        _OverloadCounter2+0 
L_GetOverloadState366:
;FirmV_0_7_0.c,1562 :: 		if (OverloadCounter2>OverloadDuration)
	MOVF        _OverloadCounter2+0, 0 
	SUBWF       _OverloadDuration+0, 0 
	BTFSC       STATUS+0, 0 
	GOTO        L_GetOverloadState367
;FirmV_0_7_0.c,1563 :: 		res.b1=1;
	BSF         GetOverloadState_res_L0+0, 1 
L_GetOverloadState367:
;FirmV_0_7_0.c,1565 :: 		return res;
	MOVF        GetOverloadState_res_L0+0, 0 
	MOVWF       R0 
;FirmV_0_7_0.c,1566 :: 		}
	RETURN      0
; end of _GetOverloadState

_GetPhotocellState:

;FirmV_0_7_0.c,1579 :: 		char GetPhotocellState()
;FirmV_0_7_0.c,1581 :: 		if(Phcell1==0)
	BTFSC       PORTD+0, 3 
	GOTO        L_GetPhotocellState368
;FirmV_0_7_0.c,1582 :: 		{if(PhotocellCount<=20)PhotocellCount=PhotocellCount+1;}
	MOVF        _PhotocellCount+0, 0 
	SUBLW       20
	BTFSS       STATUS+0, 0 
	GOTO        L_GetPhotocellState369
	INCF        _PhotocellCount+0, 1 
L_GetPhotocellState369:
	GOTO        L_GetPhotocellState370
L_GetPhotocellState368:
;FirmV_0_7_0.c,1584 :: 		{PhotocellCount=0;}
	CLRF        _PhotocellCount+0 
L_GetPhotocellState370:
;FirmV_0_7_0.c,1585 :: 		if(PhotocellCount>=20)
	MOVLW       20
	SUBWF       _PhotocellCount+0, 0 
	BTFSS       STATUS+0, 0 
	GOTO        L_GetPhotocellState371
;FirmV_0_7_0.c,1586 :: 		return 1;
	MOVLW       1
	MOVWF       R0 
	RETURN      0
L_GetPhotocellState371:
;FirmV_0_7_0.c,1588 :: 		return 0;
	CLRF        R0 
;FirmV_0_7_0.c,1589 :: 		}
	RETURN      0
; end of _GetPhotocellState

_SetMotorSpeed:

;FirmV_0_7_0.c,1601 :: 		void SetMotorSpeed(char M1FullSpeed,char M2FullSpeed)
;FirmV_0_7_0.c,1603 :: 		if((M1FullSpeed==0)||(M2FullSpeed==0))
	MOVF        FARG_SetMotorSpeed_M1FullSpeed+0, 0 
	XORLW       0
	BTFSC       STATUS+0, 2 
	GOTO        L__SetMotorSpeed738
	MOVF        FARG_SetMotorSpeed_M2FullSpeed+0, 0 
	XORLW       0
	BTFSC       STATUS+0, 2 
	GOTO        L__SetMotorSpeed738
	GOTO        L_SetMotorSpeed375
L__SetMotorSpeed738:
;FirmV_0_7_0.c,1604 :: 		INT0E_bit=1;
	BSF         INT0E_bit+0, 4 
	GOTO        L_SetMotorSpeed376
L_SetMotorSpeed375:
;FirmV_0_7_0.c,1606 :: 		INT0E_bit=0;
	BCF         INT0E_bit+0, 4 
L_SetMotorSpeed376:
;FirmV_0_7_0.c,1608 :: 		Motor1FullSpeed=M1FullSpeed;
	MOVF        FARG_SetMotorSpeed_M1FullSpeed+0, 0 
	MOVWF       _Motor1FullSpeed+0 
;FirmV_0_7_0.c,1609 :: 		Motor2FullSpeed=M2FullSpeed;
	MOVF        FARG_SetMotorSpeed_M2FullSpeed+0, 0 
	MOVWF       _Motor2FullSpeed+0 
;FirmV_0_7_0.c,1610 :: 		}
	RETURN      0
; end of _SetMotorSpeed

_OverloadInit:

;FirmV_0_7_0.c,1621 :: 		void OverloadInit(char ch)
;FirmV_0_7_0.c,1623 :: 		if(ch==1)
	MOVF        FARG_OverloadInit_ch+0, 0 
	XORLW       1
	BTFSS       STATUS+0, 2 
	GOTO        L_OverloadInit377
;FirmV_0_7_0.c,1625 :: 		OverloadCounter1=0;
	CLRF        _OverloadCounter1+0 
;FirmV_0_7_0.c,1626 :: 		Events.Overload.b0=0;
	BCF         _Events+5, 0 
;FirmV_0_7_0.c,1627 :: 		}
L_OverloadInit377:
;FirmV_0_7_0.c,1629 :: 		if(ch==2)
	MOVF        FARG_OverloadInit_ch+0, 0 
	XORLW       2
	BTFSS       STATUS+0, 2 
	GOTO        L_OverloadInit378
;FirmV_0_7_0.c,1631 :: 		OverloadCounter2=0;
	CLRF        _OverloadCounter2+0 
;FirmV_0_7_0.c,1632 :: 		Events.Overload.b1=0;
	BCF         _Events+5, 1 
;FirmV_0_7_0.c,1633 :: 		}
L_OverloadInit378:
;FirmV_0_7_0.c,1634 :: 		}
	RETURN      0
; end of _OverloadInit

_SaveConfigs:

;FirmV_0_7_0.c,1645 :: 		void SaveConfigs()
;FirmV_0_7_0.c,1648 :: 		EEPROM_Write(1,Door1OpenTime);
	MOVLW       1
	MOVWF       FARG_EEPROM_Write_address+0 
	MOVF        _Door1OpenTime+0, 0 
	MOVWF       FARG_EEPROM_Write_data_+0 
	CALL        _EEPROM_Write+0, 0
;FirmV_0_7_0.c,1649 :: 		EEPROM_Write(2,Door2OpenTime);
	MOVLW       2
	MOVWF       FARG_EEPROM_Write_address+0 
	MOVF        _Door2OpenTime+0, 0 
	MOVWF       FARG_EEPROM_Write_data_+0 
	CALL        _EEPROM_Write+0, 0
;FirmV_0_7_0.c,1650 :: 		EEPROM_Write(3,Door1CloseTime);
	MOVLW       3
	MOVWF       FARG_EEPROM_Write_address+0 
	MOVF        _Door1CloseTime+0, 0 
	MOVWF       FARG_EEPROM_Write_data_+0 
	CALL        _EEPROM_Write+0, 0
;FirmV_0_7_0.c,1651 :: 		EEPROM_Write(4,Door2CloseTime);
	MOVLW       4
	MOVWF       FARG_EEPROM_Write_address+0 
	MOVF        _Door2CloseTime+0, 0 
	MOVWF       FARG_EEPROM_Write_data_+0 
	CALL        _EEPROM_Write+0, 0
;FirmV_0_7_0.c,1652 :: 		EEPROM_Write(5,ActionTimeDiff);
	MOVLW       5
	MOVWF       FARG_EEPROM_Write_address+0 
	MOVF        _ActionTimeDiff+0, 0 
	MOVWF       FARG_EEPROM_Write_data_+0 
	CALL        _EEPROM_Write+0, 0
;FirmV_0_7_0.c,1653 :: 		EEPROM_Write(6,OpenSoftStartTime);
	MOVLW       6
	MOVWF       FARG_EEPROM_Write_address+0 
	MOVF        _OpenSoftStartTime+0, 0 
	MOVWF       FARG_EEPROM_Write_data_+0 
	CALL        _EEPROM_Write+0, 0
;FirmV_0_7_0.c,1654 :: 		EEPROM_Write(7,OpenSoftStopTime);
	MOVLW       7
	MOVWF       FARG_EEPROM_Write_address+0 
	MOVF        _OpenSoftStopTime+0, 0 
	MOVWF       FARG_EEPROM_Write_data_+0 
	CALL        _EEPROM_Write+0, 0
;FirmV_0_7_0.c,1655 :: 		EEPROM_Write(8,CloseSoftStartTime);
	MOVLW       8
	MOVWF       FARG_EEPROM_Write_address+0 
	MOVF        _CloseSoftStartTime+0, 0 
	MOVWF       FARG_EEPROM_Write_data_+0 
	CALL        _EEPROM_Write+0, 0
;FirmV_0_7_0.c,1656 :: 		EEPROM_Write(9,CloseSoftStopTime);
	MOVLW       9
	MOVWF       FARG_EEPROM_Write_address+0 
	MOVF        _CloseSoftStopTime+0, 0 
	MOVWF       FARG_EEPROM_Write_data_+0 
	CALL        _EEPROM_Write+0, 0
;FirmV_0_7_0.c,1657 :: 		EEPROM_Write(10,Hi(AutoCloseTime));
	MOVLW       10
	MOVWF       FARG_EEPROM_Write_address+0 
	MOVF        _AutoCloseTime+1, 0 
	MOVWF       FARG_EEPROM_Write_data_+0 
	CALL        _EEPROM_Write+0, 0
;FirmV_0_7_0.c,1658 :: 		EEPROM_Write(11,Lo(AutoCloseTime));
	MOVLW       11
	MOVWF       FARG_EEPROM_Write_address+0 
	MOVF        _AutoCloseTime+0, 0 
	MOVWF       FARG_EEPROM_Write_data_+0 
	CALL        _EEPROM_Write+0, 0
;FirmV_0_7_0.c,1659 :: 		EEPROM_Write(12,OverloadSens);
	MOVLW       12
	MOVWF       FARG_EEPROM_Write_address+0 
	MOVF        _OverloadSens+0, 0 
	MOVWF       FARG_EEPROM_Write_data_+0 
	CALL        _EEPROM_Write+0, 0
;FirmV_0_7_0.c,1660 :: 		SetOverloadParams(9-OverloadSens);
	MOVF        _OverloadSens+0, 0 
	SUBLW       9
	MOVWF       FARG_SetOverloadParams+0 
	CALL        _SetOverloadParams+0, 0
;FirmV_0_7_0.c,1661 :: 		EEPROM_Write(13,CloseAfterPass);
	MOVLW       13
	MOVWF       FARG_EEPROM_Write_address+0 
	MOVF        _CloseAfterPass+0, 0 
	MOVWF       FARG_EEPROM_Write_data_+0 
	CALL        _EEPROM_Write+0, 0
;FirmV_0_7_0.c,1662 :: 		EEPROM_Write(14,LockForce);
	MOVLW       14
	MOVWF       FARG_EEPROM_Write_address+0 
	MOVF        _LockForce+0, 0 
	MOVWF       FARG_EEPROM_Write_data_+0 
	CALL        _EEPROM_Write+0, 0
;FirmV_0_7_0.c,1663 :: 		EEPROM_Write(15,OpenPhEnable);
	MOVLW       15
	MOVWF       FARG_EEPROM_Write_address+0 
	MOVF        _OpenPhEnable+0, 0 
	MOVWF       FARG_EEPROM_Write_data_+0 
	CALL        _EEPROM_Write+0, 0
;FirmV_0_7_0.c,1664 :: 		EEPROM_Write(16,LimiterEnable);
	MOVLW       16
	MOVWF       FARG_EEPROM_Write_address+0 
	MOVF        _LimiterEnable+0, 0 
	MOVWF       FARG_EEPROM_Write_data_+0 
	CALL        _EEPROM_Write+0, 0
;FirmV_0_7_0.c,1666 :: 		}
	RETURN      0
; end of _SaveConfigs

_LoadConfigs:

;FirmV_0_7_0.c,1679 :: 		void LoadConfigs()
;FirmV_0_7_0.c,1681 :: 		Door1OpenTime=EEPROM_Read(1);
	MOVLW       1
	MOVWF       FARG_EEPROM_Read_address+0 
	CALL        _EEPROM_Read+0, 0
	MOVF        R0, 0 
	MOVWF       _Door1OpenTime+0 
;FirmV_0_7_0.c,1682 :: 		Door2OpenTime=EEPROM_Read(2);
	MOVLW       2
	MOVWF       FARG_EEPROM_Read_address+0 
	CALL        _EEPROM_Read+0, 0
	MOVF        R0, 0 
	MOVWF       _Door2OpenTime+0 
;FirmV_0_7_0.c,1683 :: 		Door1CloseTime=EEPROM_Read(3);
	MOVLW       3
	MOVWF       FARG_EEPROM_Read_address+0 
	CALL        _EEPROM_Read+0, 0
	MOVF        R0, 0 
	MOVWF       _Door1CloseTime+0 
;FirmV_0_7_0.c,1684 :: 		Door2CloseTime=EEPROM_Read(4);
	MOVLW       4
	MOVWF       FARG_EEPROM_Read_address+0 
	CALL        _EEPROM_Read+0, 0
	MOVF        R0, 0 
	MOVWF       _Door2CloseTime+0 
;FirmV_0_7_0.c,1685 :: 		ActionTimeDiff=EEPROM_Read(5);
	MOVLW       5
	MOVWF       FARG_EEPROM_Read_address+0 
	CALL        _EEPROM_Read+0, 0
	MOVF        R0, 0 
	MOVWF       _ActionTimeDiff+0 
;FirmV_0_7_0.c,1686 :: 		OpenSoftStartTime=EEPROM_Read(6);
	MOVLW       6
	MOVWF       FARG_EEPROM_Read_address+0 
	CALL        _EEPROM_Read+0, 0
	MOVF        R0, 0 
	MOVWF       _OpenSoftStartTime+0 
;FirmV_0_7_0.c,1687 :: 		OpenSoftStopTime=EEPROM_Read(7);
	MOVLW       7
	MOVWF       FARG_EEPROM_Read_address+0 
	CALL        _EEPROM_Read+0, 0
	MOVF        R0, 0 
	MOVWF       _OpenSoftStopTime+0 
;FirmV_0_7_0.c,1688 :: 		CloseSoftStartTime=EEPROM_Read(8);
	MOVLW       8
	MOVWF       FARG_EEPROM_Read_address+0 
	CALL        _EEPROM_Read+0, 0
	MOVF        R0, 0 
	MOVWF       _CloseSoftStartTime+0 
;FirmV_0_7_0.c,1689 :: 		CloseSoftStopTime=EEPROM_Read(9);
	MOVLW       9
	MOVWF       FARG_EEPROM_Read_address+0 
	CALL        _EEPROM_Read+0, 0
	MOVF        R0, 0 
	MOVWF       _CloseSoftStopTime+0 
;FirmV_0_7_0.c,1690 :: 		AutoCloseTime=EEPROM_Read(10);
	MOVLW       10
	MOVWF       FARG_EEPROM_Read_address+0 
	CALL        _EEPROM_Read+0, 0
	MOVF        R0, 0 
	MOVWF       _AutoCloseTime+0 
	MOVLW       0
	MOVWF       _AutoCloseTime+1 
;FirmV_0_7_0.c,1691 :: 		AutoCloseTime=AutoCloseTime<<8;
	MOVF        _AutoCloseTime+0, 0 
	MOVWF       _AutoCloseTime+1 
	CLRF        _AutoCloseTime+0 
;FirmV_0_7_0.c,1692 :: 		AutoCloseTime=AutocloseTime|EEPROM_Read(11);
	MOVLW       11
	MOVWF       FARG_EEPROM_Read_address+0 
	CALL        _EEPROM_Read+0, 0
	MOVF        R0, 0 
	IORWF       _AutoCloseTime+0, 1 
	MOVLW       0
	IORWF       _AutoCloseTime+1, 1 
;FirmV_0_7_0.c,1693 :: 		OverloadSens=EEPROM_Read(12);
	MOVLW       12
	MOVWF       FARG_EEPROM_Read_address+0 
	CALL        _EEPROM_Read+0, 0
	MOVF        R0, 0 
	MOVWF       _OverloadSens+0 
;FirmV_0_7_0.c,1694 :: 		SetOverloadParams(9-OverloadSens);
	MOVF        R0, 0 
	SUBLW       9
	MOVWF       FARG_SetOverloadParams+0 
	CALL        _SetOverloadParams+0, 0
;FirmV_0_7_0.c,1695 :: 		CloseAfterPass=EEPROM_Read(13);
	MOVLW       13
	MOVWF       FARG_EEPROM_Read_address+0 
	CALL        _EEPROM_Read+0, 0
	MOVF        R0, 0 
	MOVWF       _CloseAfterPass+0 
;FirmV_0_7_0.c,1696 :: 		LockForce=EEPROM_Read(14);
	MOVLW       14
	MOVWF       FARG_EEPROM_Read_address+0 
	CALL        _EEPROM_Read+0, 0
	MOVF        R0, 0 
	MOVWF       _LockForce+0 
;FirmV_0_7_0.c,1697 :: 		OpenPhEnable=EEPROM_Read(15);
	MOVLW       15
	MOVWF       FARG_EEPROM_Read_address+0 
	CALL        _EEPROM_Read+0, 0
	MOVF        R0, 0 
	MOVWF       _OpenPhEnable+0 
;FirmV_0_7_0.c,1698 :: 		LimiterEnable=EEPROM_Read(16);
	MOVLW       16
	MOVWF       FARG_EEPROM_Read_address+0 
	CALL        _EEPROM_Read+0, 0
	MOVF        R0, 0 
	MOVWF       _LimiterEnable+0 
;FirmV_0_7_0.c,1700 :: 		}
	RETURN      0
; end of _LoadConfigs

_FactorySettings:

;FirmV_0_7_0.c,1713 :: 		void FactorySettings()
;FirmV_0_7_0.c,1715 :: 		Door1OpenTime=20;
	MOVLW       20
	MOVWF       _Door1OpenTime+0 
;FirmV_0_7_0.c,1716 :: 		Door1CloseTime=20;
	MOVLW       20
	MOVWF       _Door1CloseTime+0 
;FirmV_0_7_0.c,1717 :: 		Door2OpenTime=20;
	MOVLW       20
	MOVWF       _Door2OpenTime+0 
;FirmV_0_7_0.c,1718 :: 		Door2CloseTime=20;
	MOVLW       20
	MOVWF       _Door2CloseTime+0 
;FirmV_0_7_0.c,1719 :: 		OverloadSens=5;
	MOVLW       5
	MOVWF       _OverloadSens+0 
;FirmV_0_7_0.c,1720 :: 		SetOverloadParams(4);  //9-5
	MOVLW       4
	MOVWF       FARG_SetOverloadParams+0 
	CALL        _SetOverloadParams+0, 0
;FirmV_0_7_0.c,1721 :: 		OpenSoftStopTime=10;
	MOVLW       10
	MOVWF       _OpenSoftStopTime+0 
;FirmV_0_7_0.c,1722 :: 		OpenSoftStartTime=4;
	MOVLW       4
	MOVWF       _OpenSoftStartTime+0 
;FirmV_0_7_0.c,1723 :: 		CloseSoftStopTime=10;
	MOVLW       10
	MOVWF       _CloseSoftStopTime+0 
;FirmV_0_7_0.c,1724 :: 		CloseSoftStartTime=4;
	MOVLW       4
	MOVWF       _CloseSoftStartTime+0 
;FirmV_0_7_0.c,1725 :: 		ActionTimeDiff=12;
	MOVLW       12
	MOVWF       _ActionTimeDiff+0 
;FirmV_0_7_0.c,1726 :: 		AutoCloseTime=0;
	CLRF        _AutoCloseTime+0 
	CLRF        _AutoCloseTime+1 
;FirmV_0_7_0.c,1727 :: 		LockForce=0;
	CLRF        _LockForce+0 
;FirmV_0_7_0.c,1728 :: 		OpenPhEnable=0;
	CLRF        _OpenPhEnable+0 
;FirmV_0_7_0.c,1729 :: 		LimiterEnable=0;
	CLRF        _LimiterEnable+0 
;FirmV_0_7_0.c,1730 :: 		CloseAfterPass=0;
	CLRF        _CloseAfterPass+0 
;FirmV_0_7_0.c,1732 :: 		SaveConfigs();
	CALL        _SaveConfigs+0, 0
;FirmV_0_7_0.c,1733 :: 		}
	RETURN      0
; end of _FactorySettings

_StartMotor:

;FirmV_0_7_0.c,1739 :: 		void StartMotor(char Mx,char Dir)
;FirmV_0_7_0.c,1741 :: 		if(Mx==1)
	MOVF        FARG_StartMotor_Mx+0, 0 
	XORLW       1
	BTFSS       STATUS+0, 2 
	GOTO        L_StartMotor379
;FirmV_0_7_0.c,1743 :: 		Motor1Dir=Dir;
	BTFSC       FARG_StartMotor_Dir+0, 0 
	GOTO        L__StartMotor811
	BCF         PORTC+0, 1 
	GOTO        L__StartMotor812
L__StartMotor811:
	BSF         PORTC+0, 1 
L__StartMotor812:
;FirmV_0_7_0.c,1744 :: 		delay_ms(100);
	MOVLW       6
	MOVWF       R11, 0
	MOVLW       19
	MOVWF       R12, 0
	MOVLW       173
	MOVWF       R13, 0
L_StartMotor380:
	DECFSZ      R13, 1, 0
	BRA         L_StartMotor380
	DECFSZ      R12, 1, 0
	BRA         L_StartMotor380
	DECFSZ      R11, 1, 0
	BRA         L_StartMotor380
	NOP
	NOP
;FirmV_0_7_0.c,1745 :: 		Motor1Start=1;
	MOVLW       1
	MOVWF       _Motor1Start+0 
;FirmV_0_7_0.c,1746 :: 		Motor1=1;
	BSF         PORTB+0, 3 
;FirmV_0_7_0.c,1747 :: 		}
L_StartMotor379:
;FirmV_0_7_0.c,1749 :: 		if(Mx==2)
	MOVF        FARG_StartMotor_Mx+0, 0 
	XORLW       2
	BTFSS       STATUS+0, 2 
	GOTO        L_StartMotor381
;FirmV_0_7_0.c,1751 :: 		Motor2Dir=Dir;
	BTFSC       FARG_StartMotor_Dir+0, 0 
	GOTO        L__StartMotor813
	BCF         PORTC+0, 0 
	GOTO        L__StartMotor814
L__StartMotor813:
	BSF         PORTC+0, 0 
L__StartMotor814:
;FirmV_0_7_0.c,1752 :: 		delay_ms(100);
	MOVLW       6
	MOVWF       R11, 0
	MOVLW       19
	MOVWF       R12, 0
	MOVLW       173
	MOVWF       R13, 0
L_StartMotor382:
	DECFSZ      R13, 1, 0
	BRA         L_StartMotor382
	DECFSZ      R12, 1, 0
	BRA         L_StartMotor382
	DECFSZ      R11, 1, 0
	BRA         L_StartMotor382
	NOP
	NOP
;FirmV_0_7_0.c,1753 :: 		Motor2Start=1;
	MOVLW       1
	MOVWF       _Motor2Start+0 
;FirmV_0_7_0.c,1754 :: 		Motor2=1;
	BSF         PORTB+0, 4 
;FirmV_0_7_0.c,1755 :: 		}
L_StartMotor381:
;FirmV_0_7_0.c,1756 :: 		}
	RETURN      0
; end of _StartMotor

_StopMotor:

;FirmV_0_7_0.c,1759 :: 		void StopMotor(char Mx)
;FirmV_0_7_0.c,1761 :: 		if(Mx==1)
	MOVF        FARG_StopMotor_Mx+0, 0 
	XORLW       1
	BTFSS       STATUS+0, 2 
	GOTO        L_StopMotor383
;FirmV_0_7_0.c,1763 :: 		Motor1Start=0;
	CLRF        _Motor1Start+0 
;FirmV_0_7_0.c,1764 :: 		Motor1=0;
	BCF         PORTB+0, 3 
;FirmV_0_7_0.c,1765 :: 		}
L_StopMotor383:
;FirmV_0_7_0.c,1767 :: 		if(Mx==2)
	MOVF        FARG_StopMotor_Mx+0, 0 
	XORLW       2
	BTFSS       STATUS+0, 2 
	GOTO        L_StopMotor384
;FirmV_0_7_0.c,1769 :: 		Motor2Start=0;
	CLRF        _Motor2Start+0 
;FirmV_0_7_0.c,1770 :: 		Motor2=0;
	BCF         PORTB+0, 4 
;FirmV_0_7_0.c,1771 :: 		}
L_StopMotor384:
;FirmV_0_7_0.c,1772 :: 		}
	RETURN      0
; end of _StopMotor

_CheckTask:

;FirmV_0_7_0.c,1784 :: 		char CheckTask(char TaskCode)
;FirmV_0_7_0.c,1786 :: 		if(Events.Task1==TaskCode)
	MOVF        _Events+1, 0 
	XORWF       FARG_CheckTask_TaskCode+0, 0 
	BTFSS       STATUS+0, 2 
	GOTO        L_CheckTask385
;FirmV_0_7_0.c,1787 :: 		{Events.Task1=0; return 1;}
	CLRF        _Events+1 
	MOVLW       1
	MOVWF       R0 
	RETURN      0
L_CheckTask385:
;FirmV_0_7_0.c,1789 :: 		if(Events.Task2==TaskCode)
	MOVF        _Events+2, 0 
	XORWF       FARG_CheckTask_TaskCode+0, 0 
	BTFSS       STATUS+0, 2 
	GOTO        L_CheckTask386
;FirmV_0_7_0.c,1790 :: 		{Events.Task2=0; return 1;}
	CLRF        _Events+2 
	MOVLW       1
	MOVWF       R0 
	RETURN      0
L_CheckTask386:
;FirmV_0_7_0.c,1792 :: 		if(Events.Task3==TaskCode)
	MOVF        _Events+3, 0 
	XORWF       FARG_CheckTask_TaskCode+0, 0 
	BTFSS       STATUS+0, 2 
	GOTO        L_CheckTask387
;FirmV_0_7_0.c,1793 :: 		{Events.Task3=0; return 1;}
	CLRF        _Events+3 
	MOVLW       1
	MOVWF       R0 
	RETURN      0
L_CheckTask387:
;FirmV_0_7_0.c,1795 :: 		return 0;
	CLRF        R0 
;FirmV_0_7_0.c,1797 :: 		}
	RETURN      0
; end of _CheckTask

_GetAutocloseTime:

;FirmV_0_7_0.c,1805 :: 		char GetAutocloseTime()
;FirmV_0_7_0.c,1809 :: 		for(i=0;i<20;i++)
	CLRF        GetAutocloseTime_i_L0+0 
L_GetAutocloseTime388:
	MOVLW       20
	SUBWF       GetAutocloseTime_i_L0+0, 0 
	BTFSC       STATUS+0, 0 
	GOTO        L_GetAutocloseTime389
;FirmV_0_7_0.c,1811 :: 		if((Tasks[i].Expired==0)&&(Tasks[i].TaskCode==9))
	MOVF        GetAutocloseTime_i_L0+0, 0 
	MOVWF       R0 
	MOVLW       0
	MOVWF       R1 
	MOVLW       7
	MOVWF       R4 
	MOVLW       0
	MOVWF       R5 
	CALL        _Mul_16x16_U+0, 0
	MOVLW       _Tasks+0
	ADDWF       R0, 1 
	MOVLW       hi_addr(_Tasks+0)
	ADDWFC      R1, 1 
	MOVLW       5
	ADDWF       R0, 0 
	MOVWF       FSR0L 
	MOVLW       0
	ADDWFC      R1, 0 
	MOVWF       FSR0H 
	MOVF        POSTINC0+0, 0 
	XORLW       0
	BTFSS       STATUS+0, 2 
	GOTO        L_GetAutocloseTime393
	MOVF        GetAutocloseTime_i_L0+0, 0 
	MOVWF       R0 
	MOVLW       0
	MOVWF       R1 
	MOVLW       7
	MOVWF       R4 
	MOVLW       0
	MOVWF       R5 
	CALL        _Mul_16x16_U+0, 0
	MOVLW       _Tasks+0
	ADDWF       R0, 0 
	MOVWF       FSR0L 
	MOVLW       hi_addr(_Tasks+0)
	ADDWFC      R1, 0 
	MOVWF       FSR0H 
	MOVF        POSTINC0+0, 0 
	MOVWF       R1 
	MOVF        R1, 0 
	XORLW       9
	BTFSS       STATUS+0, 2 
	GOTO        L_GetAutocloseTime393
L__GetAutocloseTime739:
;FirmV_0_7_0.c,1812 :: 		t=Tasks[i].Time;
	MOVF        GetAutocloseTime_i_L0+0, 0 
	MOVWF       R0 
	MOVLW       0
	MOVWF       R1 
	MOVLW       7
	MOVWF       R4 
	MOVLW       0
	MOVWF       R5 
	CALL        _Mul_16x16_U+0, 0
	MOVLW       _Tasks+0
	ADDWF       R0, 1 
	MOVLW       hi_addr(_Tasks+0)
	ADDWFC      R1, 1 
	MOVLW       1
	ADDWF       R0, 0 
	MOVWF       FSR0L 
	MOVLW       0
	ADDWFC      R1, 0 
	MOVWF       FSR0H 
	MOVF        POSTINC0+0, 0 
	MOVWF       GetAutocloseTime_t_L0+0 
	MOVF        POSTINC0+0, 0 
	MOVWF       GetAutocloseTime_t_L0+1 
	MOVF        POSTINC0+0, 0 
	MOVWF       GetAutocloseTime_t_L0+2 
	MOVF        POSTINC0+0, 0 
	MOVWF       GetAutocloseTime_t_L0+3 
L_GetAutocloseTime393:
;FirmV_0_7_0.c,1813 :: 		Tasks[i].Expired=1;
	MOVF        GetAutocloseTime_i_L0+0, 0 
	MOVWF       R0 
	MOVLW       0
	MOVWF       R1 
	MOVLW       7
	MOVWF       R4 
	MOVLW       0
	MOVWF       R5 
	CALL        _Mul_16x16_U+0, 0
	MOVLW       _Tasks+0
	ADDWF       R0, 1 
	MOVLW       hi_addr(_Tasks+0)
	ADDWFC      R1, 1 
	MOVLW       5
	ADDWF       R0, 0 
	MOVWF       FSR1L 
	MOVLW       0
	ADDWFC      R1, 0 
	MOVWF       FSR1H 
	MOVLW       1
	MOVWF       POSTINC1+0 
;FirmV_0_7_0.c,1809 :: 		for(i=0;i<20;i++)
	INCF        GetAutocloseTime_i_L0+0, 1 
;FirmV_0_7_0.c,1814 :: 		}
	GOTO        L_GetAutocloseTime388
L_GetAutocloseTime389:
;FirmV_0_7_0.c,1815 :: 		i=t-ms500;
	MOVF        _ms500+0, 0 
	SUBWF       GetAutocloseTime_t_L0+0, 0 
	MOVWF       R0 
	MOVF        R0, 0 
	MOVWF       GetAutocloseTime_i_L0+0 
;FirmV_0_7_0.c,1816 :: 		return i;
;FirmV_0_7_0.c,1817 :: 		}
	RETURN      0
; end of _GetAutocloseTime

_ClearTasks:

;FirmV_0_7_0.c,1834 :: 		void ClearTasks(char except)
;FirmV_0_7_0.c,1837 :: 		for(i=0;i<20;i++)
	CLRF        ClearTasks_i_L0+0 
L_ClearTasks394:
	MOVLW       20
	SUBWF       ClearTasks_i_L0+0, 0 
	BTFSC       STATUS+0, 0 
	GOTO        L_ClearTasks395
;FirmV_0_7_0.c,1838 :: 		if((Tasks[i].Expired==0)&&(Tasks[i].TaskCode!=except))
	MOVF        ClearTasks_i_L0+0, 0 
	MOVWF       R0 
	MOVLW       0
	MOVWF       R1 
	MOVLW       7
	MOVWF       R4 
	MOVLW       0
	MOVWF       R5 
	CALL        _Mul_16x16_U+0, 0
	MOVLW       _Tasks+0
	ADDWF       R0, 1 
	MOVLW       hi_addr(_Tasks+0)
	ADDWFC      R1, 1 
	MOVLW       5
	ADDWF       R0, 0 
	MOVWF       FSR0L 
	MOVLW       0
	ADDWFC      R1, 0 
	MOVWF       FSR0H 
	MOVF        POSTINC0+0, 0 
	XORLW       0
	BTFSS       STATUS+0, 2 
	GOTO        L_ClearTasks399
	MOVF        ClearTasks_i_L0+0, 0 
	MOVWF       R0 
	MOVLW       0
	MOVWF       R1 
	MOVLW       7
	MOVWF       R4 
	MOVLW       0
	MOVWF       R5 
	CALL        _Mul_16x16_U+0, 0
	MOVLW       _Tasks+0
	ADDWF       R0, 0 
	MOVWF       FSR0L 
	MOVLW       hi_addr(_Tasks+0)
	ADDWFC      R1, 0 
	MOVWF       FSR0H 
	MOVF        POSTINC0+0, 0 
	MOVWF       R1 
	MOVF        R1, 0 
	XORWF       FARG_ClearTasks_except+0, 0 
	BTFSC       STATUS+0, 2 
	GOTO        L_ClearTasks399
L__ClearTasks740:
;FirmV_0_7_0.c,1839 :: 		Tasks[i].Expired=1;
	MOVF        ClearTasks_i_L0+0, 0 
	MOVWF       R0 
	MOVLW       0
	MOVWF       R1 
	MOVLW       7
	MOVWF       R4 
	MOVLW       0
	MOVWF       R5 
	CALL        _Mul_16x16_U+0, 0
	MOVLW       _Tasks+0
	ADDWF       R0, 1 
	MOVLW       hi_addr(_Tasks+0)
	ADDWFC      R1, 1 
	MOVLW       5
	ADDWF       R0, 0 
	MOVWF       FSR1L 
	MOVLW       0
	ADDWFC      R1, 0 
	MOVWF       FSR1H 
	MOVLW       1
	MOVWF       POSTINC1+0 
L_ClearTasks399:
;FirmV_0_7_0.c,1837 :: 		for(i=0;i<20;i++)
	INCF        ClearTasks_i_L0+0, 1 
;FirmV_0_7_0.c,1839 :: 		Tasks[i].Expired=1;
	GOTO        L_ClearTasks394
L_ClearTasks395:
;FirmV_0_7_0.c,1840 :: 		}
	RETURN      0
; end of _ClearTasks

_Menu0:

;FirmV_0_7_0.c,1855 :: 		void Menu0()
;FirmV_0_7_0.c,1857 :: 		LCDLines=2;
	MOVLW       2
	MOVWF       _LCDLines+0 
;FirmV_0_7_0.c,1858 :: 		memcpy(LCDLine2,"                ",16);
	MOVLW       _LCDLine2+0
	MOVWF       FARG_memcpy_d1+0 
	MOVLW       hi_addr(_LCDLine2+0)
	MOVWF       FARG_memcpy_d1+1 
	MOVLW       ?ICS?lstr68_FirmV_0_7_0+0
	MOVWF       TBLPTRL 
	MOVLW       hi_addr(?ICS?lstr68_FirmV_0_7_0+0)
	MOVWF       TBLPTRH 
	MOVLW       higher_addr(?ICS?lstr68_FirmV_0_7_0+0)
	MOVWF       TBLPTRU 
	MOVLW       ?lstr68_FirmV_0_7_0+0
	MOVWF       FSR1L 
	MOVLW       hi_addr(?lstr68_FirmV_0_7_0+0)
	MOVWF       FSR1H 
	MOVLW       17
	MOVWF       R0 
	MOVLW       1
	MOVWF       R1 
	CALL        ___CC2DW+0, 0
	MOVLW       ?lstr68_FirmV_0_7_0+0
	MOVWF       FARG_memcpy_s1+0 
	MOVLW       hi_addr(?lstr68_FirmV_0_7_0+0)
	MOVWF       FARG_memcpy_s1+1 
	MOVLW       16
	MOVWF       FARG_memcpy_n+0 
	MOVLW       0
	MOVWF       FARG_memcpy_n+1 
	CALL        _memcpy+0, 0
;FirmV_0_7_0.c,1860 :: 		if(MenuPointer==0)
	MOVF        _MenuPointer+0, 0 
	XORLW       0
	BTFSS       STATUS+0, 2 
	GOTO        L_Menu0400
;FirmV_0_7_0.c,1861 :: 		{memcpy(LCDLine1,"00 Learning Mode",16);LCDUpdateFlag=1;
	MOVLW       _LCDLine1+0
	MOVWF       FARG_memcpy_d1+0 
	MOVLW       hi_addr(_LCDLine1+0)
	MOVWF       FARG_memcpy_d1+1 
	MOVLW       ?ICS?lstr69_FirmV_0_7_0+0
	MOVWF       TBLPTRL 
	MOVLW       hi_addr(?ICS?lstr69_FirmV_0_7_0+0)
	MOVWF       TBLPTRH 
	MOVLW       higher_addr(?ICS?lstr69_FirmV_0_7_0+0)
	MOVWF       TBLPTRU 
	MOVLW       ?lstr69_FirmV_0_7_0+0
	MOVWF       FSR1L 
	MOVLW       hi_addr(?lstr69_FirmV_0_7_0+0)
	MOVWF       FSR1H 
	MOVLW       17
	MOVWF       R0 
	MOVLW       1
	MOVWF       R1 
	CALL        ___CC2DW+0, 0
	MOVLW       ?lstr69_FirmV_0_7_0+0
	MOVWF       FARG_memcpy_s1+0 
	MOVLW       hi_addr(?lstr69_FirmV_0_7_0+0)
	MOVWF       FARG_memcpy_s1+1 
	MOVLW       16
	MOVWF       FARG_memcpy_n+0 
	MOVLW       0
	MOVWF       FARG_memcpy_n+1 
	CALL        _memcpy+0, 0
	MOVLW       1
	MOVWF       _LCDUpdateFlag+0 
;FirmV_0_7_0.c,1862 :: 		if(LearningMode==0)memcpy(LCDLine2,"      Auto      ",16);
	MOVF        _LearningMode+0, 0 
	XORLW       0
	BTFSS       STATUS+0, 2 
	GOTO        L_Menu0401
	MOVLW       _LCDLine2+0
	MOVWF       FARG_memcpy_d1+0 
	MOVLW       hi_addr(_LCDLine2+0)
	MOVWF       FARG_memcpy_d1+1 
	MOVLW       ?ICS?lstr70_FirmV_0_7_0+0
	MOVWF       TBLPTRL 
	MOVLW       hi_addr(?ICS?lstr70_FirmV_0_7_0+0)
	MOVWF       TBLPTRH 
	MOVLW       higher_addr(?ICS?lstr70_FirmV_0_7_0+0)
	MOVWF       TBLPTRU 
	MOVLW       ?lstr70_FirmV_0_7_0+0
	MOVWF       FSR1L 
	MOVLW       hi_addr(?lstr70_FirmV_0_7_0+0)
	MOVWF       FSR1H 
	MOVLW       17
	MOVWF       R0 
	MOVLW       1
	MOVWF       R1 
	CALL        ___CC2DW+0, 0
	MOVLW       ?lstr70_FirmV_0_7_0+0
	MOVWF       FARG_memcpy_s1+0 
	MOVLW       hi_addr(?lstr70_FirmV_0_7_0+0)
	MOVWF       FARG_memcpy_s1+1 
	MOVLW       16
	MOVWF       FARG_memcpy_n+0 
	MOVLW       0
	MOVWF       FARG_memcpy_n+1 
	CALL        _memcpy+0, 0
L_Menu0401:
;FirmV_0_7_0.c,1863 :: 		if(LearningMode==1)memcpy(LCDLine2,"     Manual     ",16);}
	MOVF        _LearningMode+0, 0 
	XORLW       1
	BTFSS       STATUS+0, 2 
	GOTO        L_Menu0402
	MOVLW       _LCDLine2+0
	MOVWF       FARG_memcpy_d1+0 
	MOVLW       hi_addr(_LCDLine2+0)
	MOVWF       FARG_memcpy_d1+1 
	MOVLW       ?ICS?lstr71_FirmV_0_7_0+0
	MOVWF       TBLPTRL 
	MOVLW       hi_addr(?ICS?lstr71_FirmV_0_7_0+0)
	MOVWF       TBLPTRH 
	MOVLW       higher_addr(?ICS?lstr71_FirmV_0_7_0+0)
	MOVWF       TBLPTRU 
	MOVLW       ?lstr71_FirmV_0_7_0+0
	MOVWF       FSR1L 
	MOVLW       hi_addr(?lstr71_FirmV_0_7_0+0)
	MOVWF       FSR1H 
	MOVLW       17
	MOVWF       R0 
	MOVLW       1
	MOVWF       R1 
	CALL        ___CC2DW+0, 0
	MOVLW       ?lstr71_FirmV_0_7_0+0
	MOVWF       FARG_memcpy_s1+0 
	MOVLW       hi_addr(?lstr71_FirmV_0_7_0+0)
	MOVWF       FARG_memcpy_s1+1 
	MOVLW       16
	MOVWF       FARG_memcpy_n+0 
	MOVLW       0
	MOVWF       FARG_memcpy_n+1 
	CALL        _memcpy+0, 0
L_Menu0402:
L_Menu0400:
;FirmV_0_7_0.c,1865 :: 		if(MenuPointer==1)
	MOVF        _MenuPointer+0, 0 
	XORLW       1
	BTFSS       STATUS+0, 2 
	GOTO        L_Menu0403
;FirmV_0_7_0.c,1866 :: 		{memcpy(LCDLine1,"01 D1 Open Time ",16);LCDUpdateFlag=1;
	MOVLW       _LCDLine1+0
	MOVWF       FARG_memcpy_d1+0 
	MOVLW       hi_addr(_LCDLine1+0)
	MOVWF       FARG_memcpy_d1+1 
	MOVLW       ?ICS?lstr72_FirmV_0_7_0+0
	MOVWF       TBLPTRL 
	MOVLW       hi_addr(?ICS?lstr72_FirmV_0_7_0+0)
	MOVWF       TBLPTRH 
	MOVLW       higher_addr(?ICS?lstr72_FirmV_0_7_0+0)
	MOVWF       TBLPTRU 
	MOVLW       ?lstr72_FirmV_0_7_0+0
	MOVWF       FSR1L 
	MOVLW       hi_addr(?lstr72_FirmV_0_7_0+0)
	MOVWF       FSR1H 
	MOVLW       17
	MOVWF       R0 
	MOVLW       1
	MOVWF       R1 
	CALL        ___CC2DW+0, 0
	MOVLW       ?lstr72_FirmV_0_7_0+0
	MOVWF       FARG_memcpy_s1+0 
	MOVLW       hi_addr(?lstr72_FirmV_0_7_0+0)
	MOVWF       FARG_memcpy_s1+1 
	MOVLW       16
	MOVWF       FARG_memcpy_n+0 
	MOVLW       0
	MOVWF       FARG_memcpy_n+1 
	CALL        _memcpy+0, 0
	MOVLW       1
	MOVWF       _LCDUpdateFlag+0 
;FirmV_0_7_0.c,1867 :: 		charValueToStr(Door1OpenTime,LCDLine2+6);}
	MOVF        _Door1OpenTime+0, 0 
	MOVWF       FARG_charValueToStr+0 
	MOVLW       _LCDLine2+6
	MOVWF       FARG_charValueToStr+0 
	MOVLW       hi_addr(_LCDLine2+6)
	MOVWF       FARG_charValueToStr+1 
	CALL        _charValueToStr+0, 0
L_Menu0403:
;FirmV_0_7_0.c,1869 :: 		if(MenuPointer==2)
	MOVF        _MenuPointer+0, 0 
	XORLW       2
	BTFSS       STATUS+0, 2 
	GOTO        L_Menu0404
;FirmV_0_7_0.c,1870 :: 		{memcpy(LCDLine1,"02 D2 Open Time ",16);LCDUpdateFlag=1;
	MOVLW       _LCDLine1+0
	MOVWF       FARG_memcpy_d1+0 
	MOVLW       hi_addr(_LCDLine1+0)
	MOVWF       FARG_memcpy_d1+1 
	MOVLW       ?ICS?lstr73_FirmV_0_7_0+0
	MOVWF       TBLPTRL 
	MOVLW       hi_addr(?ICS?lstr73_FirmV_0_7_0+0)
	MOVWF       TBLPTRH 
	MOVLW       higher_addr(?ICS?lstr73_FirmV_0_7_0+0)
	MOVWF       TBLPTRU 
	MOVLW       ?lstr73_FirmV_0_7_0+0
	MOVWF       FSR1L 
	MOVLW       hi_addr(?lstr73_FirmV_0_7_0+0)
	MOVWF       FSR1H 
	MOVLW       17
	MOVWF       R0 
	MOVLW       1
	MOVWF       R1 
	CALL        ___CC2DW+0, 0
	MOVLW       ?lstr73_FirmV_0_7_0+0
	MOVWF       FARG_memcpy_s1+0 
	MOVLW       hi_addr(?lstr73_FirmV_0_7_0+0)
	MOVWF       FARG_memcpy_s1+1 
	MOVLW       16
	MOVWF       FARG_memcpy_n+0 
	MOVLW       0
	MOVWF       FARG_memcpy_n+1 
	CALL        _memcpy+0, 0
	MOVLW       1
	MOVWF       _LCDUpdateFlag+0 
;FirmV_0_7_0.c,1871 :: 		charValueToStr(Door2OpenTime,LCDLine2+6);}
	MOVF        _Door2OpenTime+0, 0 
	MOVWF       FARG_charValueToStr+0 
	MOVLW       _LCDLine2+6
	MOVWF       FARG_charValueToStr+0 
	MOVLW       hi_addr(_LCDLine2+6)
	MOVWF       FARG_charValueToStr+1 
	CALL        _charValueToStr+0, 0
L_Menu0404:
;FirmV_0_7_0.c,1873 :: 		if(MenuPointer==3)
	MOVF        _MenuPointer+0, 0 
	XORLW       3
	BTFSS       STATUS+0, 2 
	GOTO        L_Menu0405
;FirmV_0_7_0.c,1874 :: 		{memcpy(LCDLine1,"03 D1 Close Time",16);LCDUpdateFlag=1;
	MOVLW       _LCDLine1+0
	MOVWF       FARG_memcpy_d1+0 
	MOVLW       hi_addr(_LCDLine1+0)
	MOVWF       FARG_memcpy_d1+1 
	MOVLW       ?ICS?lstr74_FirmV_0_7_0+0
	MOVWF       TBLPTRL 
	MOVLW       hi_addr(?ICS?lstr74_FirmV_0_7_0+0)
	MOVWF       TBLPTRH 
	MOVLW       higher_addr(?ICS?lstr74_FirmV_0_7_0+0)
	MOVWF       TBLPTRU 
	MOVLW       ?lstr74_FirmV_0_7_0+0
	MOVWF       FSR1L 
	MOVLW       hi_addr(?lstr74_FirmV_0_7_0+0)
	MOVWF       FSR1H 
	MOVLW       17
	MOVWF       R0 
	MOVLW       1
	MOVWF       R1 
	CALL        ___CC2DW+0, 0
	MOVLW       ?lstr74_FirmV_0_7_0+0
	MOVWF       FARG_memcpy_s1+0 
	MOVLW       hi_addr(?lstr74_FirmV_0_7_0+0)
	MOVWF       FARG_memcpy_s1+1 
	MOVLW       16
	MOVWF       FARG_memcpy_n+0 
	MOVLW       0
	MOVWF       FARG_memcpy_n+1 
	CALL        _memcpy+0, 0
	MOVLW       1
	MOVWF       _LCDUpdateFlag+0 
;FirmV_0_7_0.c,1875 :: 		charValueToStr(Door1CloseTime,LCDLine2+6);}
	MOVF        _Door1CloseTime+0, 0 
	MOVWF       FARG_charValueToStr+0 
	MOVLW       _LCDLine2+6
	MOVWF       FARG_charValueToStr+0 
	MOVLW       hi_addr(_LCDLine2+6)
	MOVWF       FARG_charValueToStr+1 
	CALL        _charValueToStr+0, 0
L_Menu0405:
;FirmV_0_7_0.c,1877 :: 		if(MenuPointer==4)
	MOVF        _MenuPointer+0, 0 
	XORLW       4
	BTFSS       STATUS+0, 2 
	GOTO        L_Menu0406
;FirmV_0_7_0.c,1878 :: 		{memcpy(LCDLine1,"04 D2 Close Time",16);LCDUpdateFlag=1;
	MOVLW       _LCDLine1+0
	MOVWF       FARG_memcpy_d1+0 
	MOVLW       hi_addr(_LCDLine1+0)
	MOVWF       FARG_memcpy_d1+1 
	MOVLW       ?ICS?lstr75_FirmV_0_7_0+0
	MOVWF       TBLPTRL 
	MOVLW       hi_addr(?ICS?lstr75_FirmV_0_7_0+0)
	MOVWF       TBLPTRH 
	MOVLW       higher_addr(?ICS?lstr75_FirmV_0_7_0+0)
	MOVWF       TBLPTRU 
	MOVLW       ?lstr75_FirmV_0_7_0+0
	MOVWF       FSR1L 
	MOVLW       hi_addr(?lstr75_FirmV_0_7_0+0)
	MOVWF       FSR1H 
	MOVLW       17
	MOVWF       R0 
	MOVLW       1
	MOVWF       R1 
	CALL        ___CC2DW+0, 0
	MOVLW       ?lstr75_FirmV_0_7_0+0
	MOVWF       FARG_memcpy_s1+0 
	MOVLW       hi_addr(?lstr75_FirmV_0_7_0+0)
	MOVWF       FARG_memcpy_s1+1 
	MOVLW       16
	MOVWF       FARG_memcpy_n+0 
	MOVLW       0
	MOVWF       FARG_memcpy_n+1 
	CALL        _memcpy+0, 0
	MOVLW       1
	MOVWF       _LCDUpdateFlag+0 
;FirmV_0_7_0.c,1879 :: 		charValueToStr(Door2CloseTime,LCDLine2+6);}
	MOVF        _Door2CloseTime+0, 0 
	MOVWF       FARG_charValueToStr+0 
	MOVLW       _LCDLine2+6
	MOVWF       FARG_charValueToStr+0 
	MOVLW       hi_addr(_LCDLine2+6)
	MOVWF       FARG_charValueToStr+1 
	CALL        _charValueToStr+0, 0
L_Menu0406:
;FirmV_0_7_0.c,1881 :: 		if(MenuPointer==5)
	MOVF        _MenuPointer+0, 0 
	XORLW       5
	BTFSS       STATUS+0, 2 
	GOTO        L_Menu0407
;FirmV_0_7_0.c,1882 :: 		{memcpy(LCDLine1,"05 Op Soft Start",16);LCDUpdateFlag=1;
	MOVLW       _LCDLine1+0
	MOVWF       FARG_memcpy_d1+0 
	MOVLW       hi_addr(_LCDLine1+0)
	MOVWF       FARG_memcpy_d1+1 
	MOVLW       ?ICS?lstr76_FirmV_0_7_0+0
	MOVWF       TBLPTRL 
	MOVLW       hi_addr(?ICS?lstr76_FirmV_0_7_0+0)
	MOVWF       TBLPTRH 
	MOVLW       higher_addr(?ICS?lstr76_FirmV_0_7_0+0)
	MOVWF       TBLPTRU 
	MOVLW       ?lstr76_FirmV_0_7_0+0
	MOVWF       FSR1L 
	MOVLW       hi_addr(?lstr76_FirmV_0_7_0+0)
	MOVWF       FSR1H 
	MOVLW       17
	MOVWF       R0 
	MOVLW       1
	MOVWF       R1 
	CALL        ___CC2DW+0, 0
	MOVLW       ?lstr76_FirmV_0_7_0+0
	MOVWF       FARG_memcpy_s1+0 
	MOVLW       hi_addr(?lstr76_FirmV_0_7_0+0)
	MOVWF       FARG_memcpy_s1+1 
	MOVLW       16
	MOVWF       FARG_memcpy_n+0 
	MOVLW       0
	MOVWF       FARG_memcpy_n+1 
	CALL        _memcpy+0, 0
	MOVLW       1
	MOVWF       _LCDUpdateFlag+0 
;FirmV_0_7_0.c,1883 :: 		charValueToStr(OpenSoftStartTime,LCDLine2+6);}
	MOVF        _OpenSoftStartTime+0, 0 
	MOVWF       FARG_charValueToStr+0 
	MOVLW       _LCDLine2+6
	MOVWF       FARG_charValueToStr+0 
	MOVLW       hi_addr(_LCDLine2+6)
	MOVWF       FARG_charValueToStr+1 
	CALL        _charValueToStr+0, 0
L_Menu0407:
;FirmV_0_7_0.c,1885 :: 		if(MenuPointer==6)
	MOVF        _MenuPointer+0, 0 
	XORLW       6
	BTFSS       STATUS+0, 2 
	GOTO        L_Menu0408
;FirmV_0_7_0.c,1886 :: 		{memcpy(LCDLine1,"06 Op Soft Stop ",16);LCDUpdateFlag=1;
	MOVLW       _LCDLine1+0
	MOVWF       FARG_memcpy_d1+0 
	MOVLW       hi_addr(_LCDLine1+0)
	MOVWF       FARG_memcpy_d1+1 
	MOVLW       ?ICS?lstr77_FirmV_0_7_0+0
	MOVWF       TBLPTRL 
	MOVLW       hi_addr(?ICS?lstr77_FirmV_0_7_0+0)
	MOVWF       TBLPTRH 
	MOVLW       higher_addr(?ICS?lstr77_FirmV_0_7_0+0)
	MOVWF       TBLPTRU 
	MOVLW       ?lstr77_FirmV_0_7_0+0
	MOVWF       FSR1L 
	MOVLW       hi_addr(?lstr77_FirmV_0_7_0+0)
	MOVWF       FSR1H 
	MOVLW       17
	MOVWF       R0 
	MOVLW       1
	MOVWF       R1 
	CALL        ___CC2DW+0, 0
	MOVLW       ?lstr77_FirmV_0_7_0+0
	MOVWF       FARG_memcpy_s1+0 
	MOVLW       hi_addr(?lstr77_FirmV_0_7_0+0)
	MOVWF       FARG_memcpy_s1+1 
	MOVLW       16
	MOVWF       FARG_memcpy_n+0 
	MOVLW       0
	MOVWF       FARG_memcpy_n+1 
	CALL        _memcpy+0, 0
	MOVLW       1
	MOVWF       _LCDUpdateFlag+0 
;FirmV_0_7_0.c,1887 :: 		charValueToStr(OpenSoftStopTime,LCDLine2+6);}
	MOVF        _OpenSoftStopTime+0, 0 
	MOVWF       FARG_charValueToStr+0 
	MOVLW       _LCDLine2+6
	MOVWF       FARG_charValueToStr+0 
	MOVLW       hi_addr(_LCDLine2+6)
	MOVWF       FARG_charValueToStr+1 
	CALL        _charValueToStr+0, 0
L_Menu0408:
;FirmV_0_7_0.c,1889 :: 		if(MenuPointer==7)
	MOVF        _MenuPointer+0, 0 
	XORLW       7
	BTFSS       STATUS+0, 2 
	GOTO        L_Menu0409
;FirmV_0_7_0.c,1890 :: 		{memcpy(LCDLine1,"07 Cl Soft Start",16);LCDUpdateFlag=1;
	MOVLW       _LCDLine1+0
	MOVWF       FARG_memcpy_d1+0 
	MOVLW       hi_addr(_LCDLine1+0)
	MOVWF       FARG_memcpy_d1+1 
	MOVLW       ?ICS?lstr78_FirmV_0_7_0+0
	MOVWF       TBLPTRL 
	MOVLW       hi_addr(?ICS?lstr78_FirmV_0_7_0+0)
	MOVWF       TBLPTRH 
	MOVLW       higher_addr(?ICS?lstr78_FirmV_0_7_0+0)
	MOVWF       TBLPTRU 
	MOVLW       ?lstr78_FirmV_0_7_0+0
	MOVWF       FSR1L 
	MOVLW       hi_addr(?lstr78_FirmV_0_7_0+0)
	MOVWF       FSR1H 
	MOVLW       17
	MOVWF       R0 
	MOVLW       1
	MOVWF       R1 
	CALL        ___CC2DW+0, 0
	MOVLW       ?lstr78_FirmV_0_7_0+0
	MOVWF       FARG_memcpy_s1+0 
	MOVLW       hi_addr(?lstr78_FirmV_0_7_0+0)
	MOVWF       FARG_memcpy_s1+1 
	MOVLW       16
	MOVWF       FARG_memcpy_n+0 
	MOVLW       0
	MOVWF       FARG_memcpy_n+1 
	CALL        _memcpy+0, 0
	MOVLW       1
	MOVWF       _LCDUpdateFlag+0 
;FirmV_0_7_0.c,1891 :: 		charValueToStr(CloseSoftStartTime,LCDLine2+6);}
	MOVF        _CloseSoftStartTime+0, 0 
	MOVWF       FARG_charValueToStr+0 
	MOVLW       _LCDLine2+6
	MOVWF       FARG_charValueToStr+0 
	MOVLW       hi_addr(_LCDLine2+6)
	MOVWF       FARG_charValueToStr+1 
	CALL        _charValueToStr+0, 0
L_Menu0409:
;FirmV_0_7_0.c,1893 :: 		if(MenuPointer==8)
	MOVF        _MenuPointer+0, 0 
	XORLW       8
	BTFSS       STATUS+0, 2 
	GOTO        L_Menu0410
;FirmV_0_7_0.c,1894 :: 		{memcpy(LCDLine1,"08 Cl Soft Stop ",16);LCDUpdateFlag=1;
	MOVLW       _LCDLine1+0
	MOVWF       FARG_memcpy_d1+0 
	MOVLW       hi_addr(_LCDLine1+0)
	MOVWF       FARG_memcpy_d1+1 
	MOVLW       ?ICS?lstr79_FirmV_0_7_0+0
	MOVWF       TBLPTRL 
	MOVLW       hi_addr(?ICS?lstr79_FirmV_0_7_0+0)
	MOVWF       TBLPTRH 
	MOVLW       higher_addr(?ICS?lstr79_FirmV_0_7_0+0)
	MOVWF       TBLPTRU 
	MOVLW       ?lstr79_FirmV_0_7_0+0
	MOVWF       FSR1L 
	MOVLW       hi_addr(?lstr79_FirmV_0_7_0+0)
	MOVWF       FSR1H 
	MOVLW       17
	MOVWF       R0 
	MOVLW       1
	MOVWF       R1 
	CALL        ___CC2DW+0, 0
	MOVLW       ?lstr79_FirmV_0_7_0+0
	MOVWF       FARG_memcpy_s1+0 
	MOVLW       hi_addr(?lstr79_FirmV_0_7_0+0)
	MOVWF       FARG_memcpy_s1+1 
	MOVLW       16
	MOVWF       FARG_memcpy_n+0 
	MOVLW       0
	MOVWF       FARG_memcpy_n+1 
	CALL        _memcpy+0, 0
	MOVLW       1
	MOVWF       _LCDUpdateFlag+0 
;FirmV_0_7_0.c,1895 :: 		charValueToStr(CloseSoftStopTime,LCDLine2+6);}
	MOVF        _CloseSoftStopTime+0, 0 
	MOVWF       FARG_charValueToStr+0 
	MOVLW       _LCDLine2+6
	MOVWF       FARG_charValueToStr+0 
	MOVLW       hi_addr(_LCDLine2+6)
	MOVWF       FARG_charValueToStr+1 
	CALL        _charValueToStr+0, 0
L_Menu0410:
;FirmV_0_7_0.c,1897 :: 		if(MenuPointer==9)
	MOVF        _MenuPointer+0, 0 
	XORLW       9
	BTFSS       STATUS+0, 2 
	GOTO        L_Menu0411
;FirmV_0_7_0.c,1898 :: 		{memcpy(LCDLine1,"09 Power        ",16);LCDUpdateFlag=1;
	MOVLW       _LCDLine1+0
	MOVWF       FARG_memcpy_d1+0 
	MOVLW       hi_addr(_LCDLine1+0)
	MOVWF       FARG_memcpy_d1+1 
	MOVLW       ?ICS?lstr80_FirmV_0_7_0+0
	MOVWF       TBLPTRL 
	MOVLW       hi_addr(?ICS?lstr80_FirmV_0_7_0+0)
	MOVWF       TBLPTRH 
	MOVLW       higher_addr(?ICS?lstr80_FirmV_0_7_0+0)
	MOVWF       TBLPTRU 
	MOVLW       ?lstr80_FirmV_0_7_0+0
	MOVWF       FSR1L 
	MOVLW       hi_addr(?lstr80_FirmV_0_7_0+0)
	MOVWF       FSR1H 
	MOVLW       17
	MOVWF       R0 
	MOVLW       1
	MOVWF       R1 
	CALL        ___CC2DW+0, 0
	MOVLW       ?lstr80_FirmV_0_7_0+0
	MOVWF       FARG_memcpy_s1+0 
	MOVLW       hi_addr(?lstr80_FirmV_0_7_0+0)
	MOVWF       FARG_memcpy_s1+1 
	MOVLW       16
	MOVWF       FARG_memcpy_n+0 
	MOVLW       0
	MOVWF       FARG_memcpy_n+1 
	CALL        _memcpy+0, 0
	MOVLW       1
	MOVWF       _LCDUpdateFlag+0 
;FirmV_0_7_0.c,1899 :: 		bytetostr(OverloadSens,LCDLine2+6);LCDLine2[9]=' ';}
	MOVF        _OverloadSens+0, 0 
	MOVWF       FARG_ByteToStr_input+0 
	MOVLW       _LCDLine2+6
	MOVWF       FARG_ByteToStr_output+0 
	MOVLW       hi_addr(_LCDLine2+6)
	MOVWF       FARG_ByteToStr_output+1 
	CALL        _ByteToStr+0, 0
	MOVLW       32
	MOVWF       _LCDLine2+9 
L_Menu0411:
;FirmV_0_7_0.c,1901 :: 		if(MenuPointer==10)
	MOVF        _MenuPointer+0, 0 
	XORLW       10
	BTFSS       STATUS+0, 2 
	GOTO        L_Menu0412
;FirmV_0_7_0.c,1902 :: 		{memcpy(LCDLine1,"10 Interval Time",16);LCDUpdateFlag=1;
	MOVLW       _LCDLine1+0
	MOVWF       FARG_memcpy_d1+0 
	MOVLW       hi_addr(_LCDLine1+0)
	MOVWF       FARG_memcpy_d1+1 
	MOVLW       ?ICS?lstr81_FirmV_0_7_0+0
	MOVWF       TBLPTRL 
	MOVLW       hi_addr(?ICS?lstr81_FirmV_0_7_0+0)
	MOVWF       TBLPTRH 
	MOVLW       higher_addr(?ICS?lstr81_FirmV_0_7_0+0)
	MOVWF       TBLPTRU 
	MOVLW       ?lstr81_FirmV_0_7_0+0
	MOVWF       FSR1L 
	MOVLW       hi_addr(?lstr81_FirmV_0_7_0+0)
	MOVWF       FSR1H 
	MOVLW       17
	MOVWF       R0 
	MOVLW       1
	MOVWF       R1 
	CALL        ___CC2DW+0, 0
	MOVLW       ?lstr81_FirmV_0_7_0+0
	MOVWF       FARG_memcpy_s1+0 
	MOVLW       hi_addr(?lstr81_FirmV_0_7_0+0)
	MOVWF       FARG_memcpy_s1+1 
	MOVLW       16
	MOVWF       FARG_memcpy_n+0 
	MOVLW       0
	MOVWF       FARG_memcpy_n+1 
	CALL        _memcpy+0, 0
	MOVLW       1
	MOVWF       _LCDUpdateFlag+0 
;FirmV_0_7_0.c,1903 :: 		charValueToStr(ActionTimeDiff,LCDLine2+6);}
	MOVF        _ActionTimeDiff+0, 0 
	MOVWF       FARG_charValueToStr+0 
	MOVLW       _LCDLine2+6
	MOVWF       FARG_charValueToStr+0 
	MOVLW       hi_addr(_LCDLine2+6)
	MOVWF       FARG_charValueToStr+1 
	CALL        _charValueToStr+0, 0
L_Menu0412:
;FirmV_0_7_0.c,1905 :: 		if(MenuPointer==11)
	MOVF        _MenuPointer+0, 0 
	XORLW       11
	BTFSS       STATUS+0, 2 
	GOTO        L_Menu0413
;FirmV_0_7_0.c,1906 :: 		{memcpy(LCDLine1,"11 Auto-close T ",16);LCDUpdateFlag=1;
	MOVLW       _LCDLine1+0
	MOVWF       FARG_memcpy_d1+0 
	MOVLW       hi_addr(_LCDLine1+0)
	MOVWF       FARG_memcpy_d1+1 
	MOVLW       ?ICS?lstr82_FirmV_0_7_0+0
	MOVWF       TBLPTRL 
	MOVLW       hi_addr(?ICS?lstr82_FirmV_0_7_0+0)
	MOVWF       TBLPTRH 
	MOVLW       higher_addr(?ICS?lstr82_FirmV_0_7_0+0)
	MOVWF       TBLPTRU 
	MOVLW       ?lstr82_FirmV_0_7_0+0
	MOVWF       FSR1L 
	MOVLW       hi_addr(?lstr82_FirmV_0_7_0+0)
	MOVWF       FSR1H 
	MOVLW       17
	MOVWF       R0 
	MOVLW       1
	MOVWF       R1 
	CALL        ___CC2DW+0, 0
	MOVLW       ?lstr82_FirmV_0_7_0+0
	MOVWF       FARG_memcpy_s1+0 
	MOVLW       hi_addr(?lstr82_FirmV_0_7_0+0)
	MOVWF       FARG_memcpy_s1+1 
	MOVLW       16
	MOVWF       FARG_memcpy_n+0 
	MOVLW       0
	MOVWF       FARG_memcpy_n+1 
	CALL        _memcpy+0, 0
	MOVLW       1
	MOVWF       _LCDUpdateFlag+0 
;FirmV_0_7_0.c,1907 :: 		intValueToStr(AutoCloseTime,LCDLine2+4);}
	MOVF        _AutoCloseTime+0, 0 
	MOVWF       FARG_intValueToStr+0 
	MOVF        _AutoCloseTime+1, 0 
	MOVWF       FARG_intValueToStr+1 
	MOVLW       _LCDLine2+4
	MOVWF       FARG_intValueToStr+0 
	MOVLW       hi_addr(_LCDLine2+4)
	MOVWF       FARG_intValueToStr+1 
	CALL        _intValueToStr+0, 0
L_Menu0413:
;FirmV_0_7_0.c,1909 :: 		if(MenuPointer==12)
	MOVF        _MenuPointer+0, 0 
	XORLW       12
	BTFSS       STATUS+0, 2 
	GOTO        L_Menu0414
;FirmV_0_7_0.c,1910 :: 		{memcpy(LCDLine1,"12 Factory Reset",16);LCDUpdateFlag=1;}
	MOVLW       _LCDLine1+0
	MOVWF       FARG_memcpy_d1+0 
	MOVLW       hi_addr(_LCDLine1+0)
	MOVWF       FARG_memcpy_d1+1 
	MOVLW       ?ICS?lstr83_FirmV_0_7_0+0
	MOVWF       TBLPTRL 
	MOVLW       hi_addr(?ICS?lstr83_FirmV_0_7_0+0)
	MOVWF       TBLPTRH 
	MOVLW       higher_addr(?ICS?lstr83_FirmV_0_7_0+0)
	MOVWF       TBLPTRU 
	MOVLW       ?lstr83_FirmV_0_7_0+0
	MOVWF       FSR1L 
	MOVLW       hi_addr(?lstr83_FirmV_0_7_0+0)
	MOVWF       FSR1H 
	MOVLW       17
	MOVWF       R0 
	MOVLW       1
	MOVWF       R1 
	CALL        ___CC2DW+0, 0
	MOVLW       ?lstr83_FirmV_0_7_0+0
	MOVWF       FARG_memcpy_s1+0 
	MOVLW       hi_addr(?lstr83_FirmV_0_7_0+0)
	MOVWF       FARG_memcpy_s1+1 
	MOVLW       16
	MOVWF       FARG_memcpy_n+0 
	MOVLW       0
	MOVWF       FARG_memcpy_n+1 
	CALL        _memcpy+0, 0
	MOVLW       1
	MOVWF       _LCDUpdateFlag+0 
L_Menu0414:
;FirmV_0_7_0.c,1912 :: 		if(MenuPointer==13)
	MOVF        _MenuPointer+0, 0 
	XORLW       13
	BTFSS       STATUS+0, 2 
	GOTO        L_Menu0415
;FirmV_0_7_0.c,1913 :: 		{memcpy(LCDLine1,"13 Open Photo En",16);LCDUpdateFlag=1;
	MOVLW       _LCDLine1+0
	MOVWF       FARG_memcpy_d1+0 
	MOVLW       hi_addr(_LCDLine1+0)
	MOVWF       FARG_memcpy_d1+1 
	MOVLW       ?ICS?lstr84_FirmV_0_7_0+0
	MOVWF       TBLPTRL 
	MOVLW       hi_addr(?ICS?lstr84_FirmV_0_7_0+0)
	MOVWF       TBLPTRH 
	MOVLW       higher_addr(?ICS?lstr84_FirmV_0_7_0+0)
	MOVWF       TBLPTRU 
	MOVLW       ?lstr84_FirmV_0_7_0+0
	MOVWF       FSR1L 
	MOVLW       hi_addr(?lstr84_FirmV_0_7_0+0)
	MOVWF       FSR1H 
	MOVLW       17
	MOVWF       R0 
	MOVLW       1
	MOVWF       R1 
	CALL        ___CC2DW+0, 0
	MOVLW       ?lstr84_FirmV_0_7_0+0
	MOVWF       FARG_memcpy_s1+0 
	MOVLW       hi_addr(?lstr84_FirmV_0_7_0+0)
	MOVWF       FARG_memcpy_s1+1 
	MOVLW       16
	MOVWF       FARG_memcpy_n+0 
	MOVLW       0
	MOVWF       FARG_memcpy_n+1 
	CALL        _memcpy+0, 0
	MOVLW       1
	MOVWF       _LCDUpdateFlag+0 
;FirmV_0_7_0.c,1914 :: 		if(OpenPhEnable==0) memcpy(LCDLine2+6,"No     ",7);else memcpy(LCDLine2+6,"Yes     ",8);}
	MOVF        _OpenPhEnable+0, 0 
	XORLW       0
	BTFSS       STATUS+0, 2 
	GOTO        L_Menu0416
	MOVLW       _LCDLine2+6
	MOVWF       FARG_memcpy_d1+0 
	MOVLW       hi_addr(_LCDLine2+6)
	MOVWF       FARG_memcpy_d1+1 
	MOVLW       78
	MOVWF       ?lstr85_FirmV_0_7_0+0 
	MOVLW       111
	MOVWF       ?lstr85_FirmV_0_7_0+1 
	MOVLW       32
	MOVWF       ?lstr85_FirmV_0_7_0+2 
	MOVLW       32
	MOVWF       ?lstr85_FirmV_0_7_0+3 
	MOVLW       32
	MOVWF       ?lstr85_FirmV_0_7_0+4 
	MOVLW       32
	MOVWF       ?lstr85_FirmV_0_7_0+5 
	MOVLW       32
	MOVWF       ?lstr85_FirmV_0_7_0+6 
	CLRF        ?lstr85_FirmV_0_7_0+7 
	MOVLW       ?lstr85_FirmV_0_7_0+0
	MOVWF       FARG_memcpy_s1+0 
	MOVLW       hi_addr(?lstr85_FirmV_0_7_0+0)
	MOVWF       FARG_memcpy_s1+1 
	MOVLW       7
	MOVWF       FARG_memcpy_n+0 
	MOVLW       0
	MOVWF       FARG_memcpy_n+1 
	CALL        _memcpy+0, 0
	GOTO        L_Menu0417
L_Menu0416:
	MOVLW       _LCDLine2+6
	MOVWF       FARG_memcpy_d1+0 
	MOVLW       hi_addr(_LCDLine2+6)
	MOVWF       FARG_memcpy_d1+1 
	MOVLW       89
	MOVWF       ?lstr86_FirmV_0_7_0+0 
	MOVLW       101
	MOVWF       ?lstr86_FirmV_0_7_0+1 
	MOVLW       115
	MOVWF       ?lstr86_FirmV_0_7_0+2 
	MOVLW       32
	MOVWF       ?lstr86_FirmV_0_7_0+3 
	MOVLW       32
	MOVWF       ?lstr86_FirmV_0_7_0+4 
	MOVLW       32
	MOVWF       ?lstr86_FirmV_0_7_0+5 
	MOVLW       32
	MOVWF       ?lstr86_FirmV_0_7_0+6 
	MOVLW       32
	MOVWF       ?lstr86_FirmV_0_7_0+7 
	CLRF        ?lstr86_FirmV_0_7_0+8 
	MOVLW       ?lstr86_FirmV_0_7_0+0
	MOVWF       FARG_memcpy_s1+0 
	MOVLW       hi_addr(?lstr86_FirmV_0_7_0+0)
	MOVWF       FARG_memcpy_s1+1 
	MOVLW       8
	MOVWF       FARG_memcpy_n+0 
	MOVLW       0
	MOVWF       FARG_memcpy_n+1 
	CALL        _memcpy+0, 0
L_Menu0417:
L_Menu0415:
;FirmV_0_7_0.c,1916 :: 		if(MenuPointer==14)
	MOVF        _MenuPointer+0, 0 
	XORLW       14
	BTFSS       STATUS+0, 2 
	GOTO        L_Menu0418
;FirmV_0_7_0.c,1917 :: 		{memcpy(LCDLine1,"14 Limit Enable ",16);LCDUpdateFlag=1;
	MOVLW       _LCDLine1+0
	MOVWF       FARG_memcpy_d1+0 
	MOVLW       hi_addr(_LCDLine1+0)
	MOVWF       FARG_memcpy_d1+1 
	MOVLW       ?ICS?lstr87_FirmV_0_7_0+0
	MOVWF       TBLPTRL 
	MOVLW       hi_addr(?ICS?lstr87_FirmV_0_7_0+0)
	MOVWF       TBLPTRH 
	MOVLW       higher_addr(?ICS?lstr87_FirmV_0_7_0+0)
	MOVWF       TBLPTRU 
	MOVLW       ?lstr87_FirmV_0_7_0+0
	MOVWF       FSR1L 
	MOVLW       hi_addr(?lstr87_FirmV_0_7_0+0)
	MOVWF       FSR1H 
	MOVLW       17
	MOVWF       R0 
	MOVLW       1
	MOVWF       R1 
	CALL        ___CC2DW+0, 0
	MOVLW       ?lstr87_FirmV_0_7_0+0
	MOVWF       FARG_memcpy_s1+0 
	MOVLW       hi_addr(?lstr87_FirmV_0_7_0+0)
	MOVWF       FARG_memcpy_s1+1 
	MOVLW       16
	MOVWF       FARG_memcpy_n+0 
	MOVLW       0
	MOVWF       FARG_memcpy_n+1 
	CALL        _memcpy+0, 0
	MOVLW       1
	MOVWF       _LCDUpdateFlag+0 
;FirmV_0_7_0.c,1918 :: 		if(LimiterEnable==0) memcpy(LCDLine2+6,"No     ",7);else memcpy(LCDLine2+6,"Yes     ",8);}
	MOVF        _LimiterEnable+0, 0 
	XORLW       0
	BTFSS       STATUS+0, 2 
	GOTO        L_Menu0419
	MOVLW       _LCDLine2+6
	MOVWF       FARG_memcpy_d1+0 
	MOVLW       hi_addr(_LCDLine2+6)
	MOVWF       FARG_memcpy_d1+1 
	MOVLW       78
	MOVWF       ?lstr88_FirmV_0_7_0+0 
	MOVLW       111
	MOVWF       ?lstr88_FirmV_0_7_0+1 
	MOVLW       32
	MOVWF       ?lstr88_FirmV_0_7_0+2 
	MOVLW       32
	MOVWF       ?lstr88_FirmV_0_7_0+3 
	MOVLW       32
	MOVWF       ?lstr88_FirmV_0_7_0+4 
	MOVLW       32
	MOVWF       ?lstr88_FirmV_0_7_0+5 
	MOVLW       32
	MOVWF       ?lstr88_FirmV_0_7_0+6 
	CLRF        ?lstr88_FirmV_0_7_0+7 
	MOVLW       ?lstr88_FirmV_0_7_0+0
	MOVWF       FARG_memcpy_s1+0 
	MOVLW       hi_addr(?lstr88_FirmV_0_7_0+0)
	MOVWF       FARG_memcpy_s1+1 
	MOVLW       7
	MOVWF       FARG_memcpy_n+0 
	MOVLW       0
	MOVWF       FARG_memcpy_n+1 
	CALL        _memcpy+0, 0
	GOTO        L_Menu0420
L_Menu0419:
	MOVLW       _LCDLine2+6
	MOVWF       FARG_memcpy_d1+0 
	MOVLW       hi_addr(_LCDLine2+6)
	MOVWF       FARG_memcpy_d1+1 
	MOVLW       89
	MOVWF       ?lstr89_FirmV_0_7_0+0 
	MOVLW       101
	MOVWF       ?lstr89_FirmV_0_7_0+1 
	MOVLW       115
	MOVWF       ?lstr89_FirmV_0_7_0+2 
	MOVLW       32
	MOVWF       ?lstr89_FirmV_0_7_0+3 
	MOVLW       32
	MOVWF       ?lstr89_FirmV_0_7_0+4 
	MOVLW       32
	MOVWF       ?lstr89_FirmV_0_7_0+5 
	MOVLW       32
	MOVWF       ?lstr89_FirmV_0_7_0+6 
	MOVLW       32
	MOVWF       ?lstr89_FirmV_0_7_0+7 
	CLRF        ?lstr89_FirmV_0_7_0+8 
	MOVLW       ?lstr89_FirmV_0_7_0+0
	MOVWF       FARG_memcpy_s1+0 
	MOVLW       hi_addr(?lstr89_FirmV_0_7_0+0)
	MOVWF       FARG_memcpy_s1+1 
	MOVLW       8
	MOVWF       FARG_memcpy_n+0 
	MOVLW       0
	MOVWF       FARG_memcpy_n+1 
	CALL        _memcpy+0, 0
L_Menu0420:
L_Menu0418:
;FirmV_0_7_0.c,1920 :: 		if(MenuPointer==15)
	MOVF        _MenuPointer+0, 0 
	XORLW       15
	BTFSS       STATUS+0, 2 
	GOTO        L_Menu0421
;FirmV_0_7_0.c,1921 :: 		{memcpy(LCDLine1,"15 Lock Force   ",16);LCDUpdateFlag=1;
	MOVLW       _LCDLine1+0
	MOVWF       FARG_memcpy_d1+0 
	MOVLW       hi_addr(_LCDLine1+0)
	MOVWF       FARG_memcpy_d1+1 
	MOVLW       ?ICS?lstr90_FirmV_0_7_0+0
	MOVWF       TBLPTRL 
	MOVLW       hi_addr(?ICS?lstr90_FirmV_0_7_0+0)
	MOVWF       TBLPTRH 
	MOVLW       higher_addr(?ICS?lstr90_FirmV_0_7_0+0)
	MOVWF       TBLPTRU 
	MOVLW       ?lstr90_FirmV_0_7_0+0
	MOVWF       FSR1L 
	MOVLW       hi_addr(?lstr90_FirmV_0_7_0+0)
	MOVWF       FSR1H 
	MOVLW       17
	MOVWF       R0 
	MOVLW       1
	MOVWF       R1 
	CALL        ___CC2DW+0, 0
	MOVLW       ?lstr90_FirmV_0_7_0+0
	MOVWF       FARG_memcpy_s1+0 
	MOVLW       hi_addr(?lstr90_FirmV_0_7_0+0)
	MOVWF       FARG_memcpy_s1+1 
	MOVLW       16
	MOVWF       FARG_memcpy_n+0 
	MOVLW       0
	MOVWF       FARG_memcpy_n+1 
	CALL        _memcpy+0, 0
	MOVLW       1
	MOVWF       _LCDUpdateFlag+0 
;FirmV_0_7_0.c,1922 :: 		if(LockForce==0) memcpy(LCDLine2+6,"No     ",7);else memcpy(LCDLine2+6,"Yes     ",8);}
	MOVF        _LockForce+0, 0 
	XORLW       0
	BTFSS       STATUS+0, 2 
	GOTO        L_Menu0422
	MOVLW       _LCDLine2+6
	MOVWF       FARG_memcpy_d1+0 
	MOVLW       hi_addr(_LCDLine2+6)
	MOVWF       FARG_memcpy_d1+1 
	MOVLW       78
	MOVWF       ?lstr91_FirmV_0_7_0+0 
	MOVLW       111
	MOVWF       ?lstr91_FirmV_0_7_0+1 
	MOVLW       32
	MOVWF       ?lstr91_FirmV_0_7_0+2 
	MOVLW       32
	MOVWF       ?lstr91_FirmV_0_7_0+3 
	MOVLW       32
	MOVWF       ?lstr91_FirmV_0_7_0+4 
	MOVLW       32
	MOVWF       ?lstr91_FirmV_0_7_0+5 
	MOVLW       32
	MOVWF       ?lstr91_FirmV_0_7_0+6 
	CLRF        ?lstr91_FirmV_0_7_0+7 
	MOVLW       ?lstr91_FirmV_0_7_0+0
	MOVWF       FARG_memcpy_s1+0 
	MOVLW       hi_addr(?lstr91_FirmV_0_7_0+0)
	MOVWF       FARG_memcpy_s1+1 
	MOVLW       7
	MOVWF       FARG_memcpy_n+0 
	MOVLW       0
	MOVWF       FARG_memcpy_n+1 
	CALL        _memcpy+0, 0
	GOTO        L_Menu0423
L_Menu0422:
	MOVLW       _LCDLine2+6
	MOVWF       FARG_memcpy_d1+0 
	MOVLW       hi_addr(_LCDLine2+6)
	MOVWF       FARG_memcpy_d1+1 
	MOVLW       89
	MOVWF       ?lstr92_FirmV_0_7_0+0 
	MOVLW       101
	MOVWF       ?lstr92_FirmV_0_7_0+1 
	MOVLW       115
	MOVWF       ?lstr92_FirmV_0_7_0+2 
	MOVLW       32
	MOVWF       ?lstr92_FirmV_0_7_0+3 
	MOVLW       32
	MOVWF       ?lstr92_FirmV_0_7_0+4 
	MOVLW       32
	MOVWF       ?lstr92_FirmV_0_7_0+5 
	MOVLW       32
	MOVWF       ?lstr92_FirmV_0_7_0+6 
	MOVLW       32
	MOVWF       ?lstr92_FirmV_0_7_0+7 
	CLRF        ?lstr92_FirmV_0_7_0+8 
	MOVLW       ?lstr92_FirmV_0_7_0+0
	MOVWF       FARG_memcpy_s1+0 
	MOVLW       hi_addr(?lstr92_FirmV_0_7_0+0)
	MOVWF       FARG_memcpy_s1+1 
	MOVLW       8
	MOVWF       FARG_memcpy_n+0 
	MOVLW       0
	MOVWF       FARG_memcpy_n+1 
	CALL        _memcpy+0, 0
L_Menu0423:
L_Menu0421:
;FirmV_0_7_0.c,1924 :: 		if(MenuPointer==16)
	MOVF        _MenuPointer+0, 0 
	XORLW       16
	BTFSS       STATUS+0, 2 
	GOTO        L_Menu0424
;FirmV_0_7_0.c,1925 :: 		{memcpy(LCDLine1,"16 Au-Cl Pass   ",16);LCDUpdateFlag=1;
	MOVLW       _LCDLine1+0
	MOVWF       FARG_memcpy_d1+0 
	MOVLW       hi_addr(_LCDLine1+0)
	MOVWF       FARG_memcpy_d1+1 
	MOVLW       ?ICS?lstr93_FirmV_0_7_0+0
	MOVWF       TBLPTRL 
	MOVLW       hi_addr(?ICS?lstr93_FirmV_0_7_0+0)
	MOVWF       TBLPTRH 
	MOVLW       higher_addr(?ICS?lstr93_FirmV_0_7_0+0)
	MOVWF       TBLPTRU 
	MOVLW       ?lstr93_FirmV_0_7_0+0
	MOVWF       FSR1L 
	MOVLW       hi_addr(?lstr93_FirmV_0_7_0+0)
	MOVWF       FSR1H 
	MOVLW       17
	MOVWF       R0 
	MOVLW       1
	MOVWF       R1 
	CALL        ___CC2DW+0, 0
	MOVLW       ?lstr93_FirmV_0_7_0+0
	MOVWF       FARG_memcpy_s1+0 
	MOVLW       hi_addr(?lstr93_FirmV_0_7_0+0)
	MOVWF       FARG_memcpy_s1+1 
	MOVLW       16
	MOVWF       FARG_memcpy_n+0 
	MOVLW       0
	MOVWF       FARG_memcpy_n+1 
	CALL        _memcpy+0, 0
	MOVLW       1
	MOVWF       _LCDUpdateFlag+0 
;FirmV_0_7_0.c,1926 :: 		charValueToStr(CloseAfterPass,LCDLine2+6);}
	MOVF        _CloseAfterPass+0, 0 
	MOVWF       FARG_charValueToStr+0 
	MOVLW       _LCDLine2+6
	MOVWF       FARG_charValueToStr+0 
	MOVLW       hi_addr(_LCDLine2+6)
	MOVWF       FARG_charValueToStr+1 
	CALL        _charValueToStr+0, 0
L_Menu0424:
;FirmV_0_7_0.c,1928 :: 		if(MenuPointer==17)
	MOVF        _MenuPointer+0, 0 
	XORLW       17
	BTFSS       STATUS+0, 2 
	GOTO        L_Menu0425
;FirmV_0_7_0.c,1929 :: 		{memcpy(LCDLine1,"17 Save Changes ",16);LCDUpdateFlag=1;}
	MOVLW       _LCDLine1+0
	MOVWF       FARG_memcpy_d1+0 
	MOVLW       hi_addr(_LCDLine1+0)
	MOVWF       FARG_memcpy_d1+1 
	MOVLW       ?ICS?lstr94_FirmV_0_7_0+0
	MOVWF       TBLPTRL 
	MOVLW       hi_addr(?ICS?lstr94_FirmV_0_7_0+0)
	MOVWF       TBLPTRH 
	MOVLW       higher_addr(?ICS?lstr94_FirmV_0_7_0+0)
	MOVWF       TBLPTRU 
	MOVLW       ?lstr94_FirmV_0_7_0+0
	MOVWF       FSR1L 
	MOVLW       hi_addr(?lstr94_FirmV_0_7_0+0)
	MOVWF       FSR1H 
	MOVLW       17
	MOVWF       R0 
	MOVLW       1
	MOVWF       R1 
	CALL        ___CC2DW+0, 0
	MOVLW       ?lstr94_FirmV_0_7_0+0
	MOVWF       FARG_memcpy_s1+0 
	MOVLW       hi_addr(?lstr94_FirmV_0_7_0+0)
	MOVWF       FARG_memcpy_s1+1 
	MOVLW       16
	MOVWF       FARG_memcpy_n+0 
	MOVLW       0
	MOVWF       FARG_memcpy_n+1 
	CALL        _memcpy+0, 0
	MOVLW       1
	MOVWF       _LCDUpdateFlag+0 
L_Menu0425:
;FirmV_0_7_0.c,1931 :: 		if(MenuPointer==18)
	MOVF        _MenuPointer+0, 0 
	XORLW       18
	BTFSS       STATUS+0, 2 
	GOTO        L_Menu0426
;FirmV_0_7_0.c,1932 :: 		{memcpy(LCDLine1,"18 Discard Exit ",16);LCDUpdateFlag=1;}
	MOVLW       _LCDLine1+0
	MOVWF       FARG_memcpy_d1+0 
	MOVLW       hi_addr(_LCDLine1+0)
	MOVWF       FARG_memcpy_d1+1 
	MOVLW       ?ICS?lstr95_FirmV_0_7_0+0
	MOVWF       TBLPTRL 
	MOVLW       hi_addr(?ICS?lstr95_FirmV_0_7_0+0)
	MOVWF       TBLPTRH 
	MOVLW       higher_addr(?ICS?lstr95_FirmV_0_7_0+0)
	MOVWF       TBLPTRU 
	MOVLW       ?lstr95_FirmV_0_7_0+0
	MOVWF       FSR1L 
	MOVLW       hi_addr(?lstr95_FirmV_0_7_0+0)
	MOVWF       FSR1H 
	MOVLW       17
	MOVWF       R0 
	MOVLW       1
	MOVWF       R1 
	CALL        ___CC2DW+0, 0
	MOVLW       ?lstr95_FirmV_0_7_0+0
	MOVWF       FARG_memcpy_s1+0 
	MOVLW       hi_addr(?lstr95_FirmV_0_7_0+0)
	MOVWF       FARG_memcpy_s1+1 
	MOVLW       16
	MOVWF       FARG_memcpy_n+0 
	MOVLW       0
	MOVWF       FARG_memcpy_n+1 
	CALL        _memcpy+0, 0
	MOVLW       1
	MOVWF       _LCDUpdateFlag+0 
L_Menu0426:
;FirmV_0_7_0.c,1935 :: 		State=101;
	MOVLW       101
	MOVWF       _State+0 
;FirmV_0_7_0.c,1936 :: 		}
	RETURN      0
; end of _Menu0

_About:

;FirmV_0_7_0.c,1944 :: 		void About()
;FirmV_0_7_0.c,1946 :: 		if((Events.Keys.b1==1))
	BTFSS       _Events+0, 1 
	GOTO        L_About427
;FirmV_0_7_0.c,1947 :: 		AboutCounter=AboutCounter+1;
	INCF        _AboutCounter+0, 1 
L_About427:
;FirmV_0_7_0.c,1949 :: 		if(AboutCounter==1)
	MOVF        _AboutCounter+0, 0 
	XORLW       1
	BTFSS       STATUS+0, 2 
	GOTO        L_About428
;FirmV_0_7_0.c,1950 :: 		{memcpy(LCDLine1,Crypto[2],16);
	MOVLW       _LCDLine1+0
	MOVWF       FARG_memcpy_d1+0 
	MOVLW       hi_addr(_LCDLine1+0)
	MOVWF       FARG_memcpy_d1+1 
	MOVLW       _crypto+32
	MOVWF       FARG_memcpy_s1+0 
	MOVLW       hi_addr(_crypto+32)
	MOVWF       FARG_memcpy_s1+1 
	MOVLW       16
	MOVWF       FARG_memcpy_n+0 
	MOVLW       0
	MOVWF       FARG_memcpy_n+1 
	CALL        _memcpy+0, 0
;FirmV_0_7_0.c,1951 :: 		memcpy(LCDLine2,Crypto[3],16);
	MOVLW       _LCDLine2+0
	MOVWF       FARG_memcpy_d1+0 
	MOVLW       hi_addr(_LCDLine2+0)
	MOVWF       FARG_memcpy_d1+1 
	MOVLW       _crypto+48
	MOVWF       FARG_memcpy_s1+0 
	MOVLW       hi_addr(_crypto+48)
	MOVWF       FARG_memcpy_s1+1 
	MOVLW       16
	MOVWF       FARG_memcpy_n+0 
	MOVLW       0
	MOVWF       FARG_memcpy_n+1 
	CALL        _memcpy+0, 0
;FirmV_0_7_0.c,1952 :: 		LCDUpdateFlag=1;
	MOVLW       1
	MOVWF       _LCDUpdateFlag+0 
;FirmV_0_7_0.c,1953 :: 		}
L_About428:
;FirmV_0_7_0.c,1955 :: 		if(AboutCounter==2)
	MOVF        _AboutCounter+0, 0 
	XORLW       2
	BTFSS       STATUS+0, 2 
	GOTO        L_About429
;FirmV_0_7_0.c,1956 :: 		{memcpy(LCDLine1,Crypto[4],16);
	MOVLW       _LCDLine1+0
	MOVWF       FARG_memcpy_d1+0 
	MOVLW       hi_addr(_LCDLine1+0)
	MOVWF       FARG_memcpy_d1+1 
	MOVLW       _crypto+64
	MOVWF       FARG_memcpy_s1+0 
	MOVLW       hi_addr(_crypto+64)
	MOVWF       FARG_memcpy_s1+1 
	MOVLW       16
	MOVWF       FARG_memcpy_n+0 
	MOVLW       0
	MOVWF       FARG_memcpy_n+1 
	CALL        _memcpy+0, 0
;FirmV_0_7_0.c,1957 :: 		memcpy(LCDLine2,Crypto[5],16);
	MOVLW       _LCDLine2+0
	MOVWF       FARG_memcpy_d1+0 
	MOVLW       hi_addr(_LCDLine2+0)
	MOVWF       FARG_memcpy_d1+1 
	MOVLW       _crypto+80
	MOVWF       FARG_memcpy_s1+0 
	MOVLW       hi_addr(_crypto+80)
	MOVWF       FARG_memcpy_s1+1 
	MOVLW       16
	MOVWF       FARG_memcpy_n+0 
	MOVLW       0
	MOVWF       FARG_memcpy_n+1 
	CALL        _memcpy+0, 0
;FirmV_0_7_0.c,1958 :: 		LCDUpdateFlag=1;
	MOVLW       1
	MOVWF       _LCDUpdateFlag+0 
;FirmV_0_7_0.c,1959 :: 		}
L_About429:
;FirmV_0_7_0.c,1961 :: 		if(AboutCounter==3)
	MOVF        _AboutCounter+0, 0 
	XORLW       3
	BTFSS       STATUS+0, 2 
	GOTO        L_About430
;FirmV_0_7_0.c,1962 :: 		{State=100;}
	MOVLW       100
	MOVWF       _State+0 
L_About430:
;FirmV_0_7_0.c,1963 :: 		}
	RETURN      0
; end of _About

_Menu1:

;FirmV_0_7_0.c,1972 :: 		void Menu1()
;FirmV_0_7_0.c,1975 :: 		if((Events.Keys.b0==1))
	BTFSS       _Events+0, 0 
	GOTO        L_Menu1431
;FirmV_0_7_0.c,1976 :: 		{if(MenuPointer==0){MenuPointer=18;}else{MenuPointer=MenuPointer-1;}State=100;}
	MOVF        _MenuPointer+0, 0 
	XORLW       0
	BTFSS       STATUS+0, 2 
	GOTO        L_Menu1432
	MOVLW       18
	MOVWF       _MenuPointer+0 
	GOTO        L_Menu1433
L_Menu1432:
	DECF        _MenuPointer+0, 1 
L_Menu1433:
	MOVLW       100
	MOVWF       _State+0 
L_Menu1431:
;FirmV_0_7_0.c,1978 :: 		if((Events.Keys.b2==1))
	BTFSS       _Events+0, 2 
	GOTO        L_Menu1434
;FirmV_0_7_0.c,1979 :: 		{if(MenuPointer==18){MenuPointer=0;}else{MenuPointer=MenuPointer+1;}State=100;}
	MOVF        _MenuPointer+0, 0 
	XORLW       18
	BTFSS       STATUS+0, 2 
	GOTO        L_Menu1435
	CLRF        _MenuPointer+0 
	GOTO        L_Menu1436
L_Menu1435:
	INCF        _MenuPointer+0, 1 
L_Menu1436:
	MOVLW       100
	MOVWF       _State+0 
L_Menu1434:
;FirmV_0_7_0.c,1981 :: 		if((Events.Keys.b1==1))
	BTFSS       _Events+0, 1 
	GOTO        L_Menu1437
;FirmV_0_7_0.c,1982 :: 		{State=102;}
	MOVLW       102
	MOVWF       _State+0 
L_Menu1437:
;FirmV_0_7_0.c,1984 :: 		if(Events.Keys==0b101)
	MOVF        _Events+0, 0 
	XORLW       5
	BTFSS       STATUS+0, 2 
	GOTO        L_Menu1438
;FirmV_0_7_0.c,1985 :: 		{memcpy(LCDLine1,Crypto[0],16);AboutCounter=0;memcpy(LCDLine2,Crypto[1],16);LCDLines=2;LCDUpdateFlag=1;State=250;}
	MOVLW       _LCDLine1+0
	MOVWF       FARG_memcpy_d1+0 
	MOVLW       hi_addr(_LCDLine1+0)
	MOVWF       FARG_memcpy_d1+1 
	MOVLW       _crypto+0
	MOVWF       FARG_memcpy_s1+0 
	MOVLW       hi_addr(_crypto+0)
	MOVWF       FARG_memcpy_s1+1 
	MOVLW       16
	MOVWF       FARG_memcpy_n+0 
	MOVLW       0
	MOVWF       FARG_memcpy_n+1 
	CALL        _memcpy+0, 0
	CLRF        _AboutCounter+0 
	MOVLW       _LCDLine2+0
	MOVWF       FARG_memcpy_d1+0 
	MOVLW       hi_addr(_LCDLine2+0)
	MOVWF       FARG_memcpy_d1+1 
	MOVLW       _crypto+16
	MOVWF       FARG_memcpy_s1+0 
	MOVLW       hi_addr(_crypto+16)
	MOVWF       FARG_memcpy_s1+1 
	MOVLW       16
	MOVWF       FARG_memcpy_n+0 
	MOVLW       0
	MOVWF       FARG_memcpy_n+1 
	CALL        _memcpy+0, 0
	MOVLW       2
	MOVWF       _LCDLines+0 
	MOVLW       1
	MOVWF       _LCDUpdateFlag+0 
	MOVLW       250
	MOVWF       _State+0 
L_Menu1438:
;FirmV_0_7_0.c,1988 :: 		}
	RETURN      0
; end of _Menu1

_Menu2:

;FirmV_0_7_0.c,1996 :: 		void Menu2()
;FirmV_0_7_0.c,1999 :: 		LCDFlash=1;
	MOVLW       1
	MOVWF       _LCDFlash+0 
;FirmV_0_7_0.c,2001 :: 		if(Events.Keys.b1==1)
	BTFSS       _Events+0, 1 
	GOTO        L_Menu2439
;FirmV_0_7_0.c,2003 :: 		LCDFlash=0;LCDFlashFlag=0;State=101;
	CLRF        _LCDFlash+0 
	CLRF        _LCDFlashFlag+0 
	MOVLW       101
	MOVWF       _State+0 
;FirmV_0_7_0.c,2004 :: 		if(MenuPointer==0)
	MOVF        _MenuPointer+0, 0 
	XORLW       0
	BTFSS       STATUS+0, 2 
	GOTO        L_Menu2440
;FirmV_0_7_0.c,2006 :: 		LearnPhase=0;
	CLRF        _LearnPhase+0 
;FirmV_0_7_0.c,2007 :: 		if(LearningMode==0)
	MOVF        _LearningMode+0, 0 
	XORLW       0
	BTFSS       STATUS+0, 2 
	GOTO        L_Menu2441
;FirmV_0_7_0.c,2008 :: 		{State=200;LongBuzzFlag=1;}
	MOVLW       200
	MOVWF       _State+0 
	MOVLW       1
	MOVWF       _LongBuzzFlag+0 
L_Menu2441:
;FirmV_0_7_0.c,2009 :: 		if(LearningMode==1)
	MOVF        _LearningMode+0, 0 
	XORLW       1
	BTFSS       STATUS+0, 2 
	GOTO        L_Menu2442
;FirmV_0_7_0.c,2010 :: 		{State=201;LongBuzzFlag=1;}
	MOVLW       201
	MOVWF       _State+0 
	MOVLW       1
	MOVWF       _LongBuzzFlag+0 
L_Menu2442:
;FirmV_0_7_0.c,2011 :: 		}
L_Menu2440:
;FirmV_0_7_0.c,2012 :: 		}
L_Menu2439:
;FirmV_0_7_0.c,2015 :: 		if(MenuPointer==0)
	MOVF        _MenuPointer+0, 0 
	XORLW       0
	BTFSS       STATUS+0, 2 
	GOTO        L_Menu2443
;FirmV_0_7_0.c,2016 :: 		{ if((Events.Keys.b0==1)&&(LearningMode>0))
	BTFSS       _Events+0, 0 
	GOTO        L_Menu2446
	MOVF        _LearningMode+0, 0 
	SUBLW       0
	BTFSC       STATUS+0, 0 
	GOTO        L_Menu2446
L__Menu2772:
;FirmV_0_7_0.c,2017 :: 		{LearningMode=LearningMode-1;Menu0();State=102;}
	DECF        _LearningMode+0, 1 
	CALL        _Menu0+0, 0
	MOVLW       102
	MOVWF       _State+0 
L_Menu2446:
;FirmV_0_7_0.c,2018 :: 		if((Events.Keys.b2==1)&&(LearningMode<1))
	BTFSS       _Events+0, 2 
	GOTO        L_Menu2449
	MOVLW       1
	SUBWF       _LearningMode+0, 0 
	BTFSC       STATUS+0, 0 
	GOTO        L_Menu2449
L__Menu2771:
;FirmV_0_7_0.c,2019 :: 		{LearningMode=LearningMode+1;Menu0();State=102;}
	INCF        _LearningMode+0, 1 
	CALL        _Menu0+0, 0
	MOVLW       102
	MOVWF       _State+0 
L_Menu2449:
;FirmV_0_7_0.c,2020 :: 		}
L_Menu2443:
;FirmV_0_7_0.c,2024 :: 		if(MenuPointer==1)
	MOVF        _MenuPointer+0, 0 
	XORLW       1
	BTFSS       STATUS+0, 2 
	GOTO        L_Menu2450
;FirmV_0_7_0.c,2025 :: 		{ if((Events.Keys.b0==1)&&(Door1OpenTime>0))
	BTFSS       _Events+0, 0 
	GOTO        L_Menu2453
	MOVF        _Door1OpenTime+0, 0 
	SUBLW       0
	BTFSC       STATUS+0, 0 
	GOTO        L_Menu2453
L__Menu2770:
;FirmV_0_7_0.c,2026 :: 		{Door1OpenTime=Door1OpenTime-1;Menu0();State=102;}
	DECF        _Door1OpenTime+0, 1 
	CALL        _Menu0+0, 0
	MOVLW       102
	MOVWF       _State+0 
L_Menu2453:
;FirmV_0_7_0.c,2027 :: 		if((Events.Keys.b2==1)&&(Door1OpenTime<255))
	BTFSS       _Events+0, 2 
	GOTO        L_Menu2456
	MOVLW       255
	SUBWF       _Door1OpenTime+0, 0 
	BTFSC       STATUS+0, 0 
	GOTO        L_Menu2456
L__Menu2769:
;FirmV_0_7_0.c,2028 :: 		{Door1OpenTime=Door1OpenTime+1;Menu0();State=102;}
	INCF        _Door1OpenTime+0, 1 
	CALL        _Menu0+0, 0
	MOVLW       102
	MOVWF       _State+0 
L_Menu2456:
;FirmV_0_7_0.c,2029 :: 		}
L_Menu2450:
;FirmV_0_7_0.c,2033 :: 		if(MenuPointer==2)
	MOVF        _MenuPointer+0, 0 
	XORLW       2
	BTFSS       STATUS+0, 2 
	GOTO        L_Menu2457
;FirmV_0_7_0.c,2034 :: 		{ if((Events.Keys.b0==1)&&(Door2OpenTime>0))
	BTFSS       _Events+0, 0 
	GOTO        L_Menu2460
	MOVF        _Door2OpenTime+0, 0 
	SUBLW       0
	BTFSC       STATUS+0, 0 
	GOTO        L_Menu2460
L__Menu2768:
;FirmV_0_7_0.c,2035 :: 		{Door2OpenTime=Door2OpenTime-1;Menu0();State=102;}
	DECF        _Door2OpenTime+0, 1 
	CALL        _Menu0+0, 0
	MOVLW       102
	MOVWF       _State+0 
L_Menu2460:
;FirmV_0_7_0.c,2036 :: 		if((Events.Keys.b2==1)&&(Door2OpenTime<255))
	BTFSS       _Events+0, 2 
	GOTO        L_Menu2463
	MOVLW       255
	SUBWF       _Door2OpenTime+0, 0 
	BTFSC       STATUS+0, 0 
	GOTO        L_Menu2463
L__Menu2767:
;FirmV_0_7_0.c,2037 :: 		{Door2OpenTime=Door2OpenTime+1;Menu0();State=102;}
	INCF        _Door2OpenTime+0, 1 
	CALL        _Menu0+0, 0
	MOVLW       102
	MOVWF       _State+0 
L_Menu2463:
;FirmV_0_7_0.c,2038 :: 		}
L_Menu2457:
;FirmV_0_7_0.c,2041 :: 		if(MenuPointer==3)
	MOVF        _MenuPointer+0, 0 
	XORLW       3
	BTFSS       STATUS+0, 2 
	GOTO        L_Menu2464
;FirmV_0_7_0.c,2042 :: 		{ if((Events.Keys.b0==1)&&(Door1CloseTime>0))
	BTFSS       _Events+0, 0 
	GOTO        L_Menu2467
	MOVF        _Door1CloseTime+0, 0 
	SUBLW       0
	BTFSC       STATUS+0, 0 
	GOTO        L_Menu2467
L__Menu2766:
;FirmV_0_7_0.c,2043 :: 		{Door1CloseTime=Door1CloseTime-1;Menu0();State=102;}
	DECF        _Door1CloseTime+0, 1 
	CALL        _Menu0+0, 0
	MOVLW       102
	MOVWF       _State+0 
L_Menu2467:
;FirmV_0_7_0.c,2044 :: 		if((Events.Keys.b2==1)&&(Door1CloseTime<255))
	BTFSS       _Events+0, 2 
	GOTO        L_Menu2470
	MOVLW       255
	SUBWF       _Door1CloseTime+0, 0 
	BTFSC       STATUS+0, 0 
	GOTO        L_Menu2470
L__Menu2765:
;FirmV_0_7_0.c,2045 :: 		{Door1CloseTime=Door1CloseTime+1;Menu0();State=102;}
	INCF        _Door1CloseTime+0, 1 
	CALL        _Menu0+0, 0
	MOVLW       102
	MOVWF       _State+0 
L_Menu2470:
;FirmV_0_7_0.c,2046 :: 		}
L_Menu2464:
;FirmV_0_7_0.c,2049 :: 		if(MenuPointer==4)
	MOVF        _MenuPointer+0, 0 
	XORLW       4
	BTFSS       STATUS+0, 2 
	GOTO        L_Menu2471
;FirmV_0_7_0.c,2050 :: 		{ if((Events.Keys.b0==1)&&(Door2CloseTime>0))
	BTFSS       _Events+0, 0 
	GOTO        L_Menu2474
	MOVF        _Door2CloseTime+0, 0 
	SUBLW       0
	BTFSC       STATUS+0, 0 
	GOTO        L_Menu2474
L__Menu2764:
;FirmV_0_7_0.c,2051 :: 		{Door2CloseTime=Door2CloseTime-1;Menu0();State=102;}
	DECF        _Door2CloseTime+0, 1 
	CALL        _Menu0+0, 0
	MOVLW       102
	MOVWF       _State+0 
L_Menu2474:
;FirmV_0_7_0.c,2052 :: 		if((Events.Keys.b2==1)&&(Door2CloseTime<255))
	BTFSS       _Events+0, 2 
	GOTO        L_Menu2477
	MOVLW       255
	SUBWF       _Door2CloseTime+0, 0 
	BTFSC       STATUS+0, 0 
	GOTO        L_Menu2477
L__Menu2763:
;FirmV_0_7_0.c,2053 :: 		{Door2CloseTime=Door2CloseTime+1;Menu0();State=102;}
	INCF        _Door2CloseTime+0, 1 
	CALL        _Menu0+0, 0
	MOVLW       102
	MOVWF       _State+0 
L_Menu2477:
;FirmV_0_7_0.c,2054 :: 		}
L_Menu2471:
;FirmV_0_7_0.c,2058 :: 		if(MenuPointer==5)
	MOVF        _MenuPointer+0, 0 
	XORLW       5
	BTFSS       STATUS+0, 2 
	GOTO        L_Menu2478
;FirmV_0_7_0.c,2059 :: 		{ if((Events.Keys.b0==1)&&(OpenSoftStartTime>0))
	BTFSS       _Events+0, 0 
	GOTO        L_Menu2481
	MOVF        _OpenSoftStartTime+0, 0 
	SUBLW       0
	BTFSC       STATUS+0, 0 
	GOTO        L_Menu2481
L__Menu2762:
;FirmV_0_7_0.c,2060 :: 		{OpenSoftStartTime=OpenSoftStartTime-1;Menu0();State=102;}
	DECF        _OpenSoftStartTime+0, 1 
	CALL        _Menu0+0, 0
	MOVLW       102
	MOVWF       _State+0 
L_Menu2481:
;FirmV_0_7_0.c,2061 :: 		if((Events.Keys.b2==1)&&(OpenSoftStartTime<255))
	BTFSS       _Events+0, 2 
	GOTO        L_Menu2484
	MOVLW       255
	SUBWF       _OpenSoftStartTime+0, 0 
	BTFSC       STATUS+0, 0 
	GOTO        L_Menu2484
L__Menu2761:
;FirmV_0_7_0.c,2062 :: 		{OpenSoftStartTime=OpenSoftStartTime+1;Menu0();State=102;}
	INCF        _OpenSoftStartTime+0, 1 
	CALL        _Menu0+0, 0
	MOVLW       102
	MOVWF       _State+0 
L_Menu2484:
;FirmV_0_7_0.c,2063 :: 		}
L_Menu2478:
;FirmV_0_7_0.c,2066 :: 		if(MenuPointer==6)
	MOVF        _MenuPointer+0, 0 
	XORLW       6
	BTFSS       STATUS+0, 2 
	GOTO        L_Menu2485
;FirmV_0_7_0.c,2067 :: 		{ if((Events.Keys.b0==1)&&(OpenSoftStopTime>0))
	BTFSS       _Events+0, 0 
	GOTO        L_Menu2488
	MOVF        _OpenSoftStopTime+0, 0 
	SUBLW       0
	BTFSC       STATUS+0, 0 
	GOTO        L_Menu2488
L__Menu2760:
;FirmV_0_7_0.c,2068 :: 		{OpenSoftStopTime=OpenSoftStopTime-1;Menu0();State=102;}
	DECF        _OpenSoftStopTime+0, 1 
	CALL        _Menu0+0, 0
	MOVLW       102
	MOVWF       _State+0 
L_Menu2488:
;FirmV_0_7_0.c,2069 :: 		if((Events.Keys.b2==1)&&(OpenSoftStopTime<255))
	BTFSS       _Events+0, 2 
	GOTO        L_Menu2491
	MOVLW       255
	SUBWF       _OpenSoftStopTime+0, 0 
	BTFSC       STATUS+0, 0 
	GOTO        L_Menu2491
L__Menu2759:
;FirmV_0_7_0.c,2070 :: 		{OpenSoftStopTime=OpenSoftStopTime+1;Menu0();State=102;}
	INCF        _OpenSoftStopTime+0, 1 
	CALL        _Menu0+0, 0
	MOVLW       102
	MOVWF       _State+0 
L_Menu2491:
;FirmV_0_7_0.c,2071 :: 		}
L_Menu2485:
;FirmV_0_7_0.c,2074 :: 		if(MenuPointer==7)
	MOVF        _MenuPointer+0, 0 
	XORLW       7
	BTFSS       STATUS+0, 2 
	GOTO        L_Menu2492
;FirmV_0_7_0.c,2075 :: 		{ if((Events.Keys.b0==1)&&(CloseSoftStartTime>0))
	BTFSS       _Events+0, 0 
	GOTO        L_Menu2495
	MOVF        _CloseSoftStartTime+0, 0 
	SUBLW       0
	BTFSC       STATUS+0, 0 
	GOTO        L_Menu2495
L__Menu2758:
;FirmV_0_7_0.c,2076 :: 		{CloseSoftStartTime=CloseSoftStartTime-1;Menu0();State=102;}
	DECF        _CloseSoftStartTime+0, 1 
	CALL        _Menu0+0, 0
	MOVLW       102
	MOVWF       _State+0 
L_Menu2495:
;FirmV_0_7_0.c,2077 :: 		if((Events.Keys.b2==1)&&(CloseSoftStartTime<255))
	BTFSS       _Events+0, 2 
	GOTO        L_Menu2498
	MOVLW       255
	SUBWF       _CloseSoftStartTime+0, 0 
	BTFSC       STATUS+0, 0 
	GOTO        L_Menu2498
L__Menu2757:
;FirmV_0_7_0.c,2078 :: 		{CloseSoftStartTime=CloseSoftStartTime+1;Menu0();State=102;}
	INCF        _CloseSoftStartTime+0, 1 
	CALL        _Menu0+0, 0
	MOVLW       102
	MOVWF       _State+0 
L_Menu2498:
;FirmV_0_7_0.c,2079 :: 		}
L_Menu2492:
;FirmV_0_7_0.c,2082 :: 		if(MenuPointer==8)
	MOVF        _MenuPointer+0, 0 
	XORLW       8
	BTFSS       STATUS+0, 2 
	GOTO        L_Menu2499
;FirmV_0_7_0.c,2083 :: 		{ if((Events.Keys.b0==1)&&(CloseSoftStopTime>0))
	BTFSS       _Events+0, 0 
	GOTO        L_Menu2502
	MOVF        _CloseSoftStopTime+0, 0 
	SUBLW       0
	BTFSC       STATUS+0, 0 
	GOTO        L_Menu2502
L__Menu2756:
;FirmV_0_7_0.c,2084 :: 		{CloseSoftStopTime=CloseSoftStopTime-1;Menu0();State=102;}
	DECF        _CloseSoftStopTime+0, 1 
	CALL        _Menu0+0, 0
	MOVLW       102
	MOVWF       _State+0 
L_Menu2502:
;FirmV_0_7_0.c,2085 :: 		if((Events.Keys.b2==1)&&(CloseSoftStopTime<255))
	BTFSS       _Events+0, 2 
	GOTO        L_Menu2505
	MOVLW       255
	SUBWF       _CloseSoftStopTime+0, 0 
	BTFSC       STATUS+0, 0 
	GOTO        L_Menu2505
L__Menu2755:
;FirmV_0_7_0.c,2086 :: 		{CloseSoftStopTime=CloseSoftStopTime+1;Menu0();State=102;}
	INCF        _CloseSoftStopTime+0, 1 
	CALL        _Menu0+0, 0
	MOVLW       102
	MOVWF       _State+0 
L_Menu2505:
;FirmV_0_7_0.c,2087 :: 		}
L_Menu2499:
;FirmV_0_7_0.c,2091 :: 		if(MenuPointer==9)
	MOVF        _MenuPointer+0, 0 
	XORLW       9
	BTFSS       STATUS+0, 2 
	GOTO        L_Menu2506
;FirmV_0_7_0.c,2092 :: 		{ if((Events.Keys.b0==1)&&(OverloadSens>0))
	BTFSS       _Events+0, 0 
	GOTO        L_Menu2509
	MOVF        _OverloadSens+0, 0 
	SUBLW       0
	BTFSC       STATUS+0, 0 
	GOTO        L_Menu2509
L__Menu2754:
;FirmV_0_7_0.c,2093 :: 		{OverloadSens=OverloadSens-1;Menu0();State=102;}
	DECF        _OverloadSens+0, 1 
	CALL        _Menu0+0, 0
	MOVLW       102
	MOVWF       _State+0 
L_Menu2509:
;FirmV_0_7_0.c,2094 :: 		if((Events.Keys.b2==1)&&(OverloadSens<9))
	BTFSS       _Events+0, 2 
	GOTO        L_Menu2512
	MOVLW       9
	SUBWF       _OverloadSens+0, 0 
	BTFSC       STATUS+0, 0 
	GOTO        L_Menu2512
L__Menu2753:
;FirmV_0_7_0.c,2095 :: 		{OverloadSens=OverloadSens+1;Menu0();State=102;}
	INCF        _OverloadSens+0, 1 
	CALL        _Menu0+0, 0
	MOVLW       102
	MOVWF       _State+0 
L_Menu2512:
;FirmV_0_7_0.c,2096 :: 		}
L_Menu2506:
;FirmV_0_7_0.c,2099 :: 		if(MenuPointer==10)
	MOVF        _MenuPointer+0, 0 
	XORLW       10
	BTFSS       STATUS+0, 2 
	GOTO        L_Menu2513
;FirmV_0_7_0.c,2100 :: 		{ if((Events.Keys.b0==1)&&(ActionTimeDiff>0))
	BTFSS       _Events+0, 0 
	GOTO        L_Menu2516
	MOVF        _ActionTimeDiff+0, 0 
	SUBLW       0
	BTFSC       STATUS+0, 0 
	GOTO        L_Menu2516
L__Menu2752:
;FirmV_0_7_0.c,2101 :: 		{ActionTimeDiff=ActionTimeDiff-1;Menu0();State=102;}
	DECF        _ActionTimeDiff+0, 1 
	CALL        _Menu0+0, 0
	MOVLW       102
	MOVWF       _State+0 
L_Menu2516:
;FirmV_0_7_0.c,2102 :: 		if((Events.Keys.b2==1)&&(ActionTimeDiff<255))
	BTFSS       _Events+0, 2 
	GOTO        L_Menu2519
	MOVLW       255
	SUBWF       _ActionTimeDiff+0, 0 
	BTFSC       STATUS+0, 0 
	GOTO        L_Menu2519
L__Menu2751:
;FirmV_0_7_0.c,2103 :: 		{ActionTimeDiff=ActionTimeDiff+1;Menu0();State=102;}
	INCF        _ActionTimeDiff+0, 1 
	CALL        _Menu0+0, 0
	MOVLW       102
	MOVWF       _State+0 
L_Menu2519:
;FirmV_0_7_0.c,2104 :: 		}
L_Menu2513:
;FirmV_0_7_0.c,2107 :: 		if(MenuPointer==11)
	MOVF        _MenuPointer+0, 0 
	XORLW       11
	BTFSS       STATUS+0, 2 
	GOTO        L_Menu2520
;FirmV_0_7_0.c,2108 :: 		{ if((Events.Keys.b0==1)&&(AutoCloseTime>0))
	BTFSS       _Events+0, 0 
	GOTO        L_Menu2523
	MOVLW       0
	MOVWF       R0 
	MOVF        _AutoCloseTime+1, 0 
	SUBWF       R0, 0 
	BTFSS       STATUS+0, 2 
	GOTO        L__Menu2815
	MOVF        _AutoCloseTime+0, 0 
	SUBLW       0
L__Menu2815:
	BTFSC       STATUS+0, 0 
	GOTO        L_Menu2523
L__Menu2750:
;FirmV_0_7_0.c,2109 :: 		{AutoCloseTime=AutoCloseTime-1;Menu0();State=102;}
	MOVLW       1
	SUBWF       _AutoCloseTime+0, 1 
	MOVLW       0
	SUBWFB      _AutoCloseTime+1, 1 
	CALL        _Menu0+0, 0
	MOVLW       102
	MOVWF       _State+0 
L_Menu2523:
;FirmV_0_7_0.c,2110 :: 		if((Events.Keys.b2==1)&&(AutoCloseTime<65000))
	BTFSS       _Events+0, 2 
	GOTO        L_Menu2526
	MOVLW       253
	SUBWF       _AutoCloseTime+1, 0 
	BTFSS       STATUS+0, 2 
	GOTO        L__Menu2816
	MOVLW       232
	SUBWF       _AutoCloseTime+0, 0 
L__Menu2816:
	BTFSC       STATUS+0, 0 
	GOTO        L_Menu2526
L__Menu2749:
;FirmV_0_7_0.c,2111 :: 		{AutoCloseTime=AutoCloseTime+1;Menu0();State=102;}
	INFSNZ      _AutoCloseTime+0, 1 
	INCF        _AutoCloseTime+1, 1 
	CALL        _Menu0+0, 0
	MOVLW       102
	MOVWF       _State+0 
L_Menu2526:
;FirmV_0_7_0.c,2112 :: 		}
L_Menu2520:
;FirmV_0_7_0.c,2115 :: 		if(MenuPointer==12)
	MOVF        _MenuPointer+0, 0 
	XORLW       12
	BTFSS       STATUS+0, 2 
	GOTO        L_Menu2527
;FirmV_0_7_0.c,2117 :: 		State=0;
	CLRF        _State+0 
;FirmV_0_7_0.c,2118 :: 		memcpy(LCDLine1,Sipher,16);
	MOVLW       _LCDLine1+0
	MOVWF       FARG_memcpy_d1+0 
	MOVLW       hi_addr(_LCDLine1+0)
	MOVWF       FARG_memcpy_d1+1 
	MOVLW       _Sipher+0
	MOVWF       FARG_memcpy_s1+0 
	MOVLW       hi_addr(_Sipher+0)
	MOVWF       FARG_memcpy_s1+1 
	MOVLW       16
	MOVWF       FARG_memcpy_n+0 
	MOVLW       0
	MOVWF       FARG_memcpy_n+1 
	CALL        _memcpy+0, 0
;FirmV_0_7_0.c,2119 :: 		LCDLines=1;
	MOVLW       1
	MOVWF       _LCDLines+0 
;FirmV_0_7_0.c,2120 :: 		LCDFlash=0; LCDFlashFlag=0;
	CLRF        _LCDFlash+0 
	CLRF        _LCDFlashFlag+0 
;FirmV_0_7_0.c,2121 :: 		LCDUpdateFlag=1;
	MOVLW       1
	MOVWF       _LCDUpdateFlag+0 
;FirmV_0_7_0.c,2122 :: 		LongBuzzFlag=1;
	MOVLW       1
	MOVWF       _LongBuzzFlag+0 
;FirmV_0_7_0.c,2123 :: 		FactorySettings();
	CALL        _FactorySettings+0, 0
;FirmV_0_7_0.c,2124 :: 		SaveConfigs();
	CALL        _SaveConfigs+0, 0
;FirmV_0_7_0.c,2125 :: 		}
L_Menu2527:
;FirmV_0_7_0.c,2128 :: 		if(MenuPointer==13)
	MOVF        _MenuPointer+0, 0 
	XORLW       13
	BTFSS       STATUS+0, 2 
	GOTO        L_Menu2528
;FirmV_0_7_0.c,2129 :: 		{ if((Events.Keys.b0==1)&&(OpenPhEnable>0))
	BTFSS       _Events+0, 0 
	GOTO        L_Menu2531
	MOVF        _OpenPhEnable+0, 0 
	SUBLW       0
	BTFSC       STATUS+0, 0 
	GOTO        L_Menu2531
L__Menu2748:
;FirmV_0_7_0.c,2130 :: 		{OpenPhEnable=OpenPhEnable-1;Menu0();State=102;}
	DECF        _OpenPhEnable+0, 1 
	CALL        _Menu0+0, 0
	MOVLW       102
	MOVWF       _State+0 
L_Menu2531:
;FirmV_0_7_0.c,2131 :: 		if((Events.Keys.b2==1)&&(OpenPhEnable<1))
	BTFSS       _Events+0, 2 
	GOTO        L_Menu2534
	MOVLW       1
	SUBWF       _OpenPhEnable+0, 0 
	BTFSC       STATUS+0, 0 
	GOTO        L_Menu2534
L__Menu2747:
;FirmV_0_7_0.c,2132 :: 		{OpenPhEnable=OpenPhEnable+1;Menu0();State=102;}
	INCF        _OpenPhEnable+0, 1 
	CALL        _Menu0+0, 0
	MOVLW       102
	MOVWF       _State+0 
L_Menu2534:
;FirmV_0_7_0.c,2133 :: 		}
L_Menu2528:
;FirmV_0_7_0.c,2137 :: 		if(MenuPointer==14)
	MOVF        _MenuPointer+0, 0 
	XORLW       14
	BTFSS       STATUS+0, 2 
	GOTO        L_Menu2535
;FirmV_0_7_0.c,2138 :: 		{ if((Events.Keys.b0==1)&&(LimiterEnable>0))
	BTFSS       _Events+0, 0 
	GOTO        L_Menu2538
	MOVF        _LimiterEnable+0, 0 
	SUBLW       0
	BTFSC       STATUS+0, 0 
	GOTO        L_Menu2538
L__Menu2746:
;FirmV_0_7_0.c,2139 :: 		{LimiterEnable=LimiterEnable-1;Menu0();State=102;}
	DECF        _LimiterEnable+0, 1 
	CALL        _Menu0+0, 0
	MOVLW       102
	MOVWF       _State+0 
L_Menu2538:
;FirmV_0_7_0.c,2140 :: 		if((Events.Keys.b2==1)&&(LimiterEnable<1))
	BTFSS       _Events+0, 2 
	GOTO        L_Menu2541
	MOVLW       1
	SUBWF       _LimiterEnable+0, 0 
	BTFSC       STATUS+0, 0 
	GOTO        L_Menu2541
L__Menu2745:
;FirmV_0_7_0.c,2141 :: 		{LimiterEnable=LimiterEnable+1;Menu0();State=102;}
	INCF        _LimiterEnable+0, 1 
	CALL        _Menu0+0, 0
	MOVLW       102
	MOVWF       _State+0 
L_Menu2541:
;FirmV_0_7_0.c,2142 :: 		}
L_Menu2535:
;FirmV_0_7_0.c,2145 :: 		if(MenuPointer==15)
	MOVF        _MenuPointer+0, 0 
	XORLW       15
	BTFSS       STATUS+0, 2 
	GOTO        L_Menu2542
;FirmV_0_7_0.c,2146 :: 		{ if((Events.Keys.b0==1)&&(LockForce>0))
	BTFSS       _Events+0, 0 
	GOTO        L_Menu2545
	MOVF        _LockForce+0, 0 
	SUBLW       0
	BTFSC       STATUS+0, 0 
	GOTO        L_Menu2545
L__Menu2744:
;FirmV_0_7_0.c,2147 :: 		{LockForce=LockForce-1;Menu0();State=102;}
	DECF        _LockForce+0, 1 
	CALL        _Menu0+0, 0
	MOVLW       102
	MOVWF       _State+0 
L_Menu2545:
;FirmV_0_7_0.c,2148 :: 		if((Events.Keys.b2==1)&&(LockForce<1))
	BTFSS       _Events+0, 2 
	GOTO        L_Menu2548
	MOVLW       1
	SUBWF       _LockForce+0, 0 
	BTFSC       STATUS+0, 0 
	GOTO        L_Menu2548
L__Menu2743:
;FirmV_0_7_0.c,2149 :: 		{LockForce=LockForce+1;Menu0();State=102;}
	INCF        _LockForce+0, 1 
	CALL        _Menu0+0, 0
	MOVLW       102
	MOVWF       _State+0 
L_Menu2548:
;FirmV_0_7_0.c,2150 :: 		}
L_Menu2542:
;FirmV_0_7_0.c,2153 :: 		if(MenuPointer==16)
	MOVF        _MenuPointer+0, 0 
	XORLW       16
	BTFSS       STATUS+0, 2 
	GOTO        L_Menu2549
;FirmV_0_7_0.c,2154 :: 		{ if((Events.Keys.b0==1)&&(CloseAfterPass>0))
	BTFSS       _Events+0, 0 
	GOTO        L_Menu2552
	MOVF        _CloseAfterPass+0, 0 
	SUBLW       0
	BTFSC       STATUS+0, 0 
	GOTO        L_Menu2552
L__Menu2742:
;FirmV_0_7_0.c,2155 :: 		{CloseAfterPass=CloseAfterPass-1;if(CloseAfterPass==9) CloseAfterPass=0;Menu0();State=102;}
	DECF        _CloseAfterPass+0, 1 
	MOVF        _CloseAfterPass+0, 0 
	XORLW       9
	BTFSS       STATUS+0, 2 
	GOTO        L_Menu2553
	CLRF        _CloseAfterPass+0 
L_Menu2553:
	CALL        _Menu0+0, 0
	MOVLW       102
	MOVWF       _State+0 
L_Menu2552:
;FirmV_0_7_0.c,2156 :: 		if((Events.Keys.b2==1)&&(CloseAfterPass<255))
	BTFSS       _Events+0, 2 
	GOTO        L_Menu2556
	MOVLW       255
	SUBWF       _CloseAfterPass+0, 0 
	BTFSC       STATUS+0, 0 
	GOTO        L_Menu2556
L__Menu2741:
;FirmV_0_7_0.c,2157 :: 		{CloseAfterPass=CloseAfterPass+1;if(CloseAfterPass==1) CloseAfterPass=10;Menu0();State=102;}
	INCF        _CloseAfterPass+0, 1 
	MOVF        _CloseAfterPass+0, 0 
	XORLW       1
	BTFSS       STATUS+0, 2 
	GOTO        L_Menu2557
	MOVLW       10
	MOVWF       _CloseAfterPass+0 
L_Menu2557:
	CALL        _Menu0+0, 0
	MOVLW       102
	MOVWF       _State+0 
L_Menu2556:
;FirmV_0_7_0.c,2158 :: 		}
L_Menu2549:
;FirmV_0_7_0.c,2161 :: 		if(MenuPointer==17)
	MOVF        _MenuPointer+0, 0 
	XORLW       17
	BTFSS       STATUS+0, 2 
	GOTO        L_Menu2558
;FirmV_0_7_0.c,2163 :: 		State=103;
	MOVLW       103
	MOVWF       _State+0 
;FirmV_0_7_0.c,2164 :: 		memcpy(LCDLine1,Sipher,16);
	MOVLW       _LCDLine1+0
	MOVWF       FARG_memcpy_d1+0 
	MOVLW       hi_addr(_LCDLine1+0)
	MOVWF       FARG_memcpy_d1+1 
	MOVLW       _Sipher+0
	MOVWF       FARG_memcpy_s1+0 
	MOVLW       hi_addr(_Sipher+0)
	MOVWF       FARG_memcpy_s1+1 
	MOVLW       16
	MOVWF       FARG_memcpy_n+0 
	MOVLW       0
	MOVWF       FARG_memcpy_n+1 
	CALL        _memcpy+0, 0
;FirmV_0_7_0.c,2165 :: 		LCDFlash=0;
	CLRF        _LCDFlash+0 
;FirmV_0_7_0.c,2166 :: 		LCDLines=1;
	MOVLW       1
	MOVWF       _LCDLines+0 
;FirmV_0_7_0.c,2167 :: 		LCDUpdateFlag=1;
	MOVLW       1
	MOVWF       _LCDUpdateFlag+0 
;FirmV_0_7_0.c,2168 :: 		LongBuzzFlag=1;
	MOVLW       1
	MOVWF       _LongBuzzFlag+0 
;FirmV_0_7_0.c,2169 :: 		}
L_Menu2558:
;FirmV_0_7_0.c,2172 :: 		if(MenuPointer==18)
	MOVF        _MenuPointer+0, 0 
	XORLW       18
	BTFSS       STATUS+0, 2 
	GOTO        L_Menu2559
;FirmV_0_7_0.c,2174 :: 		State=0;
	CLRF        _State+0 
;FirmV_0_7_0.c,2175 :: 		memcpy(LCDLine1,Sipher,16);
	MOVLW       _LCDLine1+0
	MOVWF       FARG_memcpy_d1+0 
	MOVLW       hi_addr(_LCDLine1+0)
	MOVWF       FARG_memcpy_d1+1 
	MOVLW       _Sipher+0
	MOVWF       FARG_memcpy_s1+0 
	MOVLW       hi_addr(_Sipher+0)
	MOVWF       FARG_memcpy_s1+1 
	MOVLW       16
	MOVWF       FARG_memcpy_n+0 
	MOVLW       0
	MOVWF       FARG_memcpy_n+1 
	CALL        _memcpy+0, 0
;FirmV_0_7_0.c,2176 :: 		LCDFlash=0;
	CLRF        _LCDFlash+0 
;FirmV_0_7_0.c,2177 :: 		LCDLines=1;
	MOVLW       1
	MOVWF       _LCDLines+0 
;FirmV_0_7_0.c,2178 :: 		LCDUpdateFlag=1;
	MOVLW       1
	MOVWF       _LCDUpdateFlag+0 
;FirmV_0_7_0.c,2179 :: 		LoadConfigs();
	CALL        _LoadConfigs+0, 0
;FirmV_0_7_0.c,2180 :: 		LongBuzzFlag=1;
	MOVLW       1
	MOVWF       _LongBuzzFlag+0 
;FirmV_0_7_0.c,2181 :: 		}
L_Menu2559:
;FirmV_0_7_0.c,2182 :: 		}
	RETURN      0
; end of _Menu2

_Menu3:

;FirmV_0_7_0.c,2194 :: 		void Menu3()
;FirmV_0_7_0.c,2196 :: 		SaveConfigs();
	CALL        _SaveConfigs+0, 0
;FirmV_0_7_0.c,2197 :: 		State=0;
	CLRF        _State+0 
;FirmV_0_7_0.c,2198 :: 		}
	RETURN      0
; end of _Menu3

_LearnAuto:

;FirmV_0_7_0.c,2212 :: 		void LearnAuto()
;FirmV_0_7_0.c,2218 :: 		switch(LearnPhase)
	GOTO        L_LearnAuto560
;FirmV_0_7_0.c,2220 :: 		case 0:
L_LearnAuto562:
;FirmV_0_7_0.c,2221 :: 		Flasher=1;
	BSF         PORTD+0, 7 
;FirmV_0_7_0.c,2222 :: 		if(Events.Remote.b0==1) {DoorNo=2; LearnPhase=LearnPhase+1;} if(Events.Remote.b1==1) {DoorNo=1;LearnPhase=3;}
	BTFSS       _Events+4, 0 
	GOTO        L_LearnAuto563
	MOVLW       2
	MOVWF       LearnAuto_DoorNo_L0+0 
	INCF        _LearnPhase+0, 1 
L_LearnAuto563:
	BTFSS       _Events+4, 1 
	GOTO        L_LearnAuto564
	MOVLW       1
	MOVWF       LearnAuto_DoorNo_L0+0 
	MOVLW       3
	MOVWF       _LearnPhase+0 
L_LearnAuto564:
;FirmV_0_7_0.c,2223 :: 		OverloadCheckFlag1=0;OverloadCheckFlag2=0;
	CLRF        _OverloadCheckFlag1+0 
	CLRF        _OverloadCheckFlag2+0 
;FirmV_0_7_0.c,2224 :: 		break;
	GOTO        L_LearnAuto561
;FirmV_0_7_0.c,2226 :: 		case 1: //Start D2 and enable overload sensing after 1s
L_LearnAuto565:
;FirmV_0_7_0.c,2227 :: 		StartMotor(2,_Close);AddTask(ms500+4,21);LearnPhase=LearnPhase+1;
	MOVLW       2
	MOVWF       FARG_StartMotor_Mx+0 
	CLRF        FARG_StartMotor_Dir+0 
	CALL        _StartMotor+0, 0
	MOVLW       4
	ADDWF       _ms500+0, 0 
	MOVWF       FARG_AddTask_OccTime+0 
	MOVLW       0
	ADDWFC      _ms500+1, 0 
	MOVWF       FARG_AddTask_OccTime+1 
	MOVLW       0
	ADDWFC      _ms500+2, 0 
	MOVWF       FARG_AddTask_OccTime+2 
	MOVLW       0
	ADDWFC      _ms500+3, 0 
	MOVWF       FARG_AddTask_OccTime+3 
	MOVLW       21
	MOVWF       FARG_AddTask_tcode+0 
	CALL        _AddTask+0, 0
	INCF        _LearnPhase+0, 1 
;FirmV_0_7_0.c,2228 :: 		break;
	GOTO        L_LearnAuto561
;FirmV_0_7_0.c,2230 :: 		case 2: //Check if D2 reaches end of its course
L_LearnAuto566:
;FirmV_0_7_0.c,2231 :: 		if((Events.Overload.b1==1)&&(OverloadCheckFlag2==1)){OverloadCheckFlag2=0;StopMotor(2);LearnPhase=LearnPhase+1;}
	BTFSS       _Events+5, 1 
	GOTO        L_LearnAuto569
	MOVF        _OverloadCheckFlag2+0, 0 
	XORLW       1
	BTFSS       STATUS+0, 2 
	GOTO        L_LearnAuto569
L__LearnAuto778:
	CLRF        _OverloadCheckFlag2+0 
	MOVLW       2
	MOVWF       FARG_StopMotor_Mx+0 
	CALL        _StopMotor+0, 0
	INCF        _LearnPhase+0, 1 
L_LearnAuto569:
;FirmV_0_7_0.c,2232 :: 		if(CheckTask(21))OverloadCheckFlag2=1;
	MOVLW       21
	MOVWF       FARG_CheckTask_TaskCode+0 
	CALL        _CheckTask+0, 0
	MOVF        R0, 1 
	BTFSC       STATUS+0, 2 
	GOTO        L_LearnAuto570
	MOVLW       1
	MOVWF       _OverloadCheckFlag2+0 
L_LearnAuto570:
;FirmV_0_7_0.c,2233 :: 		break;
	GOTO        L_LearnAuto561
;FirmV_0_7_0.c,2235 :: 		case 3: //Start D1 and enable overload sensin after 1 s
L_LearnAuto571:
;FirmV_0_7_0.c,2236 :: 		StartMotor(1,_Close);AddTask(ms500+4,20);LearnPhase=LearnPhase+1;;
	MOVLW       1
	MOVWF       FARG_StartMotor_Mx+0 
	CLRF        FARG_StartMotor_Dir+0 
	CALL        _StartMotor+0, 0
	MOVLW       4
	ADDWF       _ms500+0, 0 
	MOVWF       FARG_AddTask_OccTime+0 
	MOVLW       0
	ADDWFC      _ms500+1, 0 
	MOVWF       FARG_AddTask_OccTime+1 
	MOVLW       0
	ADDWFC      _ms500+2, 0 
	MOVWF       FARG_AddTask_OccTime+2 
	MOVLW       0
	ADDWFC      _ms500+3, 0 
	MOVWF       FARG_AddTask_OccTime+3 
	MOVLW       20
	MOVWF       FARG_AddTask_tcode+0 
	CALL        _AddTask+0, 0
	INCF        _LearnPhase+0, 1 
;FirmV_0_7_0.c,2238 :: 		case 4: //Check if D1 reaches end of its course
L_LearnAuto572:
;FirmV_0_7_0.c,2239 :: 		if((Events.Overload.b0==1)&&(OverloadCheckFlag1==1)){OverloadCheckFlag1=0;StopMotor(1);LearnPhase=LearnPhase+1;}
	BTFSS       _Events+5, 0 
	GOTO        L_LearnAuto575
	MOVF        _OverloadCheckFlag1+0, 0 
	XORLW       1
	BTFSS       STATUS+0, 2 
	GOTO        L_LearnAuto575
L__LearnAuto777:
	CLRF        _OverloadCheckFlag1+0 
	MOVLW       1
	MOVWF       FARG_StopMotor_Mx+0 
	CALL        _StopMotor+0, 0
	INCF        _LearnPhase+0, 1 
L_LearnAuto575:
;FirmV_0_7_0.c,2240 :: 		if(CheckTask(20))OverloadCheckFlag1=1;
	MOVLW       20
	MOVWF       FARG_CheckTask_TaskCode+0 
	CALL        _CheckTask+0, 0
	MOVF        R0, 1 
	BTFSC       STATUS+0, 2 
	GOTO        L_LearnAuto576
	MOVLW       1
	MOVWF       _OverloadCheckFlag1+0 
L_LearnAuto576:
;FirmV_0_7_0.c,2241 :: 		break;
	GOTO        L_LearnAuto561
;FirmV_0_7_0.c,2243 :: 		case 5: //Start D1 for opening and save start time and enable overload sensing after 1s
L_LearnAuto577:
;FirmV_0_7_0.c,2244 :: 		startT=ms500;StartMotor(1,_Open);AddTask(ms500+4,20);LearnPhase=LearnPhase+1;
	MOVF        _ms500+0, 0 
	MOVWF       LearnAuto_startT_L0+0 
	MOVF        _ms500+1, 0 
	MOVWF       LearnAuto_startT_L0+1 
	MOVF        _ms500+2, 0 
	MOVWF       LearnAuto_startT_L0+2 
	MOVF        _ms500+3, 0 
	MOVWF       LearnAuto_startT_L0+3 
	MOVLW       1
	MOVWF       FARG_StartMotor_Mx+0 
	MOVLW       1
	MOVWF       FARG_StartMotor_Dir+0 
	CALL        _StartMotor+0, 0
	MOVLW       4
	ADDWF       _ms500+0, 0 
	MOVWF       FARG_AddTask_OccTime+0 
	MOVLW       0
	ADDWFC      _ms500+1, 0 
	MOVWF       FARG_AddTask_OccTime+1 
	MOVLW       0
	ADDWFC      _ms500+2, 0 
	MOVWF       FARG_AddTask_OccTime+2 
	MOVLW       0
	ADDWFC      _ms500+3, 0 
	MOVWF       FARG_AddTask_OccTime+3 
	MOVLW       20
	MOVWF       FARG_AddTask_tcode+0 
	CALL        _AddTask+0, 0
	INCF        _LearnPhase+0, 1 
;FirmV_0_7_0.c,2245 :: 		break;
	GOTO        L_LearnAuto561
;FirmV_0_7_0.c,2247 :: 		case 6: //Check if D1 reaches end of its course and save the stop time
L_LearnAuto578:
;FirmV_0_7_0.c,2248 :: 		if((Events.Overload.b0==1)&&(OverloadCheckFlag1==1)){OverloadCheckFlag1=0;StopMotor(1);if(DoorNo==1)LearnPhase=11;else LearnPhase=LearnPhase+1;stopT=ms500;RawData.D1OpenTime=(char)(stopT-startT);}
	BTFSS       _Events+5, 0 
	GOTO        L_LearnAuto581
	MOVF        _OverloadCheckFlag1+0, 0 
	XORLW       1
	BTFSS       STATUS+0, 2 
	GOTO        L_LearnAuto581
L__LearnAuto776:
	CLRF        _OverloadCheckFlag1+0 
	MOVLW       1
	MOVWF       FARG_StopMotor_Mx+0 
	CALL        _StopMotor+0, 0
	MOVF        LearnAuto_DoorNo_L0+0, 0 
	XORLW       1
	BTFSS       STATUS+0, 2 
	GOTO        L_LearnAuto582
	MOVLW       11
	MOVWF       _LearnPhase+0 
	GOTO        L_LearnAuto583
L_LearnAuto582:
	INCF        _LearnPhase+0, 1 
L_LearnAuto583:
	MOVF        LearnAuto_startT_L0+0, 0 
	SUBWF       _ms500+0, 0 
	MOVWF       R0 
	MOVF        R0, 0 
	MOVWF       LearnAuto_RawData_L0+1 
L_LearnAuto581:
;FirmV_0_7_0.c,2249 :: 		if(CheckTask(20))OverloadCheckFlag1=1;
	MOVLW       20
	MOVWF       FARG_CheckTask_TaskCode+0 
	CALL        _CheckTask+0, 0
	MOVF        R0, 1 
	BTFSC       STATUS+0, 2 
	GOTO        L_LearnAuto584
	MOVLW       1
	MOVWF       _OverloadCheckFlag1+0 
L_LearnAuto584:
;FirmV_0_7_0.c,2250 :: 		break;
	GOTO        L_LearnAuto561
;FirmV_0_7_0.c,2252 :: 		case 7: //Start D2 for opening and save start time and enable overload sensing after 1s
L_LearnAuto585:
;FirmV_0_7_0.c,2253 :: 		startT=ms500;StartMotor(2,_Open);AddTask(ms500+4,21);LearnPhase=LearnPhase+1;
	MOVF        _ms500+0, 0 
	MOVWF       LearnAuto_startT_L0+0 
	MOVF        _ms500+1, 0 
	MOVWF       LearnAuto_startT_L0+1 
	MOVF        _ms500+2, 0 
	MOVWF       LearnAuto_startT_L0+2 
	MOVF        _ms500+3, 0 
	MOVWF       LearnAuto_startT_L0+3 
	MOVLW       2
	MOVWF       FARG_StartMotor_Mx+0 
	MOVLW       1
	MOVWF       FARG_StartMotor_Dir+0 
	CALL        _StartMotor+0, 0
	MOVLW       4
	ADDWF       _ms500+0, 0 
	MOVWF       FARG_AddTask_OccTime+0 
	MOVLW       0
	ADDWFC      _ms500+1, 0 
	MOVWF       FARG_AddTask_OccTime+1 
	MOVLW       0
	ADDWFC      _ms500+2, 0 
	MOVWF       FARG_AddTask_OccTime+2 
	MOVLW       0
	ADDWFC      _ms500+3, 0 
	MOVWF       FARG_AddTask_OccTime+3 
	MOVLW       21
	MOVWF       FARG_AddTask_tcode+0 
	CALL        _AddTask+0, 0
	INCF        _LearnPhase+0, 1 
;FirmV_0_7_0.c,2254 :: 		break;
	GOTO        L_LearnAuto561
;FirmV_0_7_0.c,2256 :: 		case 8: //Check if D2 reaches end of its course and save the stop time
L_LearnAuto586:
;FirmV_0_7_0.c,2257 :: 		if((Events.Overload.b1==1)&&(OverloadCheckFlag2==1)){OverloadCheckFlag2=0;StopMotor(2);LearnPhase=LearnPhase+1;stopT=ms500;RawData.D2OpenTime=(char)(stopT-startT);}
	BTFSS       _Events+5, 1 
	GOTO        L_LearnAuto589
	MOVF        _OverloadCheckFlag2+0, 0 
	XORLW       1
	BTFSS       STATUS+0, 2 
	GOTO        L_LearnAuto589
L__LearnAuto775:
	CLRF        _OverloadCheckFlag2+0 
	MOVLW       2
	MOVWF       FARG_StopMotor_Mx+0 
	CALL        _StopMotor+0, 0
	INCF        _LearnPhase+0, 1 
	MOVF        LearnAuto_startT_L0+0, 0 
	SUBWF       _ms500+0, 0 
	MOVWF       R0 
	MOVF        R0, 0 
	MOVWF       LearnAuto_RawData_L0+3 
L_LearnAuto589:
;FirmV_0_7_0.c,2258 :: 		if(CheckTask(21))OverloadCheckFlag2=1;
	MOVLW       21
	MOVWF       FARG_CheckTask_TaskCode+0 
	CALL        _CheckTask+0, 0
	MOVF        R0, 1 
	BTFSC       STATUS+0, 2 
	GOTO        L_LearnAuto590
	MOVLW       1
	MOVWF       _OverloadCheckFlag2+0 
L_LearnAuto590:
;FirmV_0_7_0.c,2259 :: 		break;
	GOTO        L_LearnAuto561
;FirmV_0_7_0.c,2261 :: 		case 9: //Start D2 for closing and save start time and enable overload sensing after 1s
L_LearnAuto591:
;FirmV_0_7_0.c,2262 :: 		startT=ms500;StartMotor(2,_Close);AddTask(ms500+4,21);LearnPhase=LearnPhase+1;
	MOVF        _ms500+0, 0 
	MOVWF       LearnAuto_startT_L0+0 
	MOVF        _ms500+1, 0 
	MOVWF       LearnAuto_startT_L0+1 
	MOVF        _ms500+2, 0 
	MOVWF       LearnAuto_startT_L0+2 
	MOVF        _ms500+3, 0 
	MOVWF       LearnAuto_startT_L0+3 
	MOVLW       2
	MOVWF       FARG_StartMotor_Mx+0 
	CLRF        FARG_StartMotor_Dir+0 
	CALL        _StartMotor+0, 0
	MOVLW       4
	ADDWF       _ms500+0, 0 
	MOVWF       FARG_AddTask_OccTime+0 
	MOVLW       0
	ADDWFC      _ms500+1, 0 
	MOVWF       FARG_AddTask_OccTime+1 
	MOVLW       0
	ADDWFC      _ms500+2, 0 
	MOVWF       FARG_AddTask_OccTime+2 
	MOVLW       0
	ADDWFC      _ms500+3, 0 
	MOVWF       FARG_AddTask_OccTime+3 
	MOVLW       21
	MOVWF       FARG_AddTask_tcode+0 
	CALL        _AddTask+0, 0
	INCF        _LearnPhase+0, 1 
;FirmV_0_7_0.c,2263 :: 		break;
	GOTO        L_LearnAuto561
;FirmV_0_7_0.c,2265 :: 		case 10: //Check if D2 reaches end of its course and save the stop time
L_LearnAuto592:
;FirmV_0_7_0.c,2266 :: 		if((Events.Overload.b1==1)&&(OverloadCheckFlag2==1)){OverloadCheckFlag2=0;StopMotor(2);LearnPhase=LearnPhase+1;stopT=ms500;RawData.D2CloseTime=(char)(stopT-startT);}
	BTFSS       _Events+5, 1 
	GOTO        L_LearnAuto595
	MOVF        _OverloadCheckFlag2+0, 0 
	XORLW       1
	BTFSS       STATUS+0, 2 
	GOTO        L_LearnAuto595
L__LearnAuto774:
	CLRF        _OverloadCheckFlag2+0 
	MOVLW       2
	MOVWF       FARG_StopMotor_Mx+0 
	CALL        _StopMotor+0, 0
	INCF        _LearnPhase+0, 1 
	MOVF        LearnAuto_startT_L0+0, 0 
	SUBWF       _ms500+0, 0 
	MOVWF       R0 
	MOVF        R0, 0 
	MOVWF       LearnAuto_RawData_L0+2 
L_LearnAuto595:
;FirmV_0_7_0.c,2267 :: 		if(CheckTask(21))OverloadCheckFlag2=1;
	MOVLW       21
	MOVWF       FARG_CheckTask_TaskCode+0 
	CALL        _CheckTask+0, 0
	MOVF        R0, 1 
	BTFSC       STATUS+0, 2 
	GOTO        L_LearnAuto596
	MOVLW       1
	MOVWF       _OverloadCheckFlag2+0 
L_LearnAuto596:
;FirmV_0_7_0.c,2268 :: 		break;
	GOTO        L_LearnAuto561
;FirmV_0_7_0.c,2270 :: 		case 11: //Start D1 for closing and save start time and enable overload sensing after 1s
L_LearnAuto597:
;FirmV_0_7_0.c,2271 :: 		startT=ms500;StartMotor(1,_Close);AddTask(ms500+4,20);LearnPhase=LearnPhase+1;
	MOVF        _ms500+0, 0 
	MOVWF       LearnAuto_startT_L0+0 
	MOVF        _ms500+1, 0 
	MOVWF       LearnAuto_startT_L0+1 
	MOVF        _ms500+2, 0 
	MOVWF       LearnAuto_startT_L0+2 
	MOVF        _ms500+3, 0 
	MOVWF       LearnAuto_startT_L0+3 
	MOVLW       1
	MOVWF       FARG_StartMotor_Mx+0 
	CLRF        FARG_StartMotor_Dir+0 
	CALL        _StartMotor+0, 0
	MOVLW       4
	ADDWF       _ms500+0, 0 
	MOVWF       FARG_AddTask_OccTime+0 
	MOVLW       0
	ADDWFC      _ms500+1, 0 
	MOVWF       FARG_AddTask_OccTime+1 
	MOVLW       0
	ADDWFC      _ms500+2, 0 
	MOVWF       FARG_AddTask_OccTime+2 
	MOVLW       0
	ADDWFC      _ms500+3, 0 
	MOVWF       FARG_AddTask_OccTime+3 
	MOVLW       20
	MOVWF       FARG_AddTask_tcode+0 
	CALL        _AddTask+0, 0
	INCF        _LearnPhase+0, 1 
;FirmV_0_7_0.c,2272 :: 		break;
	GOTO        L_LearnAuto561
;FirmV_0_7_0.c,2274 :: 		case 12: //Check if D1 reaches end of its course and save the stop time
L_LearnAuto598:
;FirmV_0_7_0.c,2275 :: 		if((Events.Overload.b0==1)&&(OverloadCheckFlag1==1)){OverloadCheckFlag1=0;StopMotor(1);LearnPhase=LearnPhase+1;stopT=ms500;RawData.D1CloseTime=(char)(stopT-startT);}
	BTFSS       _Events+5, 0 
	GOTO        L_LearnAuto601
	MOVF        _OverloadCheckFlag1+0, 0 
	XORLW       1
	BTFSS       STATUS+0, 2 
	GOTO        L_LearnAuto601
L__LearnAuto773:
	CLRF        _OverloadCheckFlag1+0 
	MOVLW       1
	MOVWF       FARG_StopMotor_Mx+0 
	CALL        _StopMotor+0, 0
	INCF        _LearnPhase+0, 1 
	MOVF        LearnAuto_startT_L0+0, 0 
	SUBWF       _ms500+0, 0 
	MOVWF       R0 
	MOVF        R0, 0 
	MOVWF       LearnAuto_RawData_L0+0 
L_LearnAuto601:
;FirmV_0_7_0.c,2276 :: 		if(CheckTask(20))OverloadCheckFlag1=1;
	MOVLW       20
	MOVWF       FARG_CheckTask_TaskCode+0 
	CALL        _CheckTask+0, 0
	MOVF        R0, 1 
	BTFSC       STATUS+0, 2 
	GOTO        L_LearnAuto602
	MOVLW       1
	MOVWF       _OverloadCheckFlag1+0 
L_LearnAuto602:
;FirmV_0_7_0.c,2277 :: 		break;
	GOTO        L_LearnAuto561
;FirmV_0_7_0.c,2279 :: 		case 13:
L_LearnAuto603:
;FirmV_0_7_0.c,2280 :: 		AutoLearnCalculator(&RawData);
	MOVLW       LearnAuto_RawData_L0+0
	MOVWF       FARG_AutoLearnCalculator+0 
	MOVLW       hi_addr(LearnAuto_RawData_L0+0)
	MOVWF       FARG_AutoLearnCalculator+1 
	CALL        _AutoLearnCalculator+0, 0
;FirmV_0_7_0.c,2281 :: 		SaveLearnData(&RawData,DoorNo);
	MOVLW       LearnAuto_RawData_L0+0
	MOVWF       FARG_SaveLearnData+0 
	MOVLW       hi_addr(LearnAuto_RawData_L0+0)
	MOVWF       FARG_SaveLearnData+1 
	MOVF        LearnAuto_DoorNo_L0+0, 0 
	MOVWF       FARG_SaveLearnData+0 
	CALL        _SaveLearnData+0, 0
;FirmV_0_7_0.c,2282 :: 		memcpy(LCDLine1," Learn Complete ",16);
	MOVLW       _LCDLine1+0
	MOVWF       FARG_memcpy_d1+0 
	MOVLW       hi_addr(_LCDLine1+0)
	MOVWF       FARG_memcpy_d1+1 
	MOVLW       ?ICS?lstr96_FirmV_0_7_0+0
	MOVWF       TBLPTRL 
	MOVLW       hi_addr(?ICS?lstr96_FirmV_0_7_0+0)
	MOVWF       TBLPTRH 
	MOVLW       higher_addr(?ICS?lstr96_FirmV_0_7_0+0)
	MOVWF       TBLPTRU 
	MOVLW       ?lstr96_FirmV_0_7_0+0
	MOVWF       FSR1L 
	MOVLW       hi_addr(?lstr96_FirmV_0_7_0+0)
	MOVWF       FSR1H 
	MOVLW       17
	MOVWF       R0 
	MOVLW       1
	MOVWF       R1 
	CALL        ___CC2DW+0, 0
	MOVLW       ?lstr96_FirmV_0_7_0+0
	MOVWF       FARG_memcpy_s1+0 
	MOVLW       hi_addr(?lstr96_FirmV_0_7_0+0)
	MOVWF       FARG_memcpy_s1+1 
	MOVLW       16
	MOVWF       FARG_memcpy_n+0 
	MOVLW       0
	MOVWF       FARG_memcpy_n+1 
	CALL        _memcpy+0, 0
;FirmV_0_7_0.c,2283 :: 		memcpy(LCDLine2,"     Ready      ",16);
	MOVLW       _LCDLine2+0
	MOVWF       FARG_memcpy_d1+0 
	MOVLW       hi_addr(_LCDLine2+0)
	MOVWF       FARG_memcpy_d1+1 
	MOVLW       ?ICS?lstr97_FirmV_0_7_0+0
	MOVWF       TBLPTRL 
	MOVLW       hi_addr(?ICS?lstr97_FirmV_0_7_0+0)
	MOVWF       TBLPTRH 
	MOVLW       higher_addr(?ICS?lstr97_FirmV_0_7_0+0)
	MOVWF       TBLPTRU 
	MOVLW       ?lstr97_FirmV_0_7_0+0
	MOVWF       FSR1L 
	MOVLW       hi_addr(?lstr97_FirmV_0_7_0+0)
	MOVWF       FSR1H 
	MOVLW       17
	MOVWF       R0 
	MOVLW       1
	MOVWF       R1 
	CALL        ___CC2DW+0, 0
	MOVLW       ?lstr97_FirmV_0_7_0+0
	MOVWF       FARG_memcpy_s1+0 
	MOVLW       hi_addr(?lstr97_FirmV_0_7_0+0)
	MOVWF       FARG_memcpy_s1+1 
	MOVLW       16
	MOVWF       FARG_memcpy_n+0 
	MOVLW       0
	MOVWF       FARG_memcpy_n+1 
	CALL        _memcpy+0, 0
;FirmV_0_7_0.c,2284 :: 		LCDLines=2;
	MOVLW       2
	MOVWF       _LCDLines+0 
;FirmV_0_7_0.c,2285 :: 		LCDUpdateFlag=1;
	MOVLW       1
	MOVWF       _LCDUpdateFlag+0 
;FirmV_0_7_0.c,2286 :: 		Flasher=0;
	BCF         PORTD+0, 7 
;FirmV_0_7_0.c,2287 :: 		State=0;
	CLRF        _State+0 
;FirmV_0_7_0.c,2288 :: 		break;
	GOTO        L_LearnAuto561
;FirmV_0_7_0.c,2291 :: 		}
L_LearnAuto560:
	MOVF        _LearnPhase+0, 0 
	XORLW       0
	BTFSC       STATUS+0, 2 
	GOTO        L_LearnAuto562
	MOVF        _LearnPhase+0, 0 
	XORLW       1
	BTFSC       STATUS+0, 2 
	GOTO        L_LearnAuto565
	MOVF        _LearnPhase+0, 0 
	XORLW       2
	BTFSC       STATUS+0, 2 
	GOTO        L_LearnAuto566
	MOVF        _LearnPhase+0, 0 
	XORLW       3
	BTFSC       STATUS+0, 2 
	GOTO        L_LearnAuto571
	MOVF        _LearnPhase+0, 0 
	XORLW       4
	BTFSC       STATUS+0, 2 
	GOTO        L_LearnAuto572
	MOVF        _LearnPhase+0, 0 
	XORLW       5
	BTFSC       STATUS+0, 2 
	GOTO        L_LearnAuto577
	MOVF        _LearnPhase+0, 0 
	XORLW       6
	BTFSC       STATUS+0, 2 
	GOTO        L_LearnAuto578
	MOVF        _LearnPhase+0, 0 
	XORLW       7
	BTFSC       STATUS+0, 2 
	GOTO        L_LearnAuto585
	MOVF        _LearnPhase+0, 0 
	XORLW       8
	BTFSC       STATUS+0, 2 
	GOTO        L_LearnAuto586
	MOVF        _LearnPhase+0, 0 
	XORLW       9
	BTFSC       STATUS+0, 2 
	GOTO        L_LearnAuto591
	MOVF        _LearnPhase+0, 0 
	XORLW       10
	BTFSC       STATUS+0, 2 
	GOTO        L_LearnAuto592
	MOVF        _LearnPhase+0, 0 
	XORLW       11
	BTFSC       STATUS+0, 2 
	GOTO        L_LearnAuto597
	MOVF        _LearnPhase+0, 0 
	XORLW       12
	BTFSC       STATUS+0, 2 
	GOTO        L_LearnAuto598
	MOVF        _LearnPhase+0, 0 
	XORLW       13
	BTFSC       STATUS+0, 2 
	GOTO        L_LearnAuto603
L_LearnAuto561:
;FirmV_0_7_0.c,2295 :: 		}
	RETURN      0
; end of _LearnAuto

_AutoLearnCalculator:

;FirmV_0_7_0.c,2315 :: 		void AutoLearnCalculator(Learn *raw)
;FirmV_0_7_0.c,2318 :: 		(*raw).D1OpenTime=(*raw).D1OpenTime+10;
	MOVLW       1
	ADDWF       FARG_AutoLearnCalculator_raw+0, 0 
	MOVWF       R1 
	MOVLW       0
	ADDWFC      FARG_AutoLearnCalculator_raw+1, 0 
	MOVWF       R2 
	MOVFF       R1, FSR0L
	MOVFF       R2, FSR0H
	MOVLW       10
	ADDWF       POSTINC0+0, 0 
	MOVWF       R0 
	MOVFF       R1, FSR1L
	MOVFF       R2, FSR1H
	MOVF        R0, 0 
	MOVWF       POSTINC1+0 
;FirmV_0_7_0.c,2319 :: 		(*raw).D2OpenTime=(*raw).D2OpenTime+10;
	MOVLW       3
	ADDWF       FARG_AutoLearnCalculator_raw+0, 0 
	MOVWF       R1 
	MOVLW       0
	ADDWFC      FARG_AutoLearnCalculator_raw+1, 0 
	MOVWF       R2 
	MOVFF       R1, FSR0L
	MOVFF       R2, FSR0H
	MOVLW       10
	ADDWF       POSTINC0+0, 0 
	MOVWF       R0 
	MOVFF       R1, FSR1L
	MOVFF       R2, FSR1H
	MOVF        R0, 0 
	MOVWF       POSTINC1+0 
;FirmV_0_7_0.c,2320 :: 		(*raw).D1CloseTime=(*raw).D1CloseTime+10;
	MOVFF       FARG_AutoLearnCalculator_raw+0, FSR0L
	MOVFF       FARG_AutoLearnCalculator_raw+1, FSR0H
	MOVF        POSTINC0+0, 0 
	MOVWF       R0 
	MOVFF       FARG_AutoLearnCalculator_raw+0, FSR1L
	MOVFF       FARG_AutoLearnCalculator_raw+1, FSR1H
	MOVLW       10
	ADDWF       R0, 0 
	MOVWF       POSTINC1+0 
;FirmV_0_7_0.c,2321 :: 		(*raw).D2CloseTime=(*raw).D2CloseTime+10;
	MOVLW       2
	ADDWF       FARG_AutoLearnCalculator_raw+0, 0 
	MOVWF       R1 
	MOVLW       0
	ADDWFC      FARG_AutoLearnCalculator_raw+1, 0 
	MOVWF       R2 
	MOVFF       R1, FSR0L
	MOVFF       R2, FSR0H
	MOVLW       10
	ADDWF       POSTINC0+0, 0 
	MOVWF       R0 
	MOVFF       R1, FSR1L
	MOVFF       R2, FSR1H
	MOVF        R0, 0 
	MOVWF       POSTINC1+0 
;FirmV_0_7_0.c,2323 :: 		(*raw).D1OpenSoftStart=4;
	MOVLW       4
	ADDWF       FARG_AutoLearnCalculator_raw+0, 0 
	MOVWF       FSR1L 
	MOVLW       0
	ADDWFC      FARG_AutoLearnCalculator_raw+1, 0 
	MOVWF       FSR1H 
	MOVLW       4
	MOVWF       POSTINC1+0 
;FirmV_0_7_0.c,2324 :: 		(*raw).D1CloseSoftStart=4;
	MOVLW       6
	ADDWF       FARG_AutoLearnCalculator_raw+0, 0 
	MOVWF       FSR1L 
	MOVLW       0
	ADDWFC      FARG_AutoLearnCalculator_raw+1, 0 
	MOVWF       FSR1H 
	MOVLW       4
	MOVWF       POSTINC1+0 
;FirmV_0_7_0.c,2325 :: 		(*raw).D2OpenSoftStart=4;
	MOVLW       8
	ADDWF       FARG_AutoLearnCalculator_raw+0, 0 
	MOVWF       FSR1L 
	MOVLW       0
	ADDWFC      FARG_AutoLearnCalculator_raw+1, 0 
	MOVWF       FSR1H 
	MOVLW       4
	MOVWF       POSTINC1+0 
;FirmV_0_7_0.c,2326 :: 		(*raw).D2CloseSoftStart=4;
	MOVLW       10
	ADDWF       FARG_AutoLearnCalculator_raw+0, 0 
	MOVWF       FSR1L 
	MOVLW       0
	ADDWFC      FARG_AutoLearnCalculator_raw+1, 0 
	MOVWF       FSR1H 
	MOVLW       4
	MOVWF       POSTINC1+0 
;FirmV_0_7_0.c,2328 :: 		(*raw).D1OpenSoftStop=10;
	MOVLW       5
	ADDWF       FARG_AutoLearnCalculator_raw+0, 0 
	MOVWF       FSR1L 
	MOVLW       0
	ADDWFC      FARG_AutoLearnCalculator_raw+1, 0 
	MOVWF       FSR1H 
	MOVLW       10
	MOVWF       POSTINC1+0 
;FirmV_0_7_0.c,2329 :: 		(*raw).D2OpenSoftStop=10;
	MOVLW       9
	ADDWF       FARG_AutoLearnCalculator_raw+0, 0 
	MOVWF       FSR1L 
	MOVLW       0
	ADDWFC      FARG_AutoLearnCalculator_raw+1, 0 
	MOVWF       FSR1H 
	MOVLW       10
	MOVWF       POSTINC1+0 
;FirmV_0_7_0.c,2330 :: 		(*raw).D1CloseSoftStop=10;
	MOVLW       7
	ADDWF       FARG_AutoLearnCalculator_raw+0, 0 
	MOVWF       FSR1L 
	MOVLW       0
	ADDWFC      FARG_AutoLearnCalculator_raw+1, 0 
	MOVWF       FSR1H 
	MOVLW       10
	MOVWF       POSTINC1+0 
;FirmV_0_7_0.c,2331 :: 		(*raw).D2CloseSoftStop=10;
	MOVLW       11
	ADDWF       FARG_AutoLearnCalculator_raw+0, 0 
	MOVWF       FSR1L 
	MOVLW       0
	ADDWFC      FARG_AutoLearnCalculator_raw+1, 0 
	MOVWF       FSR1H 
	MOVLW       10
	MOVWF       POSTINC1+0 
;FirmV_0_7_0.c,2333 :: 		}
	RETURN      0
; end of _AutoLearnCalculator

_SaveLearnData:

;FirmV_0_7_0.c,2345 :: 		void SaveLearnData(Learn *d,char DCount)
;FirmV_0_7_0.c,2347 :: 		Door1OpenTime=(*d).D1OpenTime;
	MOVLW       1
	ADDWF       FARG_SaveLearnData_d+0, 0 
	MOVWF       FSR0L 
	MOVLW       0
	ADDWFC      FARG_SaveLearnData_d+1, 0 
	MOVWF       FSR0H 
	MOVF        POSTINC0+0, 0 
	MOVWF       _Door1OpenTime+0 
;FirmV_0_7_0.c,2348 :: 		Door1CloseTime=(*d).D1CloseTime;
	MOVFF       FARG_SaveLearnData_d+0, FSR0L
	MOVFF       FARG_SaveLearnData_d+1, FSR0H
	MOVF        POSTINC0+0, 0 
	MOVWF       _Door1CloseTime+0 
;FirmV_0_7_0.c,2349 :: 		if(DCount==2)
	MOVF        FARG_SaveLearnData_DCount+0, 0 
	XORLW       2
	BTFSS       STATUS+0, 2 
	GOTO        L_SaveLearnData604
;FirmV_0_7_0.c,2351 :: 		Door2OpenTime=(*d).D2OpenTime;
	MOVLW       3
	ADDWF       FARG_SaveLearnData_d+0, 0 
	MOVWF       FSR0L 
	MOVLW       0
	ADDWFC      FARG_SaveLearnData_d+1, 0 
	MOVWF       FSR0H 
	MOVF        POSTINC0+0, 0 
	MOVWF       _Door2OpenTime+0 
;FirmV_0_7_0.c,2352 :: 		Door2CloseTime=(*d).D2CloseTime;
	MOVLW       2
	ADDWF       FARG_SaveLearnData_d+0, 0 
	MOVWF       FSR0L 
	MOVLW       0
	ADDWFC      FARG_SaveLearnData_d+1, 0 
	MOVWF       FSR0H 
	MOVF        POSTINC0+0, 0 
	MOVWF       _Door2CloseTime+0 
;FirmV_0_7_0.c,2353 :: 		OpenSoftStartTime=((*d).D1OpenSoftStart+(*d).D2OpenSoftStart)/2;
	MOVLW       4
	ADDWF       FARG_SaveLearnData_d+0, 0 
	MOVWF       FSR0L 
	MOVLW       0
	ADDWFC      FARG_SaveLearnData_d+1, 0 
	MOVWF       FSR0H 
	MOVLW       8
	ADDWF       FARG_SaveLearnData_d+0, 0 
	MOVWF       FSR2L 
	MOVLW       0
	ADDWFC      FARG_SaveLearnData_d+1, 0 
	MOVWF       FSR2H 
	MOVF        POSTINC2+0, 0 
	ADDWF       POSTINC0+0, 0 
	MOVWF       R3 
	CLRF        R4 
	MOVLW       0
	ADDWFC      R4, 1 
	MOVF        R3, 0 
	MOVWF       R0 
	MOVF        R4, 0 
	MOVWF       R1 
	RRCF        R1, 1 
	RRCF        R0, 1 
	BCF         R1, 7 
	BTFSC       R1, 6 
	BSF         R1, 7 
	MOVF        R0, 0 
	MOVWF       _OpenSoftStartTime+0 
;FirmV_0_7_0.c,2354 :: 		OpenSoftStopTime=((*d).D1OpenSoftStop+(*d).D2OpenSoftStop)/2;
	MOVLW       5
	ADDWF       FARG_SaveLearnData_d+0, 0 
	MOVWF       FSR0L 
	MOVLW       0
	ADDWFC      FARG_SaveLearnData_d+1, 0 
	MOVWF       FSR0H 
	MOVLW       9
	ADDWF       FARG_SaveLearnData_d+0, 0 
	MOVWF       FSR2L 
	MOVLW       0
	ADDWFC      FARG_SaveLearnData_d+1, 0 
	MOVWF       FSR2H 
	MOVF        POSTINC2+0, 0 
	ADDWF       POSTINC0+0, 0 
	MOVWF       R3 
	CLRF        R4 
	MOVLW       0
	ADDWFC      R4, 1 
	MOVF        R3, 0 
	MOVWF       R0 
	MOVF        R4, 0 
	MOVWF       R1 
	RRCF        R1, 1 
	RRCF        R0, 1 
	BCF         R1, 7 
	BTFSC       R1, 6 
	BSF         R1, 7 
	MOVF        R0, 0 
	MOVWF       _OpenSoftStopTime+0 
;FirmV_0_7_0.c,2355 :: 		CloseSoftStartTime=((*d).D1CloseSoftStart+(*d).D2CloseSoftStart)/2;
	MOVLW       6
	ADDWF       FARG_SaveLearnData_d+0, 0 
	MOVWF       FSR0L 
	MOVLW       0
	ADDWFC      FARG_SaveLearnData_d+1, 0 
	MOVWF       FSR0H 
	MOVLW       10
	ADDWF       FARG_SaveLearnData_d+0, 0 
	MOVWF       FSR2L 
	MOVLW       0
	ADDWFC      FARG_SaveLearnData_d+1, 0 
	MOVWF       FSR2H 
	MOVF        POSTINC2+0, 0 
	ADDWF       POSTINC0+0, 0 
	MOVWF       R3 
	CLRF        R4 
	MOVLW       0
	ADDWFC      R4, 1 
	MOVF        R3, 0 
	MOVWF       R0 
	MOVF        R4, 0 
	MOVWF       R1 
	RRCF        R1, 1 
	RRCF        R0, 1 
	BCF         R1, 7 
	BTFSC       R1, 6 
	BSF         R1, 7 
	MOVF        R0, 0 
	MOVWF       _CloseSoftStartTime+0 
;FirmV_0_7_0.c,2356 :: 		CloseSoftStopTime=((*d).D1CloseSoftStop+(*d).D2CloseSoftStop)/2;
	MOVLW       7
	ADDWF       FARG_SaveLearnData_d+0, 0 
	MOVWF       FSR0L 
	MOVLW       0
	ADDWFC      FARG_SaveLearnData_d+1, 0 
	MOVWF       FSR0H 
	MOVLW       11
	ADDWF       FARG_SaveLearnData_d+0, 0 
	MOVWF       FSR2L 
	MOVLW       0
	ADDWFC      FARG_SaveLearnData_d+1, 0 
	MOVWF       FSR2H 
	MOVF        POSTINC2+0, 0 
	ADDWF       POSTINC0+0, 0 
	MOVWF       R3 
	CLRF        R4 
	MOVLW       0
	ADDWFC      R4, 1 
	MOVF        R3, 0 
	MOVWF       R0 
	MOVF        R4, 0 
	MOVWF       R1 
	RRCF        R1, 1 
	RRCF        R0, 1 
	BCF         R1, 7 
	BTFSC       R1, 6 
	BSF         R1, 7 
	MOVF        R0, 0 
	MOVWF       _CloseSoftStopTime+0 
;FirmV_0_7_0.c,2357 :: 		}
	GOTO        L_SaveLearnData605
L_SaveLearnData604:
;FirmV_0_7_0.c,2360 :: 		Door2OpenTime=0;
	CLRF        _Door2OpenTime+0 
;FirmV_0_7_0.c,2361 :: 		Door2CloseTime=0;
	CLRF        _Door2CloseTime+0 
;FirmV_0_7_0.c,2362 :: 		OpenSoftStartTime=(*d).D1OpenSoftStart;
	MOVLW       4
	ADDWF       FARG_SaveLearnData_d+0, 0 
	MOVWF       FSR0L 
	MOVLW       0
	ADDWFC      FARG_SaveLearnData_d+1, 0 
	MOVWF       FSR0H 
	MOVF        POSTINC0+0, 0 
	MOVWF       _OpenSoftStartTime+0 
;FirmV_0_7_0.c,2363 :: 		OpenSoftStopTime=(*d).D1OpenSoftStop;
	MOVLW       5
	ADDWF       FARG_SaveLearnData_d+0, 0 
	MOVWF       FSR0L 
	MOVLW       0
	ADDWFC      FARG_SaveLearnData_d+1, 0 
	MOVWF       FSR0H 
	MOVF        POSTINC0+0, 0 
	MOVWF       _OpenSoftStopTime+0 
;FirmV_0_7_0.c,2364 :: 		CloseSoftStartTime=(*d).D1CloseSoftStart;
	MOVLW       6
	ADDWF       FARG_SaveLearnData_d+0, 0 
	MOVWF       FSR0L 
	MOVLW       0
	ADDWFC      FARG_SaveLearnData_d+1, 0 
	MOVWF       FSR0H 
	MOVF        POSTINC0+0, 0 
	MOVWF       _CloseSoftStartTime+0 
;FirmV_0_7_0.c,2365 :: 		CloseSoftStopTime=(*d).D1CloseSoftStop;
	MOVLW       7
	ADDWF       FARG_SaveLearnData_d+0, 0 
	MOVWF       FSR0L 
	MOVLW       0
	ADDWFC      FARG_SaveLearnData_d+1, 0 
	MOVWF       FSR0H 
	MOVF        POSTINC0+0, 0 
	MOVWF       _CloseSoftStopTime+0 
;FirmV_0_7_0.c,2366 :: 		}
L_SaveLearnData605:
;FirmV_0_7_0.c,2368 :: 		SaveConfigs();
	CALL        _SaveConfigs+0, 0
;FirmV_0_7_0.c,2369 :: 		}
	RETURN      0
; end of _SaveLearnData

_LearnManual:

;FirmV_0_7_0.c,2384 :: 		void LearnManual()
;FirmV_0_7_0.c,2392 :: 		switch(LearnPhase)
	GOTO        L_LearnManual606
;FirmV_0_7_0.c,2394 :: 		case 0:
L_LearnManual608:
;FirmV_0_7_0.c,2395 :: 		Flasher=1;
	BSF         PORTD+0, 7 
;FirmV_0_7_0.c,2396 :: 		if(Events.Remote.b0==1){LearnPhase=LearnPhase+1; DoorNo=2;}if(Events.Remote.b1==1){LearnPhase=3; DoorNo=1;}
	BTFSS       _Events+4, 0 
	GOTO        L_LearnManual609
	INCF        _LearnPhase+0, 1 
	MOVLW       2
	MOVWF       LearnManual_DoorNo_L0+0 
L_LearnManual609:
	BTFSS       _Events+4, 1 
	GOTO        L_LearnManual610
	MOVLW       3
	MOVWF       _LearnPhase+0 
	MOVLW       1
	MOVWF       LearnManual_DoorNo_L0+0 
L_LearnManual610:
;FirmV_0_7_0.c,2397 :: 		break;
	GOTO        L_LearnManual607
;FirmV_0_7_0.c,2399 :: 		case 1: //Start D2 and enable overload sensing after 1s
L_LearnManual611:
;FirmV_0_7_0.c,2400 :: 		StartMotor(2,_Close);AddTask(ms500+4,21);LearnPhase=LearnPhase+1;OverloadCheckFlag2=0;
	MOVLW       2
	MOVWF       FARG_StartMotor_Mx+0 
	CLRF        FARG_StartMotor_Dir+0 
	CALL        _StartMotor+0, 0
	MOVLW       4
	ADDWF       _ms500+0, 0 
	MOVWF       FARG_AddTask_OccTime+0 
	MOVLW       0
	ADDWFC      _ms500+1, 0 
	MOVWF       FARG_AddTask_OccTime+1 
	MOVLW       0
	ADDWFC      _ms500+2, 0 
	MOVWF       FARG_AddTask_OccTime+2 
	MOVLW       0
	ADDWFC      _ms500+3, 0 
	MOVWF       FARG_AddTask_OccTime+3 
	MOVLW       21
	MOVWF       FARG_AddTask_tcode+0 
	CALL        _AddTask+0, 0
	INCF        _LearnPhase+0, 1 
	CLRF        _OverloadCheckFlag2+0 
;FirmV_0_7_0.c,2401 :: 		break;
	GOTO        L_LearnManual607
;FirmV_0_7_0.c,2403 :: 		case 2: //Check if D2 reaches end of its course
L_LearnManual612:
;FirmV_0_7_0.c,2404 :: 		if((Events.Overload.b1==1)&&(OverloadCheckFlag2==1)){OverloadCheckFlag2=0;StopMotor(2);LearnPhase=LearnPhase+1;}
	BTFSS       _Events+5, 1 
	GOTO        L_LearnManual615
	MOVF        _OverloadCheckFlag2+0, 0 
	XORLW       1
	BTFSS       STATUS+0, 2 
	GOTO        L_LearnManual615
L__LearnManual780:
	CLRF        _OverloadCheckFlag2+0 
	MOVLW       2
	MOVWF       FARG_StopMotor_Mx+0 
	CALL        _StopMotor+0, 0
	INCF        _LearnPhase+0, 1 
L_LearnManual615:
;FirmV_0_7_0.c,2405 :: 		if(CheckTask(21))OverloadCheckFlag2=1;
	MOVLW       21
	MOVWF       FARG_CheckTask_TaskCode+0 
	CALL        _CheckTask+0, 0
	MOVF        R0, 1 
	BTFSC       STATUS+0, 2 
	GOTO        L_LearnManual616
	MOVLW       1
	MOVWF       _OverloadCheckFlag2+0 
L_LearnManual616:
;FirmV_0_7_0.c,2406 :: 		break;
	GOTO        L_LearnManual607
;FirmV_0_7_0.c,2408 :: 		case 3: //Start D1 and enable overload sensin after 1 s
L_LearnManual617:
;FirmV_0_7_0.c,2409 :: 		StartMotor(1,_Close);AddTask(ms500+4,20);LearnPhase=LearnPhase+1;;OverloadCheckFlag1=0;
	MOVLW       1
	MOVWF       FARG_StartMotor_Mx+0 
	CLRF        FARG_StartMotor_Dir+0 
	CALL        _StartMotor+0, 0
	MOVLW       4
	ADDWF       _ms500+0, 0 
	MOVWF       FARG_AddTask_OccTime+0 
	MOVLW       0
	ADDWFC      _ms500+1, 0 
	MOVWF       FARG_AddTask_OccTime+1 
	MOVLW       0
	ADDWFC      _ms500+2, 0 
	MOVWF       FARG_AddTask_OccTime+2 
	MOVLW       0
	ADDWFC      _ms500+3, 0 
	MOVWF       FARG_AddTask_OccTime+3 
	MOVLW       20
	MOVWF       FARG_AddTask_tcode+0 
	CALL        _AddTask+0, 0
	INCF        _LearnPhase+0, 1 
	CLRF        _OverloadCheckFlag1+0 
;FirmV_0_7_0.c,2411 :: 		case 4: //Check if D1 reaches end of its course
L_LearnManual618:
;FirmV_0_7_0.c,2412 :: 		if((Events.Overload.b0==1)&&(OverloadCheckFlag1==1)){OverloadCheckFlag1=0;StopMotor(1);LearnPhase=LearnPhase+1;}
	BTFSS       _Events+5, 0 
	GOTO        L_LearnManual621
	MOVF        _OverloadCheckFlag1+0, 0 
	XORLW       1
	BTFSS       STATUS+0, 2 
	GOTO        L_LearnManual621
L__LearnManual779:
	CLRF        _OverloadCheckFlag1+0 
	MOVLW       1
	MOVWF       FARG_StopMotor_Mx+0 
	CALL        _StopMotor+0, 0
	INCF        _LearnPhase+0, 1 
L_LearnManual621:
;FirmV_0_7_0.c,2413 :: 		if(CheckTask(20))OverloadCheckFlag1=1;
	MOVLW       20
	MOVWF       FARG_CheckTask_TaskCode+0 
	CALL        _CheckTask+0, 0
	MOVF        R0, 1 
	BTFSC       STATUS+0, 2 
	GOTO        L_LearnManual622
	MOVLW       1
	MOVWF       _OverloadCheckFlag1+0 
L_LearnManual622:
;FirmV_0_7_0.c,2414 :: 		break;
	GOTO        L_LearnManual607
;FirmV_0_7_0.c,2416 :: 		case 5: //Wait for remote to start D1 and slow down
L_LearnManual623:
;FirmV_0_7_0.c,2417 :: 		if(Events.Remote!=0){t1=ms500;StartMotor(1,_Open);SetMotorSpeed(0,Motor2FullSpeed);M1isSlow=1;LearnPhase=LearnPhase+1;}
	MOVF        _Events+4, 0 
	XORLW       0
	BTFSC       STATUS+0, 2 
	GOTO        L_LearnManual624
	MOVF        _ms500+0, 0 
	MOVWF       LearnManual_t1_L0+0 
	MOVF        _ms500+1, 0 
	MOVWF       LearnManual_t1_L0+1 
	MOVF        _ms500+2, 0 
	MOVWF       LearnManual_t1_L0+2 
	MOVF        _ms500+3, 0 
	MOVWF       LearnManual_t1_L0+3 
	MOVLW       1
	MOVWF       FARG_StartMotor_Mx+0 
	MOVLW       1
	MOVWF       FARG_StartMotor_Dir+0 
	CALL        _StartMotor+0, 0
	CLRF        FARG_SetMotorSpeed_M1FullSpeed+0 
	MOVF        _Motor2FullSpeed+0, 0 
	MOVWF       FARG_SetMotorSpeed_M2FullSpeed+0 
	CALL        _SetMotorSpeed+0, 0
	MOVLW       1
	MOVWF       _M1isSlow+0 
	INCF        _LearnPhase+0, 1 
L_LearnManual624:
;FirmV_0_7_0.c,2418 :: 		break;
	GOTO        L_LearnManual607
;FirmV_0_7_0.c,2420 :: 		case 6: //check for Remote press and fast up
L_LearnManual625:
;FirmV_0_7_0.c,2421 :: 		if(Events.Remote!=0){LearnPhase=LearnPhase+1;t2=ms500;SetMotorSpeed(1,Motor2FullSpeed);M1isSlow=0;}
	MOVF        _Events+4, 0 
	XORLW       0
	BTFSC       STATUS+0, 2 
	GOTO        L_LearnManual626
	INCF        _LearnPhase+0, 1 
	MOVF        _ms500+0, 0 
	MOVWF       LearnManual_t2_L0+0 
	MOVF        _ms500+1, 0 
	MOVWF       LearnManual_t2_L0+1 
	MOVF        _ms500+2, 0 
	MOVWF       LearnManual_t2_L0+2 
	MOVF        _ms500+3, 0 
	MOVWF       LearnManual_t2_L0+3 
	MOVLW       1
	MOVWF       FARG_SetMotorSpeed_M1FullSpeed+0 
	MOVF        _Motor2FullSpeed+0, 0 
	MOVWF       FARG_SetMotorSpeed_M2FullSpeed+0 
	CALL        _SetMotorSpeed+0, 0
	CLRF        _M1isSlow+0 
L_LearnManual626:
;FirmV_0_7_0.c,2422 :: 		break;
	GOTO        L_LearnManual607
;FirmV_0_7_0.c,2424 :: 		case 7: //check for Remote press and slow down
L_LearnManual627:
;FirmV_0_7_0.c,2425 :: 		if(Events.Remote!=0){LearnPhase=LearnPhase+1;t3=ms500;SetMotorSpeed(0,Motor2FullSpeed);M1isSlow=1;}
	MOVF        _Events+4, 0 
	XORLW       0
	BTFSC       STATUS+0, 2 
	GOTO        L_LearnManual628
	INCF        _LearnPhase+0, 1 
	MOVF        _ms500+0, 0 
	MOVWF       LearnManual_t3_L0+0 
	MOVF        _ms500+1, 0 
	MOVWF       LearnManual_t3_L0+1 
	MOVF        _ms500+2, 0 
	MOVWF       LearnManual_t3_L0+2 
	MOVF        _ms500+3, 0 
	MOVWF       LearnManual_t3_L0+3 
	CLRF        FARG_SetMotorSpeed_M1FullSpeed+0 
	MOVF        _Motor2FullSpeed+0, 0 
	MOVWF       FARG_SetMotorSpeed_M2FullSpeed+0 
	CALL        _SetMotorSpeed+0, 0
	MOVLW       1
	MOVWF       _M1isSlow+0 
L_LearnManual628:
;FirmV_0_7_0.c,2426 :: 		break;
	GOTO        L_LearnManual607
;FirmV_0_7_0.c,2428 :: 		case 8: //check for Remote press and stop
L_LearnManual629:
;FirmV_0_7_0.c,2429 :: 		if(Events.Remote!=0){if(DoorNo==2)LearnPhase=LearnPhase+1;else LearnPhase=17;t4=ms500;StopMotor(1);
	MOVF        _Events+4, 0 
	XORLW       0
	BTFSC       STATUS+0, 2 
	GOTO        L_LearnManual630
	MOVF        LearnManual_DoorNo_L0+0, 0 
	XORLW       2
	BTFSS       STATUS+0, 2 
	GOTO        L_LearnManual631
	INCF        _LearnPhase+0, 1 
	GOTO        L_LearnManual632
L_LearnManual631:
	MOVLW       17
	MOVWF       _LearnPhase+0 
L_LearnManual632:
	MOVF        _ms500+0, 0 
	MOVWF       LearnManual_t4_L0+0 
	MOVF        _ms500+1, 0 
	MOVWF       LearnManual_t4_L0+1 
	MOVF        _ms500+2, 0 
	MOVWF       LearnManual_t4_L0+2 
	MOVF        _ms500+3, 0 
	MOVWF       LearnManual_t4_L0+3 
	MOVLW       1
	MOVWF       FARG_StopMotor_Mx+0 
	CALL        _StopMotor+0, 0
;FirmV_0_7_0.c,2430 :: 		RawData.D1OpenTime=(char)(t4-t1);
	MOVF        LearnManual_t1_L0+0, 0 
	SUBWF       LearnManual_t4_L0+0, 0 
	MOVWF       R0 
	MOVF        R0, 0 
	MOVWF       LearnManual_RawData_L0+1 
;FirmV_0_7_0.c,2431 :: 		RawData.D1OpenSoftStart=(char)(t2-t1);
	MOVF        LearnManual_t1_L0+0, 0 
	SUBWF       LearnManual_t2_L0+0, 0 
	MOVWF       R0 
	MOVF        R0, 0 
	MOVWF       LearnManual_RawData_L0+4 
;FirmV_0_7_0.c,2432 :: 		RawData.D1OpenSoftStop=(char)(t4-t3);
	MOVF        LearnManual_t3_L0+0, 0 
	SUBWF       LearnManual_t4_L0+0, 0 
	MOVWF       R0 
	MOVF        R0, 0 
	MOVWF       LearnManual_RawData_L0+5 
;FirmV_0_7_0.c,2433 :: 		}
L_LearnManual630:
;FirmV_0_7_0.c,2434 :: 		break;
	GOTO        L_LearnManual607
;FirmV_0_7_0.c,2436 :: 		case 9: //Wait for remote to start D2 and slow down
L_LearnManual633:
;FirmV_0_7_0.c,2437 :: 		if(Events.Remote!=0){t1=ms500;StartMotor(2,_Open);SetMotorSpeed(Motor1FullSpeed,0);M2isSlow=1;LearnPhase=LearnPhase+1;}
	MOVF        _Events+4, 0 
	XORLW       0
	BTFSC       STATUS+0, 2 
	GOTO        L_LearnManual634
	MOVF        _ms500+0, 0 
	MOVWF       LearnManual_t1_L0+0 
	MOVF        _ms500+1, 0 
	MOVWF       LearnManual_t1_L0+1 
	MOVF        _ms500+2, 0 
	MOVWF       LearnManual_t1_L0+2 
	MOVF        _ms500+3, 0 
	MOVWF       LearnManual_t1_L0+3 
	MOVLW       2
	MOVWF       FARG_StartMotor_Mx+0 
	MOVLW       1
	MOVWF       FARG_StartMotor_Dir+0 
	CALL        _StartMotor+0, 0
	MOVF        _Motor1FullSpeed+0, 0 
	MOVWF       FARG_SetMotorSpeed_M1FullSpeed+0 
	CLRF        FARG_SetMotorSpeed_M2FullSpeed+0 
	CALL        _SetMotorSpeed+0, 0
	MOVLW       1
	MOVWF       _M2isSlow+0 
	INCF        _LearnPhase+0, 1 
L_LearnManual634:
;FirmV_0_7_0.c,2438 :: 		break;
	GOTO        L_LearnManual607
;FirmV_0_7_0.c,2440 :: 		case 10: //check for Remote press and fast up
L_LearnManual635:
;FirmV_0_7_0.c,2441 :: 		if(Events.Remote!=0){LearnPhase=LearnPhase+1;t2=ms500;SetMotorSpeed(Motor1FullSpeed,1);M2isSlow=0;}
	MOVF        _Events+4, 0 
	XORLW       0
	BTFSC       STATUS+0, 2 
	GOTO        L_LearnManual636
	INCF        _LearnPhase+0, 1 
	MOVF        _ms500+0, 0 
	MOVWF       LearnManual_t2_L0+0 
	MOVF        _ms500+1, 0 
	MOVWF       LearnManual_t2_L0+1 
	MOVF        _ms500+2, 0 
	MOVWF       LearnManual_t2_L0+2 
	MOVF        _ms500+3, 0 
	MOVWF       LearnManual_t2_L0+3 
	MOVF        _Motor1FullSpeed+0, 0 
	MOVWF       FARG_SetMotorSpeed_M1FullSpeed+0 
	MOVLW       1
	MOVWF       FARG_SetMotorSpeed_M2FullSpeed+0 
	CALL        _SetMotorSpeed+0, 0
	CLRF        _M2isSlow+0 
L_LearnManual636:
;FirmV_0_7_0.c,2442 :: 		break;
	GOTO        L_LearnManual607
;FirmV_0_7_0.c,2444 :: 		case 11: //check for Remote press and slow down
L_LearnManual637:
;FirmV_0_7_0.c,2445 :: 		if(Events.Remote!=0){LearnPhase=LearnPhase+1;t3=ms500;SetMotorSpeed(Motor1FullSpeed,0);M2isSlow=1;}
	MOVF        _Events+4, 0 
	XORLW       0
	BTFSC       STATUS+0, 2 
	GOTO        L_LearnManual638
	INCF        _LearnPhase+0, 1 
	MOVF        _ms500+0, 0 
	MOVWF       LearnManual_t3_L0+0 
	MOVF        _ms500+1, 0 
	MOVWF       LearnManual_t3_L0+1 
	MOVF        _ms500+2, 0 
	MOVWF       LearnManual_t3_L0+2 
	MOVF        _ms500+3, 0 
	MOVWF       LearnManual_t3_L0+3 
	MOVF        _Motor1FullSpeed+0, 0 
	MOVWF       FARG_SetMotorSpeed_M1FullSpeed+0 
	CLRF        FARG_SetMotorSpeed_M2FullSpeed+0 
	CALL        _SetMotorSpeed+0, 0
	MOVLW       1
	MOVWF       _M2isSlow+0 
L_LearnManual638:
;FirmV_0_7_0.c,2446 :: 		break;
	GOTO        L_LearnManual607
;FirmV_0_7_0.c,2448 :: 		case 12: //check for Remote press and stop
L_LearnManual639:
;FirmV_0_7_0.c,2449 :: 		if(Events.Remote!=0){LearnPhase=LearnPhase+1;t4=ms500;StopMotor(2);
	MOVF        _Events+4, 0 
	XORLW       0
	BTFSC       STATUS+0, 2 
	GOTO        L_LearnManual640
	INCF        _LearnPhase+0, 1 
	MOVF        _ms500+0, 0 
	MOVWF       LearnManual_t4_L0+0 
	MOVF        _ms500+1, 0 
	MOVWF       LearnManual_t4_L0+1 
	MOVF        _ms500+2, 0 
	MOVWF       LearnManual_t4_L0+2 
	MOVF        _ms500+3, 0 
	MOVWF       LearnManual_t4_L0+3 
	MOVLW       2
	MOVWF       FARG_StopMotor_Mx+0 
	CALL        _StopMotor+0, 0
;FirmV_0_7_0.c,2450 :: 		RawData.D2OpenTime=(char)(t4-t1);
	MOVF        LearnManual_t1_L0+0, 0 
	SUBWF       LearnManual_t4_L0+0, 0 
	MOVWF       R0 
	MOVF        R0, 0 
	MOVWF       LearnManual_RawData_L0+3 
;FirmV_0_7_0.c,2451 :: 		RawData.D2OpenSoftStart=(char)(t2-t1);
	MOVF        LearnManual_t1_L0+0, 0 
	SUBWF       LearnManual_t2_L0+0, 0 
	MOVWF       R0 
	MOVF        R0, 0 
	MOVWF       LearnManual_RawData_L0+8 
;FirmV_0_7_0.c,2452 :: 		RawData.D2OpenSoftStop=(char)(t4-t3);
	MOVF        LearnManual_t3_L0+0, 0 
	SUBWF       LearnManual_t4_L0+0, 0 
	MOVWF       R0 
	MOVF        R0, 0 
	MOVWF       LearnManual_RawData_L0+9 
;FirmV_0_7_0.c,2453 :: 		}
L_LearnManual640:
;FirmV_0_7_0.c,2454 :: 		break;
	GOTO        L_LearnManual607
;FirmV_0_7_0.c,2456 :: 		case 13: //Wait for remote to start D2 and slow down
L_LearnManual641:
;FirmV_0_7_0.c,2457 :: 		if(Events.Remote!=0){t1=ms500;StartMotor(2,_Close);SetMotorSpeed(Motor1FullSpeed,0);M2isSlow=1;LearnPhase=LearnPhase+1;}
	MOVF        _Events+4, 0 
	XORLW       0
	BTFSC       STATUS+0, 2 
	GOTO        L_LearnManual642
	MOVF        _ms500+0, 0 
	MOVWF       LearnManual_t1_L0+0 
	MOVF        _ms500+1, 0 
	MOVWF       LearnManual_t1_L0+1 
	MOVF        _ms500+2, 0 
	MOVWF       LearnManual_t1_L0+2 
	MOVF        _ms500+3, 0 
	MOVWF       LearnManual_t1_L0+3 
	MOVLW       2
	MOVWF       FARG_StartMotor_Mx+0 
	CLRF        FARG_StartMotor_Dir+0 
	CALL        _StartMotor+0, 0
	MOVF        _Motor1FullSpeed+0, 0 
	MOVWF       FARG_SetMotorSpeed_M1FullSpeed+0 
	CLRF        FARG_SetMotorSpeed_M2FullSpeed+0 
	CALL        _SetMotorSpeed+0, 0
	MOVLW       1
	MOVWF       _M2isSlow+0 
	INCF        _LearnPhase+0, 1 
L_LearnManual642:
;FirmV_0_7_0.c,2458 :: 		break;
	GOTO        L_LearnManual607
;FirmV_0_7_0.c,2460 :: 		case 14: //check for Remote press and fast up
L_LearnManual643:
;FirmV_0_7_0.c,2461 :: 		if(Events.Remote!=0){LearnPhase=LearnPhase+1;t2=ms500;SetMotorSpeed(Motor1FullSpeed,1);M2isSlow=0;}
	MOVF        _Events+4, 0 
	XORLW       0
	BTFSC       STATUS+0, 2 
	GOTO        L_LearnManual644
	INCF        _LearnPhase+0, 1 
	MOVF        _ms500+0, 0 
	MOVWF       LearnManual_t2_L0+0 
	MOVF        _ms500+1, 0 
	MOVWF       LearnManual_t2_L0+1 
	MOVF        _ms500+2, 0 
	MOVWF       LearnManual_t2_L0+2 
	MOVF        _ms500+3, 0 
	MOVWF       LearnManual_t2_L0+3 
	MOVF        _Motor1FullSpeed+0, 0 
	MOVWF       FARG_SetMotorSpeed_M1FullSpeed+0 
	MOVLW       1
	MOVWF       FARG_SetMotorSpeed_M2FullSpeed+0 
	CALL        _SetMotorSpeed+0, 0
	CLRF        _M2isSlow+0 
L_LearnManual644:
;FirmV_0_7_0.c,2462 :: 		break;
	GOTO        L_LearnManual607
;FirmV_0_7_0.c,2464 :: 		case 15: //check for Remote press and slow down
L_LearnManual645:
;FirmV_0_7_0.c,2465 :: 		if(Events.Remote!=0){LearnPhase=LearnPhase+1;t3=ms500;SetMotorSpeed(Motor1FullSpeed,0);M2isSlow=1;}
	MOVF        _Events+4, 0 
	XORLW       0
	BTFSC       STATUS+0, 2 
	GOTO        L_LearnManual646
	INCF        _LearnPhase+0, 1 
	MOVF        _ms500+0, 0 
	MOVWF       LearnManual_t3_L0+0 
	MOVF        _ms500+1, 0 
	MOVWF       LearnManual_t3_L0+1 
	MOVF        _ms500+2, 0 
	MOVWF       LearnManual_t3_L0+2 
	MOVF        _ms500+3, 0 
	MOVWF       LearnManual_t3_L0+3 
	MOVF        _Motor1FullSpeed+0, 0 
	MOVWF       FARG_SetMotorSpeed_M1FullSpeed+0 
	CLRF        FARG_SetMotorSpeed_M2FullSpeed+0 
	CALL        _SetMotorSpeed+0, 0
	MOVLW       1
	MOVWF       _M2isSlow+0 
L_LearnManual646:
;FirmV_0_7_0.c,2466 :: 		break;
	GOTO        L_LearnManual607
;FirmV_0_7_0.c,2468 :: 		case 16: //check for Remote press and stop
L_LearnManual647:
;FirmV_0_7_0.c,2469 :: 		if(Events.Remote!=0){LearnPhase=LearnPhase+1;t4=ms500;StopMotor(2);
	MOVF        _Events+4, 0 
	XORLW       0
	BTFSC       STATUS+0, 2 
	GOTO        L_LearnManual648
	INCF        _LearnPhase+0, 1 
	MOVF        _ms500+0, 0 
	MOVWF       LearnManual_t4_L0+0 
	MOVF        _ms500+1, 0 
	MOVWF       LearnManual_t4_L0+1 
	MOVF        _ms500+2, 0 
	MOVWF       LearnManual_t4_L0+2 
	MOVF        _ms500+3, 0 
	MOVWF       LearnManual_t4_L0+3 
	MOVLW       2
	MOVWF       FARG_StopMotor_Mx+0 
	CALL        _StopMotor+0, 0
;FirmV_0_7_0.c,2470 :: 		RawData.D2CloseTime=(char)(t4-t1);
	MOVF        LearnManual_t1_L0+0, 0 
	SUBWF       LearnManual_t4_L0+0, 0 
	MOVWF       R0 
	MOVF        R0, 0 
	MOVWF       LearnManual_RawData_L0+2 
;FirmV_0_7_0.c,2471 :: 		RawData.D2CloseSoftStart=(char)(t2-t1);
	MOVF        LearnManual_t1_L0+0, 0 
	SUBWF       LearnManual_t2_L0+0, 0 
	MOVWF       R0 
	MOVF        R0, 0 
	MOVWF       LearnManual_RawData_L0+10 
;FirmV_0_7_0.c,2472 :: 		RawData.D2CloseSoftStop=(char)(t4-t3);
	MOVF        LearnManual_t3_L0+0, 0 
	SUBWF       LearnManual_t4_L0+0, 0 
	MOVWF       R0 
	MOVF        R0, 0 
	MOVWF       LearnManual_RawData_L0+11 
;FirmV_0_7_0.c,2473 :: 		}
L_LearnManual648:
;FirmV_0_7_0.c,2474 :: 		break;
	GOTO        L_LearnManual607
;FirmV_0_7_0.c,2476 :: 		case 17: //Wait for remote to start D1 and slow down
L_LearnManual649:
;FirmV_0_7_0.c,2477 :: 		if(Events.Remote!=0){t1=ms500;StartMotor(1,_Close);SetMotorSpeed(0,Motor2FullSpeed);M1isSlow=1;LearnPhase=LearnPhase+1;}
	MOVF        _Events+4, 0 
	XORLW       0
	BTFSC       STATUS+0, 2 
	GOTO        L_LearnManual650
	MOVF        _ms500+0, 0 
	MOVWF       LearnManual_t1_L0+0 
	MOVF        _ms500+1, 0 
	MOVWF       LearnManual_t1_L0+1 
	MOVF        _ms500+2, 0 
	MOVWF       LearnManual_t1_L0+2 
	MOVF        _ms500+3, 0 
	MOVWF       LearnManual_t1_L0+3 
	MOVLW       1
	MOVWF       FARG_StartMotor_Mx+0 
	CLRF        FARG_StartMotor_Dir+0 
	CALL        _StartMotor+0, 0
	CLRF        FARG_SetMotorSpeed_M1FullSpeed+0 
	MOVF        _Motor2FullSpeed+0, 0 
	MOVWF       FARG_SetMotorSpeed_M2FullSpeed+0 
	CALL        _SetMotorSpeed+0, 0
	MOVLW       1
	MOVWF       _M1isSlow+0 
	INCF        _LearnPhase+0, 1 
L_LearnManual650:
;FirmV_0_7_0.c,2478 :: 		break;
	GOTO        L_LearnManual607
;FirmV_0_7_0.c,2480 :: 		case 18: //check for Remote press and fast up
L_LearnManual651:
;FirmV_0_7_0.c,2481 :: 		if(Events.Remote!=0){LearnPhase=LearnPhase+1;t2=ms500;SetMotorSpeed(1,Motor2FullSpeed);M1isSlow=0;}
	MOVF        _Events+4, 0 
	XORLW       0
	BTFSC       STATUS+0, 2 
	GOTO        L_LearnManual652
	INCF        _LearnPhase+0, 1 
	MOVF        _ms500+0, 0 
	MOVWF       LearnManual_t2_L0+0 
	MOVF        _ms500+1, 0 
	MOVWF       LearnManual_t2_L0+1 
	MOVF        _ms500+2, 0 
	MOVWF       LearnManual_t2_L0+2 
	MOVF        _ms500+3, 0 
	MOVWF       LearnManual_t2_L0+3 
	MOVLW       1
	MOVWF       FARG_SetMotorSpeed_M1FullSpeed+0 
	MOVF        _Motor2FullSpeed+0, 0 
	MOVWF       FARG_SetMotorSpeed_M2FullSpeed+0 
	CALL        _SetMotorSpeed+0, 0
	CLRF        _M1isSlow+0 
L_LearnManual652:
;FirmV_0_7_0.c,2482 :: 		break;
	GOTO        L_LearnManual607
;FirmV_0_7_0.c,2484 :: 		case 19: //check for Remote press and slow down
L_LearnManual653:
;FirmV_0_7_0.c,2485 :: 		if(Events.Remote!=0){LearnPhase=LearnPhase+1;t3=ms500;SetMotorSpeed(0,Motor2FullSpeed);M1isSlow=1;}
	MOVF        _Events+4, 0 
	XORLW       0
	BTFSC       STATUS+0, 2 
	GOTO        L_LearnManual654
	INCF        _LearnPhase+0, 1 
	MOVF        _ms500+0, 0 
	MOVWF       LearnManual_t3_L0+0 
	MOVF        _ms500+1, 0 
	MOVWF       LearnManual_t3_L0+1 
	MOVF        _ms500+2, 0 
	MOVWF       LearnManual_t3_L0+2 
	MOVF        _ms500+3, 0 
	MOVWF       LearnManual_t3_L0+3 
	CLRF        FARG_SetMotorSpeed_M1FullSpeed+0 
	MOVF        _Motor2FullSpeed+0, 0 
	MOVWF       FARG_SetMotorSpeed_M2FullSpeed+0 
	CALL        _SetMotorSpeed+0, 0
	MOVLW       1
	MOVWF       _M1isSlow+0 
L_LearnManual654:
;FirmV_0_7_0.c,2486 :: 		break;
	GOTO        L_LearnManual607
;FirmV_0_7_0.c,2488 :: 		case 20: //check for Remote press and stop
L_LearnManual655:
;FirmV_0_7_0.c,2489 :: 		if(Events.Remote!=0){LearnPhase=LearnPhase+1;t4=ms500;StopMotor(1);
	MOVF        _Events+4, 0 
	XORLW       0
	BTFSC       STATUS+0, 2 
	GOTO        L_LearnManual656
	INCF        _LearnPhase+0, 1 
	MOVF        _ms500+0, 0 
	MOVWF       LearnManual_t4_L0+0 
	MOVF        _ms500+1, 0 
	MOVWF       LearnManual_t4_L0+1 
	MOVF        _ms500+2, 0 
	MOVWF       LearnManual_t4_L0+2 
	MOVF        _ms500+3, 0 
	MOVWF       LearnManual_t4_L0+3 
	MOVLW       1
	MOVWF       FARG_StopMotor_Mx+0 
	CALL        _StopMotor+0, 0
;FirmV_0_7_0.c,2490 :: 		RawData.D1CloseTime=(char)(t4-t1);
	MOVF        LearnManual_t1_L0+0, 0 
	SUBWF       LearnManual_t4_L0+0, 0 
	MOVWF       R0 
	MOVF        R0, 0 
	MOVWF       LearnManual_RawData_L0+0 
;FirmV_0_7_0.c,2491 :: 		RawData.D1CloseSoftStart=(char)(t2-t1);
	MOVF        LearnManual_t1_L0+0, 0 
	SUBWF       LearnManual_t2_L0+0, 0 
	MOVWF       R0 
	MOVF        R0, 0 
	MOVWF       LearnManual_RawData_L0+6 
;FirmV_0_7_0.c,2492 :: 		RawData.D1CloseSoftStop=(char)(t4-t3);
	MOVF        LearnManual_t3_L0+0, 0 
	SUBWF       LearnManual_t4_L0+0, 0 
	MOVWF       R0 
	MOVF        R0, 0 
	MOVWF       LearnManual_RawData_L0+7 
;FirmV_0_7_0.c,2493 :: 		}
L_LearnManual656:
;FirmV_0_7_0.c,2494 :: 		break;
	GOTO        L_LearnManual607
;FirmV_0_7_0.c,2496 :: 		case 21:
L_LearnManual657:
;FirmV_0_7_0.c,2497 :: 		SaveLearnData(&RawData,DoorNo);
	MOVLW       LearnManual_RawData_L0+0
	MOVWF       FARG_SaveLearnData_d+0 
	MOVLW       hi_addr(LearnManual_RawData_L0+0)
	MOVWF       FARG_SaveLearnData_d+1 
	MOVF        LearnManual_DoorNo_L0+0, 0 
	MOVWF       FARG_SaveLearnData_DCount+0 
	CALL        _SaveLearnData+0, 0
;FirmV_0_7_0.c,2498 :: 		memcpy(LCDLine1," Learn Complete ",16);
	MOVLW       _LCDLine1+0
	MOVWF       FARG_memcpy_d1+0 
	MOVLW       hi_addr(_LCDLine1+0)
	MOVWF       FARG_memcpy_d1+1 
	MOVLW       ?ICS?lstr98_FirmV_0_7_0+0
	MOVWF       TBLPTRL 
	MOVLW       hi_addr(?ICS?lstr98_FirmV_0_7_0+0)
	MOVWF       TBLPTRH 
	MOVLW       higher_addr(?ICS?lstr98_FirmV_0_7_0+0)
	MOVWF       TBLPTRU 
	MOVLW       ?lstr98_FirmV_0_7_0+0
	MOVWF       FSR1L 
	MOVLW       hi_addr(?lstr98_FirmV_0_7_0+0)
	MOVWF       FSR1H 
	MOVLW       17
	MOVWF       R0 
	MOVLW       1
	MOVWF       R1 
	CALL        ___CC2DW+0, 0
	MOVLW       ?lstr98_FirmV_0_7_0+0
	MOVWF       FARG_memcpy_s1+0 
	MOVLW       hi_addr(?lstr98_FirmV_0_7_0+0)
	MOVWF       FARG_memcpy_s1+1 
	MOVLW       16
	MOVWF       FARG_memcpy_n+0 
	MOVLW       0
	MOVWF       FARG_memcpy_n+1 
	CALL        _memcpy+0, 0
;FirmV_0_7_0.c,2499 :: 		memcpy(LCDLine2,"     Ready      ",16);
	MOVLW       _LCDLine2+0
	MOVWF       FARG_memcpy_d1+0 
	MOVLW       hi_addr(_LCDLine2+0)
	MOVWF       FARG_memcpy_d1+1 
	MOVLW       ?ICS?lstr99_FirmV_0_7_0+0
	MOVWF       TBLPTRL 
	MOVLW       hi_addr(?ICS?lstr99_FirmV_0_7_0+0)
	MOVWF       TBLPTRH 
	MOVLW       higher_addr(?ICS?lstr99_FirmV_0_7_0+0)
	MOVWF       TBLPTRU 
	MOVLW       ?lstr99_FirmV_0_7_0+0
	MOVWF       FSR1L 
	MOVLW       hi_addr(?lstr99_FirmV_0_7_0+0)
	MOVWF       FSR1H 
	MOVLW       17
	MOVWF       R0 
	MOVLW       1
	MOVWF       R1 
	CALL        ___CC2DW+0, 0
	MOVLW       ?lstr99_FirmV_0_7_0+0
	MOVWF       FARG_memcpy_s1+0 
	MOVLW       hi_addr(?lstr99_FirmV_0_7_0+0)
	MOVWF       FARG_memcpy_s1+1 
	MOVLW       16
	MOVWF       FARG_memcpy_n+0 
	MOVLW       0
	MOVWF       FARG_memcpy_n+1 
	CALL        _memcpy+0, 0
;FirmV_0_7_0.c,2500 :: 		LCDLines=2;
	MOVLW       2
	MOVWF       _LCDLines+0 
;FirmV_0_7_0.c,2501 :: 		LCDUpdateFlag=1;
	MOVLW       1
	MOVWF       _LCDUpdateFlag+0 
;FirmV_0_7_0.c,2502 :: 		Flasher=0;
	BCF         PORTD+0, 7 
;FirmV_0_7_0.c,2503 :: 		State=0;
	CLRF        _State+0 
;FirmV_0_7_0.c,2504 :: 		break;
	GOTO        L_LearnManual607
;FirmV_0_7_0.c,2505 :: 		}
L_LearnManual606:
	MOVF        _LearnPhase+0, 0 
	XORLW       0
	BTFSC       STATUS+0, 2 
	GOTO        L_LearnManual608
	MOVF        _LearnPhase+0, 0 
	XORLW       1
	BTFSC       STATUS+0, 2 
	GOTO        L_LearnManual611
	MOVF        _LearnPhase+0, 0 
	XORLW       2
	BTFSC       STATUS+0, 2 
	GOTO        L_LearnManual612
	MOVF        _LearnPhase+0, 0 
	XORLW       3
	BTFSC       STATUS+0, 2 
	GOTO        L_LearnManual617
	MOVF        _LearnPhase+0, 0 
	XORLW       4
	BTFSC       STATUS+0, 2 
	GOTO        L_LearnManual618
	MOVF        _LearnPhase+0, 0 
	XORLW       5
	BTFSC       STATUS+0, 2 
	GOTO        L_LearnManual623
	MOVF        _LearnPhase+0, 0 
	XORLW       6
	BTFSC       STATUS+0, 2 
	GOTO        L_LearnManual625
	MOVF        _LearnPhase+0, 0 
	XORLW       7
	BTFSC       STATUS+0, 2 
	GOTO        L_LearnManual627
	MOVF        _LearnPhase+0, 0 
	XORLW       8
	BTFSC       STATUS+0, 2 
	GOTO        L_LearnManual629
	MOVF        _LearnPhase+0, 0 
	XORLW       9
	BTFSC       STATUS+0, 2 
	GOTO        L_LearnManual633
	MOVF        _LearnPhase+0, 0 
	XORLW       10
	BTFSC       STATUS+0, 2 
	GOTO        L_LearnManual635
	MOVF        _LearnPhase+0, 0 
	XORLW       11
	BTFSC       STATUS+0, 2 
	GOTO        L_LearnManual637
	MOVF        _LearnPhase+0, 0 
	XORLW       12
	BTFSC       STATUS+0, 2 
	GOTO        L_LearnManual639
	MOVF        _LearnPhase+0, 0 
	XORLW       13
	BTFSC       STATUS+0, 2 
	GOTO        L_LearnManual641
	MOVF        _LearnPhase+0, 0 
	XORLW       14
	BTFSC       STATUS+0, 2 
	GOTO        L_LearnManual643
	MOVF        _LearnPhase+0, 0 
	XORLW       15
	BTFSC       STATUS+0, 2 
	GOTO        L_LearnManual645
	MOVF        _LearnPhase+0, 0 
	XORLW       16
	BTFSC       STATUS+0, 2 
	GOTO        L_LearnManual647
	MOVF        _LearnPhase+0, 0 
	XORLW       17
	BTFSC       STATUS+0, 2 
	GOTO        L_LearnManual649
	MOVF        _LearnPhase+0, 0 
	XORLW       18
	BTFSC       STATUS+0, 2 
	GOTO        L_LearnManual651
	MOVF        _LearnPhase+0, 0 
	XORLW       19
	BTFSC       STATUS+0, 2 
	GOTO        L_LearnManual653
	MOVF        _LearnPhase+0, 0 
	XORLW       20
	BTFSC       STATUS+0, 2 
	GOTO        L_LearnManual655
	MOVF        _LearnPhase+0, 0 
	XORLW       21
	BTFSC       STATUS+0, 2 
	GOTO        L_LearnManual657
L_LearnManual607:
;FirmV_0_7_0.c,2506 :: 		}
	RETURN      0
; end of _LearnManual

_charValueToStr:

;FirmV_0_7_0.c,2527 :: 		void charValueToStr(char val, char * string)
;FirmV_0_7_0.c,2529 :: 		bytetostr(val>>1,string);
	MOVF        FARG_charValueToStr_val+0, 0 
	MOVWF       FARG_ByteToStr_input+0 
	RRCF        FARG_ByteToStr_input+0, 1 
	BCF         FARG_ByteToStr_input+0, 7 
	MOVF        FARG_charValueToStr_string+0, 0 
	MOVWF       FARG_ByteToStr_output+0 
	MOVF        FARG_charValueToStr_string+1, 0 
	MOVWF       FARG_ByteToStr_output+1 
	CALL        _ByteToStr+0, 0
;FirmV_0_7_0.c,2530 :: 		if((val%2)==1)
	MOVLW       1
	ANDWF       FARG_charValueToStr_val+0, 0 
	MOVWF       R1 
	MOVF        R1, 0 
	XORLW       1
	BTFSS       STATUS+0, 2 
	GOTO        L_charValueToStr658
;FirmV_0_7_0.c,2531 :: 		memcpy(string+3,".5s",4);
	MOVLW       3
	ADDWF       FARG_charValueToStr_string+0, 0 
	MOVWF       FARG_memcpy_d1+0 
	MOVLW       0
	ADDWFC      FARG_charValueToStr_string+1, 0 
	MOVWF       FARG_memcpy_d1+1 
	MOVLW       46
	MOVWF       ?lstr100_FirmV_0_7_0+0 
	MOVLW       53
	MOVWF       ?lstr100_FirmV_0_7_0+1 
	MOVLW       115
	MOVWF       ?lstr100_FirmV_0_7_0+2 
	CLRF        ?lstr100_FirmV_0_7_0+3 
	MOVLW       ?lstr100_FirmV_0_7_0+0
	MOVWF       FARG_memcpy_s1+0 
	MOVLW       hi_addr(?lstr100_FirmV_0_7_0+0)
	MOVWF       FARG_memcpy_s1+1 
	MOVLW       4
	MOVWF       FARG_memcpy_n+0 
	MOVLW       0
	MOVWF       FARG_memcpy_n+1 
	CALL        _memcpy+0, 0
	GOTO        L_charValueToStr659
L_charValueToStr658:
;FirmV_0_7_0.c,2533 :: 		memcpy(string+3,"s  ",4);
	MOVLW       3
	ADDWF       FARG_charValueToStr_string+0, 0 
	MOVWF       FARG_memcpy_d1+0 
	MOVLW       0
	ADDWFC      FARG_charValueToStr_string+1, 0 
	MOVWF       FARG_memcpy_d1+1 
	MOVLW       115
	MOVWF       ?lstr101_FirmV_0_7_0+0 
	MOVLW       32
	MOVWF       ?lstr101_FirmV_0_7_0+1 
	MOVLW       32
	MOVWF       ?lstr101_FirmV_0_7_0+2 
	CLRF        ?lstr101_FirmV_0_7_0+3 
	MOVLW       ?lstr101_FirmV_0_7_0+0
	MOVWF       FARG_memcpy_s1+0 
	MOVLW       hi_addr(?lstr101_FirmV_0_7_0+0)
	MOVWF       FARG_memcpy_s1+1 
	MOVLW       4
	MOVWF       FARG_memcpy_n+0 
	MOVLW       0
	MOVWF       FARG_memcpy_n+1 
	CALL        _memcpy+0, 0
L_charValueToStr659:
;FirmV_0_7_0.c,2534 :: 		}
	RETURN      0
; end of _charValueToStr

_intValueToStr:

;FirmV_0_7_0.c,2547 :: 		void intValueToStr(unsigned val, char * string)
;FirmV_0_7_0.c,2549 :: 		wordtostr(val>>1,string);
	MOVF        FARG_intValueToStr_val+0, 0 
	MOVWF       FARG_WordToStr_input+0 
	MOVF        FARG_intValueToStr_val+1, 0 
	MOVWF       FARG_WordToStr_input+1 
	RRCF        FARG_WordToStr_input+1, 1 
	RRCF        FARG_WordToStr_input+0, 1 
	BCF         FARG_WordToStr_input+1, 7 
	MOVF        FARG_intValueToStr_string+0, 0 
	MOVWF       FARG_WordToStr_output+0 
	MOVF        FARG_intValueToStr_string+1, 0 
	MOVWF       FARG_WordToStr_output+1 
	CALL        _WordToStr+0, 0
;FirmV_0_7_0.c,2550 :: 		if((val%2)==1)
	MOVLW       1
	ANDWF       FARG_intValueToStr_val+0, 0 
	MOVWF       R1 
	MOVF        FARG_intValueToStr_val+1, 0 
	MOVWF       R2 
	MOVLW       0
	ANDWF       R2, 1 
	MOVLW       0
	XORWF       R2, 0 
	BTFSS       STATUS+0, 2 
	GOTO        L__intValueToStr817
	MOVLW       1
	XORWF       R1, 0 
L__intValueToStr817:
	BTFSS       STATUS+0, 2 
	GOTO        L_intValueToStr660
;FirmV_0_7_0.c,2551 :: 		memcpy(string+5,".5s",4);
	MOVLW       5
	ADDWF       FARG_intValueToStr_string+0, 0 
	MOVWF       FARG_memcpy_d1+0 
	MOVLW       0
	ADDWFC      FARG_intValueToStr_string+1, 0 
	MOVWF       FARG_memcpy_d1+1 
	MOVLW       46
	MOVWF       ?lstr102_FirmV_0_7_0+0 
	MOVLW       53
	MOVWF       ?lstr102_FirmV_0_7_0+1 
	MOVLW       115
	MOVWF       ?lstr102_FirmV_0_7_0+2 
	CLRF        ?lstr102_FirmV_0_7_0+3 
	MOVLW       ?lstr102_FirmV_0_7_0+0
	MOVWF       FARG_memcpy_s1+0 
	MOVLW       hi_addr(?lstr102_FirmV_0_7_0+0)
	MOVWF       FARG_memcpy_s1+1 
	MOVLW       4
	MOVWF       FARG_memcpy_n+0 
	MOVLW       0
	MOVWF       FARG_memcpy_n+1 
	CALL        _memcpy+0, 0
	GOTO        L_intValueToStr661
L_intValueToStr660:
;FirmV_0_7_0.c,2553 :: 		memcpy(string+5,"s  ",4);
	MOVLW       5
	ADDWF       FARG_intValueToStr_string+0, 0 
	MOVWF       FARG_memcpy_d1+0 
	MOVLW       0
	ADDWFC      FARG_intValueToStr_string+1, 0 
	MOVWF       FARG_memcpy_d1+1 
	MOVLW       115
	MOVWF       ?lstr103_FirmV_0_7_0+0 
	MOVLW       32
	MOVWF       ?lstr103_FirmV_0_7_0+1 
	MOVLW       32
	MOVWF       ?lstr103_FirmV_0_7_0+2 
	CLRF        ?lstr103_FirmV_0_7_0+3 
	MOVLW       ?lstr103_FirmV_0_7_0+0
	MOVWF       FARG_memcpy_s1+0 
	MOVLW       hi_addr(?lstr103_FirmV_0_7_0+0)
	MOVWF       FARG_memcpy_s1+1 
	MOVLW       4
	MOVWF       FARG_memcpy_n+0 
	MOVLW       0
	MOVWF       FARG_memcpy_n+1 
	CALL        _memcpy+0, 0
L_intValueToStr661:
;FirmV_0_7_0.c,2554 :: 		}
	RETURN      0
; end of _intValueToStr

_SetOverloadParams:

;FirmV_0_7_0.c,2566 :: 		void SetOverloadParams(char p)
;FirmV_0_7_0.c,2569 :: 		switch(p)
	GOTO        L_SetOverloadParams662
;FirmV_0_7_0.c,2571 :: 		case 0: OverloadTreshold=0;OverloadDuration=255; break;
L_SetOverloadParams664:
	CLRF        _OverloadTreshold+0 
	CLRF        _OverloadTreshold+1 
	MOVLW       255
	MOVWF       _OverloadDuration+0 
	GOTO        L_SetOverloadParams663
;FirmV_0_7_0.c,2573 :: 		case 1: OverloadTreshold=580;OverloadDuration=200; break;
L_SetOverloadParams665:
	MOVLW       68
	MOVWF       _OverloadTreshold+0 
	MOVLW       2
	MOVWF       _OverloadTreshold+1 
	MOVLW       200
	MOVWF       _OverloadDuration+0 
	GOTO        L_SetOverloadParams663
;FirmV_0_7_0.c,2575 :: 		case 2: OverloadTreshold=600;OverloadDuration=150; break;
L_SetOverloadParams666:
	MOVLW       88
	MOVWF       _OverloadTreshold+0 
	MOVLW       2
	MOVWF       _OverloadTreshold+1 
	MOVLW       150
	MOVWF       _OverloadDuration+0 
	GOTO        L_SetOverloadParams663
;FirmV_0_7_0.c,2577 :: 		case 3: OverloadTreshold=650;OverloadDuration=100; break;
L_SetOverloadParams667:
	MOVLW       138
	MOVWF       _OverloadTreshold+0 
	MOVLW       2
	MOVWF       _OverloadTreshold+1 
	MOVLW       100
	MOVWF       _OverloadDuration+0 
	GOTO        L_SetOverloadParams663
;FirmV_0_7_0.c,2579 :: 		case 4: OverloadTreshold=650;OverloadDuration=80; break;
L_SetOverloadParams668:
	MOVLW       138
	MOVWF       _OverloadTreshold+0 
	MOVLW       2
	MOVWF       _OverloadTreshold+1 
	MOVLW       80
	MOVWF       _OverloadDuration+0 
	GOTO        L_SetOverloadParams663
;FirmV_0_7_0.c,2581 :: 		case 5: OverloadTreshold=680;OverloadDuration=150; break;
L_SetOverloadParams669:
	MOVLW       168
	MOVWF       _OverloadTreshold+0 
	MOVLW       2
	MOVWF       _OverloadTreshold+1 
	MOVLW       150
	MOVWF       _OverloadDuration+0 
	GOTO        L_SetOverloadParams663
;FirmV_0_7_0.c,2583 :: 		case 6: OverloadTreshold=680;OverloadDuration=100; break;
L_SetOverloadParams670:
	MOVLW       168
	MOVWF       _OverloadTreshold+0 
	MOVLW       2
	MOVWF       _OverloadTreshold+1 
	MOVLW       100
	MOVWF       _OverloadDuration+0 
	GOTO        L_SetOverloadParams663
;FirmV_0_7_0.c,2585 :: 		case 7: OverloadTreshold=680;OverloadDuration=50; break;
L_SetOverloadParams671:
	MOVLW       168
	MOVWF       _OverloadTreshold+0 
	MOVLW       2
	MOVWF       _OverloadTreshold+1 
	MOVLW       50
	MOVWF       _OverloadDuration+0 
	GOTO        L_SetOverloadParams663
;FirmV_0_7_0.c,2587 :: 		case 8: OverloadTreshold=720;OverloadDuration=100; break;
L_SetOverloadParams672:
	MOVLW       208
	MOVWF       _OverloadTreshold+0 
	MOVLW       2
	MOVWF       _OverloadTreshold+1 
	MOVLW       100
	MOVWF       _OverloadDuration+0 
	GOTO        L_SetOverloadParams663
;FirmV_0_7_0.c,2589 :: 		case 9: OverloadTreshold=750;OverloadDuration=50; break;
L_SetOverloadParams673:
	MOVLW       238
	MOVWF       _OverloadTreshold+0 
	MOVLW       2
	MOVWF       _OverloadTreshold+1 
	MOVLW       50
	MOVWF       _OverloadDuration+0 
	GOTO        L_SetOverloadParams663
;FirmV_0_7_0.c,2591 :: 		}
L_SetOverloadParams662:
	MOVF        FARG_SetOverloadParams_p+0, 0 
	XORLW       0
	BTFSC       STATUS+0, 2 
	GOTO        L_SetOverloadParams664
	MOVF        FARG_SetOverloadParams_p+0, 0 
	XORLW       1
	BTFSC       STATUS+0, 2 
	GOTO        L_SetOverloadParams665
	MOVF        FARG_SetOverloadParams_p+0, 0 
	XORLW       2
	BTFSC       STATUS+0, 2 
	GOTO        L_SetOverloadParams666
	MOVF        FARG_SetOverloadParams_p+0, 0 
	XORLW       3
	BTFSC       STATUS+0, 2 
	GOTO        L_SetOverloadParams667
	MOVF        FARG_SetOverloadParams_p+0, 0 
	XORLW       4
	BTFSC       STATUS+0, 2 
	GOTO        L_SetOverloadParams668
	MOVF        FARG_SetOverloadParams_p+0, 0 
	XORLW       5
	BTFSC       STATUS+0, 2 
	GOTO        L_SetOverloadParams669
	MOVF        FARG_SetOverloadParams_p+0, 0 
	XORLW       6
	BTFSC       STATUS+0, 2 
	GOTO        L_SetOverloadParams670
	MOVF        FARG_SetOverloadParams_p+0, 0 
	XORLW       7
	BTFSC       STATUS+0, 2 
	GOTO        L_SetOverloadParams671
	MOVF        FARG_SetOverloadParams_p+0, 0 
	XORLW       8
	BTFSC       STATUS+0, 2 
	GOTO        L_SetOverloadParams672
	MOVF        FARG_SetOverloadParams_p+0, 0 
	XORLW       9
	BTFSC       STATUS+0, 2 
	GOTO        L_SetOverloadParams673
L_SetOverloadParams663:
;FirmV_0_7_0.c,2592 :: 		}
	RETURN      0
; end of _SetOverloadParams
