
_interrupt:

;FirmV_0_7_0.c,207 :: 		void interrupt()
;FirmV_0_7_0.c,209 :: 		if(TMR0IF_bit)
	BTFSS       TMR0IF_bit+0, 2 
	GOTO        L_interrupt0
;FirmV_0_7_0.c,211 :: 		msCounter=msCounter+1;
	INCF        _msCounter+0, 1 
;FirmV_0_7_0.c,212 :: 		LCDBackLight=1;
	BSF         PORTA+0, 4 
;FirmV_0_7_0.c,213 :: 		Flag20ms=1;
	MOVLW       1
	MOVWF       _Flag20ms+0 
;FirmV_0_7_0.c,214 :: 		if(ms20A==255)
	MOVF        _ms20A+0, 0 
	XORLW       255
	BTFSS       STATUS+0, 2 
	GOTO        L_interrupt1
;FirmV_0_7_0.c,215 :: 		{ms20A=0;RemotePulse1=0;}
	CLRF        _ms20A+0 
	CLRF        _RemotePulse1+0 
	GOTO        L_interrupt2
L_interrupt1:
;FirmV_0_7_0.c,217 :: 		ms20A=ms20A+1;
	INCF        _ms20A+0, 1 
L_interrupt2:
;FirmV_0_7_0.c,219 :: 		if(ms20B==255)
	MOVF        _ms20B+0, 0 
	XORLW       255
	BTFSS       STATUS+0, 2 
	GOTO        L_interrupt3
;FirmV_0_7_0.c,220 :: 		{ms20B=0;RemotePulse2=0;}
	CLRF        _ms20B+0 
	CLRF        _RemotePulse2+0 
	GOTO        L_interrupt4
L_interrupt3:
;FirmV_0_7_0.c,222 :: 		ms20B=ms20B+1;
	INCF        _ms20B+0, 1 
L_interrupt4:
;FirmV_0_7_0.c,224 :: 		if(msCounter>=25)
	MOVLW       25
	SUBWF       _msCounter+0, 0 
	BTFSS       STATUS+0, 0 
	GOTO        L_interrupt5
;FirmV_0_7_0.c,226 :: 		msCounter=0;
	CLRF        _msCounter+0 
;FirmV_0_7_0.c,227 :: 		ms500=ms500+1;
	MOVLW       1
	ADDWF       _ms500+0, 1 
	MOVLW       0
	ADDWFC      _ms500+1, 1 
	ADDWFC      _ms500+2, 1 
	ADDWFC      _ms500+3, 1 
;FirmV_0_7_0.c,228 :: 		LCDFlashFlag=!LCDFlashFlag;
	MOVF        _LCDFlashFlag+0, 1 
	MOVLW       1
	BTFSS       STATUS+0, 2 
	MOVLW       0
	MOVWF       _LCDFlashFlag+0 
;FirmV_0_7_0.c,229 :: 		LCDBackLight=0;
	BCF         PORTA+0, 4 
;FirmV_0_7_0.c,230 :: 		Flag500ms=1;
	MOVLW       1
	MOVWF       _Flag500ms+0 
;FirmV_0_7_0.c,231 :: 		}
L_interrupt5:
;FirmV_0_7_0.c,232 :: 		tmr0h=0xF3;
	MOVLW       243
	MOVWF       TMR0H+0 
;FirmV_0_7_0.c,233 :: 		tmr0l=0xCA;
	MOVLW       202
	MOVWF       TMR0L+0 
;FirmV_0_7_0.c,234 :: 		TMR0IF_bit=0;
	BCF         TMR0IF_bit+0, 2 
;FirmV_0_7_0.c,235 :: 		}
L_interrupt0:
;FirmV_0_7_0.c,238 :: 		if(INT1F_bit)
	BTFSS       INT1F_bit+0, 0 
	GOTO        L_interrupt6
;FirmV_0_7_0.c,240 :: 		if(RemotePulse1==0)
	MOVF        _RemotePulse1+0, 0 
	XORLW       0
	BTFSS       STATUS+0, 2 
	GOTO        L_interrupt7
;FirmV_0_7_0.c,241 :: 		{ RemotePulse1=RemotePulse1+1;ms20A=0;}
	INCF        _RemotePulse1+0, 1 
	CLRF        _ms20A+0 
	GOTO        L_interrupt8
L_interrupt7:
;FirmV_0_7_0.c,243 :: 		{ RemotePulse1=RemotePulse1+1;}
	INCF        _RemotePulse1+0, 1 
L_interrupt8:
;FirmV_0_7_0.c,244 :: 		if(RemotePulse1>=5)
	MOVLW       5
	SUBWF       _RemotePulse1+0, 0 
	BTFSS       STATUS+0, 0 
	GOTO        L_interrupt9
;FirmV_0_7_0.c,245 :: 		if((ms20A>=19)&&(ms20A<=21))
	MOVLW       19
	SUBWF       _ms20A+0, 0 
	BTFSS       STATUS+0, 0 
	GOTO        L_interrupt12
	MOVF        _ms20A+0, 0 
	SUBLW       21
	BTFSS       STATUS+0, 0 
	GOTO        L_interrupt12
L__interrupt659:
;FirmV_0_7_0.c,246 :: 		{RemoteAFlag=1;RemotePulse1=0;}
	MOVLW       1
	MOVWF       _RemoteAFlag+0 
	CLRF        _RemotePulse1+0 
	GOTO        L_interrupt13
L_interrupt12:
;FirmV_0_7_0.c,248 :: 		RemotePulse1=0;
	CLRF        _RemotePulse1+0 
L_interrupt13:
L_interrupt9:
;FirmV_0_7_0.c,249 :: 		INT1IF_bit=0;
	BCF         INT1IF_bit+0, 0 
;FirmV_0_7_0.c,250 :: 		}
L_interrupt6:
;FirmV_0_7_0.c,254 :: 		if(INT2IF_bit)
	BTFSS       INT2IF_bit+0, 1 
	GOTO        L_interrupt14
;FirmV_0_7_0.c,256 :: 		if(RemotePulse2==0)
	MOVF        _RemotePulse2+0, 0 
	XORLW       0
	BTFSS       STATUS+0, 2 
	GOTO        L_interrupt15
;FirmV_0_7_0.c,257 :: 		{ RemotePulse2=RemotePulse2+1;ms20B=0;}
	INCF        _RemotePulse2+0, 1 
	CLRF        _ms20B+0 
	GOTO        L_interrupt16
L_interrupt15:
;FirmV_0_7_0.c,259 :: 		{ RemotePulse2=RemotePulse2+1;}
	INCF        _RemotePulse2+0, 1 
L_interrupt16:
;FirmV_0_7_0.c,260 :: 		if(RemotePulse2>=5)
	MOVLW       5
	SUBWF       _RemotePulse2+0, 0 
	BTFSS       STATUS+0, 0 
	GOTO        L_interrupt17
;FirmV_0_7_0.c,261 :: 		if((ms20B>=19)&&(ms20B<=21))
	MOVLW       19
	SUBWF       _ms20B+0, 0 
	BTFSS       STATUS+0, 0 
	GOTO        L_interrupt20
	MOVF        _ms20B+0, 0 
	SUBLW       21
	BTFSS       STATUS+0, 0 
	GOTO        L_interrupt20
L__interrupt658:
;FirmV_0_7_0.c,262 :: 		{RemoteBFlag=1;RemotePulse2=0;}
	MOVLW       1
	MOVWF       _RemoteBFlag+0 
	CLRF        _RemotePulse2+0 
	GOTO        L_interrupt21
L_interrupt20:
;FirmV_0_7_0.c,264 :: 		RemotePulse2=0;
	CLRF        _RemotePulse2+0 
L_interrupt21:
L_interrupt17:
;FirmV_0_7_0.c,265 :: 		INT2IF_bit=0;
	BCF         INT2IF_bit+0, 1 
;FirmV_0_7_0.c,266 :: 		}
L_interrupt14:
;FirmV_0_7_0.c,271 :: 		if(INT0F_bit==1)
	BTFSS       INT0F_bit+0, 1 
	GOTO        L_interrupt22
;FirmV_0_7_0.c,273 :: 		ZCCounter=ZCCounter+1;
	INCF        _ZCCounter+0, 1 
;FirmV_0_7_0.c,274 :: 		if(ZCCounter==255)
	MOVF        _ZCCounter+0, 0 
	XORLW       255
	BTFSS       STATUS+0, 2 
	GOTO        L_interrupt23
;FirmV_0_7_0.c,275 :: 		ZCCounter=0;
	CLRF        _ZCCounter+0 
L_interrupt23:
;FirmV_0_7_0.c,276 :: 		if(ZCCounter%3==1)
	MOVLW       3
	MOVWF       R4 
	MOVF        _ZCCounter+0, 0 
	MOVWF       R0 
	CALL        _Div_8x8_U+0, 0
	MOVF        R8, 0 
	MOVWF       R0 
	MOVF        R0, 0 
	XORLW       1
	BTFSS       STATUS+0, 2 
	GOTO        L_interrupt24
;FirmV_0_7_0.c,278 :: 		if(Motor1Start)
	MOVF        _Motor1Start+0, 1 
	BTFSC       STATUS+0, 2 
	GOTO        L_interrupt25
;FirmV_0_7_0.c,279 :: 		if(Motor1FullSpeed)
	MOVF        _Motor1FullSpeed+0, 1 
	BTFSC       STATUS+0, 2 
	GOTO        L_interrupt26
;FirmV_0_7_0.c,280 :: 		Motor1=1;
	BSF         PORTB+0, 3 
	GOTO        L_interrupt27
L_interrupt26:
;FirmV_0_7_0.c,282 :: 		Motor1=0;
	BCF         PORTB+0, 3 
L_interrupt27:
L_interrupt25:
;FirmV_0_7_0.c,284 :: 		if(Motor2Start)
	MOVF        _Motor2Start+0, 1 
	BTFSC       STATUS+0, 2 
	GOTO        L_interrupt28
;FirmV_0_7_0.c,285 :: 		if(Motor2FullSpeed)
	MOVF        _Motor2FullSpeed+0, 1 
	BTFSC       STATUS+0, 2 
	GOTO        L_interrupt29
;FirmV_0_7_0.c,286 :: 		Motor2=1;
	BSF         PORTB+0, 4 
	GOTO        L_interrupt30
L_interrupt29:
;FirmV_0_7_0.c,288 :: 		Motor2=0;
	BCF         PORTB+0, 4 
L_interrupt30:
L_interrupt28:
;FirmV_0_7_0.c,289 :: 		}
L_interrupt24:
;FirmV_0_7_0.c,290 :: 		if(ZCCounter%3==0)
	MOVLW       3
	MOVWF       R4 
	MOVF        _ZCCounter+0, 0 
	MOVWF       R0 
	CALL        _Div_8x8_U+0, 0
	MOVF        R8, 0 
	MOVWF       R0 
	MOVF        R0, 0 
	XORLW       0
	BTFSS       STATUS+0, 2 
	GOTO        L_interrupt31
;FirmV_0_7_0.c,292 :: 		if(Motor1Start)
	MOVF        _Motor1Start+0, 1 
	BTFSC       STATUS+0, 2 
	GOTO        L_interrupt32
;FirmV_0_7_0.c,293 :: 		Motor1=1;
	BSF         PORTB+0, 3 
L_interrupt32:
;FirmV_0_7_0.c,295 :: 		if(Motor2Start)
	MOVF        _Motor2Start+0, 1 
	BTFSC       STATUS+0, 2 
	GOTO        L_interrupt33
;FirmV_0_7_0.c,296 :: 		Motor2=1;
	BSF         PORTB+0, 4 
L_interrupt33:
;FirmV_0_7_0.c,297 :: 		}
L_interrupt31:
;FirmV_0_7_0.c,298 :: 		INT0F_bit=0;
	BCF         INT0F_bit+0, 1 
;FirmV_0_7_0.c,299 :: 		}
L_interrupt22:
;FirmV_0_7_0.c,300 :: 		}
L__interrupt760:
	RETFIE      1
; end of _interrupt

_ResetTaskEvents:

;FirmV_0_7_0.c,313 :: 		void ResetTaskEvents()
;FirmV_0_7_0.c,315 :: 		Events.Task1=0;
	CLRF        _Events+1 
;FirmV_0_7_0.c,316 :: 		Events.Task2=0;
	CLRF        _Events+2 
;FirmV_0_7_0.c,317 :: 		Events.Task3=0;
	CLRF        _Events+3 
;FirmV_0_7_0.c,318 :: 		}
	RETURN      0
; end of _ResetTaskEvents

_Decrypt:

;FirmV_0_7_0.c,327 :: 		void Decrypt()
;FirmV_0_7_0.c,329 :: 		Sipher[0]=Crypto[1][0]+0x0D;
	MOVLW       13
	ADDWF       _crypto+16, 0 
	MOVWF       _Sipher+0 
;FirmV_0_7_0.c,330 :: 		Sipher[1]=Crypto[1][1]+0x0D;
	MOVLW       13
	ADDWF       _crypto+17, 0 
	MOVWF       _Sipher+1 
;FirmV_0_7_0.c,331 :: 		Sipher[2]=Crypto[1][2]+0x0D;
	MOVLW       13
	ADDWF       _crypto+18, 0 
	MOVWF       _Sipher+2 
;FirmV_0_7_0.c,332 :: 		Sipher[3]=Crypto[1][3]-0x26;
	MOVLW       38
	SUBWF       _crypto+19, 0 
	MOVWF       _Sipher+3 
;FirmV_0_7_0.c,333 :: 		Sipher[4]=Crypto[1][4]-0x3C;
	MOVLW       60
	SUBWF       _crypto+20, 0 
	MOVWF       _Sipher+4 
;FirmV_0_7_0.c,334 :: 		Sipher[5]=Crypto[1][5]-0x41;
	MOVLW       65
	SUBWF       _crypto+21, 0 
	MOVWF       _Sipher+5 
;FirmV_0_7_0.c,335 :: 		Sipher[6]=Crypto[1][6]-0x0C;
	MOVLW       12
	SUBWF       _crypto+22, 0 
	MOVWF       _Sipher+6 
;FirmV_0_7_0.c,336 :: 		Sipher[7]=Crypto[1][7]+0x34;
	MOVLW       52
	ADDWF       _crypto+23, 0 
	MOVWF       _Sipher+7 
;FirmV_0_7_0.c,337 :: 		Sipher[8]=Crypto[1][8]-0x01;
	DECF        _crypto+24, 0 
	MOVWF       _Sipher+8 
;FirmV_0_7_0.c,338 :: 		Sipher[9]=Crypto[1][9]-0x1F;
	MOVLW       31
	SUBWF       _crypto+25, 0 
	MOVWF       _Sipher+9 
;FirmV_0_7_0.c,339 :: 		Sipher[10]=Crypto[1][10]-0x3A;
	MOVLW       58
	SUBWF       _crypto+26, 0 
	MOVWF       _Sipher+10 
;FirmV_0_7_0.c,340 :: 		Sipher[11]=Crypto[1][11]-0x3B;
	MOVLW       59
	SUBWF       _crypto+27, 0 
	MOVWF       _Sipher+11 
;FirmV_0_7_0.c,341 :: 		Sipher[12]=Crypto[1][12]-0x3C;
	MOVLW       60
	SUBWF       _crypto+28, 0 
	MOVWF       _Sipher+12 
;FirmV_0_7_0.c,342 :: 		Sipher[13]=Crypto[1][13]+0x0D;
	MOVLW       13
	ADDWF       _crypto+29, 0 
	MOVWF       _Sipher+13 
;FirmV_0_7_0.c,343 :: 		Sipher[14]=Crypto[1][14]+0x0D;
	MOVLW       13
	ADDWF       _crypto+30, 0 
	MOVWF       _Sipher+14 
;FirmV_0_7_0.c,344 :: 		Sipher[15]=Crypto[1][15]+0x0D;
	MOVLW       13
	ADDWF       _crypto+31, 0 
	MOVWF       _Sipher+15 
;FirmV_0_7_0.c,345 :: 		}
	RETURN      0
; end of _Decrypt

_Logger:

;FirmV_0_7_0.c,357 :: 		void Logger(char* text)
;FirmV_0_7_0.c,360 :: 		longwordtostrwithzeros(ms500,time);
	MOVF        _ms500+0, 0 
	MOVWF       FARG_LongWordToStrWithZeros_input+0 
	MOVF        _ms500+1, 0 
	MOVWF       FARG_LongWordToStrWithZeros_input+1 
	MOVF        _ms500+2, 0 
	MOVWF       FARG_LongWordToStrWithZeros_input+2 
	MOVF        _ms500+3, 0 
	MOVWF       FARG_LongWordToStrWithZeros_input+3 
	MOVLW       Logger_time_L0+0
	MOVWF       FARG_LongWordToStrWithZeros_output+0 
	MOVLW       hi_addr(Logger_time_L0+0)
	MOVWF       FARG_LongWordToStrWithZeros_output+1 
	CALL        _LongWordToStrWithZeros+0, 0
;FirmV_0_7_0.c,361 :: 		uart_write_text(time);
	MOVLW       Logger_time_L0+0
	MOVWF       FARG_UART_Write_Text_uart_text+0 
	MOVLW       hi_addr(Logger_time_L0+0)
	MOVWF       FARG_UART_Write_Text_uart_text+1 
	CALL        _UART_Write_Text+0, 0
;FirmV_0_7_0.c,362 :: 		uart1_write_text(": ");
	MOVLW       58
	MOVWF       ?lstr1_FirmV_0_7_0+0 
	MOVLW       32
	MOVWF       ?lstr1_FirmV_0_7_0+1 
	CLRF        ?lstr1_FirmV_0_7_0+2 
	MOVLW       ?lstr1_FirmV_0_7_0+0
	MOVWF       FARG_UART1_Write_Text_uart_text+0 
	MOVLW       hi_addr(?lstr1_FirmV_0_7_0+0)
	MOVWF       FARG_UART1_Write_Text_uart_text+1 
	CALL        _UART1_Write_Text+0, 0
;FirmV_0_7_0.c,363 :: 		uart1_write_text(text);
	MOVF        FARG_Logger_text+0, 0 
	MOVWF       FARG_UART1_Write_Text_uart_text+0 
	MOVF        FARG_Logger_text+1, 0 
	MOVWF       FARG_UART1_Write_Text_uart_text+1 
	CALL        _UART1_Write_Text+0, 0
;FirmV_0_7_0.c,364 :: 		uart1_write(10);
	MOVLW       10
	MOVWF       FARG_UART1_Write_data_+0 
	CALL        _UART1_Write+0, 0
;FirmV_0_7_0.c,365 :: 		uart1_write(13);
	MOVLW       13
	MOVWF       FARG_UART1_Write_data_+0 
	CALL        _UART1_Write+0, 0
;FirmV_0_7_0.c,366 :: 		}
	RETURN      0
; end of _Logger

_main:

;FirmV_0_7_0.c,383 :: 		void main() {
;FirmV_0_7_0.c,387 :: 		PhotocellRel=1;
	BSF         PORTC+0, 5 
;FirmV_0_7_0.c,389 :: 		Init();
	CALL        _Init+0, 0
;FirmV_0_7_0.c,391 :: 		Decrypt();
	CALL        _Decrypt+0, 0
;FirmV_0_7_0.c,393 :: 		Buzzer=1;
	BSF         PORTB+0, 5 
;FirmV_0_7_0.c,394 :: 		Logger("Start ...");
	MOVLW       83
	MOVWF       ?lstr2_FirmV_0_7_0+0 
	MOVLW       116
	MOVWF       ?lstr2_FirmV_0_7_0+1 
	MOVLW       97
	MOVWF       ?lstr2_FirmV_0_7_0+2 
	MOVLW       114
	MOVWF       ?lstr2_FirmV_0_7_0+3 
	MOVLW       116
	MOVWF       ?lstr2_FirmV_0_7_0+4 
	MOVLW       32
	MOVWF       ?lstr2_FirmV_0_7_0+5 
	MOVLW       46
	MOVWF       ?lstr2_FirmV_0_7_0+6 
	MOVLW       46
	MOVWF       ?lstr2_FirmV_0_7_0+7 
	MOVLW       46
	MOVWF       ?lstr2_FirmV_0_7_0+8 
	CLRF        ?lstr2_FirmV_0_7_0+9 
	MOVLW       ?lstr2_FirmV_0_7_0+0
	MOVWF       FARG_Logger_text+0 
	MOVLW       hi_addr(?lstr2_FirmV_0_7_0+0)
	MOVWF       FARG_Logger_text+1 
	CALL        _Logger+0, 0
;FirmV_0_7_0.c,395 :: 		memcpy(LCDLine1,Sipher,16);
	MOVLW       _LCDLine1+0
	MOVWF       FARG_memcpy_d1+0 
	MOVLW       hi_addr(_LCDLine1+0)
	MOVWF       FARG_memcpy_d1+1 
	MOVLW       _Sipher+0
	MOVWF       FARG_memcpy_s1+0 
	MOVLW       hi_addr(_Sipher+0)
	MOVWF       FARG_memcpy_s1+1 
	MOVLW       16
	MOVWF       FARG_memcpy_n+0 
	MOVLW       0
	MOVWF       FARG_memcpy_n+1 
	CALL        _memcpy+0, 0
;FirmV_0_7_0.c,396 :: 		LCDLines=1;
	MOVLW       1
	MOVWF       _LCDLines+0 
;FirmV_0_7_0.c,397 :: 		LCDUpdateFlag=1;
	MOVLW       1
	MOVWF       _LCDUpdateFlag+0 
;FirmV_0_7_0.c,398 :: 		Buzzer=0;
	BCF         PORTB+0, 5 
;FirmV_0_7_0.c,402 :: 		while(1)
L_main34:
;FirmV_0_7_0.c,404 :: 		if(Flag20ms==1)
	MOVF        _Flag20ms+0, 0 
	XORLW       1
	BTFSS       STATUS+0, 2 
	GOTO        L_main36
;FirmV_0_7_0.c,406 :: 		if(DebouncingDelay<DebouncingFix)
	MOVLW       5
	SUBWF       _DebouncingDelay+0, 0 
	BTFSC       STATUS+0, 0 
	GOTO        L_main37
;FirmV_0_7_0.c,407 :: 		DebouncingDelay=DebouncingDelay+1;
	INCF        _DebouncingDelay+0, 1 
L_main37:
;FirmV_0_7_0.c,408 :: 		LCDUpdater();
	CALL        _LCDUpdater+0, 0
;FirmV_0_7_0.c,409 :: 		if(KeyFlag<200)
	MOVLW       200
	SUBWF       _KeyFlag+0, 0 
	BTFSC       STATUS+0, 0 
	GOTO        L_main38
;FirmV_0_7_0.c,410 :: 		KeyFlag=KeyFlag+1;
	INCF        _KeyFlag+0, 1 
L_main38:
;FirmV_0_7_0.c,411 :: 		Flag20ms=0;
	CLRF        _Flag20ms+0 
;FirmV_0_7_0.c,412 :: 		}
L_main36:
;FirmV_0_7_0.c,414 :: 		if(Flag500ms==1)
	MOVF        _Flag500ms+0, 0 
	XORLW       1
	BTFSS       STATUS+0, 2 
	GOTO        L_main39
;FirmV_0_7_0.c,416 :: 		ResetTaskEvents();
	CALL        _ResetTaskEvents+0, 0
;FirmV_0_7_0.c,417 :: 		TaskManager();
	CALL        _TaskManager+0, 0
;FirmV_0_7_0.c,418 :: 		Flag500ms=0;
	CLRF        _Flag500ms+0 
;FirmV_0_7_0.c,419 :: 		}
L_main39:
;FirmV_0_7_0.c,420 :: 		EventHandler();
	CALL        _EventHandler+0, 0
;FirmV_0_7_0.c,421 :: 		StateManager();
	CALL        _StateManager+0, 0
;FirmV_0_7_0.c,422 :: 		}
	GOTO        L_main34
;FirmV_0_7_0.c,424 :: 		}
	GOTO        $+0
; end of _main

_StateManager:

;FirmV_0_7_0.c,449 :: 		void StateManager()
;FirmV_0_7_0.c,455 :: 		switch(State)
	GOTO        L_StateManager40
;FirmV_0_7_0.c,458 :: 		case 0: State1(); break;
L_StateManager42:
	CALL        _State1+0, 0
	GOTO        L_StateManager41
;FirmV_0_7_0.c,460 :: 		case 1: State1(); break;
L_StateManager43:
	CALL        _State1+0, 0
	GOTO        L_StateManager41
;FirmV_0_7_0.c,462 :: 		case 2: State2(); break;
L_StateManager44:
	CALL        _State2+0, 0
	GOTO        L_StateManager41
;FirmV_0_7_0.c,464 :: 		case 3: State3(); break;
L_StateManager45:
	CALL        _State3+0, 0
	GOTO        L_StateManager41
;FirmV_0_7_0.c,466 :: 		case 4: State4(); break;
L_StateManager46:
	CALL        _State4+0, 0
	GOTO        L_StateManager41
;FirmV_0_7_0.c,468 :: 		case 5: State5(); break;
L_StateManager47:
	CALL        _State5+0, 0
	GOTO        L_StateManager41
;FirmV_0_7_0.c,470 :: 		case 6: State6(); break;
L_StateManager48:
	CALL        _State6+0, 0
	GOTO        L_StateManager41
;FirmV_0_7_0.c,472 :: 		case 7: State7(); break;
L_StateManager49:
	CALL        _State7+0, 0
	GOTO        L_StateManager41
;FirmV_0_7_0.c,474 :: 		case 8: State8(); break;
L_StateManager50:
	CALL        _State8+0, 0
	GOTO        L_StateManager41
;FirmV_0_7_0.c,476 :: 		case 10:State00(); break;
L_StateManager51:
	CALL        _State00+0, 0
	GOTO        L_StateManager41
;FirmV_0_7_0.c,478 :: 		case 100:Menu0(); break;
L_StateManager52:
	CALL        _Menu0+0, 0
	GOTO        L_StateManager41
;FirmV_0_7_0.c,480 :: 		case 101:Menu1(); break;
L_StateManager53:
	CALL        _Menu1+0, 0
	GOTO        L_StateManager41
;FirmV_0_7_0.c,482 :: 		case 102:Menu2(); break;
L_StateManager54:
	CALL        _Menu2+0, 0
	GOTO        L_StateManager41
;FirmV_0_7_0.c,484 :: 		case 103:Menu3(); break;
L_StateManager55:
	CALL        _Menu3+0, 0
	GOTO        L_StateManager41
;FirmV_0_7_0.c,486 :: 		case 200:LearnAuto(); break;
L_StateManager56:
	CALL        _LearnAuto+0, 0
	GOTO        L_StateManager41
;FirmV_0_7_0.c,488 :: 		case 201:LearnManual(); break;
L_StateManager57:
	CALL        _LearnManual+0, 0
	GOTO        L_StateManager41
;FirmV_0_7_0.c,490 :: 		case 250:About(); break;
L_StateManager58:
	CALL        _About+0, 0
	GOTO        L_StateManager41
;FirmV_0_7_0.c,492 :: 		}
L_StateManager40:
	MOVF        _State+0, 0 
	XORLW       0
	BTFSC       STATUS+0, 2 
	GOTO        L_StateManager42
	MOVF        _State+0, 0 
	XORLW       1
	BTFSC       STATUS+0, 2 
	GOTO        L_StateManager43
	MOVF        _State+0, 0 
	XORLW       2
	BTFSC       STATUS+0, 2 
	GOTO        L_StateManager44
	MOVF        _State+0, 0 
	XORLW       3
	BTFSC       STATUS+0, 2 
	GOTO        L_StateManager45
	MOVF        _State+0, 0 
	XORLW       4
	BTFSC       STATUS+0, 2 
	GOTO        L_StateManager46
	MOVF        _State+0, 0 
	XORLW       5
	BTFSC       STATUS+0, 2 
	GOTO        L_StateManager47
	MOVF        _State+0, 0 
	XORLW       6
	BTFSC       STATUS+0, 2 
	GOTO        L_StateManager48
	MOVF        _State+0, 0 
	XORLW       7
	BTFSC       STATUS+0, 2 
	GOTO        L_StateManager49
	MOVF        _State+0, 0 
	XORLW       8
	BTFSC       STATUS+0, 2 
	GOTO        L_StateManager50
	MOVF        _State+0, 0 
	XORLW       10
	BTFSC       STATUS+0, 2 
	GOTO        L_StateManager51
	MOVF        _State+0, 0 
	XORLW       100
	BTFSC       STATUS+0, 2 
	GOTO        L_StateManager52
	MOVF        _State+0, 0 
	XORLW       101
	BTFSC       STATUS+0, 2 
	GOTO        L_StateManager53
	MOVF        _State+0, 0 
	XORLW       102
	BTFSC       STATUS+0, 2 
	GOTO        L_StateManager54
	MOVF        _State+0, 0 
	XORLW       103
	BTFSC       STATUS+0, 2 
	GOTO        L_StateManager55
	MOVF        _State+0, 0 
	XORLW       200
	BTFSC       STATUS+0, 2 
	GOTO        L_StateManager56
	MOVF        _State+0, 0 
	XORLW       201
	BTFSC       STATUS+0, 2 
	GOTO        L_StateManager57
	MOVF        _State+0, 0 
	XORLW       250
	BTFSC       STATUS+0, 2 
	GOTO        L_StateManager58
L_StateManager41:
;FirmV_0_7_0.c,493 :: 		}
	RETURN      0
; end of _StateManager

_StateTest:

;FirmV_0_7_0.c,497 :: 		void StateTest()
;FirmV_0_7_0.c,499 :: 		if (Events.Photocell==1)
	MOVF        _Events+6, 0 
	XORLW       1
	BTFSS       STATUS+0, 2 
	GOTO        L_StateTest59
;FirmV_0_7_0.c,500 :: 		LCDLine1[0]='1';
	MOVLW       49
	MOVWF       _LCDLine1+0 
	GOTO        L_StateTest60
L_StateTest59:
;FirmV_0_7_0.c,502 :: 		LCDLine1[0]='0';
	MOVLW       48
	MOVWF       _LCDLine1+0 
L_StateTest60:
;FirmV_0_7_0.c,504 :: 		LCDUpdateFlag=1;
	MOVLW       1
	MOVWF       _LCDUpdateFlag+0 
;FirmV_0_7_0.c,506 :: 		}
	RETURN      0
; end of _StateTest

_State00:

;FirmV_0_7_0.c,510 :: 		void State00()
;FirmV_0_7_0.c,515 :: 		Flasher=1;
	BSF         PORTD+0, 7 
;FirmV_0_7_0.c,516 :: 		StartMotor(1,_Close);
	MOVLW       1
	MOVWF       FARG_StartMotor+0 
	CLRF        FARG_StartMotor+0 
	CALL        _StartMotor+0, 0
;FirmV_0_7_0.c,517 :: 		StartMotor(2,_Close);
	MOVLW       2
	MOVWF       FARG_StartMotor+0 
	CLRF        FARG_StartMotor+0 
	CALL        _StartMotor+0, 0
;FirmV_0_7_0.c,521 :: 		if(Events.Remote.b0==1)
	BTFSS       _Events+4, 0 
	GOTO        L_State0061
;FirmV_0_7_0.c,522 :: 		{Flasher=0;StopMotor(1);StopMotor(2);
	BCF         PORTD+0, 7 
	MOVLW       1
	MOVWF       FARG_StopMotor+0 
	CALL        _StopMotor+0, 0
	MOVLW       2
	MOVWF       FARG_StopMotor+0 
	CALL        _StopMotor+0, 0
;FirmV_0_7_0.c,523 :: 		State=1;                }
	MOVLW       1
	MOVWF       _State+0 
L_State0061:
;FirmV_0_7_0.c,524 :: 		}
	RETURN      0
; end of _State00

_State1:

;FirmV_0_7_0.c,533 :: 		void State1()
;FirmV_0_7_0.c,535 :: 		char delay=3;
	MOVLW       3
	MOVWF       State1_delay_L0+0 
;FirmV_0_7_0.c,538 :: 		Flasher=0;
	BCF         PORTD+0, 7 
;FirmV_0_7_0.c,540 :: 		if(Events.Keys==2)
	MOVF        _Events+0, 0 
	XORLW       2
	BTFSS       STATUS+0, 2 
	GOTO        L_State162
;FirmV_0_7_0.c,541 :: 		{State=100;MenuPointer=0;}
	MOVLW       100
	MOVWF       _State+0 
	CLRF        _MenuPointer+0 
L_State162:
;FirmV_0_7_0.c,543 :: 		ActiveDoors=3-Events.Remote;
	MOVF        _Events+4, 0 
	SUBLW       3
	MOVWF       _ActiveDoors+0 
;FirmV_0_7_0.c,547 :: 		if(Events.Remote!=0)
	MOVF        _Events+4, 0 
	XORLW       0
	BTFSC       STATUS+0, 2 
	GOTO        L_State163
;FirmV_0_7_0.c,550 :: 		ClearTasks(9);
	MOVLW       9
	MOVWF       FARG_ClearTasks+0 
	CALL        _ClearTasks+0, 0
;FirmV_0_7_0.c,551 :: 		Flasher=1;
	BSF         PORTD+0, 7 
;FirmV_0_7_0.c,552 :: 		AddTask(ms500+1,12);
	MOVLW       1
	ADDWF       _ms500+0, 0 
	MOVWF       FARG_AddTask+0 
	MOVLW       0
	ADDWFC      _ms500+1, 0 
	MOVWF       FARG_AddTask+1 
	MOVLW       0
	ADDWFC      _ms500+2, 0 
	MOVWF       FARG_AddTask+2 
	MOVLW       0
	ADDWFC      _ms500+3, 0 
	MOVWF       FARG_AddTask+3 
	MOVLW       12
	MOVWF       FARG_AddTask+0 
	CALL        _AddTask+0, 0
;FirmV_0_7_0.c,553 :: 		temp=ms500+delay;
	MOVF        State1_delay_L0+0, 0 
	ADDWF       _ms500+0, 0 
	MOVWF       R0 
	MOVLW       0
	ADDWFC      _ms500+1, 0 
	MOVWF       R1 
	MOVLW       0
	ADDWFC      _ms500+2, 0 
	MOVWF       R2 
	MOVLW       0
	ADDWFC      _ms500+3, 0 
	MOVWF       R3 
	MOVF        R0, 0 
	MOVWF       _temp+0 
	MOVF        R1, 0 
	MOVWF       _temp+1 
	MOVF        R2, 0 
	MOVWF       _temp+2 
	MOVF        R3, 0 
	MOVWF       _temp+3 
;FirmV_0_7_0.c,554 :: 		AddTask(temp,1);
	MOVF        R0, 0 
	MOVWF       FARG_AddTask+0 
	MOVF        R1, 0 
	MOVWF       FARG_AddTask+1 
	MOVF        R2, 0 
	MOVWF       FARG_AddTask+2 
	MOVF        R3, 0 
	MOVWF       FARG_AddTask+3 
	MOVLW       1
	MOVWF       FARG_AddTask+0 
	CALL        _AddTask+0, 0
;FirmV_0_7_0.c,555 :: 		if(OpenSoftStartTime!=0)
	MOVF        _OpenSoftStartTime+0, 0 
	XORLW       0
	BTFSC       STATUS+0, 2 
	GOTO        L_State164
;FirmV_0_7_0.c,556 :: 		{AddTask(temp,7); M1isSlow=1;}//speed down
	MOVF        _temp+0, 0 
	MOVWF       FARG_AddTask+0 
	MOVF        _temp+1, 0 
	MOVWF       FARG_AddTask+1 
	MOVF        _temp+2, 0 
	MOVWF       FARG_AddTask+2 
	MOVF        _temp+3, 0 
	MOVWF       FARG_AddTask+3 
	MOVLW       7
	MOVWF       FARG_AddTask+0 
	CALL        _AddTask+0, 0
	MOVLW       1
	MOVWF       _M1isSlow+0 
	GOTO        L_State165
L_State164:
;FirmV_0_7_0.c,558 :: 		{AddTask(temp,5); M1isSlow=0;}//speed up
	MOVF        _temp+0, 0 
	MOVWF       FARG_AddTask+0 
	MOVF        _temp+1, 0 
	MOVWF       FARG_AddTask+1 
	MOVF        _temp+2, 0 
	MOVWF       FARG_AddTask+2 
	MOVF        _temp+3, 0 
	MOVWF       FARG_AddTask+3 
	MOVLW       5
	MOVWF       FARG_AddTask+0 
	CALL        _AddTask+0, 0
	CLRF        _M1isSlow+0 
L_State165:
;FirmV_0_7_0.c,559 :: 		temp=ms500+OpenSoftStartTime+OverloadDelay+delay;
	MOVF        _OpenSoftStartTime+0, 0 
	ADDWF       _ms500+0, 0 
	MOVWF       R0 
	MOVLW       0
	ADDWFC      _ms500+1, 0 
	MOVWF       R1 
	MOVLW       0
	ADDWFC      _ms500+2, 0 
	MOVWF       R2 
	MOVLW       0
	ADDWFC      _ms500+3, 0 
	MOVWF       R3 
	MOVLW       2
	ADDWF       R0, 1 
	MOVLW       0
	ADDWFC      R1, 1 
	ADDWFC      R2, 1 
	ADDWFC      R3, 1 
	MOVF        State1_delay_L0+0, 0 
	ADDWF       R0, 1 
	MOVLW       0
	ADDWFC      R1, 1 
	ADDWFC      R2, 1 
	ADDWFC      R3, 1 
	MOVF        R0, 0 
	MOVWF       _temp+0 
	MOVF        R1, 0 
	MOVWF       _temp+1 
	MOVF        R2, 0 
	MOVWF       _temp+2 
	MOVF        R3, 0 
	MOVWF       _temp+3 
;FirmV_0_7_0.c,560 :: 		AddTask(temp,10); //overload check
	MOVF        R0, 0 
	MOVWF       FARG_AddTask+0 
	MOVF        R1, 0 
	MOVWF       FARG_AddTask+1 
	MOVF        R2, 0 
	MOVWF       FARG_AddTask+2 
	MOVF        R3, 0 
	MOVWF       FARG_AddTask+3 
	MOVLW       10
	MOVWF       FARG_AddTask+0 
	CALL        _AddTask+0, 0
;FirmV_0_7_0.c,561 :: 		temp=ms500+OpenSoftStartTime+delay;
	MOVF        _OpenSoftStartTime+0, 0 
	ADDWF       _ms500+0, 0 
	MOVWF       R0 
	MOVLW       0
	ADDWFC      _ms500+1, 0 
	MOVWF       R1 
	MOVLW       0
	ADDWFC      _ms500+2, 0 
	MOVWF       R2 
	MOVLW       0
	ADDWFC      _ms500+3, 0 
	MOVWF       R3 
	MOVF        State1_delay_L0+0, 0 
	ADDWF       R0, 1 
	MOVLW       0
	ADDWFC      R1, 1 
	ADDWFC      R2, 1 
	ADDWFC      R3, 1 
	MOVF        R0, 0 
	MOVWF       _temp+0 
	MOVF        R1, 0 
	MOVWF       _temp+1 
	MOVF        R2, 0 
	MOVWF       _temp+2 
	MOVF        R3, 0 
	MOVWF       _temp+3 
;FirmV_0_7_0.c,562 :: 		AddTask(temp,5);//Speed up after soft start
	MOVF        R0, 0 
	MOVWF       FARG_AddTask+0 
	MOVF        R1, 0 
	MOVWF       FARG_AddTask+1 
	MOVF        R2, 0 
	MOVWF       FARG_AddTask+2 
	MOVF        R3, 0 
	MOVWF       FARG_AddTask+3 
	MOVLW       5
	MOVWF       FARG_AddTask+0 
	CALL        _AddTask+0, 0
;FirmV_0_7_0.c,563 :: 		if(OpenSoftStopTime!=0)
	MOVF        _OpenSoftStopTime+0, 0 
	XORLW       0
	BTFSC       STATUS+0, 2 
	GOTO        L_State166
;FirmV_0_7_0.c,564 :: 		{temp=ms500+Door1OpenTime-OpenSoftStopTime+delay;AddTask(temp,7);}//Speed down for soft stop
	MOVF        _Door1OpenTime+0, 0 
	ADDWF       _ms500+0, 0 
	MOVWF       R0 
	MOVLW       0
	ADDWFC      _ms500+1, 0 
	MOVWF       R1 
	MOVLW       0
	ADDWFC      _ms500+2, 0 
	MOVWF       R2 
	MOVLW       0
	ADDWFC      _ms500+3, 0 
	MOVWF       R3 
	MOVF        _OpenSoftStopTime+0, 0 
	SUBWF       R0, 1 
	MOVLW       0
	SUBWFB      R1, 1 
	SUBWFB      R2, 1 
	SUBWFB      R3, 1 
	MOVF        State1_delay_L0+0, 0 
	ADDWF       R0, 1 
	MOVLW       0
	ADDWFC      R1, 1 
	ADDWFC      R2, 1 
	ADDWFC      R3, 1 
	MOVF        R0, 0 
	MOVWF       _temp+0 
	MOVF        R1, 0 
	MOVWF       _temp+1 
	MOVF        R2, 0 
	MOVWF       _temp+2 
	MOVF        R3, 0 
	MOVWF       _temp+3 
	MOVF        R0, 0 
	MOVWF       FARG_AddTask+0 
	MOVF        R1, 0 
	MOVWF       FARG_AddTask+1 
	MOVF        R2, 0 
	MOVWF       FARG_AddTask+2 
	MOVF        R3, 0 
	MOVWF       FARG_AddTask+3 
	MOVLW       7
	MOVWF       FARG_AddTask+0 
	CALL        _AddTask+0, 0
L_State166:
;FirmV_0_7_0.c,565 :: 		temp=ms500+Door1OpenTime+delay;
	MOVF        _Door1OpenTime+0, 0 
	ADDWF       _ms500+0, 0 
	MOVWF       R0 
	MOVLW       0
	ADDWFC      _ms500+1, 0 
	MOVWF       R1 
	MOVLW       0
	ADDWFC      _ms500+2, 0 
	MOVWF       R2 
	MOVLW       0
	ADDWFC      _ms500+3, 0 
	MOVWF       R3 
	MOVF        State1_delay_L0+0, 0 
	ADDWF       R0, 1 
	MOVLW       0
	ADDWFC      R1, 1 
	ADDWFC      R2, 1 
	ADDWFC      R3, 1 
	MOVF        R0, 0 
	MOVWF       _temp+0 
	MOVF        R1, 0 
	MOVWF       _temp+1 
	MOVF        R2, 0 
	MOVWF       _temp+2 
	MOVF        R3, 0 
	MOVWF       _temp+3 
;FirmV_0_7_0.c,566 :: 		AddTask(temp,3);//Stop motor
	MOVF        R0, 0 
	MOVWF       FARG_AddTask+0 
	MOVF        R1, 0 
	MOVWF       FARG_AddTask+1 
	MOVF        R2, 0 
	MOVWF       FARG_AddTask+2 
	MOVF        R3, 0 
	MOVWF       FARG_AddTask+3 
	MOVLW       3
	MOVWF       FARG_AddTask+0 
	CALL        _AddTask+0, 0
;FirmV_0_7_0.c,568 :: 		if((Door2OpenTime!=0)&&(ActiveDoors==2))
	MOVF        _Door2OpenTime+0, 0 
	XORLW       0
	BTFSC       STATUS+0, 2 
	GOTO        L_State169
	MOVF        _ActiveDoors+0, 0 
	XORLW       2
	BTFSS       STATUS+0, 2 
	GOTO        L_State169
L__State1660:
;FirmV_0_7_0.c,570 :: 		temp=ms500+ActionTimeDiff+delay;
	MOVF        _ActionTimeDiff+0, 0 
	ADDWF       _ms500+0, 0 
	MOVWF       R0 
	MOVLW       0
	ADDWFC      _ms500+1, 0 
	MOVWF       R1 
	MOVLW       0
	ADDWFC      _ms500+2, 0 
	MOVWF       R2 
	MOVLW       0
	ADDWFC      _ms500+3, 0 
	MOVWF       R3 
	MOVF        State1_delay_L0+0, 0 
	ADDWF       R0, 1 
	MOVLW       0
	ADDWFC      R1, 1 
	ADDWFC      R2, 1 
	ADDWFC      R3, 1 
	MOVF        R0, 0 
	MOVWF       _temp+0 
	MOVF        R1, 0 
	MOVWF       _temp+1 
	MOVF        R2, 0 
	MOVWF       _temp+2 
	MOVF        R3, 0 
	MOVWF       _temp+3 
;FirmV_0_7_0.c,571 :: 		AddTask(temp,2);
	MOVF        R0, 0 
	MOVWF       FARG_AddTask+0 
	MOVF        R1, 0 
	MOVWF       FARG_AddTask+1 
	MOVF        R2, 0 
	MOVWF       FARG_AddTask+2 
	MOVF        R3, 0 
	MOVWF       FARG_AddTask+3 
	MOVLW       2
	MOVWF       FARG_AddTask+0 
	CALL        _AddTask+0, 0
;FirmV_0_7_0.c,572 :: 		if(OpenSoftStartTime!=0)
	MOVF        _OpenSoftStartTime+0, 0 
	XORLW       0
	BTFSC       STATUS+0, 2 
	GOTO        L_State170
;FirmV_0_7_0.c,573 :: 		{temp=ms500+ActionTimeDiff+delay;AddTask(temp,8); M2isSlow=1;}//speed down
	MOVF        _ActionTimeDiff+0, 0 
	ADDWF       _ms500+0, 0 
	MOVWF       R0 
	MOVLW       0
	ADDWFC      _ms500+1, 0 
	MOVWF       R1 
	MOVLW       0
	ADDWFC      _ms500+2, 0 
	MOVWF       R2 
	MOVLW       0
	ADDWFC      _ms500+3, 0 
	MOVWF       R3 
	MOVF        State1_delay_L0+0, 0 
	ADDWF       R0, 1 
	MOVLW       0
	ADDWFC      R1, 1 
	ADDWFC      R2, 1 
	ADDWFC      R3, 1 
	MOVF        R0, 0 
	MOVWF       _temp+0 
	MOVF        R1, 0 
	MOVWF       _temp+1 
	MOVF        R2, 0 
	MOVWF       _temp+2 
	MOVF        R3, 0 
	MOVWF       _temp+3 
	MOVF        R0, 0 
	MOVWF       FARG_AddTask+0 
	MOVF        R1, 0 
	MOVWF       FARG_AddTask+1 
	MOVF        R2, 0 
	MOVWF       FARG_AddTask+2 
	MOVF        R3, 0 
	MOVWF       FARG_AddTask+3 
	MOVLW       8
	MOVWF       FARG_AddTask+0 
	CALL        _AddTask+0, 0
	MOVLW       1
	MOVWF       _M2isSlow+0 
	GOTO        L_State171
L_State170:
;FirmV_0_7_0.c,575 :: 		{temp=ms500+ActionTimeDiff+delay;AddTask(temp,6); M2isSlow=0;}//speed up
	MOVF        _ActionTimeDiff+0, 0 
	ADDWF       _ms500+0, 0 
	MOVWF       R0 
	MOVLW       0
	ADDWFC      _ms500+1, 0 
	MOVWF       R1 
	MOVLW       0
	ADDWFC      _ms500+2, 0 
	MOVWF       R2 
	MOVLW       0
	ADDWFC      _ms500+3, 0 
	MOVWF       R3 
	MOVF        State1_delay_L0+0, 0 
	ADDWF       R0, 1 
	MOVLW       0
	ADDWFC      R1, 1 
	ADDWFC      R2, 1 
	ADDWFC      R3, 1 
	MOVF        R0, 0 
	MOVWF       _temp+0 
	MOVF        R1, 0 
	MOVWF       _temp+1 
	MOVF        R2, 0 
	MOVWF       _temp+2 
	MOVF        R3, 0 
	MOVWF       _temp+3 
	MOVF        R0, 0 
	MOVWF       FARG_AddTask+0 
	MOVF        R1, 0 
	MOVWF       FARG_AddTask+1 
	MOVF        R2, 0 
	MOVWF       FARG_AddTask+2 
	MOVF        R3, 0 
	MOVWF       FARG_AddTask+3 
	MOVLW       6
	MOVWF       FARG_AddTask+0 
	CALL        _AddTask+0, 0
	CLRF        _M2isSlow+0 
L_State171:
;FirmV_0_7_0.c,576 :: 		temp=ms500+ActionTimeDiff+OpenSoftStartTime+OverloadDelay+delay;
	MOVF        _ActionTimeDiff+0, 0 
	ADDWF       _ms500+0, 0 
	MOVWF       R0 
	MOVLW       0
	ADDWFC      _ms500+1, 0 
	MOVWF       R1 
	MOVLW       0
	ADDWFC      _ms500+2, 0 
	MOVWF       R2 
	MOVLW       0
	ADDWFC      _ms500+3, 0 
	MOVWF       R3 
	MOVF        _OpenSoftStartTime+0, 0 
	ADDWF       R0, 1 
	MOVLW       0
	ADDWFC      R1, 1 
	ADDWFC      R2, 1 
	ADDWFC      R3, 1 
	MOVLW       2
	ADDWF       R0, 1 
	MOVLW       0
	ADDWFC      R1, 1 
	ADDWFC      R2, 1 
	ADDWFC      R3, 1 
	MOVF        State1_delay_L0+0, 0 
	ADDWF       R0, 1 
	MOVLW       0
	ADDWFC      R1, 1 
	ADDWFC      R2, 1 
	ADDWFC      R3, 1 
	MOVF        R0, 0 
	MOVWF       _temp+0 
	MOVF        R1, 0 
	MOVWF       _temp+1 
	MOVF        R2, 0 
	MOVWF       _temp+2 
	MOVF        R3, 0 
	MOVWF       _temp+3 
;FirmV_0_7_0.c,577 :: 		AddTask(temp,11); //overload check
	MOVF        R0, 0 
	MOVWF       FARG_AddTask+0 
	MOVF        R1, 0 
	MOVWF       FARG_AddTask+1 
	MOVF        R2, 0 
	MOVWF       FARG_AddTask+2 
	MOVF        R3, 0 
	MOVWF       FARG_AddTask+3 
	MOVLW       11
	MOVWF       FARG_AddTask+0 
	CALL        _AddTask+0, 0
;FirmV_0_7_0.c,578 :: 		temp=ms500+ActionTimeDiff+OpenSoftStartTime+delay;
	MOVF        _ActionTimeDiff+0, 0 
	ADDWF       _ms500+0, 0 
	MOVWF       R0 
	MOVLW       0
	ADDWFC      _ms500+1, 0 
	MOVWF       R1 
	MOVLW       0
	ADDWFC      _ms500+2, 0 
	MOVWF       R2 
	MOVLW       0
	ADDWFC      _ms500+3, 0 
	MOVWF       R3 
	MOVF        _OpenSoftStartTime+0, 0 
	ADDWF       R0, 1 
	MOVLW       0
	ADDWFC      R1, 1 
	ADDWFC      R2, 1 
	ADDWFC      R3, 1 
	MOVF        State1_delay_L0+0, 0 
	ADDWF       R0, 1 
	MOVLW       0
	ADDWFC      R1, 1 
	ADDWFC      R2, 1 
	ADDWFC      R3, 1 
	MOVF        R0, 0 
	MOVWF       _temp+0 
	MOVF        R1, 0 
	MOVWF       _temp+1 
	MOVF        R2, 0 
	MOVWF       _temp+2 
	MOVF        R3, 0 
	MOVWF       _temp+3 
;FirmV_0_7_0.c,579 :: 		AddTask(temp,6);//Speed up after soft start
	MOVF        R0, 0 
	MOVWF       FARG_AddTask+0 
	MOVF        R1, 0 
	MOVWF       FARG_AddTask+1 
	MOVF        R2, 0 
	MOVWF       FARG_AddTask+2 
	MOVF        R3, 0 
	MOVWF       FARG_AddTask+3 
	MOVLW       6
	MOVWF       FARG_AddTask+0 
	CALL        _AddTask+0, 0
;FirmV_0_7_0.c,580 :: 		if(OpenSoftStopTime!=0)
	MOVF        _OpenSoftStopTime+0, 0 
	XORLW       0
	BTFSC       STATUS+0, 2 
	GOTO        L_State172
;FirmV_0_7_0.c,581 :: 		{temp=ms500+ActionTimeDiff+Door2OpenTime-OpenSoftStopTime+delay;AddTask(temp,8);}//Speed down for soft stop
	MOVF        _ActionTimeDiff+0, 0 
	ADDWF       _ms500+0, 0 
	MOVWF       R0 
	MOVLW       0
	ADDWFC      _ms500+1, 0 
	MOVWF       R1 
	MOVLW       0
	ADDWFC      _ms500+2, 0 
	MOVWF       R2 
	MOVLW       0
	ADDWFC      _ms500+3, 0 
	MOVWF       R3 
	MOVF        _Door2OpenTime+0, 0 
	ADDWF       R0, 1 
	MOVLW       0
	ADDWFC      R1, 1 
	ADDWFC      R2, 1 
	ADDWFC      R3, 1 
	MOVF        _OpenSoftStopTime+0, 0 
	SUBWF       R0, 1 
	MOVLW       0
	SUBWFB      R1, 1 
	SUBWFB      R2, 1 
	SUBWFB      R3, 1 
	MOVF        State1_delay_L0+0, 0 
	ADDWF       R0, 1 
	MOVLW       0
	ADDWFC      R1, 1 
	ADDWFC      R2, 1 
	ADDWFC      R3, 1 
	MOVF        R0, 0 
	MOVWF       _temp+0 
	MOVF        R1, 0 
	MOVWF       _temp+1 
	MOVF        R2, 0 
	MOVWF       _temp+2 
	MOVF        R3, 0 
	MOVWF       _temp+3 
	MOVF        R0, 0 
	MOVWF       FARG_AddTask+0 
	MOVF        R1, 0 
	MOVWF       FARG_AddTask+1 
	MOVF        R2, 0 
	MOVWF       FARG_AddTask+2 
	MOVF        R3, 0 
	MOVWF       FARG_AddTask+3 
	MOVLW       8
	MOVWF       FARG_AddTask+0 
	CALL        _AddTask+0, 0
L_State172:
;FirmV_0_7_0.c,582 :: 		temp=ms500+Door2OpenTime+ActionTimeDiff+delay;
	MOVF        _Door2OpenTime+0, 0 
	ADDWF       _ms500+0, 0 
	MOVWF       R0 
	MOVLW       0
	ADDWFC      _ms500+1, 0 
	MOVWF       R1 
	MOVLW       0
	ADDWFC      _ms500+2, 0 
	MOVWF       R2 
	MOVLW       0
	ADDWFC      _ms500+3, 0 
	MOVWF       R3 
	MOVF        _ActionTimeDiff+0, 0 
	ADDWF       R0, 1 
	MOVLW       0
	ADDWFC      R1, 1 
	ADDWFC      R2, 1 
	ADDWFC      R3, 1 
	MOVF        State1_delay_L0+0, 0 
	ADDWF       R0, 1 
	MOVLW       0
	ADDWFC      R1, 1 
	ADDWFC      R2, 1 
	ADDWFC      R3, 1 
	MOVF        R0, 0 
	MOVWF       _temp+0 
	MOVF        R1, 0 
	MOVWF       _temp+1 
	MOVF        R2, 0 
	MOVWF       _temp+2 
	MOVF        R3, 0 
	MOVWF       _temp+3 
;FirmV_0_7_0.c,583 :: 		AddTask(temp,4);//Stop motor
	MOVF        R0, 0 
	MOVWF       FARG_AddTask+0 
	MOVF        R1, 0 
	MOVWF       FARG_AddTask+1 
	MOVF        R2, 0 
	MOVWF       FARG_AddTask+2 
	MOVF        R3, 0 
	MOVWF       FARG_AddTask+3 
	MOVLW       4
	MOVWF       FARG_AddTask+0 
	CALL        _AddTask+0, 0
;FirmV_0_7_0.c,584 :: 		}
L_State169:
;FirmV_0_7_0.c,586 :: 		if(AutoCloseTime!=0)
	MOVLW       0
	XORWF       _AutoCloseTime+1, 0 
	BTFSS       STATUS+0, 2 
	GOTO        L__State1761
	MOVLW       0
	XORWF       _AutoCloseTime+0, 0 
L__State1761:
	BTFSC       STATUS+0, 2 
	GOTO        L_State173
;FirmV_0_7_0.c,587 :: 		{temp=ms500+AutoCloseTime+delay;AddTask(ms500+AutoCloseTime+delay,9);}
	MOVF        _AutoCloseTime+0, 0 
	ADDWF       _ms500+0, 0 
	MOVWF       R0 
	MOVF        _AutoCloseTime+1, 0 
	ADDWFC      _ms500+1, 0 
	MOVWF       R1 
	MOVLW       0
	ADDWFC      _ms500+2, 0 
	MOVWF       R2 
	MOVLW       0
	ADDWFC      _ms500+3, 0 
	MOVWF       R3 
	MOVF        State1_delay_L0+0, 0 
	ADDWF       R0, 1 
	MOVLW       0
	ADDWFC      R1, 1 
	ADDWFC      R2, 1 
	ADDWFC      R3, 1 
	MOVF        R0, 0 
	MOVWF       _temp+0 
	MOVF        R1, 0 
	MOVWF       _temp+1 
	MOVF        R2, 0 
	MOVWF       _temp+2 
	MOVF        R3, 0 
	MOVWF       _temp+3 
	MOVF        R0, 0 
	MOVWF       FARG_AddTask+0 
	MOVF        R1, 0 
	MOVWF       FARG_AddTask+1 
	MOVF        R2, 0 
	MOVWF       FARG_AddTask+2 
	MOVF        R3, 0 
	MOVWF       FARG_AddTask+3 
	MOVLW       9
	MOVWF       FARG_AddTask+0 
	CALL        _AddTask+0, 0
L_State173:
;FirmV_0_7_0.c,589 :: 		OpenDone=3;
	MOVLW       3
	MOVWF       _OpenDone+0 
;FirmV_0_7_0.c,590 :: 		OverloadCheckFlag1=0;
	CLRF        _OverloadCheckFlag1+0 
;FirmV_0_7_0.c,591 :: 		OverloadCheckFlag2=0;
	CLRF        _OverloadCheckFlag2+0 
;FirmV_0_7_0.c,592 :: 		State=3;
	MOVLW       3
	MOVWF       _State+0 
;FirmV_0_7_0.c,593 :: 		PassFlag=0;
	CLRF        _PassFlag+0 
;FirmV_0_7_0.c,594 :: 		}
L_State163:
;FirmV_0_7_0.c,595 :: 		}
	RETURN      0
; end of _State1

_State2:

;FirmV_0_7_0.c,609 :: 		void State2()
;FirmV_0_7_0.c,611 :: 		char delay=2;
	MOVLW       2
	MOVWF       State2_delay_L0+0 
;FirmV_0_7_0.c,613 :: 		Flasher=0;
	BCF         PORTD+0, 7 
;FirmV_0_7_0.c,615 :: 		if((Events.Remote!=0)||(CheckTask(9)==1))
	MOVF        _Events+4, 0 
	XORLW       0
	BTFSS       STATUS+0, 2 
	GOTO        L__State2665
	MOVLW       9
	MOVWF       FARG_CheckTask+0 
	CALL        _CheckTask+0, 0
	MOVF        R0, 0 
	XORLW       1
	BTFSC       STATUS+0, 2 
	GOTO        L__State2665
	GOTO        L_State276
L__State2665:
;FirmV_0_7_0.c,618 :: 		ClearTasks(9);
	MOVLW       9
	MOVWF       FARG_ClearTasks+0 
	CALL        _ClearTasks+0, 0
;FirmV_0_7_0.c,619 :: 		if((Door2CloseTime==0)||(ActiveDoors==1))
	MOVF        _Door2CloseTime+0, 0 
	XORLW       0
	BTFSC       STATUS+0, 2 
	GOTO        L__State2664
	MOVF        _ActiveDoors+0, 0 
	XORLW       1
	BTFSC       STATUS+0, 2 
	GOTO        L__State2664
	GOTO        L_State279
L__State2664:
;FirmV_0_7_0.c,621 :: 		temp=ms500+delay;
	MOVF        State2_delay_L0+0, 0 
	ADDWF       _ms500+0, 0 
	MOVWF       R0 
	MOVLW       0
	ADDWFC      _ms500+1, 0 
	MOVWF       R1 
	MOVLW       0
	ADDWFC      _ms500+2, 0 
	MOVWF       R2 
	MOVLW       0
	ADDWFC      _ms500+3, 0 
	MOVWF       R3 
	MOVF        R0, 0 
	MOVWF       _temp+0 
	MOVF        R1, 0 
	MOVWF       _temp+1 
	MOVF        R2, 0 
	MOVWF       _temp+2 
	MOVF        R3, 0 
	MOVWF       _temp+3 
;FirmV_0_7_0.c,622 :: 		AddTask(temp,1);
	MOVF        R0, 0 
	MOVWF       FARG_AddTask+0 
	MOVF        R1, 0 
	MOVWF       FARG_AddTask+1 
	MOVF        R2, 0 
	MOVWF       FARG_AddTask+2 
	MOVF        R3, 0 
	MOVWF       FARG_AddTask+3 
	MOVLW       1
	MOVWF       FARG_AddTask+0 
	CALL        _AddTask+0, 0
;FirmV_0_7_0.c,623 :: 		if(CloseSoftStartTime!=0)
	MOVF        _CloseSoftStartTime+0, 0 
	XORLW       0
	BTFSC       STATUS+0, 2 
	GOTO        L_State280
;FirmV_0_7_0.c,624 :: 		{AddTask(temp,7); M1isSlow=1;}//speed down
	MOVF        _temp+0, 0 
	MOVWF       FARG_AddTask+0 
	MOVF        _temp+1, 0 
	MOVWF       FARG_AddTask+1 
	MOVF        _temp+2, 0 
	MOVWF       FARG_AddTask+2 
	MOVF        _temp+3, 0 
	MOVWF       FARG_AddTask+3 
	MOVLW       7
	MOVWF       FARG_AddTask+0 
	CALL        _AddTask+0, 0
	MOVLW       1
	MOVWF       _M1isSlow+0 
	GOTO        L_State281
L_State280:
;FirmV_0_7_0.c,626 :: 		{AddTask(temp,5); M1isSlow=0;}//speed up
	MOVF        _temp+0, 0 
	MOVWF       FARG_AddTask+0 
	MOVF        _temp+1, 0 
	MOVWF       FARG_AddTask+1 
	MOVF        _temp+2, 0 
	MOVWF       FARG_AddTask+2 
	MOVF        _temp+3, 0 
	MOVWF       FARG_AddTask+3 
	MOVLW       5
	MOVWF       FARG_AddTask+0 
	CALL        _AddTask+0, 0
	CLRF        _M1isSlow+0 
L_State281:
;FirmV_0_7_0.c,627 :: 		temp=ms500+CloseSoftStartTime+OverloadDelay+delay;
	MOVF        _CloseSoftStartTime+0, 0 
	ADDWF       _ms500+0, 0 
	MOVWF       R0 
	MOVLW       0
	ADDWFC      _ms500+1, 0 
	MOVWF       R1 
	MOVLW       0
	ADDWFC      _ms500+2, 0 
	MOVWF       R2 
	MOVLW       0
	ADDWFC      _ms500+3, 0 
	MOVWF       R3 
	MOVLW       2
	ADDWF       R0, 1 
	MOVLW       0
	ADDWFC      R1, 1 
	ADDWFC      R2, 1 
	ADDWFC      R3, 1 
	MOVF        State2_delay_L0+0, 0 
	ADDWF       R0, 1 
	MOVLW       0
	ADDWFC      R1, 1 
	ADDWFC      R2, 1 
	ADDWFC      R3, 1 
	MOVF        R0, 0 
	MOVWF       _temp+0 
	MOVF        R1, 0 
	MOVWF       _temp+1 
	MOVF        R2, 0 
	MOVWF       _temp+2 
	MOVF        R3, 0 
	MOVWF       _temp+3 
;FirmV_0_7_0.c,628 :: 		AddTask(temp,10); //overload check
	MOVF        R0, 0 
	MOVWF       FARG_AddTask+0 
	MOVF        R1, 0 
	MOVWF       FARG_AddTask+1 
	MOVF        R2, 0 
	MOVWF       FARG_AddTask+2 
	MOVF        R3, 0 
	MOVWF       FARG_AddTask+3 
	MOVLW       10
	MOVWF       FARG_AddTask+0 
	CALL        _AddTask+0, 0
;FirmV_0_7_0.c,629 :: 		temp=ms500+CloseSoftStartTime+delay;
	MOVF        _CloseSoftStartTime+0, 0 
	ADDWF       _ms500+0, 0 
	MOVWF       R0 
	MOVLW       0
	ADDWFC      _ms500+1, 0 
	MOVWF       R1 
	MOVLW       0
	ADDWFC      _ms500+2, 0 
	MOVWF       R2 
	MOVLW       0
	ADDWFC      _ms500+3, 0 
	MOVWF       R3 
	MOVF        State2_delay_L0+0, 0 
	ADDWF       R0, 1 
	MOVLW       0
	ADDWFC      R1, 1 
	ADDWFC      R2, 1 
	ADDWFC      R3, 1 
	MOVF        R0, 0 
	MOVWF       _temp+0 
	MOVF        R1, 0 
	MOVWF       _temp+1 
	MOVF        R2, 0 
	MOVWF       _temp+2 
	MOVF        R3, 0 
	MOVWF       _temp+3 
;FirmV_0_7_0.c,630 :: 		AddTask(temp,5);//Speed up after soft start
	MOVF        R0, 0 
	MOVWF       FARG_AddTask+0 
	MOVF        R1, 0 
	MOVWF       FARG_AddTask+1 
	MOVF        R2, 0 
	MOVWF       FARG_AddTask+2 
	MOVF        R3, 0 
	MOVWF       FARG_AddTask+3 
	MOVLW       5
	MOVWF       FARG_AddTask+0 
	CALL        _AddTask+0, 0
;FirmV_0_7_0.c,631 :: 		if(CloseSoftStopTime!=0)
	MOVF        _CloseSoftStopTime+0, 0 
	XORLW       0
	BTFSC       STATUS+0, 2 
	GOTO        L_State282
;FirmV_0_7_0.c,632 :: 		{temp=ms500+Door1CloseTime-CloseSoftStopTime+delay;AddTask(temp,7);}//Speed down for soft stop
	MOVF        _Door1CloseTime+0, 0 
	ADDWF       _ms500+0, 0 
	MOVWF       R0 
	MOVLW       0
	ADDWFC      _ms500+1, 0 
	MOVWF       R1 
	MOVLW       0
	ADDWFC      _ms500+2, 0 
	MOVWF       R2 
	MOVLW       0
	ADDWFC      _ms500+3, 0 
	MOVWF       R3 
	MOVF        _CloseSoftStopTime+0, 0 
	SUBWF       R0, 1 
	MOVLW       0
	SUBWFB      R1, 1 
	SUBWFB      R2, 1 
	SUBWFB      R3, 1 
	MOVF        State2_delay_L0+0, 0 
	ADDWF       R0, 1 
	MOVLW       0
	ADDWFC      R1, 1 
	ADDWFC      R2, 1 
	ADDWFC      R3, 1 
	MOVF        R0, 0 
	MOVWF       _temp+0 
	MOVF        R1, 0 
	MOVWF       _temp+1 
	MOVF        R2, 0 
	MOVWF       _temp+2 
	MOVF        R3, 0 
	MOVWF       _temp+3 
	MOVF        R0, 0 
	MOVWF       FARG_AddTask+0 
	MOVF        R1, 0 
	MOVWF       FARG_AddTask+1 
	MOVF        R2, 0 
	MOVWF       FARG_AddTask+2 
	MOVF        R3, 0 
	MOVWF       FARG_AddTask+3 
	MOVLW       7
	MOVWF       FARG_AddTask+0 
	CALL        _AddTask+0, 0
L_State282:
;FirmV_0_7_0.c,633 :: 		if(LockForce!=0)
	MOVF        _LockForce+0, 0 
	XORLW       0
	BTFSC       STATUS+0, 2 
	GOTO        L_State283
;FirmV_0_7_0.c,634 :: 		{temp=ms500+Door1CloseTime+delay;AddTask(temp,5);AddTask(temp+LockForceTime,3);}
	MOVF        _Door1CloseTime+0, 0 
	ADDWF       _ms500+0, 0 
	MOVWF       R0 
	MOVLW       0
	ADDWFC      _ms500+1, 0 
	MOVWF       R1 
	MOVLW       0
	ADDWFC      _ms500+2, 0 
	MOVWF       R2 
	MOVLW       0
	ADDWFC      _ms500+3, 0 
	MOVWF       R3 
	MOVF        State2_delay_L0+0, 0 
	ADDWF       R0, 1 
	MOVLW       0
	ADDWFC      R1, 1 
	ADDWFC      R2, 1 
	ADDWFC      R3, 1 
	MOVF        R0, 0 
	MOVWF       _temp+0 
	MOVF        R1, 0 
	MOVWF       _temp+1 
	MOVF        R2, 0 
	MOVWF       _temp+2 
	MOVF        R3, 0 
	MOVWF       _temp+3 
	MOVF        R0, 0 
	MOVWF       FARG_AddTask+0 
	MOVF        R1, 0 
	MOVWF       FARG_AddTask+1 
	MOVF        R2, 0 
	MOVWF       FARG_AddTask+2 
	MOVF        R3, 0 
	MOVWF       FARG_AddTask+3 
	MOVLW       5
	MOVWF       FARG_AddTask+0 
	CALL        _AddTask+0, 0
	MOVLW       3
	ADDWF       _temp+0, 0 
	MOVWF       FARG_AddTask+0 
	MOVLW       0
	ADDWFC      _temp+1, 0 
	MOVWF       FARG_AddTask+1 
	MOVLW       0
	ADDWFC      _temp+2, 0 
	MOVWF       FARG_AddTask+2 
	MOVLW       0
	ADDWFC      _temp+3, 0 
	MOVWF       FARG_AddTask+3 
	MOVLW       3
	MOVWF       FARG_AddTask+0 
	CALL        _AddTask+0, 0
	GOTO        L_State284
L_State283:
;FirmV_0_7_0.c,636 :: 		{temp=ms500+Door1CloseTime+delay;AddTask(temp,3);}
	MOVF        _Door1CloseTime+0, 0 
	ADDWF       _ms500+0, 0 
	MOVWF       R0 
	MOVLW       0
	ADDWFC      _ms500+1, 0 
	MOVWF       R1 
	MOVLW       0
	ADDWFC      _ms500+2, 0 
	MOVWF       R2 
	MOVLW       0
	ADDWFC      _ms500+3, 0 
	MOVWF       R3 
	MOVF        State2_delay_L0+0, 0 
	ADDWF       R0, 1 
	MOVLW       0
	ADDWFC      R1, 1 
	ADDWFC      R2, 1 
	ADDWFC      R3, 1 
	MOVF        R0, 0 
	MOVWF       _temp+0 
	MOVF        R1, 0 
	MOVWF       _temp+1 
	MOVF        R2, 0 
	MOVWF       _temp+2 
	MOVF        R3, 0 
	MOVWF       _temp+3 
	MOVF        R0, 0 
	MOVWF       FARG_AddTask+0 
	MOVF        R1, 0 
	MOVWF       FARG_AddTask+1 
	MOVF        R2, 0 
	MOVWF       FARG_AddTask+2 
	MOVF        R3, 0 
	MOVWF       FARG_AddTask+3 
	MOVLW       3
	MOVWF       FARG_AddTask+0 
	CALL        _AddTask+0, 0
L_State284:
;FirmV_0_7_0.c,638 :: 		}
L_State279:
;FirmV_0_7_0.c,640 :: 		if((Door2CloseTime!=0)&&(ActiveDoors==2))
	MOVF        _Door2CloseTime+0, 0 
	XORLW       0
	BTFSC       STATUS+0, 2 
	GOTO        L_State287
	MOVF        _ActiveDoors+0, 0 
	XORLW       2
	BTFSS       STATUS+0, 2 
	GOTO        L_State287
L__State2663:
;FirmV_0_7_0.c,642 :: 		temp=ms500+delay;
	MOVF        State2_delay_L0+0, 0 
	ADDWF       _ms500+0, 0 
	MOVWF       R0 
	MOVLW       0
	ADDWFC      _ms500+1, 0 
	MOVWF       R1 
	MOVLW       0
	ADDWFC      _ms500+2, 0 
	MOVWF       R2 
	MOVLW       0
	ADDWFC      _ms500+3, 0 
	MOVWF       R3 
	MOVF        R0, 0 
	MOVWF       _temp+0 
	MOVF        R1, 0 
	MOVWF       _temp+1 
	MOVF        R2, 0 
	MOVWF       _temp+2 
	MOVF        R3, 0 
	MOVWF       _temp+3 
;FirmV_0_7_0.c,643 :: 		AddTask(temp,2);
	MOVF        R0, 0 
	MOVWF       FARG_AddTask+0 
	MOVF        R1, 0 
	MOVWF       FARG_AddTask+1 
	MOVF        R2, 0 
	MOVWF       FARG_AddTask+2 
	MOVF        R3, 0 
	MOVWF       FARG_AddTask+3 
	MOVLW       2
	MOVWF       FARG_AddTask+0 
	CALL        _AddTask+0, 0
;FirmV_0_7_0.c,644 :: 		if(CloseSoftStartTime!=0)
	MOVF        _CloseSoftStartTime+0, 0 
	XORLW       0
	BTFSC       STATUS+0, 2 
	GOTO        L_State288
;FirmV_0_7_0.c,645 :: 		{AddTask(temp,8); M2isSlow=1;}//speed down
	MOVF        _temp+0, 0 
	MOVWF       FARG_AddTask+0 
	MOVF        _temp+1, 0 
	MOVWF       FARG_AddTask+1 
	MOVF        _temp+2, 0 
	MOVWF       FARG_AddTask+2 
	MOVF        _temp+3, 0 
	MOVWF       FARG_AddTask+3 
	MOVLW       8
	MOVWF       FARG_AddTask+0 
	CALL        _AddTask+0, 0
	MOVLW       1
	MOVWF       _M2isSlow+0 
	GOTO        L_State289
L_State288:
;FirmV_0_7_0.c,647 :: 		{AddTask(temp,6); M2isSlow=0;}//speed up
	MOVF        _temp+0, 0 
	MOVWF       FARG_AddTask+0 
	MOVF        _temp+1, 0 
	MOVWF       FARG_AddTask+1 
	MOVF        _temp+2, 0 
	MOVWF       FARG_AddTask+2 
	MOVF        _temp+3, 0 
	MOVWF       FARG_AddTask+3 
	MOVLW       6
	MOVWF       FARG_AddTask+0 
	CALL        _AddTask+0, 0
	CLRF        _M2isSlow+0 
L_State289:
;FirmV_0_7_0.c,648 :: 		temp=ms500+CloseSoftStartTime+OverloadDelay+delay;
	MOVF        _CloseSoftStartTime+0, 0 
	ADDWF       _ms500+0, 0 
	MOVWF       R0 
	MOVLW       0
	ADDWFC      _ms500+1, 0 
	MOVWF       R1 
	MOVLW       0
	ADDWFC      _ms500+2, 0 
	MOVWF       R2 
	MOVLW       0
	ADDWFC      _ms500+3, 0 
	MOVWF       R3 
	MOVLW       2
	ADDWF       R0, 1 
	MOVLW       0
	ADDWFC      R1, 1 
	ADDWFC      R2, 1 
	ADDWFC      R3, 1 
	MOVF        State2_delay_L0+0, 0 
	ADDWF       R0, 1 
	MOVLW       0
	ADDWFC      R1, 1 
	ADDWFC      R2, 1 
	ADDWFC      R3, 1 
	MOVF        R0, 0 
	MOVWF       _temp+0 
	MOVF        R1, 0 
	MOVWF       _temp+1 
	MOVF        R2, 0 
	MOVWF       _temp+2 
	MOVF        R3, 0 
	MOVWF       _temp+3 
;FirmV_0_7_0.c,649 :: 		AddTask(temp,11); //overload check
	MOVF        R0, 0 
	MOVWF       FARG_AddTask+0 
	MOVF        R1, 0 
	MOVWF       FARG_AddTask+1 
	MOVF        R2, 0 
	MOVWF       FARG_AddTask+2 
	MOVF        R3, 0 
	MOVWF       FARG_AddTask+3 
	MOVLW       11
	MOVWF       FARG_AddTask+0 
	CALL        _AddTask+0, 0
;FirmV_0_7_0.c,650 :: 		temp=ms500+CloseSoftStartTime+delay;
	MOVF        _CloseSoftStartTime+0, 0 
	ADDWF       _ms500+0, 0 
	MOVWF       R0 
	MOVLW       0
	ADDWFC      _ms500+1, 0 
	MOVWF       R1 
	MOVLW       0
	ADDWFC      _ms500+2, 0 
	MOVWF       R2 
	MOVLW       0
	ADDWFC      _ms500+3, 0 
	MOVWF       R3 
	MOVF        State2_delay_L0+0, 0 
	ADDWF       R0, 1 
	MOVLW       0
	ADDWFC      R1, 1 
	ADDWFC      R2, 1 
	ADDWFC      R3, 1 
	MOVF        R0, 0 
	MOVWF       _temp+0 
	MOVF        R1, 0 
	MOVWF       _temp+1 
	MOVF        R2, 0 
	MOVWF       _temp+2 
	MOVF        R3, 0 
	MOVWF       _temp+3 
;FirmV_0_7_0.c,651 :: 		AddTask(temp,6);//Speed up after soft start
	MOVF        R0, 0 
	MOVWF       FARG_AddTask+0 
	MOVF        R1, 0 
	MOVWF       FARG_AddTask+1 
	MOVF        R2, 0 
	MOVWF       FARG_AddTask+2 
	MOVF        R3, 0 
	MOVWF       FARG_AddTask+3 
	MOVLW       6
	MOVWF       FARG_AddTask+0 
	CALL        _AddTask+0, 0
;FirmV_0_7_0.c,652 :: 		if(CloseSoftStopTime!=0)
	MOVF        _CloseSoftStopTime+0, 0 
	XORLW       0
	BTFSC       STATUS+0, 2 
	GOTO        L_State290
;FirmV_0_7_0.c,653 :: 		{temp=ms500+Door2CloseTime-CloseSoftStopTime+delay;AddTask(temp,8);}//Speed down for soft stop
	MOVF        _Door2CloseTime+0, 0 
	ADDWF       _ms500+0, 0 
	MOVWF       R0 
	MOVLW       0
	ADDWFC      _ms500+1, 0 
	MOVWF       R1 
	MOVLW       0
	ADDWFC      _ms500+2, 0 
	MOVWF       R2 
	MOVLW       0
	ADDWFC      _ms500+3, 0 
	MOVWF       R3 
	MOVF        _CloseSoftStopTime+0, 0 
	SUBWF       R0, 1 
	MOVLW       0
	SUBWFB      R1, 1 
	SUBWFB      R2, 1 
	SUBWFB      R3, 1 
	MOVF        State2_delay_L0+0, 0 
	ADDWF       R0, 1 
	MOVLW       0
	ADDWFC      R1, 1 
	ADDWFC      R2, 1 
	ADDWFC      R3, 1 
	MOVF        R0, 0 
	MOVWF       _temp+0 
	MOVF        R1, 0 
	MOVWF       _temp+1 
	MOVF        R2, 0 
	MOVWF       _temp+2 
	MOVF        R3, 0 
	MOVWF       _temp+3 
	MOVF        R0, 0 
	MOVWF       FARG_AddTask+0 
	MOVF        R1, 0 
	MOVWF       FARG_AddTask+1 
	MOVF        R2, 0 
	MOVWF       FARG_AddTask+2 
	MOVF        R3, 0 
	MOVWF       FARG_AddTask+3 
	MOVLW       8
	MOVWF       FARG_AddTask+0 
	CALL        _AddTask+0, 0
L_State290:
;FirmV_0_7_0.c,655 :: 		temp=ms500+Door2CloseTime+delay;
	MOVF        _Door2CloseTime+0, 0 
	ADDWF       _ms500+0, 0 
	MOVWF       R0 
	MOVLW       0
	ADDWFC      _ms500+1, 0 
	MOVWF       R1 
	MOVLW       0
	ADDWFC      _ms500+2, 0 
	MOVWF       R2 
	MOVLW       0
	ADDWFC      _ms500+3, 0 
	MOVWF       R3 
	MOVF        State2_delay_L0+0, 0 
	ADDWF       R0, 1 
	MOVLW       0
	ADDWFC      R1, 1 
	ADDWFC      R2, 1 
	ADDWFC      R3, 1 
	MOVF        R0, 0 
	MOVWF       _temp+0 
	MOVF        R1, 0 
	MOVWF       _temp+1 
	MOVF        R2, 0 
	MOVWF       _temp+2 
	MOVF        R3, 0 
	MOVWF       _temp+3 
;FirmV_0_7_0.c,656 :: 		AddTask(temp,4);//Stop motor
	MOVF        R0, 0 
	MOVWF       FARG_AddTask+0 
	MOVF        R1, 0 
	MOVWF       FARG_AddTask+1 
	MOVF        R2, 0 
	MOVWF       FARG_AddTask+2 
	MOVF        R3, 0 
	MOVWF       FARG_AddTask+3 
	MOVLW       4
	MOVWF       FARG_AddTask+0 
	CALL        _AddTask+0, 0
;FirmV_0_7_0.c,660 :: 		temp=ms500+ActionTimeDiff+delay;
	MOVF        _ActionTimeDiff+0, 0 
	ADDWF       _ms500+0, 0 
	MOVWF       R0 
	MOVLW       0
	ADDWFC      _ms500+1, 0 
	MOVWF       R1 
	MOVLW       0
	ADDWFC      _ms500+2, 0 
	MOVWF       R2 
	MOVLW       0
	ADDWFC      _ms500+3, 0 
	MOVWF       R3 
	MOVF        State2_delay_L0+0, 0 
	ADDWF       R0, 1 
	MOVLW       0
	ADDWFC      R1, 1 
	ADDWFC      R2, 1 
	ADDWFC      R3, 1 
	MOVF        R0, 0 
	MOVWF       _temp+0 
	MOVF        R1, 0 
	MOVWF       _temp+1 
	MOVF        R2, 0 
	MOVWF       _temp+2 
	MOVF        R3, 0 
	MOVWF       _temp+3 
;FirmV_0_7_0.c,661 :: 		AddTask(temp,1);
	MOVF        R0, 0 
	MOVWF       FARG_AddTask+0 
	MOVF        R1, 0 
	MOVWF       FARG_AddTask+1 
	MOVF        R2, 0 
	MOVWF       FARG_AddTask+2 
	MOVF        R3, 0 
	MOVWF       FARG_AddTask+3 
	MOVLW       1
	MOVWF       FARG_AddTask+0 
	CALL        _AddTask+0, 0
;FirmV_0_7_0.c,662 :: 		if(CloseSoftStartTime!=0)
	MOVF        _CloseSoftStartTime+0, 0 
	XORLW       0
	BTFSC       STATUS+0, 2 
	GOTO        L_State291
;FirmV_0_7_0.c,663 :: 		{AddTask(temp,7); M1isSlow=1;}//speed down
	MOVF        _temp+0, 0 
	MOVWF       FARG_AddTask+0 
	MOVF        _temp+1, 0 
	MOVWF       FARG_AddTask+1 
	MOVF        _temp+2, 0 
	MOVWF       FARG_AddTask+2 
	MOVF        _temp+3, 0 
	MOVWF       FARG_AddTask+3 
	MOVLW       7
	MOVWF       FARG_AddTask+0 
	CALL        _AddTask+0, 0
	MOVLW       1
	MOVWF       _M1isSlow+0 
	GOTO        L_State292
L_State291:
;FirmV_0_7_0.c,665 :: 		{AddTask(temp,5); M1isSlow=0;}//speed up
	MOVF        _temp+0, 0 
	MOVWF       FARG_AddTask+0 
	MOVF        _temp+1, 0 
	MOVWF       FARG_AddTask+1 
	MOVF        _temp+2, 0 
	MOVWF       FARG_AddTask+2 
	MOVF        _temp+3, 0 
	MOVWF       FARG_AddTask+3 
	MOVLW       5
	MOVWF       FARG_AddTask+0 
	CALL        _AddTask+0, 0
	CLRF        _M1isSlow+0 
L_State292:
;FirmV_0_7_0.c,666 :: 		temp=ms500+ActionTimeDiff+CloseSoftStartTime+OverloadDelay+delay;
	MOVF        _ActionTimeDiff+0, 0 
	ADDWF       _ms500+0, 0 
	MOVWF       R0 
	MOVLW       0
	ADDWFC      _ms500+1, 0 
	MOVWF       R1 
	MOVLW       0
	ADDWFC      _ms500+2, 0 
	MOVWF       R2 
	MOVLW       0
	ADDWFC      _ms500+3, 0 
	MOVWF       R3 
	MOVF        _CloseSoftStartTime+0, 0 
	ADDWF       R0, 1 
	MOVLW       0
	ADDWFC      R1, 1 
	ADDWFC      R2, 1 
	ADDWFC      R3, 1 
	MOVLW       2
	ADDWF       R0, 1 
	MOVLW       0
	ADDWFC      R1, 1 
	ADDWFC      R2, 1 
	ADDWFC      R3, 1 
	MOVF        State2_delay_L0+0, 0 
	ADDWF       R0, 1 
	MOVLW       0
	ADDWFC      R1, 1 
	ADDWFC      R2, 1 
	ADDWFC      R3, 1 
	MOVF        R0, 0 
	MOVWF       _temp+0 
	MOVF        R1, 0 
	MOVWF       _temp+1 
	MOVF        R2, 0 
	MOVWF       _temp+2 
	MOVF        R3, 0 
	MOVWF       _temp+3 
;FirmV_0_7_0.c,667 :: 		AddTask(temp,10); //overload check
	MOVF        R0, 0 
	MOVWF       FARG_AddTask+0 
	MOVF        R1, 0 
	MOVWF       FARG_AddTask+1 
	MOVF        R2, 0 
	MOVWF       FARG_AddTask+2 
	MOVF        R3, 0 
	MOVWF       FARG_AddTask+3 
	MOVLW       10
	MOVWF       FARG_AddTask+0 
	CALL        _AddTask+0, 0
;FirmV_0_7_0.c,668 :: 		temp=ms500+ActionTimeDiff+CloseSoftStartTime+delay;
	MOVF        _ActionTimeDiff+0, 0 
	ADDWF       _ms500+0, 0 
	MOVWF       R0 
	MOVLW       0
	ADDWFC      _ms500+1, 0 
	MOVWF       R1 
	MOVLW       0
	ADDWFC      _ms500+2, 0 
	MOVWF       R2 
	MOVLW       0
	ADDWFC      _ms500+3, 0 
	MOVWF       R3 
	MOVF        _CloseSoftStartTime+0, 0 
	ADDWF       R0, 1 
	MOVLW       0
	ADDWFC      R1, 1 
	ADDWFC      R2, 1 
	ADDWFC      R3, 1 
	MOVF        State2_delay_L0+0, 0 
	ADDWF       R0, 1 
	MOVLW       0
	ADDWFC      R1, 1 
	ADDWFC      R2, 1 
	ADDWFC      R3, 1 
	MOVF        R0, 0 
	MOVWF       _temp+0 
	MOVF        R1, 0 
	MOVWF       _temp+1 
	MOVF        R2, 0 
	MOVWF       _temp+2 
	MOVF        R3, 0 
	MOVWF       _temp+3 
;FirmV_0_7_0.c,669 :: 		AddTask(temp,5);//Speed up after soft start
	MOVF        R0, 0 
	MOVWF       FARG_AddTask+0 
	MOVF        R1, 0 
	MOVWF       FARG_AddTask+1 
	MOVF        R2, 0 
	MOVWF       FARG_AddTask+2 
	MOVF        R3, 0 
	MOVWF       FARG_AddTask+3 
	MOVLW       5
	MOVWF       FARG_AddTask+0 
	CALL        _AddTask+0, 0
;FirmV_0_7_0.c,670 :: 		if(CloseSoftStopTime!=0)
	MOVF        _CloseSoftStopTime+0, 0 
	XORLW       0
	BTFSC       STATUS+0, 2 
	GOTO        L_State293
;FirmV_0_7_0.c,671 :: 		{temp=ms500+ActionTimeDiff+Door1CloseTime-CloseSoftStopTime+delay;AddTask(temp,7);}//Speed down for soft stop
	MOVF        _ActionTimeDiff+0, 0 
	ADDWF       _ms500+0, 0 
	MOVWF       R0 
	MOVLW       0
	ADDWFC      _ms500+1, 0 
	MOVWF       R1 
	MOVLW       0
	ADDWFC      _ms500+2, 0 
	MOVWF       R2 
	MOVLW       0
	ADDWFC      _ms500+3, 0 
	MOVWF       R3 
	MOVF        _Door1CloseTime+0, 0 
	ADDWF       R0, 1 
	MOVLW       0
	ADDWFC      R1, 1 
	ADDWFC      R2, 1 
	ADDWFC      R3, 1 
	MOVF        _CloseSoftStopTime+0, 0 
	SUBWF       R0, 1 
	MOVLW       0
	SUBWFB      R1, 1 
	SUBWFB      R2, 1 
	SUBWFB      R3, 1 
	MOVF        State2_delay_L0+0, 0 
	ADDWF       R0, 1 
	MOVLW       0
	ADDWFC      R1, 1 
	ADDWFC      R2, 1 
	ADDWFC      R3, 1 
	MOVF        R0, 0 
	MOVWF       _temp+0 
	MOVF        R1, 0 
	MOVWF       _temp+1 
	MOVF        R2, 0 
	MOVWF       _temp+2 
	MOVF        R3, 0 
	MOVWF       _temp+3 
	MOVF        R0, 0 
	MOVWF       FARG_AddTask+0 
	MOVF        R1, 0 
	MOVWF       FARG_AddTask+1 
	MOVF        R2, 0 
	MOVWF       FARG_AddTask+2 
	MOVF        R3, 0 
	MOVWF       FARG_AddTask+3 
	MOVLW       7
	MOVWF       FARG_AddTask+0 
	CALL        _AddTask+0, 0
L_State293:
;FirmV_0_7_0.c,672 :: 		if(LockForce!=0)
	MOVF        _LockForce+0, 0 
	XORLW       0
	BTFSC       STATUS+0, 2 
	GOTO        L_State294
;FirmV_0_7_0.c,673 :: 		{temp=ms500+Door1CloseTime+ActionTimeDiff+delay;AddTask(temp,5);AddTask(temp+LockForceTime,3);}
	MOVF        _Door1CloseTime+0, 0 
	ADDWF       _ms500+0, 0 
	MOVWF       R0 
	MOVLW       0
	ADDWFC      _ms500+1, 0 
	MOVWF       R1 
	MOVLW       0
	ADDWFC      _ms500+2, 0 
	MOVWF       R2 
	MOVLW       0
	ADDWFC      _ms500+3, 0 
	MOVWF       R3 
	MOVF        _ActionTimeDiff+0, 0 
	ADDWF       R0, 1 
	MOVLW       0
	ADDWFC      R1, 1 
	ADDWFC      R2, 1 
	ADDWFC      R3, 1 
	MOVF        State2_delay_L0+0, 0 
	ADDWF       R0, 1 
	MOVLW       0
	ADDWFC      R1, 1 
	ADDWFC      R2, 1 
	ADDWFC      R3, 1 
	MOVF        R0, 0 
	MOVWF       _temp+0 
	MOVF        R1, 0 
	MOVWF       _temp+1 
	MOVF        R2, 0 
	MOVWF       _temp+2 
	MOVF        R3, 0 
	MOVWF       _temp+3 
	MOVF        R0, 0 
	MOVWF       FARG_AddTask+0 
	MOVF        R1, 0 
	MOVWF       FARG_AddTask+1 
	MOVF        R2, 0 
	MOVWF       FARG_AddTask+2 
	MOVF        R3, 0 
	MOVWF       FARG_AddTask+3 
	MOVLW       5
	MOVWF       FARG_AddTask+0 
	CALL        _AddTask+0, 0
	MOVLW       3
	ADDWF       _temp+0, 0 
	MOVWF       FARG_AddTask+0 
	MOVLW       0
	ADDWFC      _temp+1, 0 
	MOVWF       FARG_AddTask+1 
	MOVLW       0
	ADDWFC      _temp+2, 0 
	MOVWF       FARG_AddTask+2 
	MOVLW       0
	ADDWFC      _temp+3, 0 
	MOVWF       FARG_AddTask+3 
	MOVLW       3
	MOVWF       FARG_AddTask+0 
	CALL        _AddTask+0, 0
	GOTO        L_State295
L_State294:
;FirmV_0_7_0.c,675 :: 		{temp=ms500+Door1CloseTime+ActionTimeDiff+delay;AddTask(temp,3);}
	MOVF        _Door1CloseTime+0, 0 
	ADDWF       _ms500+0, 0 
	MOVWF       R0 
	MOVLW       0
	ADDWFC      _ms500+1, 0 
	MOVWF       R1 
	MOVLW       0
	ADDWFC      _ms500+2, 0 
	MOVWF       R2 
	MOVLW       0
	ADDWFC      _ms500+3, 0 
	MOVWF       R3 
	MOVF        _ActionTimeDiff+0, 0 
	ADDWF       R0, 1 
	MOVLW       0
	ADDWFC      R1, 1 
	ADDWFC      R2, 1 
	ADDWFC      R3, 1 
	MOVF        State2_delay_L0+0, 0 
	ADDWF       R0, 1 
	MOVLW       0
	ADDWFC      R1, 1 
	ADDWFC      R2, 1 
	ADDWFC      R3, 1 
	MOVF        R0, 0 
	MOVWF       _temp+0 
	MOVF        R1, 0 
	MOVWF       _temp+1 
	MOVF        R2, 0 
	MOVWF       _temp+2 
	MOVF        R3, 0 
	MOVWF       _temp+3 
	MOVF        R0, 0 
	MOVWF       FARG_AddTask+0 
	MOVF        R1, 0 
	MOVWF       FARG_AddTask+1 
	MOVF        R2, 0 
	MOVWF       FARG_AddTask+2 
	MOVF        R3, 0 
	MOVWF       FARG_AddTask+3 
	MOVLW       3
	MOVWF       FARG_AddTask+0 
	CALL        _AddTask+0, 0
L_State295:
;FirmV_0_7_0.c,677 :: 		}
L_State287:
;FirmV_0_7_0.c,680 :: 		CloseDone=3;
	MOVLW       3
	MOVWF       _CloseDone+0 
;FirmV_0_7_0.c,681 :: 		OverloadCheckFlag1=0;
	CLRF        _OverloadCheckFlag1+0 
;FirmV_0_7_0.c,682 :: 		OverloadCheckFlag2=0;
	CLRF        _OverloadCheckFlag2+0 
;FirmV_0_7_0.c,683 :: 		State=4;
	MOVLW       4
	MOVWF       _State+0 
;FirmV_0_7_0.c,684 :: 		}
L_State276:
;FirmV_0_7_0.c,686 :: 		if((Events.Photocell.b0==1)&&(AutoCloseTime!=0)&&(PassFlag==0))
	BTFSS       _Events+6, 0 
	GOTO        L_State298
	MOVLW       0
	XORWF       _AutoCloseTime+1, 0 
	BTFSS       STATUS+0, 2 
	GOTO        L__State2762
	MOVLW       0
	XORWF       _AutoCloseTime+0, 0 
L__State2762:
	BTFSC       STATUS+0, 2 
	GOTO        L_State298
	MOVF        _PassFlag+0, 0 
	XORLW       0
	BTFSS       STATUS+0, 2 
	GOTO        L_State298
L__State2662:
;FirmV_0_7_0.c,687 :: 		{PassFlag=1; _AC=GetAutocloseTime();Logger("S2 Auto Close Deleted");}
	MOVLW       1
	MOVWF       _PassFlag+0 
	CALL        _GetAutocloseTime+0, 0
	MOVF        R0, 0 
	MOVWF       __AC+0 
	MOVLW       ?ICS?lstr3_FirmV_0_7_0+0
	MOVWF       TBLPTRL 
	MOVLW       hi_addr(?ICS?lstr3_FirmV_0_7_0+0)
	MOVWF       TBLPTRH 
	MOVLW       higher_addr(?ICS?lstr3_FirmV_0_7_0+0)
	MOVWF       TBLPTRU 
	MOVLW       ?lstr3_FirmV_0_7_0+0
	MOVWF       FSR1L 
	MOVLW       hi_addr(?lstr3_FirmV_0_7_0+0)
	MOVWF       FSR1H 
	MOVLW       22
	MOVWF       R0 
	MOVLW       1
	MOVWF       R1 
	CALL        ___CC2DW+0, 0
	MOVLW       ?lstr3_FirmV_0_7_0+0
	MOVWF       FARG_Logger_text+0 
	MOVLW       hi_addr(?lstr3_FirmV_0_7_0+0)
	MOVWF       FARG_Logger_text+1 
	CALL        _Logger+0, 0
L_State298:
;FirmV_0_7_0.c,689 :: 		if((PassFlag==1)&&(Events.Photocell.b0==0)&&(AutoCloseTime!=0))
	MOVF        _PassFlag+0, 0 
	XORLW       1
	BTFSS       STATUS+0, 2 
	GOTO        L_State2101
	BTFSC       _Events+6, 0 
	GOTO        L_State2101
	MOVLW       0
	XORWF       _AutoCloseTime+1, 0 
	BTFSS       STATUS+0, 2 
	GOTO        L__State2763
	MOVLW       0
	XORWF       _AutoCloseTime+0, 0 
L__State2763:
	BTFSC       STATUS+0, 2 
	GOTO        L_State2101
L__State2661:
;FirmV_0_7_0.c,690 :: 		if(CloseAfterPass==0)
	MOVF        _CloseAfterPass+0, 0 
	XORLW       0
	BTFSS       STATUS+0, 2 
	GOTO        L_State2102
;FirmV_0_7_0.c,691 :: 		{temp=ms500+_AC;AddTask(temp,9);PassFlag=0;longwordtostrwithzeros(temp,t);Logger("S2 Insert 9 at:");Logger(t);}
	MOVF        __AC+0, 0 
	ADDWF       _ms500+0, 0 
	MOVWF       R0 
	MOVLW       0
	ADDWFC      _ms500+1, 0 
	MOVWF       R1 
	MOVLW       0
	ADDWFC      _ms500+2, 0 
	MOVWF       R2 
	MOVLW       0
	ADDWFC      _ms500+3, 0 
	MOVWF       R3 
	MOVF        R0, 0 
	MOVWF       _temp+0 
	MOVF        R1, 0 
	MOVWF       _temp+1 
	MOVF        R2, 0 
	MOVWF       _temp+2 
	MOVF        R3, 0 
	MOVWF       _temp+3 
	MOVF        R0, 0 
	MOVWF       FARG_AddTask+0 
	MOVF        R1, 0 
	MOVWF       FARG_AddTask+1 
	MOVF        R2, 0 
	MOVWF       FARG_AddTask+2 
	MOVF        R3, 0 
	MOVWF       FARG_AddTask+3 
	MOVLW       9
	MOVWF       FARG_AddTask+0 
	CALL        _AddTask+0, 0
	CLRF        _PassFlag+0 
	MOVF        _temp+0, 0 
	MOVWF       FARG_LongWordToStrWithZeros_input+0 
	MOVF        _temp+1, 0 
	MOVWF       FARG_LongWordToStrWithZeros_input+1 
	MOVF        _temp+2, 0 
	MOVWF       FARG_LongWordToStrWithZeros_input+2 
	MOVF        _temp+3, 0 
	MOVWF       FARG_LongWordToStrWithZeros_input+3 
	MOVLW       _t+0
	MOVWF       FARG_LongWordToStrWithZeros_output+0 
	MOVLW       hi_addr(_t+0)
	MOVWF       FARG_LongWordToStrWithZeros_output+1 
	CALL        _LongWordToStrWithZeros+0, 0
	MOVLW       ?ICS?lstr4_FirmV_0_7_0+0
	MOVWF       TBLPTRL 
	MOVLW       hi_addr(?ICS?lstr4_FirmV_0_7_0+0)
	MOVWF       TBLPTRH 
	MOVLW       higher_addr(?ICS?lstr4_FirmV_0_7_0+0)
	MOVWF       TBLPTRU 
	MOVLW       ?lstr4_FirmV_0_7_0+0
	MOVWF       FSR1L 
	MOVLW       hi_addr(?lstr4_FirmV_0_7_0+0)
	MOVWF       FSR1H 
	MOVLW       16
	MOVWF       R0 
	MOVLW       1
	MOVWF       R1 
	CALL        ___CC2DW+0, 0
	MOVLW       ?lstr4_FirmV_0_7_0+0
	MOVWF       FARG_Logger_text+0 
	MOVLW       hi_addr(?lstr4_FirmV_0_7_0+0)
	MOVWF       FARG_Logger_text+1 
	CALL        _Logger+0, 0
	MOVLW       _t+0
	MOVWF       FARG_Logger_text+0 
	MOVLW       hi_addr(_t+0)
	MOVWF       FARG_Logger_text+1 
	CALL        _Logger+0, 0
	GOTO        L_State2103
L_State2102:
;FirmV_0_7_0.c,693 :: 		{temp=ms500+CloseAfterPass;AddTask(temp,9);PassFlag=0;longwordtostrwithzeros(temp,t);Logger("S2 Insert 9 at:");Logger(t);}
	MOVF        _CloseAfterPass+0, 0 
	ADDWF       _ms500+0, 0 
	MOVWF       R0 
	MOVLW       0
	ADDWFC      _ms500+1, 0 
	MOVWF       R1 
	MOVLW       0
	ADDWFC      _ms500+2, 0 
	MOVWF       R2 
	MOVLW       0
	ADDWFC      _ms500+3, 0 
	MOVWF       R3 
	MOVF        R0, 0 
	MOVWF       _temp+0 
	MOVF        R1, 0 
	MOVWF       _temp+1 
	MOVF        R2, 0 
	MOVWF       _temp+2 
	MOVF        R3, 0 
	MOVWF       _temp+3 
	MOVF        R0, 0 
	MOVWF       FARG_AddTask+0 
	MOVF        R1, 0 
	MOVWF       FARG_AddTask+1 
	MOVF        R2, 0 
	MOVWF       FARG_AddTask+2 
	MOVF        R3, 0 
	MOVWF       FARG_AddTask+3 
	MOVLW       9
	MOVWF       FARG_AddTask+0 
	CALL        _AddTask+0, 0
	CLRF        _PassFlag+0 
	MOVF        _temp+0, 0 
	MOVWF       FARG_LongWordToStrWithZeros_input+0 
	MOVF        _temp+1, 0 
	MOVWF       FARG_LongWordToStrWithZeros_input+1 
	MOVF        _temp+2, 0 
	MOVWF       FARG_LongWordToStrWithZeros_input+2 
	MOVF        _temp+3, 0 
	MOVWF       FARG_LongWordToStrWithZeros_input+3 
	MOVLW       _t+0
	MOVWF       FARG_LongWordToStrWithZeros_output+0 
	MOVLW       hi_addr(_t+0)
	MOVWF       FARG_LongWordToStrWithZeros_output+1 
	CALL        _LongWordToStrWithZeros+0, 0
	MOVLW       ?ICS?lstr5_FirmV_0_7_0+0
	MOVWF       TBLPTRL 
	MOVLW       hi_addr(?ICS?lstr5_FirmV_0_7_0+0)
	MOVWF       TBLPTRH 
	MOVLW       higher_addr(?ICS?lstr5_FirmV_0_7_0+0)
	MOVWF       TBLPTRU 
	MOVLW       ?lstr5_FirmV_0_7_0+0
	MOVWF       FSR1L 
	MOVLW       hi_addr(?lstr5_FirmV_0_7_0+0)
	MOVWF       FSR1H 
	MOVLW       16
	MOVWF       R0 
	MOVLW       1
	MOVWF       R1 
	CALL        ___CC2DW+0, 0
	MOVLW       ?lstr5_FirmV_0_7_0+0
	MOVWF       FARG_Logger_text+0 
	MOVLW       hi_addr(?lstr5_FirmV_0_7_0+0)
	MOVWF       FARG_Logger_text+1 
	CALL        _Logger+0, 0
	MOVLW       _t+0
	MOVWF       FARG_Logger_text+0 
	MOVLW       hi_addr(_t+0)
	MOVWF       FARG_Logger_text+1 
	CALL        _Logger+0, 0
L_State2103:
L_State2101:
;FirmV_0_7_0.c,695 :: 		}
	RETURN      0
; end of _State2

_State3:

;FirmV_0_7_0.c,710 :: 		void State3()
;FirmV_0_7_0.c,712 :: 		Flasher=1;
	BSF         PORTD+0, 7 
;FirmV_0_7_0.c,714 :: 		if(CheckTask(1))
	MOVLW       1
	MOVWF       FARG_CheckTask+0 
	CALL        _CheckTask+0, 0
	MOVF        R0, 1 
	BTFSC       STATUS+0, 2 
	GOTO        L_State3104
;FirmV_0_7_0.c,715 :: 		{StartMotor(1,_Open);Logger("S3 Motor1Start"); Lock=0;memcpy(LCDLine1,_opening,16);memcpy(LCDLine2,_Blank,16);LCDUpdateFlag=1;LCDLines=1;}
	MOVLW       1
	MOVWF       FARG_StartMotor+0 
	MOVLW       1
	MOVWF       FARG_StartMotor+0 
	CALL        _StartMotor+0, 0
	MOVLW       83
	MOVWF       ?lstr6_FirmV_0_7_0+0 
	MOVLW       51
	MOVWF       ?lstr6_FirmV_0_7_0+1 
	MOVLW       32
	MOVWF       ?lstr6_FirmV_0_7_0+2 
	MOVLW       77
	MOVWF       ?lstr6_FirmV_0_7_0+3 
	MOVLW       111
	MOVWF       ?lstr6_FirmV_0_7_0+4 
	MOVLW       116
	MOVWF       ?lstr6_FirmV_0_7_0+5 
	MOVLW       111
	MOVWF       ?lstr6_FirmV_0_7_0+6 
	MOVLW       114
	MOVWF       ?lstr6_FirmV_0_7_0+7 
	MOVLW       49
	MOVWF       ?lstr6_FirmV_0_7_0+8 
	MOVLW       83
	MOVWF       ?lstr6_FirmV_0_7_0+9 
	MOVLW       116
	MOVWF       ?lstr6_FirmV_0_7_0+10 
	MOVLW       97
	MOVWF       ?lstr6_FirmV_0_7_0+11 
	MOVLW       114
	MOVWF       ?lstr6_FirmV_0_7_0+12 
	MOVLW       116
	MOVWF       ?lstr6_FirmV_0_7_0+13 
	CLRF        ?lstr6_FirmV_0_7_0+14 
	MOVLW       ?lstr6_FirmV_0_7_0+0
	MOVWF       FARG_Logger_text+0 
	MOVLW       hi_addr(?lstr6_FirmV_0_7_0+0)
	MOVWF       FARG_Logger_text+1 
	CALL        _Logger+0, 0
	BCF         PORTD+0, 6 
	MOVLW       _LCDLine1+0
	MOVWF       FARG_memcpy_d1+0 
	MOVLW       hi_addr(_LCDLine1+0)
	MOVWF       FARG_memcpy_d1+1 
	MOVLW       __opening+0
	MOVWF       FARG_memcpy_s1+0 
	MOVLW       hi_addr(__opening+0)
	MOVWF       FARG_memcpy_s1+1 
	MOVLW       16
	MOVWF       FARG_memcpy_n+0 
	MOVLW       0
	MOVWF       FARG_memcpy_n+1 
	CALL        _memcpy+0, 0
	MOVLW       _LCDLine2+0
	MOVWF       FARG_memcpy_d1+0 
	MOVLW       hi_addr(_LCDLine2+0)
	MOVWF       FARG_memcpy_d1+1 
	MOVLW       __Blank+0
	MOVWF       FARG_memcpy_s1+0 
	MOVLW       hi_addr(__Blank+0)
	MOVWF       FARG_memcpy_s1+1 
	MOVLW       16
	MOVWF       FARG_memcpy_n+0 
	MOVLW       0
	MOVWF       FARG_memcpy_n+1 
	CALL        _memcpy+0, 0
	MOVLW       1
	MOVWF       _LCDUpdateFlag+0 
	MOVLW       1
	MOVWF       _LCDLines+0 
L_State3104:
;FirmV_0_7_0.c,717 :: 		if(CheckTask(2))
	MOVLW       2
	MOVWF       FARG_CheckTask+0 
	CALL        _CheckTask+0, 0
	MOVF        R0, 1 
	BTFSC       STATUS+0, 2 
	GOTO        L_State3105
;FirmV_0_7_0.c,718 :: 		{StartMotor(2,_Open);Logger("S3 Motor2Start"); Lock=0;}
	MOVLW       2
	MOVWF       FARG_StartMotor+0 
	MOVLW       1
	MOVWF       FARG_StartMotor+0 
	CALL        _StartMotor+0, 0
	MOVLW       83
	MOVWF       ?lstr7_FirmV_0_7_0+0 
	MOVLW       51
	MOVWF       ?lstr7_FirmV_0_7_0+1 
	MOVLW       32
	MOVWF       ?lstr7_FirmV_0_7_0+2 
	MOVLW       77
	MOVWF       ?lstr7_FirmV_0_7_0+3 
	MOVLW       111
	MOVWF       ?lstr7_FirmV_0_7_0+4 
	MOVLW       116
	MOVWF       ?lstr7_FirmV_0_7_0+5 
	MOVLW       111
	MOVWF       ?lstr7_FirmV_0_7_0+6 
	MOVLW       114
	MOVWF       ?lstr7_FirmV_0_7_0+7 
	MOVLW       50
	MOVWF       ?lstr7_FirmV_0_7_0+8 
	MOVLW       83
	MOVWF       ?lstr7_FirmV_0_7_0+9 
	MOVLW       116
	MOVWF       ?lstr7_FirmV_0_7_0+10 
	MOVLW       97
	MOVWF       ?lstr7_FirmV_0_7_0+11 
	MOVLW       114
	MOVWF       ?lstr7_FirmV_0_7_0+12 
	MOVLW       116
	MOVWF       ?lstr7_FirmV_0_7_0+13 
	CLRF        ?lstr7_FirmV_0_7_0+14 
	MOVLW       ?lstr7_FirmV_0_7_0+0
	MOVWF       FARG_Logger_text+0 
	MOVLW       hi_addr(?lstr7_FirmV_0_7_0+0)
	MOVWF       FARG_Logger_text+1 
	CALL        _Logger+0, 0
	BCF         PORTD+0, 6 
L_State3105:
;FirmV_0_7_0.c,720 :: 		if(CheckTask(5))
	MOVLW       5
	MOVWF       FARG_CheckTask+0 
	CALL        _CheckTask+0, 0
	MOVF        R0, 1 
	BTFSC       STATUS+0, 2 
	GOTO        L_State3106
;FirmV_0_7_0.c,721 :: 		{SetMotorSpeed(1,Motor2FullSpeed);OverloadCheckFlag1=0; M1isSlow=0;Logger("S3 Motor1 Fast");}
	MOVLW       1
	MOVWF       FARG_SetMotorSpeed+0 
	MOVF        _Motor2FullSpeed+0, 0 
	MOVWF       FARG_SetMotorSpeed+0 
	CALL        _SetMotorSpeed+0, 0
	CLRF        _OverloadCheckFlag1+0 
	CLRF        _M1isSlow+0 
	MOVLW       83
	MOVWF       ?lstr8_FirmV_0_7_0+0 
	MOVLW       51
	MOVWF       ?lstr8_FirmV_0_7_0+1 
	MOVLW       32
	MOVWF       ?lstr8_FirmV_0_7_0+2 
	MOVLW       77
	MOVWF       ?lstr8_FirmV_0_7_0+3 
	MOVLW       111
	MOVWF       ?lstr8_FirmV_0_7_0+4 
	MOVLW       116
	MOVWF       ?lstr8_FirmV_0_7_0+5 
	MOVLW       111
	MOVWF       ?lstr8_FirmV_0_7_0+6 
	MOVLW       114
	MOVWF       ?lstr8_FirmV_0_7_0+7 
	MOVLW       49
	MOVWF       ?lstr8_FirmV_0_7_0+8 
	MOVLW       32
	MOVWF       ?lstr8_FirmV_0_7_0+9 
	MOVLW       70
	MOVWF       ?lstr8_FirmV_0_7_0+10 
	MOVLW       97
	MOVWF       ?lstr8_FirmV_0_7_0+11 
	MOVLW       115
	MOVWF       ?lstr8_FirmV_0_7_0+12 
	MOVLW       116
	MOVWF       ?lstr8_FirmV_0_7_0+13 
	CLRF        ?lstr8_FirmV_0_7_0+14 
	MOVLW       ?lstr8_FirmV_0_7_0+0
	MOVWF       FARG_Logger_text+0 
	MOVLW       hi_addr(?lstr8_FirmV_0_7_0+0)
	MOVWF       FARG_Logger_text+1 
	CALL        _Logger+0, 0
L_State3106:
;FirmV_0_7_0.c,723 :: 		if(CheckTask(7))
	MOVLW       7
	MOVWF       FARG_CheckTask+0 
	CALL        _CheckTask+0, 0
	MOVF        R0, 1 
	BTFSC       STATUS+0, 2 
	GOTO        L_State3107
;FirmV_0_7_0.c,724 :: 		{SetMotorSpeed(0,Motor2FullSpeed); M1isSlow=1;Logger("S3 Motor1 Slow");}
	CLRF        FARG_SetMotorSpeed+0 
	MOVF        _Motor2FullSpeed+0, 0 
	MOVWF       FARG_SetMotorSpeed+0 
	CALL        _SetMotorSpeed+0, 0
	MOVLW       1
	MOVWF       _M1isSlow+0 
	MOVLW       83
	MOVWF       ?lstr9_FirmV_0_7_0+0 
	MOVLW       51
	MOVWF       ?lstr9_FirmV_0_7_0+1 
	MOVLW       32
	MOVWF       ?lstr9_FirmV_0_7_0+2 
	MOVLW       77
	MOVWF       ?lstr9_FirmV_0_7_0+3 
	MOVLW       111
	MOVWF       ?lstr9_FirmV_0_7_0+4 
	MOVLW       116
	MOVWF       ?lstr9_FirmV_0_7_0+5 
	MOVLW       111
	MOVWF       ?lstr9_FirmV_0_7_0+6 
	MOVLW       114
	MOVWF       ?lstr9_FirmV_0_7_0+7 
	MOVLW       49
	MOVWF       ?lstr9_FirmV_0_7_0+8 
	MOVLW       32
	MOVWF       ?lstr9_FirmV_0_7_0+9 
	MOVLW       83
	MOVWF       ?lstr9_FirmV_0_7_0+10 
	MOVLW       108
	MOVWF       ?lstr9_FirmV_0_7_0+11 
	MOVLW       111
	MOVWF       ?lstr9_FirmV_0_7_0+12 
	MOVLW       119
	MOVWF       ?lstr9_FirmV_0_7_0+13 
	CLRF        ?lstr9_FirmV_0_7_0+14 
	MOVLW       ?lstr9_FirmV_0_7_0+0
	MOVWF       FARG_Logger_text+0 
	MOVLW       hi_addr(?lstr9_FirmV_0_7_0+0)
	MOVWF       FARG_Logger_text+1 
	CALL        _Logger+0, 0
L_State3107:
;FirmV_0_7_0.c,726 :: 		if(CheckTask(6))
	MOVLW       6
	MOVWF       FARG_CheckTask+0 
	CALL        _CheckTask+0, 0
	MOVF        R0, 1 
	BTFSC       STATUS+0, 2 
	GOTO        L_State3108
;FirmV_0_7_0.c,727 :: 		{SetMotorSpeed(Motor1FullSpeed,1);OverloadCheckFlag2=0; M2isSlow=0;Logger("S3 Motor2 Fast");}
	MOVF        _Motor1FullSpeed+0, 0 
	MOVWF       FARG_SetMotorSpeed+0 
	MOVLW       1
	MOVWF       FARG_SetMotorSpeed+0 
	CALL        _SetMotorSpeed+0, 0
	CLRF        _OverloadCheckFlag2+0 
	CLRF        _M2isSlow+0 
	MOVLW       83
	MOVWF       ?lstr10_FirmV_0_7_0+0 
	MOVLW       51
	MOVWF       ?lstr10_FirmV_0_7_0+1 
	MOVLW       32
	MOVWF       ?lstr10_FirmV_0_7_0+2 
	MOVLW       77
	MOVWF       ?lstr10_FirmV_0_7_0+3 
	MOVLW       111
	MOVWF       ?lstr10_FirmV_0_7_0+4 
	MOVLW       116
	MOVWF       ?lstr10_FirmV_0_7_0+5 
	MOVLW       111
	MOVWF       ?lstr10_FirmV_0_7_0+6 
	MOVLW       114
	MOVWF       ?lstr10_FirmV_0_7_0+7 
	MOVLW       50
	MOVWF       ?lstr10_FirmV_0_7_0+8 
	MOVLW       32
	MOVWF       ?lstr10_FirmV_0_7_0+9 
	MOVLW       70
	MOVWF       ?lstr10_FirmV_0_7_0+10 
	MOVLW       97
	MOVWF       ?lstr10_FirmV_0_7_0+11 
	MOVLW       115
	MOVWF       ?lstr10_FirmV_0_7_0+12 
	MOVLW       116
	MOVWF       ?lstr10_FirmV_0_7_0+13 
	CLRF        ?lstr10_FirmV_0_7_0+14 
	MOVLW       ?lstr10_FirmV_0_7_0+0
	MOVWF       FARG_Logger_text+0 
	MOVLW       hi_addr(?lstr10_FirmV_0_7_0+0)
	MOVWF       FARG_Logger_text+1 
	CALL        _Logger+0, 0
L_State3108:
;FirmV_0_7_0.c,729 :: 		if(CheckTask(8))
	MOVLW       8
	MOVWF       FARG_CheckTask+0 
	CALL        _CheckTask+0, 0
	MOVF        R0, 1 
	BTFSC       STATUS+0, 2 
	GOTO        L_State3109
;FirmV_0_7_0.c,730 :: 		{SetMotorSpeed(Motor1FullSpeed,0); M2isSlow=1;Logger("S3 Motor2 Slow");}
	MOVF        _Motor1FullSpeed+0, 0 
	MOVWF       FARG_SetMotorSpeed+0 
	CLRF        FARG_SetMotorSpeed+0 
	CALL        _SetMotorSpeed+0, 0
	MOVLW       1
	MOVWF       _M2isSlow+0 
	MOVLW       83
	MOVWF       ?lstr11_FirmV_0_7_0+0 
	MOVLW       51
	MOVWF       ?lstr11_FirmV_0_7_0+1 
	MOVLW       32
	MOVWF       ?lstr11_FirmV_0_7_0+2 
	MOVLW       77
	MOVWF       ?lstr11_FirmV_0_7_0+3 
	MOVLW       111
	MOVWF       ?lstr11_FirmV_0_7_0+4 
	MOVLW       116
	MOVWF       ?lstr11_FirmV_0_7_0+5 
	MOVLW       111
	MOVWF       ?lstr11_FirmV_0_7_0+6 
	MOVLW       114
	MOVWF       ?lstr11_FirmV_0_7_0+7 
	MOVLW       50
	MOVWF       ?lstr11_FirmV_0_7_0+8 
	MOVLW       32
	MOVWF       ?lstr11_FirmV_0_7_0+9 
	MOVLW       83
	MOVWF       ?lstr11_FirmV_0_7_0+10 
	MOVLW       108
	MOVWF       ?lstr11_FirmV_0_7_0+11 
	MOVLW       111
	MOVWF       ?lstr11_FirmV_0_7_0+12 
	MOVLW       119
	MOVWF       ?lstr11_FirmV_0_7_0+13 
	CLRF        ?lstr11_FirmV_0_7_0+14 
	MOVLW       ?lstr11_FirmV_0_7_0+0
	MOVWF       FARG_Logger_text+0 
	MOVLW       hi_addr(?lstr11_FirmV_0_7_0+0)
	MOVWF       FARG_Logger_text+1 
	CALL        _Logger+0, 0
L_State3109:
;FirmV_0_7_0.c,732 :: 		if(CheckTask(10))
	MOVLW       10
	MOVWF       FARG_CheckTask+0 
	CALL        _CheckTask+0, 0
	MOVF        R0, 1 
	BTFSC       STATUS+0, 2 
	GOTO        L_State3110
;FirmV_0_7_0.c,733 :: 		{OverloadCheckFlag1=1; OverloadInit(1);Logger("S3 Overflow Flag1 Set");}
	MOVLW       1
	MOVWF       _OverloadCheckFlag1+0 
	MOVLW       1
	MOVWF       FARG_OverloadInit+0 
	CALL        _OverloadInit+0, 0
	MOVLW       ?ICS?lstr12_FirmV_0_7_0+0
	MOVWF       TBLPTRL 
	MOVLW       hi_addr(?ICS?lstr12_FirmV_0_7_0+0)
	MOVWF       TBLPTRH 
	MOVLW       higher_addr(?ICS?lstr12_FirmV_0_7_0+0)
	MOVWF       TBLPTRU 
	MOVLW       ?lstr12_FirmV_0_7_0+0
	MOVWF       FSR1L 
	MOVLW       hi_addr(?lstr12_FirmV_0_7_0+0)
	MOVWF       FSR1H 
	MOVLW       22
	MOVWF       R0 
	MOVLW       1
	MOVWF       R1 
	CALL        ___CC2DW+0, 0
	MOVLW       ?lstr12_FirmV_0_7_0+0
	MOVWF       FARG_Logger_text+0 
	MOVLW       hi_addr(?lstr12_FirmV_0_7_0+0)
	MOVWF       FARG_Logger_text+1 
	CALL        _Logger+0, 0
L_State3110:
;FirmV_0_7_0.c,735 :: 		if(CheckTask(11))
	MOVLW       11
	MOVWF       FARG_CheckTask+0 
	CALL        _CheckTask+0, 0
	MOVF        R0, 1 
	BTFSC       STATUS+0, 2 
	GOTO        L_State3111
;FirmV_0_7_0.c,736 :: 		{OverloadCheckFlag2=1; OverloadInit(2);Logger("S3 Overflow Flag2 Set");}
	MOVLW       1
	MOVWF       _OverloadCheckFlag2+0 
	MOVLW       2
	MOVWF       FARG_OverloadInit+0 
	CALL        _OverloadInit+0, 0
	MOVLW       ?ICS?lstr13_FirmV_0_7_0+0
	MOVWF       TBLPTRL 
	MOVLW       hi_addr(?ICS?lstr13_FirmV_0_7_0+0)
	MOVWF       TBLPTRH 
	MOVLW       higher_addr(?ICS?lstr13_FirmV_0_7_0+0)
	MOVWF       TBLPTRU 
	MOVLW       ?lstr13_FirmV_0_7_0+0
	MOVWF       FSR1L 
	MOVLW       hi_addr(?lstr13_FirmV_0_7_0+0)
	MOVWF       FSR1H 
	MOVLW       22
	MOVWF       R0 
	MOVLW       1
	MOVWF       R1 
	CALL        ___CC2DW+0, 0
	MOVLW       ?lstr13_FirmV_0_7_0+0
	MOVWF       FARG_Logger_text+0 
	MOVLW       hi_addr(?lstr13_FirmV_0_7_0+0)
	MOVWF       FARG_Logger_text+1 
	CALL        _Logger+0, 0
L_State3111:
;FirmV_0_7_0.c,738 :: 		if(CheckTask(3))
	MOVLW       3
	MOVWF       FARG_CheckTask+0 
	CALL        _CheckTask+0, 0
	MOVF        R0, 1 
	BTFSC       STATUS+0, 2 
	GOTO        L_State3112
;FirmV_0_7_0.c,739 :: 		{OpenDone.b0=0; StopMotor(1);Logger("S3 Motor1 Stop");}
	BCF         _OpenDone+0, 0 
	MOVLW       1
	MOVWF       FARG_StopMotor+0 
	CALL        _StopMotor+0, 0
	MOVLW       83
	MOVWF       ?lstr14_FirmV_0_7_0+0 
	MOVLW       51
	MOVWF       ?lstr14_FirmV_0_7_0+1 
	MOVLW       32
	MOVWF       ?lstr14_FirmV_0_7_0+2 
	MOVLW       77
	MOVWF       ?lstr14_FirmV_0_7_0+3 
	MOVLW       111
	MOVWF       ?lstr14_FirmV_0_7_0+4 
	MOVLW       116
	MOVWF       ?lstr14_FirmV_0_7_0+5 
	MOVLW       111
	MOVWF       ?lstr14_FirmV_0_7_0+6 
	MOVLW       114
	MOVWF       ?lstr14_FirmV_0_7_0+7 
	MOVLW       49
	MOVWF       ?lstr14_FirmV_0_7_0+8 
	MOVLW       32
	MOVWF       ?lstr14_FirmV_0_7_0+9 
	MOVLW       83
	MOVWF       ?lstr14_FirmV_0_7_0+10 
	MOVLW       116
	MOVWF       ?lstr14_FirmV_0_7_0+11 
	MOVLW       111
	MOVWF       ?lstr14_FirmV_0_7_0+12 
	MOVLW       112
	MOVWF       ?lstr14_FirmV_0_7_0+13 
	CLRF        ?lstr14_FirmV_0_7_0+14 
	MOVLW       ?lstr14_FirmV_0_7_0+0
	MOVWF       FARG_Logger_text+0 
	MOVLW       hi_addr(?lstr14_FirmV_0_7_0+0)
	MOVWF       FARG_Logger_text+1 
	CALL        _Logger+0, 0
L_State3112:
;FirmV_0_7_0.c,741 :: 		if(CheckTask(4))
	MOVLW       4
	MOVWF       FARG_CheckTask+0 
	CALL        _CheckTask+0, 0
	MOVF        R0, 1 
	BTFSC       STATUS+0, 2 
	GOTO        L_State3113
;FirmV_0_7_0.c,742 :: 		{OpenDone.b1=0; StopMotor(2);Logger("S3 Motor2 Stop");}
	BCF         _OpenDone+0, 1 
	MOVLW       2
	MOVWF       FARG_StopMotor+0 
	CALL        _StopMotor+0, 0
	MOVLW       83
	MOVWF       ?lstr15_FirmV_0_7_0+0 
	MOVLW       51
	MOVWF       ?lstr15_FirmV_0_7_0+1 
	MOVLW       32
	MOVWF       ?lstr15_FirmV_0_7_0+2 
	MOVLW       77
	MOVWF       ?lstr15_FirmV_0_7_0+3 
	MOVLW       111
	MOVWF       ?lstr15_FirmV_0_7_0+4 
	MOVLW       116
	MOVWF       ?lstr15_FirmV_0_7_0+5 
	MOVLW       111
	MOVWF       ?lstr15_FirmV_0_7_0+6 
	MOVLW       114
	MOVWF       ?lstr15_FirmV_0_7_0+7 
	MOVLW       50
	MOVWF       ?lstr15_FirmV_0_7_0+8 
	MOVLW       32
	MOVWF       ?lstr15_FirmV_0_7_0+9 
	MOVLW       83
	MOVWF       ?lstr15_FirmV_0_7_0+10 
	MOVLW       116
	MOVWF       ?lstr15_FirmV_0_7_0+11 
	MOVLW       111
	MOVWF       ?lstr15_FirmV_0_7_0+12 
	MOVLW       112
	MOVWF       ?lstr15_FirmV_0_7_0+13 
	CLRF        ?lstr15_FirmV_0_7_0+14 
	MOVLW       ?lstr15_FirmV_0_7_0+0
	MOVWF       FARG_Logger_text+0 
	MOVLW       hi_addr(?lstr15_FirmV_0_7_0+0)
	MOVWF       FARG_Logger_text+1 
	CALL        _Logger+0, 0
L_State3113:
;FirmV_0_7_0.c,744 :: 		if(CheckTask(12))
	MOVLW       12
	MOVWF       FARG_CheckTask+0 
	CALL        _CheckTask+0, 0
	MOVF        R0, 1 
	BTFSC       STATUS+0, 2 
	GOTO        L_State3114
;FirmV_0_7_0.c,745 :: 		{Lock=1;}
	BSF         PORTD+0, 6 
L_State3114:
;FirmV_0_7_0.c,747 :: 		if((OverloadCheckFlag1==1)&&(Events.Overload.b0==1)&&(M1isSlow==0))
	MOVF        _OverloadCheckFlag1+0, 0 
	XORLW       1
	BTFSS       STATUS+0, 2 
	GOTO        L_State3117
	BTFSS       _Events+5, 0 
	GOTO        L_State3117
	MOVF        _M1isSlow+0, 0 
	XORLW       0
	BTFSS       STATUS+0, 2 
	GOTO        L_State3117
L__State3671:
;FirmV_0_7_0.c,748 :: 		{StopMotor(1); StopMotor(2); State=5;OverloadCheckFlag1=0;OverloadCheckFlag2=0;Logger("S3 Motor1 Collision");ClearTasks(9);
	MOVLW       1
	MOVWF       FARG_StopMotor+0 
	CALL        _StopMotor+0, 0
	MOVLW       2
	MOVWF       FARG_StopMotor+0 
	CALL        _StopMotor+0, 0
	MOVLW       5
	MOVWF       _State+0 
	CLRF        _OverloadCheckFlag1+0 
	CLRF        _OverloadCheckFlag2+0 
	MOVLW       ?ICS?lstr16_FirmV_0_7_0+0
	MOVWF       TBLPTRL 
	MOVLW       hi_addr(?ICS?lstr16_FirmV_0_7_0+0)
	MOVWF       TBLPTRH 
	MOVLW       higher_addr(?ICS?lstr16_FirmV_0_7_0+0)
	MOVWF       TBLPTRU 
	MOVLW       ?lstr16_FirmV_0_7_0+0
	MOVWF       FSR1L 
	MOVLW       hi_addr(?lstr16_FirmV_0_7_0+0)
	MOVWF       FSR1H 
	MOVLW       20
	MOVWF       R0 
	MOVLW       1
	MOVWF       R1 
	CALL        ___CC2DW+0, 0
	MOVLW       ?lstr16_FirmV_0_7_0+0
	MOVWF       FARG_Logger_text+0 
	MOVLW       hi_addr(?lstr16_FirmV_0_7_0+0)
	MOVWF       FARG_Logger_text+1 
	CALL        _Logger+0, 0
	MOVLW       9
	MOVWF       FARG_ClearTasks+0 
	CALL        _ClearTasks+0, 0
;FirmV_0_7_0.c,749 :: 		memcpy(LCDLine1,_stop,16);memcpy(LCDLine2,_ErrOverload,16);LCDUpdateFlag=1;LCDLines=2;}
	MOVLW       _LCDLine1+0
	MOVWF       FARG_memcpy_d1+0 
	MOVLW       hi_addr(_LCDLine1+0)
	MOVWF       FARG_memcpy_d1+1 
	MOVLW       __stop+0
	MOVWF       FARG_memcpy_s1+0 
	MOVLW       hi_addr(__stop+0)
	MOVWF       FARG_memcpy_s1+1 
	MOVLW       16
	MOVWF       FARG_memcpy_n+0 
	MOVLW       0
	MOVWF       FARG_memcpy_n+1 
	CALL        _memcpy+0, 0
	MOVLW       _LCDLine2+0
	MOVWF       FARG_memcpy_d1+0 
	MOVLW       hi_addr(_LCDLine2+0)
	MOVWF       FARG_memcpy_d1+1 
	MOVLW       __errOverload+0
	MOVWF       FARG_memcpy_s1+0 
	MOVLW       hi_addr(__errOverload+0)
	MOVWF       FARG_memcpy_s1+1 
	MOVLW       16
	MOVWF       FARG_memcpy_n+0 
	MOVLW       0
	MOVWF       FARG_memcpy_n+1 
	CALL        _memcpy+0, 0
	MOVLW       1
	MOVWF       _LCDUpdateFlag+0 
	MOVLW       2
	MOVWF       _LCDLines+0 
L_State3117:
;FirmV_0_7_0.c,751 :: 		if((OverloadCheckFlag2==1)&&(Events.Overload.b1==1)&&(M2isSlow==0))
	MOVF        _OverloadCheckFlag2+0, 0 
	XORLW       1
	BTFSS       STATUS+0, 2 
	GOTO        L_State3120
	BTFSS       _Events+5, 1 
	GOTO        L_State3120
	MOVF        _M2isSlow+0, 0 
	XORLW       0
	BTFSS       STATUS+0, 2 
	GOTO        L_State3120
L__State3670:
;FirmV_0_7_0.c,752 :: 		{StopMotor(1); StopMotor(2); State=5;OverloadCheckFlag1=0;OverloadCheckFlag2=0;Logger("S3 Motor2 Collision");ClearTasks(9);
	MOVLW       1
	MOVWF       FARG_StopMotor+0 
	CALL        _StopMotor+0, 0
	MOVLW       2
	MOVWF       FARG_StopMotor+0 
	CALL        _StopMotor+0, 0
	MOVLW       5
	MOVWF       _State+0 
	CLRF        _OverloadCheckFlag1+0 
	CLRF        _OverloadCheckFlag2+0 
	MOVLW       ?ICS?lstr17_FirmV_0_7_0+0
	MOVWF       TBLPTRL 
	MOVLW       hi_addr(?ICS?lstr17_FirmV_0_7_0+0)
	MOVWF       TBLPTRH 
	MOVLW       higher_addr(?ICS?lstr17_FirmV_0_7_0+0)
	MOVWF       TBLPTRU 
	MOVLW       ?lstr17_FirmV_0_7_0+0
	MOVWF       FSR1L 
	MOVLW       hi_addr(?lstr17_FirmV_0_7_0+0)
	MOVWF       FSR1H 
	MOVLW       20
	MOVWF       R0 
	MOVLW       1
	MOVWF       R1 
	CALL        ___CC2DW+0, 0
	MOVLW       ?lstr17_FirmV_0_7_0+0
	MOVWF       FARG_Logger_text+0 
	MOVLW       hi_addr(?lstr17_FirmV_0_7_0+0)
	MOVWF       FARG_Logger_text+1 
	CALL        _Logger+0, 0
	MOVLW       9
	MOVWF       FARG_ClearTasks+0 
	CALL        _ClearTasks+0, 0
;FirmV_0_7_0.c,753 :: 		memcpy(LCDLine1,_stop,16);memcpy(LCDLine2,_ErrOverload,16);LCDUpdateFlag=1;LCDLines=2;}
	MOVLW       _LCDLine1+0
	MOVWF       FARG_memcpy_d1+0 
	MOVLW       hi_addr(_LCDLine1+0)
	MOVWF       FARG_memcpy_d1+1 
	MOVLW       __stop+0
	MOVWF       FARG_memcpy_s1+0 
	MOVLW       hi_addr(__stop+0)
	MOVWF       FARG_memcpy_s1+1 
	MOVLW       16
	MOVWF       FARG_memcpy_n+0 
	MOVLW       0
	MOVWF       FARG_memcpy_n+1 
	CALL        _memcpy+0, 0
	MOVLW       _LCDLine2+0
	MOVWF       FARG_memcpy_d1+0 
	MOVLW       hi_addr(_LCDLine2+0)
	MOVWF       FARG_memcpy_d1+1 
	MOVLW       __errOverload+0
	MOVWF       FARG_memcpy_s1+0 
	MOVLW       hi_addr(__errOverload+0)
	MOVWF       FARG_memcpy_s1+1 
	MOVLW       16
	MOVWF       FARG_memcpy_n+0 
	MOVLW       0
	MOVWF       FARG_memcpy_n+1 
	CALL        _memcpy+0, 0
	MOVLW       1
	MOVWF       _LCDUpdateFlag+0 
	MOVLW       2
	MOVWF       _LCDLines+0 
L_State3120:
;FirmV_0_7_0.c,755 :: 		if((Door2OpenTime==0)||(ActiveDoors==1))
	MOVF        _Door2OpenTime+0, 0 
	XORLW       0
	BTFSC       STATUS+0, 2 
	GOTO        L__State3669
	MOVF        _ActiveDoors+0, 0 
	XORLW       1
	BTFSC       STATUS+0, 2 
	GOTO        L__State3669
	GOTO        L_State3123
L__State3669:
;FirmV_0_7_0.c,756 :: 		OpenDone.b1=0;
	BCF         _OpenDone+0, 1 
L_State3123:
;FirmV_0_7_0.c,758 :: 		if((Events.Photocell.b0==1)&&(OpenPhEnable))
	BTFSS       _Events+6, 0 
	GOTO        L_State3126
	MOVF        _OpenPhEnable+0, 1 
	BTFSC       STATUS+0, 2 
	GOTO        L_State3126
L__State3668:
;FirmV_0_7_0.c,759 :: 		{StopMotor(1); StopMotor(2);OverloadCheckFlag1=0;OverloadCheckFlag2=0; State=5;Logger("S3 Photocell Int");ClearTasks(9);
	MOVLW       1
	MOVWF       FARG_StopMotor+0 
	CALL        _StopMotor+0, 0
	MOVLW       2
	MOVWF       FARG_StopMotor+0 
	CALL        _StopMotor+0, 0
	CLRF        _OverloadCheckFlag1+0 
	CLRF        _OverloadCheckFlag2+0 
	MOVLW       5
	MOVWF       _State+0 
	MOVLW       ?ICS?lstr18_FirmV_0_7_0+0
	MOVWF       TBLPTRL 
	MOVLW       hi_addr(?ICS?lstr18_FirmV_0_7_0+0)
	MOVWF       TBLPTRH 
	MOVLW       higher_addr(?ICS?lstr18_FirmV_0_7_0+0)
	MOVWF       TBLPTRU 
	MOVLW       ?lstr18_FirmV_0_7_0+0
	MOVWF       FSR1L 
	MOVLW       hi_addr(?lstr18_FirmV_0_7_0+0)
	MOVWF       FSR1H 
	MOVLW       17
	MOVWF       R0 
	MOVLW       1
	MOVWF       R1 
	CALL        ___CC2DW+0, 0
	MOVLW       ?lstr18_FirmV_0_7_0+0
	MOVWF       FARG_Logger_text+0 
	MOVLW       hi_addr(?lstr18_FirmV_0_7_0+0)
	MOVWF       FARG_Logger_text+1 
	CALL        _Logger+0, 0
	MOVLW       9
	MOVWF       FARG_ClearTasks+0 
	CALL        _ClearTasks+0, 0
;FirmV_0_7_0.c,760 :: 		memcpy(LCDLine1,_stop,16);memcpy(LCDLine2,_ErrPhoto,16);LCDUpdateFlag=1;LCDLines=2;}
	MOVLW       _LCDLine1+0
	MOVWF       FARG_memcpy_d1+0 
	MOVLW       hi_addr(_LCDLine1+0)
	MOVWF       FARG_memcpy_d1+1 
	MOVLW       __stop+0
	MOVWF       FARG_memcpy_s1+0 
	MOVLW       hi_addr(__stop+0)
	MOVWF       FARG_memcpy_s1+1 
	MOVLW       16
	MOVWF       FARG_memcpy_n+0 
	MOVLW       0
	MOVWF       FARG_memcpy_n+1 
	CALL        _memcpy+0, 0
	MOVLW       _LCDLine2+0
	MOVWF       FARG_memcpy_d1+0 
	MOVLW       hi_addr(_LCDLine2+0)
	MOVWF       FARG_memcpy_d1+1 
	MOVLW       __errPhoto+0
	MOVWF       FARG_memcpy_s1+0 
	MOVLW       hi_addr(__errPhoto+0)
	MOVWF       FARG_memcpy_s1+1 
	MOVLW       16
	MOVWF       FARG_memcpy_n+0 
	MOVLW       0
	MOVWF       FARG_memcpy_n+1 
	CALL        _memcpy+0, 0
	MOVLW       1
	MOVWF       _LCDUpdateFlag+0 
	MOVLW       2
	MOVWF       _LCDLines+0 
L_State3126:
;FirmV_0_7_0.c,762 :: 		if(Events.Remote!=0)
	MOVF        _Events+4, 0 
	XORLW       0
	BTFSC       STATUS+0, 2 
	GOTO        L_State3127
;FirmV_0_7_0.c,763 :: 		{StopMotor(1); StopMotor(2);OverloadCheckFlag1=0;OverloadCheckFlag2=0; State=5;Logger("S3 Remote Stoped");ClearTasks(9);
	MOVLW       1
	MOVWF       FARG_StopMotor+0 
	CALL        _StopMotor+0, 0
	MOVLW       2
	MOVWF       FARG_StopMotor+0 
	CALL        _StopMotor+0, 0
	CLRF        _OverloadCheckFlag1+0 
	CLRF        _OverloadCheckFlag2+0 
	MOVLW       5
	MOVWF       _State+0 
	MOVLW       ?ICS?lstr19_FirmV_0_7_0+0
	MOVWF       TBLPTRL 
	MOVLW       hi_addr(?ICS?lstr19_FirmV_0_7_0+0)
	MOVWF       TBLPTRH 
	MOVLW       higher_addr(?ICS?lstr19_FirmV_0_7_0+0)
	MOVWF       TBLPTRU 
	MOVLW       ?lstr19_FirmV_0_7_0+0
	MOVWF       FSR1L 
	MOVLW       hi_addr(?lstr19_FirmV_0_7_0+0)
	MOVWF       FSR1H 
	MOVLW       17
	MOVWF       R0 
	MOVLW       1
	MOVWF       R1 
	CALL        ___CC2DW+0, 0
	MOVLW       ?lstr19_FirmV_0_7_0+0
	MOVWF       FARG_Logger_text+0 
	MOVLW       hi_addr(?lstr19_FirmV_0_7_0+0)
	MOVWF       FARG_Logger_text+1 
	CALL        _Logger+0, 0
	MOVLW       9
	MOVWF       FARG_ClearTasks+0 
	CALL        _ClearTasks+0, 0
;FirmV_0_7_0.c,764 :: 		memcpy(LCDLine1,_stop,16);memcpy(LCDLine2,_ErrRemote,16);LCDUpdateFlag=1;LCDLines=2;}
	MOVLW       _LCDLine1+0
	MOVWF       FARG_memcpy_d1+0 
	MOVLW       hi_addr(_LCDLine1+0)
	MOVWF       FARG_memcpy_d1+1 
	MOVLW       __stop+0
	MOVWF       FARG_memcpy_s1+0 
	MOVLW       hi_addr(__stop+0)
	MOVWF       FARG_memcpy_s1+1 
	MOVLW       16
	MOVWF       FARG_memcpy_n+0 
	MOVLW       0
	MOVWF       FARG_memcpy_n+1 
	CALL        _memcpy+0, 0
	MOVLW       _LCDLine2+0
	MOVWF       FARG_memcpy_d1+0 
	MOVLW       hi_addr(_LCDLine2+0)
	MOVWF       FARG_memcpy_d1+1 
	MOVLW       __errRemote+0
	MOVWF       FARG_memcpy_s1+0 
	MOVLW       hi_addr(__errRemote+0)
	MOVWF       FARG_memcpy_s1+1 
	MOVLW       16
	MOVWF       FARG_memcpy_n+0 
	MOVLW       0
	MOVWF       FARG_memcpy_n+1 
	CALL        _memcpy+0, 0
	MOVLW       1
	MOVWF       _LCDUpdateFlag+0 
	MOVLW       2
	MOVWF       _LCDLines+0 
L_State3127:
;FirmV_0_7_0.c,766 :: 		if((Events.Limiter==1)&&(LimiterEnable))
	MOVF        _Events+7, 0 
	XORLW       1
	BTFSS       STATUS+0, 2 
	GOTO        L_State3130
	MOVF        _LimiterEnable+0, 1 
	BTFSC       STATUS+0, 2 
	GOTO        L_State3130
L__State3667:
;FirmV_0_7_0.c,767 :: 		{StopMotor(1); StopMotor(2);OverloadCheckFlag1=0;OverloadCheckFlag2=0; State=5;Logger("S3 Limit Switch Stoped");ClearTasks(9);
	MOVLW       1
	MOVWF       FARG_StopMotor+0 
	CALL        _StopMotor+0, 0
	MOVLW       2
	MOVWF       FARG_StopMotor+0 
	CALL        _StopMotor+0, 0
	CLRF        _OverloadCheckFlag1+0 
	CLRF        _OverloadCheckFlag2+0 
	MOVLW       5
	MOVWF       _State+0 
	MOVLW       ?ICS?lstr20_FirmV_0_7_0+0
	MOVWF       TBLPTRL 
	MOVLW       hi_addr(?ICS?lstr20_FirmV_0_7_0+0)
	MOVWF       TBLPTRH 
	MOVLW       higher_addr(?ICS?lstr20_FirmV_0_7_0+0)
	MOVWF       TBLPTRU 
	MOVLW       ?lstr20_FirmV_0_7_0+0
	MOVWF       FSR1L 
	MOVLW       hi_addr(?lstr20_FirmV_0_7_0+0)
	MOVWF       FSR1H 
	MOVLW       23
	MOVWF       R0 
	MOVLW       1
	MOVWF       R1 
	CALL        ___CC2DW+0, 0
	MOVLW       ?lstr20_FirmV_0_7_0+0
	MOVWF       FARG_Logger_text+0 
	MOVLW       hi_addr(?lstr20_FirmV_0_7_0+0)
	MOVWF       FARG_Logger_text+1 
	CALL        _Logger+0, 0
	MOVLW       9
	MOVWF       FARG_ClearTasks+0 
	CALL        _ClearTasks+0, 0
;FirmV_0_7_0.c,768 :: 		memcpy(LCDLine1,_stop,16);memcpy(LCDLine2,_ErrLimit,16);LCDUpdateFlag=1;LCDLines=2;}
	MOVLW       _LCDLine1+0
	MOVWF       FARG_memcpy_d1+0 
	MOVLW       hi_addr(_LCDLine1+0)
	MOVWF       FARG_memcpy_d1+1 
	MOVLW       __stop+0
	MOVWF       FARG_memcpy_s1+0 
	MOVLW       hi_addr(__stop+0)
	MOVWF       FARG_memcpy_s1+1 
	MOVLW       16
	MOVWF       FARG_memcpy_n+0 
	MOVLW       0
	MOVWF       FARG_memcpy_n+1 
	CALL        _memcpy+0, 0
	MOVLW       _LCDLine2+0
	MOVWF       FARG_memcpy_d1+0 
	MOVLW       hi_addr(_LCDLine2+0)
	MOVWF       FARG_memcpy_d1+1 
	MOVLW       __errLimit+0
	MOVWF       FARG_memcpy_s1+0 
	MOVLW       hi_addr(__errLimit+0)
	MOVWF       FARG_memcpy_s1+1 
	MOVLW       16
	MOVWF       FARG_memcpy_n+0 
	MOVLW       0
	MOVWF       FARG_memcpy_n+1 
	CALL        _memcpy+0, 0
	MOVLW       1
	MOVWF       _LCDUpdateFlag+0 
	MOVLW       2
	MOVWF       _LCDLines+0 
L_State3130:
;FirmV_0_7_0.c,770 :: 		if(OpenDone==0)
	MOVF        _OpenDone+0, 0 
	XORLW       0
	BTFSS       STATUS+0, 2 
	GOTO        L_State3131
;FirmV_0_7_0.c,771 :: 		{State=2; PassFlag=0;ClearTasks(9);memcpy(LCDLine1,_open,16);memcpy(LCDLine2,_blank,16);LCDUpdateFlag=1;LCDLines=1;}
	MOVLW       2
	MOVWF       _State+0 
	CLRF        _PassFlag+0 
	MOVLW       9
	MOVWF       FARG_ClearTasks+0 
	CALL        _ClearTasks+0, 0
	MOVLW       _LCDLine1+0
	MOVWF       FARG_memcpy_d1+0 
	MOVLW       hi_addr(_LCDLine1+0)
	MOVWF       FARG_memcpy_d1+1 
	MOVLW       __open+0
	MOVWF       FARG_memcpy_s1+0 
	MOVLW       hi_addr(__open+0)
	MOVWF       FARG_memcpy_s1+1 
	MOVLW       16
	MOVWF       FARG_memcpy_n+0 
	MOVLW       0
	MOVWF       FARG_memcpy_n+1 
	CALL        _memcpy+0, 0
	MOVLW       _LCDLine2+0
	MOVWF       FARG_memcpy_d1+0 
	MOVLW       hi_addr(_LCDLine2+0)
	MOVWF       FARG_memcpy_d1+1 
	MOVLW       __Blank+0
	MOVWF       FARG_memcpy_s1+0 
	MOVLW       hi_addr(__Blank+0)
	MOVWF       FARG_memcpy_s1+1 
	MOVLW       16
	MOVWF       FARG_memcpy_n+0 
	MOVLW       0
	MOVWF       FARG_memcpy_n+1 
	CALL        _memcpy+0, 0
	MOVLW       1
	MOVWF       _LCDUpdateFlag+0 
	MOVLW       1
	MOVWF       _LCDLines+0 
L_State3131:
;FirmV_0_7_0.c,773 :: 		if((State==5)||(State==6))
	MOVF        _State+0, 0 
	XORLW       5
	BTFSC       STATUS+0, 2 
	GOTO        L__State3666
	MOVF        _State+0, 0 
	XORLW       6
	BTFSC       STATUS+0, 2 
	GOTO        L__State3666
	GOTO        L_State3134
L__State3666:
;FirmV_0_7_0.c,774 :: 		{ClearTasks(0);if(AutoCloseTime!=0){AddTask(ms500+AutoCloseTime,9);Logger("S3 Autoclose Renewed");memcpy(LCDLine2,_autoclose,16);LCDUpdateFlag=1;LCDLines=2;}}
	CLRF        FARG_ClearTasks+0 
	CALL        _ClearTasks+0, 0
	MOVLW       0
	XORWF       _AutoCloseTime+1, 0 
	BTFSS       STATUS+0, 2 
	GOTO        L__State3764
	MOVLW       0
	XORWF       _AutoCloseTime+0, 0 
L__State3764:
	BTFSC       STATUS+0, 2 
	GOTO        L_State3135
	MOVF        _AutoCloseTime+0, 0 
	ADDWF       _ms500+0, 0 
	MOVWF       FARG_AddTask+0 
	MOVF        _AutoCloseTime+1, 0 
	ADDWFC      _ms500+1, 0 
	MOVWF       FARG_AddTask+1 
	MOVLW       0
	ADDWFC      _ms500+2, 0 
	MOVWF       FARG_AddTask+2 
	MOVLW       0
	ADDWFC      _ms500+3, 0 
	MOVWF       FARG_AddTask+3 
	MOVLW       9
	MOVWF       FARG_AddTask+0 
	CALL        _AddTask+0, 0
	MOVLW       ?ICS?lstr21_FirmV_0_7_0+0
	MOVWF       TBLPTRL 
	MOVLW       hi_addr(?ICS?lstr21_FirmV_0_7_0+0)
	MOVWF       TBLPTRH 
	MOVLW       higher_addr(?ICS?lstr21_FirmV_0_7_0+0)
	MOVWF       TBLPTRU 
	MOVLW       ?lstr21_FirmV_0_7_0+0
	MOVWF       FSR1L 
	MOVLW       hi_addr(?lstr21_FirmV_0_7_0+0)
	MOVWF       FSR1H 
	MOVLW       21
	MOVWF       R0 
	MOVLW       1
	MOVWF       R1 
	CALL        ___CC2DW+0, 0
	MOVLW       ?lstr21_FirmV_0_7_0+0
	MOVWF       FARG_Logger_text+0 
	MOVLW       hi_addr(?lstr21_FirmV_0_7_0+0)
	MOVWF       FARG_Logger_text+1 
	CALL        _Logger+0, 0
	MOVLW       _LCDLine2+0
	MOVWF       FARG_memcpy_d1+0 
	MOVLW       hi_addr(_LCDLine2+0)
	MOVWF       FARG_memcpy_d1+1 
	MOVLW       __autoclose+0
	MOVWF       FARG_memcpy_s1+0 
	MOVLW       hi_addr(__autoclose+0)
	MOVWF       FARG_memcpy_s1+1 
	MOVLW       16
	MOVWF       FARG_memcpy_n+0 
	MOVLW       0
	MOVWF       FARG_memcpy_n+1 
	CALL        _memcpy+0, 0
	MOVLW       1
	MOVWF       _LCDUpdateFlag+0 
	MOVLW       2
	MOVWF       _LCDLines+0 
L_State3135:
L_State3134:
;FirmV_0_7_0.c,776 :: 		}
	RETURN      0
; end of _State3

_State4:

;FirmV_0_7_0.c,790 :: 		void State4()
;FirmV_0_7_0.c,792 :: 		Flasher=1;
	BSF         PORTD+0, 7 
;FirmV_0_7_0.c,794 :: 		bytetostr(Events.Task1,LCDLine1);
	MOVF        _Events+1, 0 
	MOVWF       FARG_ByteToStr_input+0 
	MOVLW       _LCDLine1+0
	MOVWF       FARG_ByteToStr_output+0 
	MOVLW       hi_addr(_LCDLine1+0)
	MOVWF       FARG_ByteToStr_output+1 
	CALL        _ByteToStr+0, 0
;FirmV_0_7_0.c,795 :: 		bytetostr(Events.Task2,LCDLine2);
	MOVF        _Events+2, 0 
	MOVWF       FARG_ByteToStr_input+0 
	MOVLW       _LCDLine2+0
	MOVWF       FARG_ByteToStr_output+0 
	MOVLW       hi_addr(_LCDLine2+0)
	MOVWF       FARG_ByteToStr_output+1 
	CALL        _ByteToStr+0, 0
;FirmV_0_7_0.c,796 :: 		LCDUpdateFlag=1;
	MOVLW       1
	MOVWF       _LCDUpdateFlag+0 
;FirmV_0_7_0.c,798 :: 		if(CheckTask(1))
	MOVLW       1
	MOVWF       FARG_CheckTask+0 
	CALL        _CheckTask+0, 0
	MOVF        R0, 1 
	BTFSC       STATUS+0, 2 
	GOTO        L_State4136
;FirmV_0_7_0.c,799 :: 		{StartMotor(1,_Close);Logger("S4 Motor1Start");memcpy(LCDLine1,_closing,16);memcpy(LCDLine2,_Blank,16);LCDUpdateFlag=1;LCDLines=1;}
	MOVLW       1
	MOVWF       FARG_StartMotor+0 
	CLRF        FARG_StartMotor+0 
	CALL        _StartMotor+0, 0
	MOVLW       83
	MOVWF       ?lstr22_FirmV_0_7_0+0 
	MOVLW       52
	MOVWF       ?lstr22_FirmV_0_7_0+1 
	MOVLW       32
	MOVWF       ?lstr22_FirmV_0_7_0+2 
	MOVLW       77
	MOVWF       ?lstr22_FirmV_0_7_0+3 
	MOVLW       111
	MOVWF       ?lstr22_FirmV_0_7_0+4 
	MOVLW       116
	MOVWF       ?lstr22_FirmV_0_7_0+5 
	MOVLW       111
	MOVWF       ?lstr22_FirmV_0_7_0+6 
	MOVLW       114
	MOVWF       ?lstr22_FirmV_0_7_0+7 
	MOVLW       49
	MOVWF       ?lstr22_FirmV_0_7_0+8 
	MOVLW       83
	MOVWF       ?lstr22_FirmV_0_7_0+9 
	MOVLW       116
	MOVWF       ?lstr22_FirmV_0_7_0+10 
	MOVLW       97
	MOVWF       ?lstr22_FirmV_0_7_0+11 
	MOVLW       114
	MOVWF       ?lstr22_FirmV_0_7_0+12 
	MOVLW       116
	MOVWF       ?lstr22_FirmV_0_7_0+13 
	CLRF        ?lstr22_FirmV_0_7_0+14 
	MOVLW       ?lstr22_FirmV_0_7_0+0
	MOVWF       FARG_Logger_text+0 
	MOVLW       hi_addr(?lstr22_FirmV_0_7_0+0)
	MOVWF       FARG_Logger_text+1 
	CALL        _Logger+0, 0
	MOVLW       _LCDLine1+0
	MOVWF       FARG_memcpy_d1+0 
	MOVLW       hi_addr(_LCDLine1+0)
	MOVWF       FARG_memcpy_d1+1 
	MOVLW       __closing+0
	MOVWF       FARG_memcpy_s1+0 
	MOVLW       hi_addr(__closing+0)
	MOVWF       FARG_memcpy_s1+1 
	MOVLW       16
	MOVWF       FARG_memcpy_n+0 
	MOVLW       0
	MOVWF       FARG_memcpy_n+1 
	CALL        _memcpy+0, 0
	MOVLW       _LCDLine2+0
	MOVWF       FARG_memcpy_d1+0 
	MOVLW       hi_addr(_LCDLine2+0)
	MOVWF       FARG_memcpy_d1+1 
	MOVLW       __Blank+0
	MOVWF       FARG_memcpy_s1+0 
	MOVLW       hi_addr(__Blank+0)
	MOVWF       FARG_memcpy_s1+1 
	MOVLW       16
	MOVWF       FARG_memcpy_n+0 
	MOVLW       0
	MOVWF       FARG_memcpy_n+1 
	CALL        _memcpy+0, 0
	MOVLW       1
	MOVWF       _LCDUpdateFlag+0 
	MOVLW       1
	MOVWF       _LCDLines+0 
L_State4136:
;FirmV_0_7_0.c,801 :: 		if(CheckTask(2))
	MOVLW       2
	MOVWF       FARG_CheckTask+0 
	CALL        _CheckTask+0, 0
	MOVF        R0, 1 
	BTFSC       STATUS+0, 2 
	GOTO        L_State4137
;FirmV_0_7_0.c,802 :: 		{StartMotor(2,_Close);Logger("S4 Motor2Start");}
	MOVLW       2
	MOVWF       FARG_StartMotor+0 
	CLRF        FARG_StartMotor+0 
	CALL        _StartMotor+0, 0
	MOVLW       83
	MOVWF       ?lstr23_FirmV_0_7_0+0 
	MOVLW       52
	MOVWF       ?lstr23_FirmV_0_7_0+1 
	MOVLW       32
	MOVWF       ?lstr23_FirmV_0_7_0+2 
	MOVLW       77
	MOVWF       ?lstr23_FirmV_0_7_0+3 
	MOVLW       111
	MOVWF       ?lstr23_FirmV_0_7_0+4 
	MOVLW       116
	MOVWF       ?lstr23_FirmV_0_7_0+5 
	MOVLW       111
	MOVWF       ?lstr23_FirmV_0_7_0+6 
	MOVLW       114
	MOVWF       ?lstr23_FirmV_0_7_0+7 
	MOVLW       50
	MOVWF       ?lstr23_FirmV_0_7_0+8 
	MOVLW       83
	MOVWF       ?lstr23_FirmV_0_7_0+9 
	MOVLW       116
	MOVWF       ?lstr23_FirmV_0_7_0+10 
	MOVLW       97
	MOVWF       ?lstr23_FirmV_0_7_0+11 
	MOVLW       114
	MOVWF       ?lstr23_FirmV_0_7_0+12 
	MOVLW       116
	MOVWF       ?lstr23_FirmV_0_7_0+13 
	CLRF        ?lstr23_FirmV_0_7_0+14 
	MOVLW       ?lstr23_FirmV_0_7_0+0
	MOVWF       FARG_Logger_text+0 
	MOVLW       hi_addr(?lstr23_FirmV_0_7_0+0)
	MOVWF       FARG_Logger_text+1 
	CALL        _Logger+0, 0
L_State4137:
;FirmV_0_7_0.c,804 :: 		if(CheckTask(10))
	MOVLW       10
	MOVWF       FARG_CheckTask+0 
	CALL        _CheckTask+0, 0
	MOVF        R0, 1 
	BTFSC       STATUS+0, 2 
	GOTO        L_State4138
;FirmV_0_7_0.c,805 :: 		{OverloadCheckFlag1=1; OverloadInit(1);Logger("S4 M1 Overload Check");}
	MOVLW       1
	MOVWF       _OverloadCheckFlag1+0 
	MOVLW       1
	MOVWF       FARG_OverloadInit+0 
	CALL        _OverloadInit+0, 0
	MOVLW       ?ICS?lstr24_FirmV_0_7_0+0
	MOVWF       TBLPTRL 
	MOVLW       hi_addr(?ICS?lstr24_FirmV_0_7_0+0)
	MOVWF       TBLPTRH 
	MOVLW       higher_addr(?ICS?lstr24_FirmV_0_7_0+0)
	MOVWF       TBLPTRU 
	MOVLW       ?lstr24_FirmV_0_7_0+0
	MOVWF       FSR1L 
	MOVLW       hi_addr(?lstr24_FirmV_0_7_0+0)
	MOVWF       FSR1H 
	MOVLW       21
	MOVWF       R0 
	MOVLW       1
	MOVWF       R1 
	CALL        ___CC2DW+0, 0
	MOVLW       ?lstr24_FirmV_0_7_0+0
	MOVWF       FARG_Logger_text+0 
	MOVLW       hi_addr(?lstr24_FirmV_0_7_0+0)
	MOVWF       FARG_Logger_text+1 
	CALL        _Logger+0, 0
L_State4138:
;FirmV_0_7_0.c,807 :: 		if(CheckTask(11))
	MOVLW       11
	MOVWF       FARG_CheckTask+0 
	CALL        _CheckTask+0, 0
	MOVF        R0, 1 
	BTFSC       STATUS+0, 2 
	GOTO        L_State4139
;FirmV_0_7_0.c,808 :: 		{OverloadCheckFlag2=1; OverloadInit(2);Logger("S4 M2 Overload Check");}
	MOVLW       1
	MOVWF       _OverloadCheckFlag2+0 
	MOVLW       2
	MOVWF       FARG_OverloadInit+0 
	CALL        _OverloadInit+0, 0
	MOVLW       ?ICS?lstr25_FirmV_0_7_0+0
	MOVWF       TBLPTRL 
	MOVLW       hi_addr(?ICS?lstr25_FirmV_0_7_0+0)
	MOVWF       TBLPTRH 
	MOVLW       higher_addr(?ICS?lstr25_FirmV_0_7_0+0)
	MOVWF       TBLPTRU 
	MOVLW       ?lstr25_FirmV_0_7_0+0
	MOVWF       FSR1L 
	MOVLW       hi_addr(?lstr25_FirmV_0_7_0+0)
	MOVWF       FSR1H 
	MOVLW       21
	MOVWF       R0 
	MOVLW       1
	MOVWF       R1 
	CALL        ___CC2DW+0, 0
	MOVLW       ?lstr25_FirmV_0_7_0+0
	MOVWF       FARG_Logger_text+0 
	MOVLW       hi_addr(?lstr25_FirmV_0_7_0+0)
	MOVWF       FARG_Logger_text+1 
	CALL        _Logger+0, 0
L_State4139:
;FirmV_0_7_0.c,810 :: 		if(CheckTask(5))
	MOVLW       5
	MOVWF       FARG_CheckTask+0 
	CALL        _CheckTask+0, 0
	MOVF        R0, 1 
	BTFSC       STATUS+0, 2 
	GOTO        L_State4140
;FirmV_0_7_0.c,811 :: 		{SetMotorSpeed(1,Motor2FullSpeed); OverloadCheckFlag1=0; M1isSlow=0;Logger("S4 M1 Speed UP");}
	MOVLW       1
	MOVWF       FARG_SetMotorSpeed+0 
	MOVF        _Motor2FullSpeed+0, 0 
	MOVWF       FARG_SetMotorSpeed+0 
	CALL        _SetMotorSpeed+0, 0
	CLRF        _OverloadCheckFlag1+0 
	CLRF        _M1isSlow+0 
	MOVLW       83
	MOVWF       ?lstr26_FirmV_0_7_0+0 
	MOVLW       52
	MOVWF       ?lstr26_FirmV_0_7_0+1 
	MOVLW       32
	MOVWF       ?lstr26_FirmV_0_7_0+2 
	MOVLW       77
	MOVWF       ?lstr26_FirmV_0_7_0+3 
	MOVLW       49
	MOVWF       ?lstr26_FirmV_0_7_0+4 
	MOVLW       32
	MOVWF       ?lstr26_FirmV_0_7_0+5 
	MOVLW       83
	MOVWF       ?lstr26_FirmV_0_7_0+6 
	MOVLW       112
	MOVWF       ?lstr26_FirmV_0_7_0+7 
	MOVLW       101
	MOVWF       ?lstr26_FirmV_0_7_0+8 
	MOVLW       101
	MOVWF       ?lstr26_FirmV_0_7_0+9 
	MOVLW       100
	MOVWF       ?lstr26_FirmV_0_7_0+10 
	MOVLW       32
	MOVWF       ?lstr26_FirmV_0_7_0+11 
	MOVLW       85
	MOVWF       ?lstr26_FirmV_0_7_0+12 
	MOVLW       80
	MOVWF       ?lstr26_FirmV_0_7_0+13 
	CLRF        ?lstr26_FirmV_0_7_0+14 
	MOVLW       ?lstr26_FirmV_0_7_0+0
	MOVWF       FARG_Logger_text+0 
	MOVLW       hi_addr(?lstr26_FirmV_0_7_0+0)
	MOVWF       FARG_Logger_text+1 
	CALL        _Logger+0, 0
L_State4140:
;FirmV_0_7_0.c,813 :: 		if(CheckTask(7))
	MOVLW       7
	MOVWF       FARG_CheckTask+0 
	CALL        _CheckTask+0, 0
	MOVF        R0, 1 
	BTFSC       STATUS+0, 2 
	GOTO        L_State4141
;FirmV_0_7_0.c,814 :: 		{SetMotorSpeed(0,Motor2FullSpeed); OverloadCheckFlag2=0; M1isSlow=1;Logger("S4 M1 Speed Down");}
	CLRF        FARG_SetMotorSpeed+0 
	MOVF        _Motor2FullSpeed+0, 0 
	MOVWF       FARG_SetMotorSpeed+0 
	CALL        _SetMotorSpeed+0, 0
	CLRF        _OverloadCheckFlag2+0 
	MOVLW       1
	MOVWF       _M1isSlow+0 
	MOVLW       ?ICS?lstr27_FirmV_0_7_0+0
	MOVWF       TBLPTRL 
	MOVLW       hi_addr(?ICS?lstr27_FirmV_0_7_0+0)
	MOVWF       TBLPTRH 
	MOVLW       higher_addr(?ICS?lstr27_FirmV_0_7_0+0)
	MOVWF       TBLPTRU 
	MOVLW       ?lstr27_FirmV_0_7_0+0
	MOVWF       FSR1L 
	MOVLW       hi_addr(?lstr27_FirmV_0_7_0+0)
	MOVWF       FSR1H 
	MOVLW       17
	MOVWF       R0 
	MOVLW       1
	MOVWF       R1 
	CALL        ___CC2DW+0, 0
	MOVLW       ?lstr27_FirmV_0_7_0+0
	MOVWF       FARG_Logger_text+0 
	MOVLW       hi_addr(?lstr27_FirmV_0_7_0+0)
	MOVWF       FARG_Logger_text+1 
	CALL        _Logger+0, 0
L_State4141:
;FirmV_0_7_0.c,816 :: 		if(CheckTask(6))
	MOVLW       6
	MOVWF       FARG_CheckTask+0 
	CALL        _CheckTask+0, 0
	MOVF        R0, 1 
	BTFSC       STATUS+0, 2 
	GOTO        L_State4142
;FirmV_0_7_0.c,817 :: 		{SetMotorSpeed(Motor1FullSpeed,1); M2isSlow=0;Logger("S4 M2 Speed UP");}
	MOVF        _Motor1FullSpeed+0, 0 
	MOVWF       FARG_SetMotorSpeed+0 
	MOVLW       1
	MOVWF       FARG_SetMotorSpeed+0 
	CALL        _SetMotorSpeed+0, 0
	CLRF        _M2isSlow+0 
	MOVLW       83
	MOVWF       ?lstr28_FirmV_0_7_0+0 
	MOVLW       52
	MOVWF       ?lstr28_FirmV_0_7_0+1 
	MOVLW       32
	MOVWF       ?lstr28_FirmV_0_7_0+2 
	MOVLW       77
	MOVWF       ?lstr28_FirmV_0_7_0+3 
	MOVLW       50
	MOVWF       ?lstr28_FirmV_0_7_0+4 
	MOVLW       32
	MOVWF       ?lstr28_FirmV_0_7_0+5 
	MOVLW       83
	MOVWF       ?lstr28_FirmV_0_7_0+6 
	MOVLW       112
	MOVWF       ?lstr28_FirmV_0_7_0+7 
	MOVLW       101
	MOVWF       ?lstr28_FirmV_0_7_0+8 
	MOVLW       101
	MOVWF       ?lstr28_FirmV_0_7_0+9 
	MOVLW       100
	MOVWF       ?lstr28_FirmV_0_7_0+10 
	MOVLW       32
	MOVWF       ?lstr28_FirmV_0_7_0+11 
	MOVLW       85
	MOVWF       ?lstr28_FirmV_0_7_0+12 
	MOVLW       80
	MOVWF       ?lstr28_FirmV_0_7_0+13 
	CLRF        ?lstr28_FirmV_0_7_0+14 
	MOVLW       ?lstr28_FirmV_0_7_0+0
	MOVWF       FARG_Logger_text+0 
	MOVLW       hi_addr(?lstr28_FirmV_0_7_0+0)
	MOVWF       FARG_Logger_text+1 
	CALL        _Logger+0, 0
L_State4142:
;FirmV_0_7_0.c,819 :: 		if(CheckTask(8))
	MOVLW       8
	MOVWF       FARG_CheckTask+0 
	CALL        _CheckTask+0, 0
	MOVF        R0, 1 
	BTFSC       STATUS+0, 2 
	GOTO        L_State4143
;FirmV_0_7_0.c,820 :: 		{SetMotorSpeed(Motor1FullSpeed,0); M2isSlow=1;Logger("S4 M2 Speed Down");}
	MOVF        _Motor1FullSpeed+0, 0 
	MOVWF       FARG_SetMotorSpeed+0 
	CLRF        FARG_SetMotorSpeed+0 
	CALL        _SetMotorSpeed+0, 0
	MOVLW       1
	MOVWF       _M2isSlow+0 
	MOVLW       ?ICS?lstr29_FirmV_0_7_0+0
	MOVWF       TBLPTRL 
	MOVLW       hi_addr(?ICS?lstr29_FirmV_0_7_0+0)
	MOVWF       TBLPTRH 
	MOVLW       higher_addr(?ICS?lstr29_FirmV_0_7_0+0)
	MOVWF       TBLPTRU 
	MOVLW       ?lstr29_FirmV_0_7_0+0
	MOVWF       FSR1L 
	MOVLW       hi_addr(?lstr29_FirmV_0_7_0+0)
	MOVWF       FSR1H 
	MOVLW       17
	MOVWF       R0 
	MOVLW       1
	MOVWF       R1 
	CALL        ___CC2DW+0, 0
	MOVLW       ?lstr29_FirmV_0_7_0+0
	MOVWF       FARG_Logger_text+0 
	MOVLW       hi_addr(?lstr29_FirmV_0_7_0+0)
	MOVWF       FARG_Logger_text+1 
	CALL        _Logger+0, 0
L_State4143:
;FirmV_0_7_0.c,822 :: 		if(CheckTask(3))
	MOVLW       3
	MOVWF       FARG_CheckTask+0 
	CALL        _CheckTask+0, 0
	MOVF        R0, 1 
	BTFSC       STATUS+0, 2 
	GOTO        L_State4144
;FirmV_0_7_0.c,823 :: 		{CloseDone.b0=0; StopMotor(1);Logger("S4 M1 Stoped");}
	BCF         _CloseDone+0, 0 
	MOVLW       1
	MOVWF       FARG_StopMotor+0 
	CALL        _StopMotor+0, 0
	MOVLW       83
	MOVWF       ?lstr30_FirmV_0_7_0+0 
	MOVLW       52
	MOVWF       ?lstr30_FirmV_0_7_0+1 
	MOVLW       32
	MOVWF       ?lstr30_FirmV_0_7_0+2 
	MOVLW       77
	MOVWF       ?lstr30_FirmV_0_7_0+3 
	MOVLW       49
	MOVWF       ?lstr30_FirmV_0_7_0+4 
	MOVLW       32
	MOVWF       ?lstr30_FirmV_0_7_0+5 
	MOVLW       83
	MOVWF       ?lstr30_FirmV_0_7_0+6 
	MOVLW       116
	MOVWF       ?lstr30_FirmV_0_7_0+7 
	MOVLW       111
	MOVWF       ?lstr30_FirmV_0_7_0+8 
	MOVLW       112
	MOVWF       ?lstr30_FirmV_0_7_0+9 
	MOVLW       101
	MOVWF       ?lstr30_FirmV_0_7_0+10 
	MOVLW       100
	MOVWF       ?lstr30_FirmV_0_7_0+11 
	CLRF        ?lstr30_FirmV_0_7_0+12 
	MOVLW       ?lstr30_FirmV_0_7_0+0
	MOVWF       FARG_Logger_text+0 
	MOVLW       hi_addr(?lstr30_FirmV_0_7_0+0)
	MOVWF       FARG_Logger_text+1 
	CALL        _Logger+0, 0
L_State4144:
;FirmV_0_7_0.c,825 :: 		if(CheckTask(4))
	MOVLW       4
	MOVWF       FARG_CheckTask+0 
	CALL        _CheckTask+0, 0
	MOVF        R0, 1 
	BTFSC       STATUS+0, 2 
	GOTO        L_State4145
;FirmV_0_7_0.c,826 :: 		{CloseDone.b1=0; StopMotor(2);Logger("S4 M2 Stoped");}
	BCF         _CloseDone+0, 1 
	MOVLW       2
	MOVWF       FARG_StopMotor+0 
	CALL        _StopMotor+0, 0
	MOVLW       83
	MOVWF       ?lstr31_FirmV_0_7_0+0 
	MOVLW       52
	MOVWF       ?lstr31_FirmV_0_7_0+1 
	MOVLW       32
	MOVWF       ?lstr31_FirmV_0_7_0+2 
	MOVLW       77
	MOVWF       ?lstr31_FirmV_0_7_0+3 
	MOVLW       50
	MOVWF       ?lstr31_FirmV_0_7_0+4 
	MOVLW       32
	MOVWF       ?lstr31_FirmV_0_7_0+5 
	MOVLW       83
	MOVWF       ?lstr31_FirmV_0_7_0+6 
	MOVLW       116
	MOVWF       ?lstr31_FirmV_0_7_0+7 
	MOVLW       111
	MOVWF       ?lstr31_FirmV_0_7_0+8 
	MOVLW       112
	MOVWF       ?lstr31_FirmV_0_7_0+9 
	MOVLW       101
	MOVWF       ?lstr31_FirmV_0_7_0+10 
	MOVLW       100
	MOVWF       ?lstr31_FirmV_0_7_0+11 
	CLRF        ?lstr31_FirmV_0_7_0+12 
	MOVLW       ?lstr31_FirmV_0_7_0+0
	MOVWF       FARG_Logger_text+0 
	MOVLW       hi_addr(?lstr31_FirmV_0_7_0+0)
	MOVWF       FARG_Logger_text+1 
	CALL        _Logger+0, 0
L_State4145:
;FirmV_0_7_0.c,828 :: 		if((OverloadCheckFlag1==1)&&(Events.Overload.b0==1)&&(M1isSlow==0))
	MOVF        _OverloadCheckFlag1+0, 0 
	XORLW       1
	BTFSS       STATUS+0, 2 
	GOTO        L_State4148
	BTFSS       _Events+5, 0 
	GOTO        L_State4148
	MOVF        _M1isSlow+0, 0 
	XORLW       0
	BTFSS       STATUS+0, 2 
	GOTO        L_State4148
L__State4676:
;FirmV_0_7_0.c,829 :: 		{StopMotor(1); StopMotor(2); State=6;OverloadCheckFlag1=0;OverloadCheckFlag2=0;Logger("S4 M1 Overloaded");ClearTasks(9);
	MOVLW       1
	MOVWF       FARG_StopMotor+0 
	CALL        _StopMotor+0, 0
	MOVLW       2
	MOVWF       FARG_StopMotor+0 
	CALL        _StopMotor+0, 0
	MOVLW       6
	MOVWF       _State+0 
	CLRF        _OverloadCheckFlag1+0 
	CLRF        _OverloadCheckFlag2+0 
	MOVLW       ?ICS?lstr32_FirmV_0_7_0+0
	MOVWF       TBLPTRL 
	MOVLW       hi_addr(?ICS?lstr32_FirmV_0_7_0+0)
	MOVWF       TBLPTRH 
	MOVLW       higher_addr(?ICS?lstr32_FirmV_0_7_0+0)
	MOVWF       TBLPTRU 
	MOVLW       ?lstr32_FirmV_0_7_0+0
	MOVWF       FSR1L 
	MOVLW       hi_addr(?lstr32_FirmV_0_7_0+0)
	MOVWF       FSR1H 
	MOVLW       17
	MOVWF       R0 
	MOVLW       1
	MOVWF       R1 
	CALL        ___CC2DW+0, 0
	MOVLW       ?lstr32_FirmV_0_7_0+0
	MOVWF       FARG_Logger_text+0 
	MOVLW       hi_addr(?lstr32_FirmV_0_7_0+0)
	MOVWF       FARG_Logger_text+1 
	CALL        _Logger+0, 0
	MOVLW       9
	MOVWF       FARG_ClearTasks+0 
	CALL        _ClearTasks+0, 0
;FirmV_0_7_0.c,830 :: 		memcpy(LCDLine1,_stop,16);memcpy(LCDLine2,_ErrOverload,16);LCDUpdateFlag=1;LCDLines=2;}
	MOVLW       _LCDLine1+0
	MOVWF       FARG_memcpy_d1+0 
	MOVLW       hi_addr(_LCDLine1+0)
	MOVWF       FARG_memcpy_d1+1 
	MOVLW       __stop+0
	MOVWF       FARG_memcpy_s1+0 
	MOVLW       hi_addr(__stop+0)
	MOVWF       FARG_memcpy_s1+1 
	MOVLW       16
	MOVWF       FARG_memcpy_n+0 
	MOVLW       0
	MOVWF       FARG_memcpy_n+1 
	CALL        _memcpy+0, 0
	MOVLW       _LCDLine2+0
	MOVWF       FARG_memcpy_d1+0 
	MOVLW       hi_addr(_LCDLine2+0)
	MOVWF       FARG_memcpy_d1+1 
	MOVLW       __errOverload+0
	MOVWF       FARG_memcpy_s1+0 
	MOVLW       hi_addr(__errOverload+0)
	MOVWF       FARG_memcpy_s1+1 
	MOVLW       16
	MOVWF       FARG_memcpy_n+0 
	MOVLW       0
	MOVWF       FARG_memcpy_n+1 
	CALL        _memcpy+0, 0
	MOVLW       1
	MOVWF       _LCDUpdateFlag+0 
	MOVLW       2
	MOVWF       _LCDLines+0 
L_State4148:
;FirmV_0_7_0.c,832 :: 		if((OverloadCheckFlag2==1)&&(Events.Overload.b1==1)&&(M2isSlow==0))
	MOVF        _OverloadCheckFlag2+0, 0 
	XORLW       1
	BTFSS       STATUS+0, 2 
	GOTO        L_State4151
	BTFSS       _Events+5, 1 
	GOTO        L_State4151
	MOVF        _M2isSlow+0, 0 
	XORLW       0
	BTFSS       STATUS+0, 2 
	GOTO        L_State4151
L__State4675:
;FirmV_0_7_0.c,833 :: 		{StopMotor(1); StopMotor(2); State=6;OverloadCheckFlag1=0;OverloadCheckFlag2=0;Logger("S4 M2 Overloaded");ClearTasks(9);
	MOVLW       1
	MOVWF       FARG_StopMotor+0 
	CALL        _StopMotor+0, 0
	MOVLW       2
	MOVWF       FARG_StopMotor+0 
	CALL        _StopMotor+0, 0
	MOVLW       6
	MOVWF       _State+0 
	CLRF        _OverloadCheckFlag1+0 
	CLRF        _OverloadCheckFlag2+0 
	MOVLW       ?ICS?lstr33_FirmV_0_7_0+0
	MOVWF       TBLPTRL 
	MOVLW       hi_addr(?ICS?lstr33_FirmV_0_7_0+0)
	MOVWF       TBLPTRH 
	MOVLW       higher_addr(?ICS?lstr33_FirmV_0_7_0+0)
	MOVWF       TBLPTRU 
	MOVLW       ?lstr33_FirmV_0_7_0+0
	MOVWF       FSR1L 
	MOVLW       hi_addr(?lstr33_FirmV_0_7_0+0)
	MOVWF       FSR1H 
	MOVLW       17
	MOVWF       R0 
	MOVLW       1
	MOVWF       R1 
	CALL        ___CC2DW+0, 0
	MOVLW       ?lstr33_FirmV_0_7_0+0
	MOVWF       FARG_Logger_text+0 
	MOVLW       hi_addr(?lstr33_FirmV_0_7_0+0)
	MOVWF       FARG_Logger_text+1 
	CALL        _Logger+0, 0
	MOVLW       9
	MOVWF       FARG_ClearTasks+0 
	CALL        _ClearTasks+0, 0
;FirmV_0_7_0.c,834 :: 		memcpy(LCDLine1,_stop,16);memcpy(LCDLine2,_ErrOverload,16);LCDUpdateFlag=1;LCDLines=2;}
	MOVLW       _LCDLine1+0
	MOVWF       FARG_memcpy_d1+0 
	MOVLW       hi_addr(_LCDLine1+0)
	MOVWF       FARG_memcpy_d1+1 
	MOVLW       __stop+0
	MOVWF       FARG_memcpy_s1+0 
	MOVLW       hi_addr(__stop+0)
	MOVWF       FARG_memcpy_s1+1 
	MOVLW       16
	MOVWF       FARG_memcpy_n+0 
	MOVLW       0
	MOVWF       FARG_memcpy_n+1 
	CALL        _memcpy+0, 0
	MOVLW       _LCDLine2+0
	MOVWF       FARG_memcpy_d1+0 
	MOVLW       hi_addr(_LCDLine2+0)
	MOVWF       FARG_memcpy_d1+1 
	MOVLW       __errOverload+0
	MOVWF       FARG_memcpy_s1+0 
	MOVLW       hi_addr(__errOverload+0)
	MOVWF       FARG_memcpy_s1+1 
	MOVLW       16
	MOVWF       FARG_memcpy_n+0 
	MOVLW       0
	MOVWF       FARG_memcpy_n+1 
	CALL        _memcpy+0, 0
	MOVLW       1
	MOVWF       _LCDUpdateFlag+0 
	MOVLW       2
	MOVWF       _LCDLines+0 
L_State4151:
;FirmV_0_7_0.c,836 :: 		if((Door2OpenTime==0)||(ActiveDoors==1))
	MOVF        _Door2OpenTime+0, 0 
	XORLW       0
	BTFSC       STATUS+0, 2 
	GOTO        L__State4674
	MOVF        _ActiveDoors+0, 0 
	XORLW       1
	BTFSC       STATUS+0, 2 
	GOTO        L__State4674
	GOTO        L_State4154
L__State4674:
;FirmV_0_7_0.c,837 :: 		CloseDone.b1=0;
	BCF         _CloseDone+0, 1 
L_State4154:
;FirmV_0_7_0.c,839 :: 		if((Events.Photocell.b0==1))
	BTFSS       _Events+6, 0 
	GOTO        L_State4155
;FirmV_0_7_0.c,840 :: 		{StopMotor(1); StopMotor(2); OverloadCheckFlag1=0;OverloadCheckFlag2=0;State=6;PhotocellOpenFlag=1;Logger("S4 Photocell Int");ClearTasks(9);
	MOVLW       1
	MOVWF       FARG_StopMotor+0 
	CALL        _StopMotor+0, 0
	MOVLW       2
	MOVWF       FARG_StopMotor+0 
	CALL        _StopMotor+0, 0
	CLRF        _OverloadCheckFlag1+0 
	CLRF        _OverloadCheckFlag2+0 
	MOVLW       6
	MOVWF       _State+0 
	MOVLW       1
	MOVWF       _PhotocellOpenFlag+0 
	MOVLW       ?ICS?lstr34_FirmV_0_7_0+0
	MOVWF       TBLPTRL 
	MOVLW       hi_addr(?ICS?lstr34_FirmV_0_7_0+0)
	MOVWF       TBLPTRH 
	MOVLW       higher_addr(?ICS?lstr34_FirmV_0_7_0+0)
	MOVWF       TBLPTRU 
	MOVLW       ?lstr34_FirmV_0_7_0+0
	MOVWF       FSR1L 
	MOVLW       hi_addr(?lstr34_FirmV_0_7_0+0)
	MOVWF       FSR1H 
	MOVLW       17
	MOVWF       R0 
	MOVLW       1
	MOVWF       R1 
	CALL        ___CC2DW+0, 0
	MOVLW       ?lstr34_FirmV_0_7_0+0
	MOVWF       FARG_Logger_text+0 
	MOVLW       hi_addr(?lstr34_FirmV_0_7_0+0)
	MOVWF       FARG_Logger_text+1 
	CALL        _Logger+0, 0
	MOVLW       9
	MOVWF       FARG_ClearTasks+0 
	CALL        _ClearTasks+0, 0
;FirmV_0_7_0.c,841 :: 		memcpy(LCDLine1,_stop,16);memcpy(LCDLine2,_ErrPhoto,16);LCDUpdateFlag=1;LCDLines=2;}
	MOVLW       _LCDLine1+0
	MOVWF       FARG_memcpy_d1+0 
	MOVLW       hi_addr(_LCDLine1+0)
	MOVWF       FARG_memcpy_d1+1 
	MOVLW       __stop+0
	MOVWF       FARG_memcpy_s1+0 
	MOVLW       hi_addr(__stop+0)
	MOVWF       FARG_memcpy_s1+1 
	MOVLW       16
	MOVWF       FARG_memcpy_n+0 
	MOVLW       0
	MOVWF       FARG_memcpy_n+1 
	CALL        _memcpy+0, 0
	MOVLW       _LCDLine2+0
	MOVWF       FARG_memcpy_d1+0 
	MOVLW       hi_addr(_LCDLine2+0)
	MOVWF       FARG_memcpy_d1+1 
	MOVLW       __errPhoto+0
	MOVWF       FARG_memcpy_s1+0 
	MOVLW       hi_addr(__errPhoto+0)
	MOVWF       FARG_memcpy_s1+1 
	MOVLW       16
	MOVWF       FARG_memcpy_n+0 
	MOVLW       0
	MOVWF       FARG_memcpy_n+1 
	CALL        _memcpy+0, 0
	MOVLW       1
	MOVWF       _LCDUpdateFlag+0 
	MOVLW       2
	MOVWF       _LCDLines+0 
L_State4155:
;FirmV_0_7_0.c,843 :: 		if((Events.Limiter==1)&&(LimiterEnable))
	MOVF        _Events+7, 0 
	XORLW       1
	BTFSS       STATUS+0, 2 
	GOTO        L_State4158
	MOVF        _LimiterEnable+0, 1 
	BTFSC       STATUS+0, 2 
	GOTO        L_State4158
L__State4673:
;FirmV_0_7_0.c,844 :: 		{StopMotor(1); StopMotor(2); State=6;OverloadCheckFlag1=0;OverloadCheckFlag2=0;Logger("S4 Limit Switch Stop");ClearTasks(9);
	MOVLW       1
	MOVWF       FARG_StopMotor+0 
	CALL        _StopMotor+0, 0
	MOVLW       2
	MOVWF       FARG_StopMotor+0 
	CALL        _StopMotor+0, 0
	MOVLW       6
	MOVWF       _State+0 
	CLRF        _OverloadCheckFlag1+0 
	CLRF        _OverloadCheckFlag2+0 
	MOVLW       ?ICS?lstr35_FirmV_0_7_0+0
	MOVWF       TBLPTRL 
	MOVLW       hi_addr(?ICS?lstr35_FirmV_0_7_0+0)
	MOVWF       TBLPTRH 
	MOVLW       higher_addr(?ICS?lstr35_FirmV_0_7_0+0)
	MOVWF       TBLPTRU 
	MOVLW       ?lstr35_FirmV_0_7_0+0
	MOVWF       FSR1L 
	MOVLW       hi_addr(?lstr35_FirmV_0_7_0+0)
	MOVWF       FSR1H 
	MOVLW       21
	MOVWF       R0 
	MOVLW       1
	MOVWF       R1 
	CALL        ___CC2DW+0, 0
	MOVLW       ?lstr35_FirmV_0_7_0+0
	MOVWF       FARG_Logger_text+0 
	MOVLW       hi_addr(?lstr35_FirmV_0_7_0+0)
	MOVWF       FARG_Logger_text+1 
	CALL        _Logger+0, 0
	MOVLW       9
	MOVWF       FARG_ClearTasks+0 
	CALL        _ClearTasks+0, 0
;FirmV_0_7_0.c,845 :: 		memcpy(LCDLine1,_stop,16);memcpy(LCDLine2,_ErrLimit,16);LCDUpdateFlag=1;LCDLines=2;}
	MOVLW       _LCDLine1+0
	MOVWF       FARG_memcpy_d1+0 
	MOVLW       hi_addr(_LCDLine1+0)
	MOVWF       FARG_memcpy_d1+1 
	MOVLW       __stop+0
	MOVWF       FARG_memcpy_s1+0 
	MOVLW       hi_addr(__stop+0)
	MOVWF       FARG_memcpy_s1+1 
	MOVLW       16
	MOVWF       FARG_memcpy_n+0 
	MOVLW       0
	MOVWF       FARG_memcpy_n+1 
	CALL        _memcpy+0, 0
	MOVLW       _LCDLine2+0
	MOVWF       FARG_memcpy_d1+0 
	MOVLW       hi_addr(_LCDLine2+0)
	MOVWF       FARG_memcpy_d1+1 
	MOVLW       __errLimit+0
	MOVWF       FARG_memcpy_s1+0 
	MOVLW       hi_addr(__errLimit+0)
	MOVWF       FARG_memcpy_s1+1 
	MOVLW       16
	MOVWF       FARG_memcpy_n+0 
	MOVLW       0
	MOVWF       FARG_memcpy_n+1 
	CALL        _memcpy+0, 0
	MOVLW       1
	MOVWF       _LCDUpdateFlag+0 
	MOVLW       2
	MOVWF       _LCDLines+0 
L_State4158:
;FirmV_0_7_0.c,847 :: 		if((Events.Remote!=0))
	MOVF        _Events+4, 0 
	XORLW       0
	BTFSC       STATUS+0, 2 
	GOTO        L_State4159
;FirmV_0_7_0.c,848 :: 		{StopMotor(1); StopMotor(2); State=6;OverloadCheckFlag1=0;OverloadCheckFlag2=0;Logger("S4 Remote Pressed");ClearTasks(9);
	MOVLW       1
	MOVWF       FARG_StopMotor+0 
	CALL        _StopMotor+0, 0
	MOVLW       2
	MOVWF       FARG_StopMotor+0 
	CALL        _StopMotor+0, 0
	MOVLW       6
	MOVWF       _State+0 
	CLRF        _OverloadCheckFlag1+0 
	CLRF        _OverloadCheckFlag2+0 
	MOVLW       ?ICS?lstr36_FirmV_0_7_0+0
	MOVWF       TBLPTRL 
	MOVLW       hi_addr(?ICS?lstr36_FirmV_0_7_0+0)
	MOVWF       TBLPTRH 
	MOVLW       higher_addr(?ICS?lstr36_FirmV_0_7_0+0)
	MOVWF       TBLPTRU 
	MOVLW       ?lstr36_FirmV_0_7_0+0
	MOVWF       FSR1L 
	MOVLW       hi_addr(?lstr36_FirmV_0_7_0+0)
	MOVWF       FSR1H 
	MOVLW       18
	MOVWF       R0 
	MOVLW       1
	MOVWF       R1 
	CALL        ___CC2DW+0, 0
	MOVLW       ?lstr36_FirmV_0_7_0+0
	MOVWF       FARG_Logger_text+0 
	MOVLW       hi_addr(?lstr36_FirmV_0_7_0+0)
	MOVWF       FARG_Logger_text+1 
	CALL        _Logger+0, 0
	MOVLW       9
	MOVWF       FARG_ClearTasks+0 
	CALL        _ClearTasks+0, 0
;FirmV_0_7_0.c,849 :: 		memcpy(LCDLine1,_stop,16);memcpy(LCDLine2,_ErrRemote,16);LCDUpdateFlag=1;LCDLines=2;}
	MOVLW       _LCDLine1+0
	MOVWF       FARG_memcpy_d1+0 
	MOVLW       hi_addr(_LCDLine1+0)
	MOVWF       FARG_memcpy_d1+1 
	MOVLW       __stop+0
	MOVWF       FARG_memcpy_s1+0 
	MOVLW       hi_addr(__stop+0)
	MOVWF       FARG_memcpy_s1+1 
	MOVLW       16
	MOVWF       FARG_memcpy_n+0 
	MOVLW       0
	MOVWF       FARG_memcpy_n+1 
	CALL        _memcpy+0, 0
	MOVLW       _LCDLine2+0
	MOVWF       FARG_memcpy_d1+0 
	MOVLW       hi_addr(_LCDLine2+0)
	MOVWF       FARG_memcpy_d1+1 
	MOVLW       __errRemote+0
	MOVWF       FARG_memcpy_s1+0 
	MOVLW       hi_addr(__errRemote+0)
	MOVWF       FARG_memcpy_s1+1 
	MOVLW       16
	MOVWF       FARG_memcpy_n+0 
	MOVLW       0
	MOVWF       FARG_memcpy_n+1 
	CALL        _memcpy+0, 0
	MOVLW       1
	MOVWF       _LCDUpdateFlag+0 
	MOVLW       2
	MOVWF       _LCDLines+0 
L_State4159:
;FirmV_0_7_0.c,851 :: 		if(CloseDone==0)
	MOVF        _CloseDone+0, 0 
	XORLW       0
	BTFSS       STATUS+0, 2 
	GOTO        L_State4160
;FirmV_0_7_0.c,852 :: 		{State=1; PassFlag=0;ClearTasks(9);memcpy(LCDLine1,_close,16);memcpy(LCDLine2,_Blank,16);LCDUpdateFlag=1;LCDLines=1;}
	MOVLW       1
	MOVWF       _State+0 
	CLRF        _PassFlag+0 
	MOVLW       9
	MOVWF       FARG_ClearTasks+0 
	CALL        _ClearTasks+0, 0
	MOVLW       _LCDLine1+0
	MOVWF       FARG_memcpy_d1+0 
	MOVLW       hi_addr(_LCDLine1+0)
	MOVWF       FARG_memcpy_d1+1 
	MOVLW       __close+0
	MOVWF       FARG_memcpy_s1+0 
	MOVLW       hi_addr(__close+0)
	MOVWF       FARG_memcpy_s1+1 
	MOVLW       16
	MOVWF       FARG_memcpy_n+0 
	MOVLW       0
	MOVWF       FARG_memcpy_n+1 
	CALL        _memcpy+0, 0
	MOVLW       _LCDLine2+0
	MOVWF       FARG_memcpy_d1+0 
	MOVLW       hi_addr(_LCDLine2+0)
	MOVWF       FARG_memcpy_d1+1 
	MOVLW       __Blank+0
	MOVWF       FARG_memcpy_s1+0 
	MOVLW       hi_addr(__Blank+0)
	MOVWF       FARG_memcpy_s1+1 
	MOVLW       16
	MOVWF       FARG_memcpy_n+0 
	MOVLW       0
	MOVWF       FARG_memcpy_n+1 
	CALL        _memcpy+0, 0
	MOVLW       1
	MOVWF       _LCDUpdateFlag+0 
	MOVLW       1
	MOVWF       _LCDLines+0 
L_State4160:
;FirmV_0_7_0.c,854 :: 		if((State==5)||(State==6))
	MOVF        _State+0, 0 
	XORLW       5
	BTFSC       STATUS+0, 2 
	GOTO        L__State4672
	MOVF        _State+0, 0 
	XORLW       6
	BTFSC       STATUS+0, 2 
	GOTO        L__State4672
	GOTO        L_State4163
L__State4672:
;FirmV_0_7_0.c,855 :: 		{ClearTasks(0);if(AutoCloseTime!=0){AddTask(ms500+AutoCloseTime,9);Logger("S4 Autoclose Renewed");memcpy(LCDLine2,_autoclose,16);LCDUpdateFlag=1;LCDLines=2;}}
	CLRF        FARG_ClearTasks+0 
	CALL        _ClearTasks+0, 0
	MOVLW       0
	XORWF       _AutoCloseTime+1, 0 
	BTFSS       STATUS+0, 2 
	GOTO        L__State4765
	MOVLW       0
	XORWF       _AutoCloseTime+0, 0 
L__State4765:
	BTFSC       STATUS+0, 2 
	GOTO        L_State4164
	MOVF        _AutoCloseTime+0, 0 
	ADDWF       _ms500+0, 0 
	MOVWF       FARG_AddTask+0 
	MOVF        _AutoCloseTime+1, 0 
	ADDWFC      _ms500+1, 0 
	MOVWF       FARG_AddTask+1 
	MOVLW       0
	ADDWFC      _ms500+2, 0 
	MOVWF       FARG_AddTask+2 
	MOVLW       0
	ADDWFC      _ms500+3, 0 
	MOVWF       FARG_AddTask+3 
	MOVLW       9
	MOVWF       FARG_AddTask+0 
	CALL        _AddTask+0, 0
	MOVLW       ?ICS?lstr37_FirmV_0_7_0+0
	MOVWF       TBLPTRL 
	MOVLW       hi_addr(?ICS?lstr37_FirmV_0_7_0+0)
	MOVWF       TBLPTRH 
	MOVLW       higher_addr(?ICS?lstr37_FirmV_0_7_0+0)
	MOVWF       TBLPTRU 
	MOVLW       ?lstr37_FirmV_0_7_0+0
	MOVWF       FSR1L 
	MOVLW       hi_addr(?lstr37_FirmV_0_7_0+0)
	MOVWF       FSR1H 
	MOVLW       21
	MOVWF       R0 
	MOVLW       1
	MOVWF       R1 
	CALL        ___CC2DW+0, 0
	MOVLW       ?lstr37_FirmV_0_7_0+0
	MOVWF       FARG_Logger_text+0 
	MOVLW       hi_addr(?lstr37_FirmV_0_7_0+0)
	MOVWF       FARG_Logger_text+1 
	CALL        _Logger+0, 0
	MOVLW       _LCDLine2+0
	MOVWF       FARG_memcpy_d1+0 
	MOVLW       hi_addr(_LCDLine2+0)
	MOVWF       FARG_memcpy_d1+1 
	MOVLW       __autoclose+0
	MOVWF       FARG_memcpy_s1+0 
	MOVLW       hi_addr(__autoclose+0)
	MOVWF       FARG_memcpy_s1+1 
	MOVLW       16
	MOVWF       FARG_memcpy_n+0 
	MOVLW       0
	MOVWF       FARG_memcpy_n+1 
	CALL        _memcpy+0, 0
	MOVLW       1
	MOVWF       _LCDUpdateFlag+0 
	MOVLW       2
	MOVWF       _LCDLines+0 
L_State4164:
L_State4163:
;FirmV_0_7_0.c,857 :: 		}
	RETURN      0
; end of _State4

_State5:

;FirmV_0_7_0.c,872 :: 		void State5()
;FirmV_0_7_0.c,874 :: 		char delay=2;
	MOVLW       2
	MOVWF       State5_delay_L0+0 
;FirmV_0_7_0.c,875 :: 		Flasher=0;
	BCF         PORTD+0, 7 
;FirmV_0_7_0.c,876 :: 		if((Events.Remote!=0)||(CheckTask(9)==1))
	MOVF        _Events+4, 0 
	XORLW       0
	BTFSS       STATUS+0, 2 
	GOTO        L__State5681
	MOVLW       9
	MOVWF       FARG_CheckTask+0 
	CALL        _CheckTask+0, 0
	MOVF        R0, 0 
	XORLW       1
	BTFSC       STATUS+0, 2 
	GOTO        L__State5681
	GOTO        L_State5167
L__State5681:
;FirmV_0_7_0.c,878 :: 		if((Door2CloseTime==0)||(ActiveDoors==1))
	MOVF        _Door2CloseTime+0, 0 
	XORLW       0
	BTFSC       STATUS+0, 2 
	GOTO        L__State5680
	MOVF        _ActiveDoors+0, 0 
	XORLW       1
	BTFSC       STATUS+0, 2 
	GOTO        L__State5680
	GOTO        L_State5170
L__State5680:
;FirmV_0_7_0.c,880 :: 		ClearTasks(9);
	MOVLW       9
	MOVWF       FARG_ClearTasks+0 
	CALL        _ClearTasks+0, 0
;FirmV_0_7_0.c,881 :: 		temp=ms500+delay;
	MOVF        State5_delay_L0+0, 0 
	ADDWF       _ms500+0, 0 
	MOVWF       R0 
	MOVLW       0
	ADDWFC      _ms500+1, 0 
	MOVWF       R1 
	MOVLW       0
	ADDWFC      _ms500+2, 0 
	MOVWF       R2 
	MOVLW       0
	ADDWFC      _ms500+3, 0 
	MOVWF       R3 
	MOVF        R0, 0 
	MOVWF       _temp+0 
	MOVF        R1, 0 
	MOVWF       _temp+1 
	MOVF        R2, 0 
	MOVWF       _temp+2 
	MOVF        R3, 0 
	MOVWF       _temp+3 
;FirmV_0_7_0.c,882 :: 		AddTask(temp,1);
	MOVF        R0, 0 
	MOVWF       FARG_AddTask+0 
	MOVF        R1, 0 
	MOVWF       FARG_AddTask+1 
	MOVF        R2, 0 
	MOVWF       FARG_AddTask+2 
	MOVF        R3, 0 
	MOVWF       FARG_AddTask+3 
	MOVLW       1
	MOVWF       FARG_AddTask+0 
	CALL        _AddTask+0, 0
;FirmV_0_7_0.c,883 :: 		AddTask(temp,5);
	MOVF        _temp+0, 0 
	MOVWF       FARG_AddTask+0 
	MOVF        _temp+1, 0 
	MOVWF       FARG_AddTask+1 
	MOVF        _temp+2, 0 
	MOVWF       FARG_AddTask+2 
	MOVF        _temp+3, 0 
	MOVWF       FARG_AddTask+3 
	MOVLW       5
	MOVWF       FARG_AddTask+0 
	CALL        _AddTask+0, 0
;FirmV_0_7_0.c,884 :: 		M1isSlow=0;//speed up
	CLRF        _M1isSlow+0 
;FirmV_0_7_0.c,885 :: 		temp=ms500+OverloadDelay+delay;
	MOVLW       2
	ADDWF       _ms500+0, 0 
	MOVWF       R0 
	MOVLW       0
	ADDWFC      _ms500+1, 0 
	MOVWF       R1 
	MOVLW       0
	ADDWFC      _ms500+2, 0 
	MOVWF       R2 
	MOVLW       0
	ADDWFC      _ms500+3, 0 
	MOVWF       R3 
	MOVF        State5_delay_L0+0, 0 
	ADDWF       R0, 1 
	MOVLW       0
	ADDWFC      R1, 1 
	ADDWFC      R2, 1 
	ADDWFC      R3, 1 
	MOVF        R0, 0 
	MOVWF       _temp+0 
	MOVF        R1, 0 
	MOVWF       _temp+1 
	MOVF        R2, 0 
	MOVWF       _temp+2 
	MOVF        R3, 0 
	MOVWF       _temp+3 
;FirmV_0_7_0.c,886 :: 		AddTask(temp,10); //overload check
	MOVF        R0, 0 
	MOVWF       FARG_AddTask+0 
	MOVF        R1, 0 
	MOVWF       FARG_AddTask+1 
	MOVF        R2, 0 
	MOVWF       FARG_AddTask+2 
	MOVF        R3, 0 
	MOVWF       FARG_AddTask+3 
	MOVLW       10
	MOVWF       FARG_AddTask+0 
	CALL        _AddTask+0, 0
;FirmV_0_7_0.c,887 :: 		temp=ms500+Door1CloseTime+delay;
	MOVF        _Door1CloseTime+0, 0 
	ADDWF       _ms500+0, 0 
	MOVWF       R0 
	MOVLW       0
	ADDWFC      _ms500+1, 0 
	MOVWF       R1 
	MOVLW       0
	ADDWFC      _ms500+2, 0 
	MOVWF       R2 
	MOVLW       0
	ADDWFC      _ms500+3, 0 
	MOVWF       R3 
	MOVF        State5_delay_L0+0, 0 
	ADDWF       R0, 1 
	MOVLW       0
	ADDWFC      R1, 1 
	ADDWFC      R2, 1 
	ADDWFC      R3, 1 
	MOVF        R0, 0 
	MOVWF       _temp+0 
	MOVF        R1, 0 
	MOVWF       _temp+1 
	MOVF        R2, 0 
	MOVWF       _temp+2 
	MOVF        R3, 0 
	MOVWF       _temp+3 
;FirmV_0_7_0.c,888 :: 		AddTask(temp,3);//Stop motor
	MOVF        R0, 0 
	MOVWF       FARG_AddTask+0 
	MOVF        R1, 0 
	MOVWF       FARG_AddTask+1 
	MOVF        R2, 0 
	MOVWF       FARG_AddTask+2 
	MOVF        R3, 0 
	MOVWF       FARG_AddTask+3 
	MOVLW       3
	MOVWF       FARG_AddTask+0 
	CALL        _AddTask+0, 0
;FirmV_0_7_0.c,889 :: 		}
L_State5170:
;FirmV_0_7_0.c,890 :: 		if((Door2CloseTime!=0)&&(ActiveDoors==2))
	MOVF        _Door2CloseTime+0, 0 
	XORLW       0
	BTFSC       STATUS+0, 2 
	GOTO        L_State5173
	MOVF        _ActiveDoors+0, 0 
	XORLW       2
	BTFSS       STATUS+0, 2 
	GOTO        L_State5173
L__State5679:
;FirmV_0_7_0.c,892 :: 		ClearTasks(9);
	MOVLW       9
	MOVWF       FARG_ClearTasks+0 
	CALL        _ClearTasks+0, 0
;FirmV_0_7_0.c,893 :: 		temp=ms500+delay;
	MOVF        State5_delay_L0+0, 0 
	ADDWF       _ms500+0, 0 
	MOVWF       R0 
	MOVLW       0
	ADDWFC      _ms500+1, 0 
	MOVWF       R1 
	MOVLW       0
	ADDWFC      _ms500+2, 0 
	MOVWF       R2 
	MOVLW       0
	ADDWFC      _ms500+3, 0 
	MOVWF       R3 
	MOVF        R0, 0 
	MOVWF       _temp+0 
	MOVF        R1, 0 
	MOVWF       _temp+1 
	MOVF        R2, 0 
	MOVWF       _temp+2 
	MOVF        R3, 0 
	MOVWF       _temp+3 
;FirmV_0_7_0.c,894 :: 		AddTask(temp,2);
	MOVF        R0, 0 
	MOVWF       FARG_AddTask+0 
	MOVF        R1, 0 
	MOVWF       FARG_AddTask+1 
	MOVF        R2, 0 
	MOVWF       FARG_AddTask+2 
	MOVF        R3, 0 
	MOVWF       FARG_AddTask+3 
	MOVLW       2
	MOVWF       FARG_AddTask+0 
	CALL        _AddTask+0, 0
;FirmV_0_7_0.c,895 :: 		AddTask(temp,6);
	MOVF        _temp+0, 0 
	MOVWF       FARG_AddTask+0 
	MOVF        _temp+1, 0 
	MOVWF       FARG_AddTask+1 
	MOVF        _temp+2, 0 
	MOVWF       FARG_AddTask+2 
	MOVF        _temp+3, 0 
	MOVWF       FARG_AddTask+3 
	MOVLW       6
	MOVWF       FARG_AddTask+0 
	CALL        _AddTask+0, 0
;FirmV_0_7_0.c,896 :: 		M1isSlow=0;//speed up
	CLRF        _M1isSlow+0 
;FirmV_0_7_0.c,897 :: 		temp=ms500+OverloadDelay+delay;
	MOVLW       2
	ADDWF       _ms500+0, 0 
	MOVWF       R0 
	MOVLW       0
	ADDWFC      _ms500+1, 0 
	MOVWF       R1 
	MOVLW       0
	ADDWFC      _ms500+2, 0 
	MOVWF       R2 
	MOVLW       0
	ADDWFC      _ms500+3, 0 
	MOVWF       R3 
	MOVF        State5_delay_L0+0, 0 
	ADDWF       R0, 1 
	MOVLW       0
	ADDWFC      R1, 1 
	ADDWFC      R2, 1 
	ADDWFC      R3, 1 
	MOVF        R0, 0 
	MOVWF       _temp+0 
	MOVF        R1, 0 
	MOVWF       _temp+1 
	MOVF        R2, 0 
	MOVWF       _temp+2 
	MOVF        R3, 0 
	MOVWF       _temp+3 
;FirmV_0_7_0.c,898 :: 		AddTask(temp,11); //overload check
	MOVF        R0, 0 
	MOVWF       FARG_AddTask+0 
	MOVF        R1, 0 
	MOVWF       FARG_AddTask+1 
	MOVF        R2, 0 
	MOVWF       FARG_AddTask+2 
	MOVF        R3, 0 
	MOVWF       FARG_AddTask+3 
	MOVLW       11
	MOVWF       FARG_AddTask+0 
	CALL        _AddTask+0, 0
;FirmV_0_7_0.c,899 :: 		temp=ms500+Door1CloseTime+delay;
	MOVF        _Door1CloseTime+0, 0 
	ADDWF       _ms500+0, 0 
	MOVWF       R0 
	MOVLW       0
	ADDWFC      _ms500+1, 0 
	MOVWF       R1 
	MOVLW       0
	ADDWFC      _ms500+2, 0 
	MOVWF       R2 
	MOVLW       0
	ADDWFC      _ms500+3, 0 
	MOVWF       R3 
	MOVF        State5_delay_L0+0, 0 
	ADDWF       R0, 1 
	MOVLW       0
	ADDWFC      R1, 1 
	ADDWFC      R2, 1 
	ADDWFC      R3, 1 
	MOVF        R0, 0 
	MOVWF       _temp+0 
	MOVF        R1, 0 
	MOVWF       _temp+1 
	MOVF        R2, 0 
	MOVWF       _temp+2 
	MOVF        R3, 0 
	MOVWF       _temp+3 
;FirmV_0_7_0.c,900 :: 		AddTask(temp,4);//Stop motor
	MOVF        R0, 0 
	MOVWF       FARG_AddTask+0 
	MOVF        R1, 0 
	MOVWF       FARG_AddTask+1 
	MOVF        R2, 0 
	MOVWF       FARG_AddTask+2 
	MOVF        R3, 0 
	MOVWF       FARG_AddTask+3 
	MOVLW       4
	MOVWF       FARG_AddTask+0 
	CALL        _AddTask+0, 0
;FirmV_0_7_0.c,905 :: 		temp=ms500+ActionTimeDiff+delay;
	MOVF        _ActionTimeDiff+0, 0 
	ADDWF       _ms500+0, 0 
	MOVWF       R0 
	MOVLW       0
	ADDWFC      _ms500+1, 0 
	MOVWF       R1 
	MOVLW       0
	ADDWFC      _ms500+2, 0 
	MOVWF       R2 
	MOVLW       0
	ADDWFC      _ms500+3, 0 
	MOVWF       R3 
	MOVF        State5_delay_L0+0, 0 
	ADDWF       R0, 1 
	MOVLW       0
	ADDWFC      R1, 1 
	ADDWFC      R2, 1 
	ADDWFC      R3, 1 
	MOVF        R0, 0 
	MOVWF       _temp+0 
	MOVF        R1, 0 
	MOVWF       _temp+1 
	MOVF        R2, 0 
	MOVWF       _temp+2 
	MOVF        R3, 0 
	MOVWF       _temp+3 
;FirmV_0_7_0.c,906 :: 		AddTask(temp,1);
	MOVF        R0, 0 
	MOVWF       FARG_AddTask+0 
	MOVF        R1, 0 
	MOVWF       FARG_AddTask+1 
	MOVF        R2, 0 
	MOVWF       FARG_AddTask+2 
	MOVF        R3, 0 
	MOVWF       FARG_AddTask+3 
	MOVLW       1
	MOVWF       FARG_AddTask+0 
	CALL        _AddTask+0, 0
;FirmV_0_7_0.c,907 :: 		temp=ms500+ActionTimeDiff+delay;
	MOVF        _ActionTimeDiff+0, 0 
	ADDWF       _ms500+0, 0 
	MOVWF       R0 
	MOVLW       0
	ADDWFC      _ms500+1, 0 
	MOVWF       R1 
	MOVLW       0
	ADDWFC      _ms500+2, 0 
	MOVWF       R2 
	MOVLW       0
	ADDWFC      _ms500+3, 0 
	MOVWF       R3 
	MOVF        State5_delay_L0+0, 0 
	ADDWF       R0, 1 
	MOVLW       0
	ADDWFC      R1, 1 
	ADDWFC      R2, 1 
	ADDWFC      R3, 1 
	MOVF        R0, 0 
	MOVWF       _temp+0 
	MOVF        R1, 0 
	MOVWF       _temp+1 
	MOVF        R2, 0 
	MOVWF       _temp+2 
	MOVF        R3, 0 
	MOVWF       _temp+3 
;FirmV_0_7_0.c,908 :: 		AddTask(temp,5);
	MOVF        R0, 0 
	MOVWF       FARG_AddTask+0 
	MOVF        R1, 0 
	MOVWF       FARG_AddTask+1 
	MOVF        R2, 0 
	MOVWF       FARG_AddTask+2 
	MOVF        R3, 0 
	MOVWF       FARG_AddTask+3 
	MOVLW       5
	MOVWF       FARG_AddTask+0 
	CALL        _AddTask+0, 0
;FirmV_0_7_0.c,909 :: 		M2isSlow=0;//speed up
	CLRF        _M2isSlow+0 
;FirmV_0_7_0.c,910 :: 		temp=ms500+ActionTimeDiff+OverloadDelay+delay;
	MOVF        _ActionTimeDiff+0, 0 
	ADDWF       _ms500+0, 0 
	MOVWF       R0 
	MOVLW       0
	ADDWFC      _ms500+1, 0 
	MOVWF       R1 
	MOVLW       0
	ADDWFC      _ms500+2, 0 
	MOVWF       R2 
	MOVLW       0
	ADDWFC      _ms500+3, 0 
	MOVWF       R3 
	MOVLW       2
	ADDWF       R0, 1 
	MOVLW       0
	ADDWFC      R1, 1 
	ADDWFC      R2, 1 
	ADDWFC      R3, 1 
	MOVF        State5_delay_L0+0, 0 
	ADDWF       R0, 1 
	MOVLW       0
	ADDWFC      R1, 1 
	ADDWFC      R2, 1 
	ADDWFC      R3, 1 
	MOVF        R0, 0 
	MOVWF       _temp+0 
	MOVF        R1, 0 
	MOVWF       _temp+1 
	MOVF        R2, 0 
	MOVWF       _temp+2 
	MOVF        R3, 0 
	MOVWF       _temp+3 
;FirmV_0_7_0.c,911 :: 		AddTask(temp,10); //overload check
	MOVF        R0, 0 
	MOVWF       FARG_AddTask+0 
	MOVF        R1, 0 
	MOVWF       FARG_AddTask+1 
	MOVF        R2, 0 
	MOVWF       FARG_AddTask+2 
	MOVF        R3, 0 
	MOVWF       FARG_AddTask+3 
	MOVLW       10
	MOVWF       FARG_AddTask+0 
	CALL        _AddTask+0, 0
;FirmV_0_7_0.c,912 :: 		temp=ms500+Door2CloseTime+delay+ActionTimeDiff;
	MOVF        _Door2CloseTime+0, 0 
	ADDWF       _ms500+0, 0 
	MOVWF       R0 
	MOVLW       0
	ADDWFC      _ms500+1, 0 
	MOVWF       R1 
	MOVLW       0
	ADDWFC      _ms500+2, 0 
	MOVWF       R2 
	MOVLW       0
	ADDWFC      _ms500+3, 0 
	MOVWF       R3 
	MOVF        State5_delay_L0+0, 0 
	ADDWF       R0, 1 
	MOVLW       0
	ADDWFC      R1, 1 
	ADDWFC      R2, 1 
	ADDWFC      R3, 1 
	MOVF        _ActionTimeDiff+0, 0 
	ADDWF       R0, 1 
	MOVLW       0
	ADDWFC      R1, 1 
	ADDWFC      R2, 1 
	ADDWFC      R3, 1 
	MOVF        R0, 0 
	MOVWF       _temp+0 
	MOVF        R1, 0 
	MOVWF       _temp+1 
	MOVF        R2, 0 
	MOVWF       _temp+2 
	MOVF        R3, 0 
	MOVWF       _temp+3 
;FirmV_0_7_0.c,913 :: 		AddTask(temp,3);//Stop motor
	MOVF        R0, 0 
	MOVWF       FARG_AddTask+0 
	MOVF        R1, 0 
	MOVWF       FARG_AddTask+1 
	MOVF        R2, 0 
	MOVWF       FARG_AddTask+2 
	MOVF        R3, 0 
	MOVWF       FARG_AddTask+3 
	MOVLW       3
	MOVWF       FARG_AddTask+0 
	CALL        _AddTask+0, 0
;FirmV_0_7_0.c,914 :: 		}
L_State5173:
;FirmV_0_7_0.c,915 :: 		CloseDone=3;
	MOVLW       3
	MOVWF       _CloseDone+0 
;FirmV_0_7_0.c,916 :: 		OverloadCheckFlag1=0;
	CLRF        _OverloadCheckFlag1+0 
;FirmV_0_7_0.c,917 :: 		OverloadCheckFlag2=0;
	CLRF        _OverloadCheckFlag2+0 
;FirmV_0_7_0.c,918 :: 		State=7;
	MOVLW       7
	MOVWF       _State+0 
;FirmV_0_7_0.c,919 :: 		}
L_State5167:
;FirmV_0_7_0.c,921 :: 		if((Events.Photocell.b0==1)&&(AutoCloseTime!=0)&&(PassFlag==0))
	BTFSS       _Events+6, 0 
	GOTO        L_State5176
	MOVLW       0
	XORWF       _AutoCloseTime+1, 0 
	BTFSS       STATUS+0, 2 
	GOTO        L__State5766
	MOVLW       0
	XORWF       _AutoCloseTime+0, 0 
L__State5766:
	BTFSC       STATUS+0, 2 
	GOTO        L_State5176
	MOVF        _PassFlag+0, 0 
	XORLW       0
	BTFSS       STATUS+0, 2 
	GOTO        L_State5176
L__State5678:
;FirmV_0_7_0.c,922 :: 		{PassFlag=1; _AC=GetAutocloseTime();Logger("S5 Auto Close Deleted");}
	MOVLW       1
	MOVWF       _PassFlag+0 
	CALL        _GetAutocloseTime+0, 0
	MOVF        R0, 0 
	MOVWF       __AC+0 
	MOVLW       ?ICS?lstr38_FirmV_0_7_0+0
	MOVWF       TBLPTRL 
	MOVLW       hi_addr(?ICS?lstr38_FirmV_0_7_0+0)
	MOVWF       TBLPTRH 
	MOVLW       higher_addr(?ICS?lstr38_FirmV_0_7_0+0)
	MOVWF       TBLPTRU 
	MOVLW       ?lstr38_FirmV_0_7_0+0
	MOVWF       FSR1L 
	MOVLW       hi_addr(?lstr38_FirmV_0_7_0+0)
	MOVWF       FSR1H 
	MOVLW       22
	MOVWF       R0 
	MOVLW       1
	MOVWF       R1 
	CALL        ___CC2DW+0, 0
	MOVLW       ?lstr38_FirmV_0_7_0+0
	MOVWF       FARG_Logger_text+0 
	MOVLW       hi_addr(?lstr38_FirmV_0_7_0+0)
	MOVWF       FARG_Logger_text+1 
	CALL        _Logger+0, 0
L_State5176:
;FirmV_0_7_0.c,924 :: 		if((PassFlag==1)&&(Events.Photocell.b0==0)&&(AutoCloseTime!=0))
	MOVF        _PassFlag+0, 0 
	XORLW       1
	BTFSS       STATUS+0, 2 
	GOTO        L_State5179
	BTFSC       _Events+6, 0 
	GOTO        L_State5179
	MOVLW       0
	XORWF       _AutoCloseTime+1, 0 
	BTFSS       STATUS+0, 2 
	GOTO        L__State5767
	MOVLW       0
	XORWF       _AutoCloseTime+0, 0 
L__State5767:
	BTFSC       STATUS+0, 2 
	GOTO        L_State5179
L__State5677:
;FirmV_0_7_0.c,927 :: 		{temp=ms500+_AC;AddTask(temp,9);PassFlag=0;longwordtostrwithzeros(temp,t);Logger("S5 Insert 9 at:");Logger(t);}
	MOVF        __AC+0, 0 
	ADDWF       _ms500+0, 0 
	MOVWF       R0 
	MOVLW       0
	ADDWFC      _ms500+1, 0 
	MOVWF       R1 
	MOVLW       0
	ADDWFC      _ms500+2, 0 
	MOVWF       R2 
	MOVLW       0
	ADDWFC      _ms500+3, 0 
	MOVWF       R3 
	MOVF        R0, 0 
	MOVWF       _temp+0 
	MOVF        R1, 0 
	MOVWF       _temp+1 
	MOVF        R2, 0 
	MOVWF       _temp+2 
	MOVF        R3, 0 
	MOVWF       _temp+3 
	MOVF        R0, 0 
	MOVWF       FARG_AddTask+0 
	MOVF        R1, 0 
	MOVWF       FARG_AddTask+1 
	MOVF        R2, 0 
	MOVWF       FARG_AddTask+2 
	MOVF        R3, 0 
	MOVWF       FARG_AddTask+3 
	MOVLW       9
	MOVWF       FARG_AddTask+0 
	CALL        _AddTask+0, 0
	CLRF        _PassFlag+0 
	MOVF        _temp+0, 0 
	MOVWF       FARG_LongWordToStrWithZeros_input+0 
	MOVF        _temp+1, 0 
	MOVWF       FARG_LongWordToStrWithZeros_input+1 
	MOVF        _temp+2, 0 
	MOVWF       FARG_LongWordToStrWithZeros_input+2 
	MOVF        _temp+3, 0 
	MOVWF       FARG_LongWordToStrWithZeros_input+3 
	MOVLW       _t+0
	MOVWF       FARG_LongWordToStrWithZeros_output+0 
	MOVLW       hi_addr(_t+0)
	MOVWF       FARG_LongWordToStrWithZeros_output+1 
	CALL        _LongWordToStrWithZeros+0, 0
	MOVLW       ?ICS?lstr39_FirmV_0_7_0+0
	MOVWF       TBLPTRL 
	MOVLW       hi_addr(?ICS?lstr39_FirmV_0_7_0+0)
	MOVWF       TBLPTRH 
	MOVLW       higher_addr(?ICS?lstr39_FirmV_0_7_0+0)
	MOVWF       TBLPTRU 
	MOVLW       ?lstr39_FirmV_0_7_0+0
	MOVWF       FSR1L 
	MOVLW       hi_addr(?lstr39_FirmV_0_7_0+0)
	MOVWF       FSR1H 
	MOVLW       16
	MOVWF       R0 
	MOVLW       1
	MOVWF       R1 
	CALL        ___CC2DW+0, 0
	MOVLW       ?lstr39_FirmV_0_7_0+0
	MOVWF       FARG_Logger_text+0 
	MOVLW       hi_addr(?lstr39_FirmV_0_7_0+0)
	MOVWF       FARG_Logger_text+1 
	CALL        _Logger+0, 0
	MOVLW       _t+0
	MOVWF       FARG_Logger_text+0 
	MOVLW       hi_addr(_t+0)
	MOVWF       FARG_Logger_text+1 
	CALL        _Logger+0, 0
;FirmV_0_7_0.c,929 :: 		{temp=ms500+CloseAfterPass;AddTask(temp,9);PassFlag=0;longwordtostrwithzeros(temp,t);Logger("S5 Insert 9 at:");Logger(t);}
L_State5181:
;FirmV_0_7_0.c,930 :: 		}
L_State5179:
;FirmV_0_7_0.c,932 :: 		}
	RETURN      0
; end of _State5

_State6:

;FirmV_0_7_0.c,952 :: 		void State6()
;FirmV_0_7_0.c,956 :: 		char delay=3;
	MOVLW       3
	MOVWF       State6_delay_L0+0 
;FirmV_0_7_0.c,957 :: 		Flasher=0;
	BCF         PORTD+0, 7 
;FirmV_0_7_0.c,958 :: 		if((Events.Remote!=0)||(PhotocellOpenFlag))
	MOVF        _Events+4, 0 
	XORLW       0
	BTFSS       STATUS+0, 2 
	GOTO        L__State6686
	MOVF        _PhotocellOpenFlag+0, 1 
	BTFSS       STATUS+0, 2 
	GOTO        L__State6686
	GOTO        L_State6184
L__State6686:
;FirmV_0_7_0.c,960 :: 		PhotocellOpenFlag=0;
	CLRF        _PhotocellOpenFlag+0 
;FirmV_0_7_0.c,961 :: 		Flasher=1;
	BSF         PORTD+0, 7 
;FirmV_0_7_0.c,962 :: 		ClearTasks(9);
	MOVLW       9
	MOVWF       FARG_ClearTasks+0 
	CALL        _ClearTasks+0, 0
;FirmV_0_7_0.c,963 :: 		AddTask(ms500+1,12);
	MOVLW       1
	ADDWF       _ms500+0, 0 
	MOVWF       FARG_AddTask+0 
	MOVLW       0
	ADDWFC      _ms500+1, 0 
	MOVWF       FARG_AddTask+1 
	MOVLW       0
	ADDWFC      _ms500+2, 0 
	MOVWF       FARG_AddTask+2 
	MOVLW       0
	ADDWFC      _ms500+3, 0 
	MOVWF       FARG_AddTask+3 
	MOVLW       12
	MOVWF       FARG_AddTask+0 
	CALL        _AddTask+0, 0
;FirmV_0_7_0.c,964 :: 		temp=ms500+delay;
	MOVF        State6_delay_L0+0, 0 
	ADDWF       _ms500+0, 0 
	MOVWF       R0 
	MOVLW       0
	ADDWFC      _ms500+1, 0 
	MOVWF       R1 
	MOVLW       0
	ADDWFC      _ms500+2, 0 
	MOVWF       R2 
	MOVLW       0
	ADDWFC      _ms500+3, 0 
	MOVWF       R3 
	MOVF        R0, 0 
	MOVWF       _temp+0 
	MOVF        R1, 0 
	MOVWF       _temp+1 
	MOVF        R2, 0 
	MOVWF       _temp+2 
	MOVF        R3, 0 
	MOVWF       _temp+3 
;FirmV_0_7_0.c,965 :: 		AddTask(temp,1);
	MOVF        R0, 0 
	MOVWF       FARG_AddTask+0 
	MOVF        R1, 0 
	MOVWF       FARG_AddTask+1 
	MOVF        R2, 0 
	MOVWF       FARG_AddTask+2 
	MOVF        R3, 0 
	MOVWF       FARG_AddTask+3 
	MOVLW       1
	MOVWF       FARG_AddTask+0 
	CALL        _AddTask+0, 0
;FirmV_0_7_0.c,966 :: 		AddTask(temp,5);
	MOVF        _temp+0, 0 
	MOVWF       FARG_AddTask+0 
	MOVF        _temp+1, 0 
	MOVWF       FARG_AddTask+1 
	MOVF        _temp+2, 0 
	MOVWF       FARG_AddTask+2 
	MOVF        _temp+3, 0 
	MOVWF       FARG_AddTask+3 
	MOVLW       5
	MOVWF       FARG_AddTask+0 
	CALL        _AddTask+0, 0
;FirmV_0_7_0.c,967 :: 		M1isSlow=0;//speed up
	CLRF        _M1isSlow+0 
;FirmV_0_7_0.c,968 :: 		temp=ms500+OverloadDelay+delay;
	MOVLW       2
	ADDWF       _ms500+0, 0 
	MOVWF       R0 
	MOVLW       0
	ADDWFC      _ms500+1, 0 
	MOVWF       R1 
	MOVLW       0
	ADDWFC      _ms500+2, 0 
	MOVWF       R2 
	MOVLW       0
	ADDWFC      _ms500+3, 0 
	MOVWF       R3 
	MOVF        State6_delay_L0+0, 0 
	ADDWF       R0, 1 
	MOVLW       0
	ADDWFC      R1, 1 
	ADDWFC      R2, 1 
	ADDWFC      R3, 1 
	MOVF        R0, 0 
	MOVWF       _temp+0 
	MOVF        R1, 0 
	MOVWF       _temp+1 
	MOVF        R2, 0 
	MOVWF       _temp+2 
	MOVF        R3, 0 
	MOVWF       _temp+3 
;FirmV_0_7_0.c,969 :: 		AddTask(temp,10); //overload check
	MOVF        R0, 0 
	MOVWF       FARG_AddTask+0 
	MOVF        R1, 0 
	MOVWF       FARG_AddTask+1 
	MOVF        R2, 0 
	MOVWF       FARG_AddTask+2 
	MOVF        R3, 0 
	MOVWF       FARG_AddTask+3 
	MOVLW       10
	MOVWF       FARG_AddTask+0 
	CALL        _AddTask+0, 0
;FirmV_0_7_0.c,970 :: 		temp=ms500+Door1OpenTime+delay;
	MOVF        _Door1OpenTime+0, 0 
	ADDWF       _ms500+0, 0 
	MOVWF       R0 
	MOVLW       0
	ADDWFC      _ms500+1, 0 
	MOVWF       R1 
	MOVLW       0
	ADDWFC      _ms500+2, 0 
	MOVWF       R2 
	MOVLW       0
	ADDWFC      _ms500+3, 0 
	MOVWF       R3 
	MOVF        State6_delay_L0+0, 0 
	ADDWF       R0, 1 
	MOVLW       0
	ADDWFC      R1, 1 
	ADDWFC      R2, 1 
	ADDWFC      R3, 1 
	MOVF        R0, 0 
	MOVWF       _temp+0 
	MOVF        R1, 0 
	MOVWF       _temp+1 
	MOVF        R2, 0 
	MOVWF       _temp+2 
	MOVF        R3, 0 
	MOVWF       _temp+3 
;FirmV_0_7_0.c,971 :: 		AddTask(temp,3);//Stop motor
	MOVF        R0, 0 
	MOVWF       FARG_AddTask+0 
	MOVF        R1, 0 
	MOVWF       FARG_AddTask+1 
	MOVF        R2, 0 
	MOVWF       FARG_AddTask+2 
	MOVF        R3, 0 
	MOVWF       FARG_AddTask+3 
	MOVLW       3
	MOVWF       FARG_AddTask+0 
	CALL        _AddTask+0, 0
;FirmV_0_7_0.c,972 :: 		if((Door2OpenTime!=0)&&(ActiveDoors==2))
	MOVF        _Door2OpenTime+0, 0 
	XORLW       0
	BTFSC       STATUS+0, 2 
	GOTO        L_State6187
	MOVF        _ActiveDoors+0, 0 
	XORLW       2
	BTFSS       STATUS+0, 2 
	GOTO        L_State6187
L__State6685:
;FirmV_0_7_0.c,974 :: 		AddTask(ms500+ActionTimeDiff+delay,2);
	MOVF        _ActionTimeDiff+0, 0 
	ADDWF       _ms500+0, 0 
	MOVWF       FARG_AddTask+0 
	MOVLW       0
	ADDWFC      _ms500+1, 0 
	MOVWF       FARG_AddTask+1 
	MOVLW       0
	ADDWFC      _ms500+2, 0 
	MOVWF       FARG_AddTask+2 
	MOVLW       0
	ADDWFC      _ms500+3, 0 
	MOVWF       FARG_AddTask+3 
	MOVF        State6_delay_L0+0, 0 
	ADDWF       FARG_AddTask+0, 1 
	MOVLW       0
	ADDWFC      FARG_AddTask+1, 1 
	ADDWFC      FARG_AddTask+2, 1 
	ADDWFC      FARG_AddTask+3, 1 
	MOVLW       2
	MOVWF       FARG_AddTask+0 
	CALL        _AddTask+0, 0
;FirmV_0_7_0.c,975 :: 		AddTask(ms500+ActionTimeDiff+delay,6);
	MOVF        _ActionTimeDiff+0, 0 
	ADDWF       _ms500+0, 0 
	MOVWF       FARG_AddTask+0 
	MOVLW       0
	ADDWFC      _ms500+1, 0 
	MOVWF       FARG_AddTask+1 
	MOVLW       0
	ADDWFC      _ms500+2, 0 
	MOVWF       FARG_AddTask+2 
	MOVLW       0
	ADDWFC      _ms500+3, 0 
	MOVWF       FARG_AddTask+3 
	MOVF        State6_delay_L0+0, 0 
	ADDWF       FARG_AddTask+0, 1 
	MOVLW       0
	ADDWFC      FARG_AddTask+1, 1 
	ADDWFC      FARG_AddTask+2, 1 
	ADDWFC      FARG_AddTask+3, 1 
	MOVLW       6
	MOVWF       FARG_AddTask+0 
	CALL        _AddTask+0, 0
;FirmV_0_7_0.c,976 :: 		M2isSlow=0;//speed up
	CLRF        _M2isSlow+0 
;FirmV_0_7_0.c,977 :: 		AddTask(ms500+ActionTimeDiff+OverloadDelay+delay,11); //overload check
	MOVF        _ActionTimeDiff+0, 0 
	ADDWF       _ms500+0, 0 
	MOVWF       FARG_AddTask+0 
	MOVLW       0
	ADDWFC      _ms500+1, 0 
	MOVWF       FARG_AddTask+1 
	MOVLW       0
	ADDWFC      _ms500+2, 0 
	MOVWF       FARG_AddTask+2 
	MOVLW       0
	ADDWFC      _ms500+3, 0 
	MOVWF       FARG_AddTask+3 
	MOVLW       2
	ADDWF       FARG_AddTask+0, 1 
	MOVLW       0
	ADDWFC      FARG_AddTask+1, 1 
	ADDWFC      FARG_AddTask+2, 1 
	ADDWFC      FARG_AddTask+3, 1 
	MOVF        State6_delay_L0+0, 0 
	ADDWF       FARG_AddTask+0, 1 
	MOVLW       0
	ADDWFC      FARG_AddTask+1, 1 
	ADDWFC      FARG_AddTask+2, 1 
	ADDWFC      FARG_AddTask+3, 1 
	MOVLW       11
	MOVWF       FARG_AddTask+0 
	CALL        _AddTask+0, 0
;FirmV_0_7_0.c,978 :: 		AddTask(ms500+Door2OpenTime+ActionTimeDiff+delay,4);//Stop motor
	MOVF        _Door2OpenTime+0, 0 
	ADDWF       _ms500+0, 0 
	MOVWF       FARG_AddTask+0 
	MOVLW       0
	ADDWFC      _ms500+1, 0 
	MOVWF       FARG_AddTask+1 
	MOVLW       0
	ADDWFC      _ms500+2, 0 
	MOVWF       FARG_AddTask+2 
	MOVLW       0
	ADDWFC      _ms500+3, 0 
	MOVWF       FARG_AddTask+3 
	MOVF        _ActionTimeDiff+0, 0 
	ADDWF       FARG_AddTask+0, 1 
	MOVLW       0
	ADDWFC      FARG_AddTask+1, 1 
	ADDWFC      FARG_AddTask+2, 1 
	ADDWFC      FARG_AddTask+3, 1 
	MOVF        State6_delay_L0+0, 0 
	ADDWF       FARG_AddTask+0, 1 
	MOVLW       0
	ADDWFC      FARG_AddTask+1, 1 
	ADDWFC      FARG_AddTask+2, 1 
	ADDWFC      FARG_AddTask+3, 1 
	MOVLW       4
	MOVWF       FARG_AddTask+0 
	CALL        _AddTask+0, 0
;FirmV_0_7_0.c,979 :: 		}
L_State6187:
;FirmV_0_7_0.c,980 :: 		OpenDone=3;
	MOVLW       3
	MOVWF       _OpenDone+0 
;FirmV_0_7_0.c,981 :: 		OverloadCheckFlag1=0;
	CLRF        _OverloadCheckFlag1+0 
;FirmV_0_7_0.c,982 :: 		OverloadCheckFlag2=0;
	CLRF        _OverloadCheckFlag2+0 
;FirmV_0_7_0.c,983 :: 		PassFlag=0;
	CLRF        _PassFlag+0 
;FirmV_0_7_0.c,984 :: 		State=8;
	MOVLW       8
	MOVWF       _State+0 
;FirmV_0_7_0.c,985 :: 		}
L_State6184:
;FirmV_0_7_0.c,988 :: 		if(CheckTask(9)==1)
	MOVLW       9
	MOVWF       FARG_CheckTask+0 
	CALL        _CheckTask+0, 0
	MOVF        R0, 0 
	XORLW       1
	BTFSS       STATUS+0, 2 
	GOTO        L_State6188
;FirmV_0_7_0.c,990 :: 		ClearTasks(9);
	MOVLW       9
	MOVWF       FARG_ClearTasks+0 
	CALL        _ClearTasks+0, 0
;FirmV_0_7_0.c,991 :: 		temp=ms500+delay;
	MOVF        State6_delay_L0+0, 0 
	ADDWF       _ms500+0, 0 
	MOVWF       R0 
	MOVLW       0
	ADDWFC      _ms500+1, 0 
	MOVWF       R1 
	MOVLW       0
	ADDWFC      _ms500+2, 0 
	MOVWF       R2 
	MOVLW       0
	ADDWFC      _ms500+3, 0 
	MOVWF       R3 
	MOVF        R0, 0 
	MOVWF       _temp+0 
	MOVF        R1, 0 
	MOVWF       _temp+1 
	MOVF        R2, 0 
	MOVWF       _temp+2 
	MOVF        R3, 0 
	MOVWF       _temp+3 
;FirmV_0_7_0.c,992 :: 		AddTask(temp,1);
	MOVF        R0, 0 
	MOVWF       FARG_AddTask+0 
	MOVF        R1, 0 
	MOVWF       FARG_AddTask+1 
	MOVF        R2, 0 
	MOVWF       FARG_AddTask+2 
	MOVF        R3, 0 
	MOVWF       FARG_AddTask+3 
	MOVLW       1
	MOVWF       FARG_AddTask+0 
	CALL        _AddTask+0, 0
;FirmV_0_7_0.c,993 :: 		AddTask(temp,5);
	MOVF        _temp+0, 0 
	MOVWF       FARG_AddTask+0 
	MOVF        _temp+1, 0 
	MOVWF       FARG_AddTask+1 
	MOVF        _temp+2, 0 
	MOVWF       FARG_AddTask+2 
	MOVF        _temp+3, 0 
	MOVWF       FARG_AddTask+3 
	MOVLW       5
	MOVWF       FARG_AddTask+0 
	CALL        _AddTask+0, 0
;FirmV_0_7_0.c,994 :: 		M1isSlow=0;//speed up
	CLRF        _M1isSlow+0 
;FirmV_0_7_0.c,995 :: 		temp=ms500+OverloadDelay+delay;
	MOVLW       2
	ADDWF       _ms500+0, 0 
	MOVWF       R0 
	MOVLW       0
	ADDWFC      _ms500+1, 0 
	MOVWF       R1 
	MOVLW       0
	ADDWFC      _ms500+2, 0 
	MOVWF       R2 
	MOVLW       0
	ADDWFC      _ms500+3, 0 
	MOVWF       R3 
	MOVF        State6_delay_L0+0, 0 
	ADDWF       R0, 1 
	MOVLW       0
	ADDWFC      R1, 1 
	ADDWFC      R2, 1 
	ADDWFC      R3, 1 
	MOVF        R0, 0 
	MOVWF       _temp+0 
	MOVF        R1, 0 
	MOVWF       _temp+1 
	MOVF        R2, 0 
	MOVWF       _temp+2 
	MOVF        R3, 0 
	MOVWF       _temp+3 
;FirmV_0_7_0.c,996 :: 		AddTask(temp,10); //overload check
	MOVF        R0, 0 
	MOVWF       FARG_AddTask+0 
	MOVF        R1, 0 
	MOVWF       FARG_AddTask+1 
	MOVF        R2, 0 
	MOVWF       FARG_AddTask+2 
	MOVF        R3, 0 
	MOVWF       FARG_AddTask+3 
	MOVLW       10
	MOVWF       FARG_AddTask+0 
	CALL        _AddTask+0, 0
;FirmV_0_7_0.c,997 :: 		temp=ms500+Door1CloseTime+delay;
	MOVF        _Door1CloseTime+0, 0 
	ADDWF       _ms500+0, 0 
	MOVWF       R0 
	MOVLW       0
	ADDWFC      _ms500+1, 0 
	MOVWF       R1 
	MOVLW       0
	ADDWFC      _ms500+2, 0 
	MOVWF       R2 
	MOVLW       0
	ADDWFC      _ms500+3, 0 
	MOVWF       R3 
	MOVF        State6_delay_L0+0, 0 
	ADDWF       R0, 1 
	MOVLW       0
	ADDWFC      R1, 1 
	ADDWFC      R2, 1 
	ADDWFC      R3, 1 
	MOVF        R0, 0 
	MOVWF       _temp+0 
	MOVF        R1, 0 
	MOVWF       _temp+1 
	MOVF        R2, 0 
	MOVWF       _temp+2 
	MOVF        R3, 0 
	MOVWF       _temp+3 
;FirmV_0_7_0.c,998 :: 		AddTask(temp,3);//Stop motor
	MOVF        R0, 0 
	MOVWF       FARG_AddTask+0 
	MOVF        R1, 0 
	MOVWF       FARG_AddTask+1 
	MOVF        R2, 0 
	MOVWF       FARG_AddTask+2 
	MOVF        R3, 0 
	MOVWF       FARG_AddTask+3 
	MOVLW       3
	MOVWF       FARG_AddTask+0 
	CALL        _AddTask+0, 0
;FirmV_0_7_0.c,1000 :: 		if((Door2CloseTime!=0)&&(ActiveDoors==2))
	MOVF        _Door2CloseTime+0, 0 
	XORLW       0
	BTFSC       STATUS+0, 2 
	GOTO        L_State6191
	MOVF        _ActiveDoors+0, 0 
	XORLW       2
	BTFSS       STATUS+0, 2 
	GOTO        L_State6191
L__State6684:
;FirmV_0_7_0.c,1002 :: 		AddTask(ms500+ActionTimeDiff+delay,2);
	MOVF        _ActionTimeDiff+0, 0 
	ADDWF       _ms500+0, 0 
	MOVWF       FARG_AddTask+0 
	MOVLW       0
	ADDWFC      _ms500+1, 0 
	MOVWF       FARG_AddTask+1 
	MOVLW       0
	ADDWFC      _ms500+2, 0 
	MOVWF       FARG_AddTask+2 
	MOVLW       0
	ADDWFC      _ms500+3, 0 
	MOVWF       FARG_AddTask+3 
	MOVF        State6_delay_L0+0, 0 
	ADDWF       FARG_AddTask+0, 1 
	MOVLW       0
	ADDWFC      FARG_AddTask+1, 1 
	ADDWFC      FARG_AddTask+2, 1 
	ADDWFC      FARG_AddTask+3, 1 
	MOVLW       2
	MOVWF       FARG_AddTask+0 
	CALL        _AddTask+0, 0
;FirmV_0_7_0.c,1003 :: 		AddTask(ms500+ActionTimeDiff+delay,6);
	MOVF        _ActionTimeDiff+0, 0 
	ADDWF       _ms500+0, 0 
	MOVWF       FARG_AddTask+0 
	MOVLW       0
	ADDWFC      _ms500+1, 0 
	MOVWF       FARG_AddTask+1 
	MOVLW       0
	ADDWFC      _ms500+2, 0 
	MOVWF       FARG_AddTask+2 
	MOVLW       0
	ADDWFC      _ms500+3, 0 
	MOVWF       FARG_AddTask+3 
	MOVF        State6_delay_L0+0, 0 
	ADDWF       FARG_AddTask+0, 1 
	MOVLW       0
	ADDWFC      FARG_AddTask+1, 1 
	ADDWFC      FARG_AddTask+2, 1 
	ADDWFC      FARG_AddTask+3, 1 
	MOVLW       6
	MOVWF       FARG_AddTask+0 
	CALL        _AddTask+0, 0
;FirmV_0_7_0.c,1004 :: 		M2isSlow=0;//speed up
	CLRF        _M2isSlow+0 
;FirmV_0_7_0.c,1005 :: 		AddTask(ms500+ActionTimeDiff+OverloadDelay+delay,11); //overload check
	MOVF        _ActionTimeDiff+0, 0 
	ADDWF       _ms500+0, 0 
	MOVWF       FARG_AddTask+0 
	MOVLW       0
	ADDWFC      _ms500+1, 0 
	MOVWF       FARG_AddTask+1 
	MOVLW       0
	ADDWFC      _ms500+2, 0 
	MOVWF       FARG_AddTask+2 
	MOVLW       0
	ADDWFC      _ms500+3, 0 
	MOVWF       FARG_AddTask+3 
	MOVLW       2
	ADDWF       FARG_AddTask+0, 1 
	MOVLW       0
	ADDWFC      FARG_AddTask+1, 1 
	ADDWFC      FARG_AddTask+2, 1 
	ADDWFC      FARG_AddTask+3, 1 
	MOVF        State6_delay_L0+0, 0 
	ADDWF       FARG_AddTask+0, 1 
	MOVLW       0
	ADDWFC      FARG_AddTask+1, 1 
	ADDWFC      FARG_AddTask+2, 1 
	ADDWFC      FARG_AddTask+3, 1 
	MOVLW       11
	MOVWF       FARG_AddTask+0 
	CALL        _AddTask+0, 0
;FirmV_0_7_0.c,1006 :: 		AddTask(ms500+Door1CloseTime+ActionTimeDiff+delay,4);//Stop motor
	MOVF        _Door1CloseTime+0, 0 
	ADDWF       _ms500+0, 0 
	MOVWF       FARG_AddTask+0 
	MOVLW       0
	ADDWFC      _ms500+1, 0 
	MOVWF       FARG_AddTask+1 
	MOVLW       0
	ADDWFC      _ms500+2, 0 
	MOVWF       FARG_AddTask+2 
	MOVLW       0
	ADDWFC      _ms500+3, 0 
	MOVWF       FARG_AddTask+3 
	MOVF        _ActionTimeDiff+0, 0 
	ADDWF       FARG_AddTask+0, 1 
	MOVLW       0
	ADDWFC      FARG_AddTask+1, 1 
	ADDWFC      FARG_AddTask+2, 1 
	ADDWFC      FARG_AddTask+3, 1 
	MOVF        State6_delay_L0+0, 0 
	ADDWF       FARG_AddTask+0, 1 
	MOVLW       0
	ADDWFC      FARG_AddTask+1, 1 
	ADDWFC      FARG_AddTask+2, 1 
	ADDWFC      FARG_AddTask+3, 1 
	MOVLW       4
	MOVWF       FARG_AddTask+0 
	CALL        _AddTask+0, 0
;FirmV_0_7_0.c,1007 :: 		}
L_State6191:
;FirmV_0_7_0.c,1008 :: 		CloseDone=3;
	MOVLW       3
	MOVWF       _CloseDone+0 
;FirmV_0_7_0.c,1009 :: 		OverloadCheckFlag1=0;
	CLRF        _OverloadCheckFlag1+0 
;FirmV_0_7_0.c,1010 :: 		OverloadCheckFlag2=0;
	CLRF        _OverloadCheckFlag2+0 
;FirmV_0_7_0.c,1011 :: 		PassFlag=0;
	CLRF        _PassFlag+0 
;FirmV_0_7_0.c,1012 :: 		State=7;
	MOVLW       7
	MOVWF       _State+0 
;FirmV_0_7_0.c,1013 :: 		}
L_State6188:
;FirmV_0_7_0.c,1015 :: 		if((Events.Photocell.b0==1)&&(AutoCloseTime!=0)&&(PassFlag==0))
	BTFSS       _Events+6, 0 
	GOTO        L_State6194
	MOVLW       0
	XORWF       _AutoCloseTime+1, 0 
	BTFSS       STATUS+0, 2 
	GOTO        L__State6768
	MOVLW       0
	XORWF       _AutoCloseTime+0, 0 
L__State6768:
	BTFSC       STATUS+0, 2 
	GOTO        L_State6194
	MOVF        _PassFlag+0, 0 
	XORLW       0
	BTFSS       STATUS+0, 2 
	GOTO        L_State6194
L__State6683:
;FirmV_0_7_0.c,1016 :: 		{PassFlag=1; _AC=GetAutocloseTime();Logger("S6 Auto Close Deleted");}
	MOVLW       1
	MOVWF       _PassFlag+0 
	CALL        _GetAutocloseTime+0, 0
	MOVF        R0, 0 
	MOVWF       __AC+0 
	MOVLW       ?ICS?lstr41_FirmV_0_7_0+0
	MOVWF       TBLPTRL 
	MOVLW       hi_addr(?ICS?lstr41_FirmV_0_7_0+0)
	MOVWF       TBLPTRH 
	MOVLW       higher_addr(?ICS?lstr41_FirmV_0_7_0+0)
	MOVWF       TBLPTRU 
	MOVLW       ?lstr41_FirmV_0_7_0+0
	MOVWF       FSR1L 
	MOVLW       hi_addr(?lstr41_FirmV_0_7_0+0)
	MOVWF       FSR1H 
	MOVLW       22
	MOVWF       R0 
	MOVLW       1
	MOVWF       R1 
	CALL        ___CC2DW+0, 0
	MOVLW       ?lstr41_FirmV_0_7_0+0
	MOVWF       FARG_Logger_text+0 
	MOVLW       hi_addr(?lstr41_FirmV_0_7_0+0)
	MOVWF       FARG_Logger_text+1 
	CALL        _Logger+0, 0
L_State6194:
;FirmV_0_7_0.c,1018 :: 		if((PassFlag==1)&&(Events.Photocell.b0==0)&&(AutoCloseTime!=0))
	MOVF        _PassFlag+0, 0 
	XORLW       1
	BTFSS       STATUS+0, 2 
	GOTO        L_State6197
	BTFSC       _Events+6, 0 
	GOTO        L_State6197
	MOVLW       0
	XORWF       _AutoCloseTime+1, 0 
	BTFSS       STATUS+0, 2 
	GOTO        L__State6769
	MOVLW       0
	XORWF       _AutoCloseTime+0, 0 
L__State6769:
	BTFSC       STATUS+0, 2 
	GOTO        L_State6197
L__State6682:
;FirmV_0_7_0.c,1020 :: 		{temp=ms500+_AC;AddTask(temp,9);PassFlag=0;longwordtostrwithzeros(temp,t);Logger("S6 Insert 9 at:");Logger(t);}
	MOVF        __AC+0, 0 
	ADDWF       _ms500+0, 0 
	MOVWF       R0 
	MOVLW       0
	ADDWFC      _ms500+1, 0 
	MOVWF       R1 
	MOVLW       0
	ADDWFC      _ms500+2, 0 
	MOVWF       R2 
	MOVLW       0
	ADDWFC      _ms500+3, 0 
	MOVWF       R3 
	MOVF        R0, 0 
	MOVWF       _temp+0 
	MOVF        R1, 0 
	MOVWF       _temp+1 
	MOVF        R2, 0 
	MOVWF       _temp+2 
	MOVF        R3, 0 
	MOVWF       _temp+3 
	MOVF        R0, 0 
	MOVWF       FARG_AddTask+0 
	MOVF        R1, 0 
	MOVWF       FARG_AddTask+1 
	MOVF        R2, 0 
	MOVWF       FARG_AddTask+2 
	MOVF        R3, 0 
	MOVWF       FARG_AddTask+3 
	MOVLW       9
	MOVWF       FARG_AddTask+0 
	CALL        _AddTask+0, 0
	CLRF        _PassFlag+0 
	MOVF        _temp+0, 0 
	MOVWF       FARG_LongWordToStrWithZeros_input+0 
	MOVF        _temp+1, 0 
	MOVWF       FARG_LongWordToStrWithZeros_input+1 
	MOVF        _temp+2, 0 
	MOVWF       FARG_LongWordToStrWithZeros_input+2 
	MOVF        _temp+3, 0 
	MOVWF       FARG_LongWordToStrWithZeros_input+3 
	MOVLW       _t+0
	MOVWF       FARG_LongWordToStrWithZeros_output+0 
	MOVLW       hi_addr(_t+0)
	MOVWF       FARG_LongWordToStrWithZeros_output+1 
	CALL        _LongWordToStrWithZeros+0, 0
	MOVLW       ?ICS?lstr42_FirmV_0_7_0+0
	MOVWF       TBLPTRL 
	MOVLW       hi_addr(?ICS?lstr42_FirmV_0_7_0+0)
	MOVWF       TBLPTRH 
	MOVLW       higher_addr(?ICS?lstr42_FirmV_0_7_0+0)
	MOVWF       TBLPTRU 
	MOVLW       ?lstr42_FirmV_0_7_0+0
	MOVWF       FSR1L 
	MOVLW       hi_addr(?lstr42_FirmV_0_7_0+0)
	MOVWF       FSR1H 
	MOVLW       16
	MOVWF       R0 
	MOVLW       1
	MOVWF       R1 
	CALL        ___CC2DW+0, 0
	MOVLW       ?lstr42_FirmV_0_7_0+0
	MOVWF       FARG_Logger_text+0 
	MOVLW       hi_addr(?lstr42_FirmV_0_7_0+0)
	MOVWF       FARG_Logger_text+1 
	CALL        _Logger+0, 0
	MOVLW       _t+0
	MOVWF       FARG_Logger_text+0 
	MOVLW       hi_addr(_t+0)
	MOVWF       FARG_Logger_text+1 
	CALL        _Logger+0, 0
;FirmV_0_7_0.c,1022 :: 		{temp=ms500+CloseAfterPass;AddTask(temp,9);PassFlag=0;longwordtostrwithzeros(temp,t);Logger("S6 Insert 9 at:");Logger(t);}
L_State6199:
;FirmV_0_7_0.c,1023 :: 		}
L_State6197:
;FirmV_0_7_0.c,1025 :: 		}
	RETURN      0
; end of _State6

_State7:

;FirmV_0_7_0.c,1047 :: 		void State7()
;FirmV_0_7_0.c,1049 :: 		Flasher=1;
	BSF         PORTD+0, 7 
;FirmV_0_7_0.c,1051 :: 		if(CheckTask(1))
	MOVLW       1
	MOVWF       FARG_CheckTask+0 
	CALL        _CheckTask+0, 0
	MOVF        R0, 1 
	BTFSC       STATUS+0, 2 
	GOTO        L_State7200
;FirmV_0_7_0.c,1052 :: 		{StartMotor(1,_Close);Logger("S7 Motor1Start");memcpy(LCDLine1,_closing,16);memcpy(LCDLine2,_Blank,16);LCDUpdateFlag=1;LCDLines=1;}
	MOVLW       1
	MOVWF       FARG_StartMotor+0 
	CLRF        FARG_StartMotor+0 
	CALL        _StartMotor+0, 0
	MOVLW       83
	MOVWF       ?lstr44_FirmV_0_7_0+0 
	MOVLW       55
	MOVWF       ?lstr44_FirmV_0_7_0+1 
	MOVLW       32
	MOVWF       ?lstr44_FirmV_0_7_0+2 
	MOVLW       77
	MOVWF       ?lstr44_FirmV_0_7_0+3 
	MOVLW       111
	MOVWF       ?lstr44_FirmV_0_7_0+4 
	MOVLW       116
	MOVWF       ?lstr44_FirmV_0_7_0+5 
	MOVLW       111
	MOVWF       ?lstr44_FirmV_0_7_0+6 
	MOVLW       114
	MOVWF       ?lstr44_FirmV_0_7_0+7 
	MOVLW       49
	MOVWF       ?lstr44_FirmV_0_7_0+8 
	MOVLW       83
	MOVWF       ?lstr44_FirmV_0_7_0+9 
	MOVLW       116
	MOVWF       ?lstr44_FirmV_0_7_0+10 
	MOVLW       97
	MOVWF       ?lstr44_FirmV_0_7_0+11 
	MOVLW       114
	MOVWF       ?lstr44_FirmV_0_7_0+12 
	MOVLW       116
	MOVWF       ?lstr44_FirmV_0_7_0+13 
	CLRF        ?lstr44_FirmV_0_7_0+14 
	MOVLW       ?lstr44_FirmV_0_7_0+0
	MOVWF       FARG_Logger_text+0 
	MOVLW       hi_addr(?lstr44_FirmV_0_7_0+0)
	MOVWF       FARG_Logger_text+1 
	CALL        _Logger+0, 0
	MOVLW       _LCDLine1+0
	MOVWF       FARG_memcpy_d1+0 
	MOVLW       hi_addr(_LCDLine1+0)
	MOVWF       FARG_memcpy_d1+1 
	MOVLW       __closing+0
	MOVWF       FARG_memcpy_s1+0 
	MOVLW       hi_addr(__closing+0)
	MOVWF       FARG_memcpy_s1+1 
	MOVLW       16
	MOVWF       FARG_memcpy_n+0 
	MOVLW       0
	MOVWF       FARG_memcpy_n+1 
	CALL        _memcpy+0, 0
	MOVLW       _LCDLine2+0
	MOVWF       FARG_memcpy_d1+0 
	MOVLW       hi_addr(_LCDLine2+0)
	MOVWF       FARG_memcpy_d1+1 
	MOVLW       __Blank+0
	MOVWF       FARG_memcpy_s1+0 
	MOVLW       hi_addr(__Blank+0)
	MOVWF       FARG_memcpy_s1+1 
	MOVLW       16
	MOVWF       FARG_memcpy_n+0 
	MOVLW       0
	MOVWF       FARG_memcpy_n+1 
	CALL        _memcpy+0, 0
	MOVLW       1
	MOVWF       _LCDUpdateFlag+0 
	MOVLW       1
	MOVWF       _LCDLines+0 
L_State7200:
;FirmV_0_7_0.c,1054 :: 		if(CheckTask(2))
	MOVLW       2
	MOVWF       FARG_CheckTask+0 
	CALL        _CheckTask+0, 0
	MOVF        R0, 1 
	BTFSC       STATUS+0, 2 
	GOTO        L_State7201
;FirmV_0_7_0.c,1055 :: 		{StartMotor(2,_Close);Logger("S7 Motor2Start");}
	MOVLW       2
	MOVWF       FARG_StartMotor+0 
	CLRF        FARG_StartMotor+0 
	CALL        _StartMotor+0, 0
	MOVLW       83
	MOVWF       ?lstr45_FirmV_0_7_0+0 
	MOVLW       55
	MOVWF       ?lstr45_FirmV_0_7_0+1 
	MOVLW       32
	MOVWF       ?lstr45_FirmV_0_7_0+2 
	MOVLW       77
	MOVWF       ?lstr45_FirmV_0_7_0+3 
	MOVLW       111
	MOVWF       ?lstr45_FirmV_0_7_0+4 
	MOVLW       116
	MOVWF       ?lstr45_FirmV_0_7_0+5 
	MOVLW       111
	MOVWF       ?lstr45_FirmV_0_7_0+6 
	MOVLW       114
	MOVWF       ?lstr45_FirmV_0_7_0+7 
	MOVLW       50
	MOVWF       ?lstr45_FirmV_0_7_0+8 
	MOVLW       83
	MOVWF       ?lstr45_FirmV_0_7_0+9 
	MOVLW       116
	MOVWF       ?lstr45_FirmV_0_7_0+10 
	MOVLW       97
	MOVWF       ?lstr45_FirmV_0_7_0+11 
	MOVLW       114
	MOVWF       ?lstr45_FirmV_0_7_0+12 
	MOVLW       116
	MOVWF       ?lstr45_FirmV_0_7_0+13 
	CLRF        ?lstr45_FirmV_0_7_0+14 
	MOVLW       ?lstr45_FirmV_0_7_0+0
	MOVWF       FARG_Logger_text+0 
	MOVLW       hi_addr(?lstr45_FirmV_0_7_0+0)
	MOVWF       FARG_Logger_text+1 
	CALL        _Logger+0, 0
L_State7201:
;FirmV_0_7_0.c,1057 :: 		if(CheckTask(10))
	MOVLW       10
	MOVWF       FARG_CheckTask+0 
	CALL        _CheckTask+0, 0
	MOVF        R0, 1 
	BTFSC       STATUS+0, 2 
	GOTO        L_State7202
;FirmV_0_7_0.c,1058 :: 		{OverloadCheckFlag1=1; OverloadInit(1);Logger("S7 M1 Overload Check");}
	MOVLW       1
	MOVWF       _OverloadCheckFlag1+0 
	MOVLW       1
	MOVWF       FARG_OverloadInit+0 
	CALL        _OverloadInit+0, 0
	MOVLW       ?ICS?lstr46_FirmV_0_7_0+0
	MOVWF       TBLPTRL 
	MOVLW       hi_addr(?ICS?lstr46_FirmV_0_7_0+0)
	MOVWF       TBLPTRH 
	MOVLW       higher_addr(?ICS?lstr46_FirmV_0_7_0+0)
	MOVWF       TBLPTRU 
	MOVLW       ?lstr46_FirmV_0_7_0+0
	MOVWF       FSR1L 
	MOVLW       hi_addr(?lstr46_FirmV_0_7_0+0)
	MOVWF       FSR1H 
	MOVLW       21
	MOVWF       R0 
	MOVLW       1
	MOVWF       R1 
	CALL        ___CC2DW+0, 0
	MOVLW       ?lstr46_FirmV_0_7_0+0
	MOVWF       FARG_Logger_text+0 
	MOVLW       hi_addr(?lstr46_FirmV_0_7_0+0)
	MOVWF       FARG_Logger_text+1 
	CALL        _Logger+0, 0
L_State7202:
;FirmV_0_7_0.c,1060 :: 		if(CheckTask(11))
	MOVLW       11
	MOVWF       FARG_CheckTask+0 
	CALL        _CheckTask+0, 0
	MOVF        R0, 1 
	BTFSC       STATUS+0, 2 
	GOTO        L_State7203
;FirmV_0_7_0.c,1061 :: 		{OverloadCheckFlag2=1; OverloadInit(2);Logger("S7 M2 Overload Check");}
	MOVLW       1
	MOVWF       _OverloadCheckFlag2+0 
	MOVLW       2
	MOVWF       FARG_OverloadInit+0 
	CALL        _OverloadInit+0, 0
	MOVLW       ?ICS?lstr47_FirmV_0_7_0+0
	MOVWF       TBLPTRL 
	MOVLW       hi_addr(?ICS?lstr47_FirmV_0_7_0+0)
	MOVWF       TBLPTRH 
	MOVLW       higher_addr(?ICS?lstr47_FirmV_0_7_0+0)
	MOVWF       TBLPTRU 
	MOVLW       ?lstr47_FirmV_0_7_0+0
	MOVWF       FSR1L 
	MOVLW       hi_addr(?lstr47_FirmV_0_7_0+0)
	MOVWF       FSR1H 
	MOVLW       21
	MOVWF       R0 
	MOVLW       1
	MOVWF       R1 
	CALL        ___CC2DW+0, 0
	MOVLW       ?lstr47_FirmV_0_7_0+0
	MOVWF       FARG_Logger_text+0 
	MOVLW       hi_addr(?lstr47_FirmV_0_7_0+0)
	MOVWF       FARG_Logger_text+1 
	CALL        _Logger+0, 0
L_State7203:
;FirmV_0_7_0.c,1063 :: 		if(CheckTask(5))
	MOVLW       5
	MOVWF       FARG_CheckTask+0 
	CALL        _CheckTask+0, 0
	MOVF        R0, 1 
	BTFSC       STATUS+0, 2 
	GOTO        L_State7204
;FirmV_0_7_0.c,1064 :: 		{SetMotorSpeed(1,Motor2FullSpeed); M1isSlow=0;Logger("S7 M1 Speed UP");}
	MOVLW       1
	MOVWF       FARG_SetMotorSpeed+0 
	MOVF        _Motor2FullSpeed+0, 0 
	MOVWF       FARG_SetMotorSpeed+0 
	CALL        _SetMotorSpeed+0, 0
	CLRF        _M1isSlow+0 
	MOVLW       83
	MOVWF       ?lstr48_FirmV_0_7_0+0 
	MOVLW       55
	MOVWF       ?lstr48_FirmV_0_7_0+1 
	MOVLW       32
	MOVWF       ?lstr48_FirmV_0_7_0+2 
	MOVLW       77
	MOVWF       ?lstr48_FirmV_0_7_0+3 
	MOVLW       49
	MOVWF       ?lstr48_FirmV_0_7_0+4 
	MOVLW       32
	MOVWF       ?lstr48_FirmV_0_7_0+5 
	MOVLW       83
	MOVWF       ?lstr48_FirmV_0_7_0+6 
	MOVLW       112
	MOVWF       ?lstr48_FirmV_0_7_0+7 
	MOVLW       101
	MOVWF       ?lstr48_FirmV_0_7_0+8 
	MOVLW       101
	MOVWF       ?lstr48_FirmV_0_7_0+9 
	MOVLW       100
	MOVWF       ?lstr48_FirmV_0_7_0+10 
	MOVLW       32
	MOVWF       ?lstr48_FirmV_0_7_0+11 
	MOVLW       85
	MOVWF       ?lstr48_FirmV_0_7_0+12 
	MOVLW       80
	MOVWF       ?lstr48_FirmV_0_7_0+13 
	CLRF        ?lstr48_FirmV_0_7_0+14 
	MOVLW       ?lstr48_FirmV_0_7_0+0
	MOVWF       FARG_Logger_text+0 
	MOVLW       hi_addr(?lstr48_FirmV_0_7_0+0)
	MOVWF       FARG_Logger_text+1 
	CALL        _Logger+0, 0
L_State7204:
;FirmV_0_7_0.c,1066 :: 		if(CheckTask(6))
	MOVLW       6
	MOVWF       FARG_CheckTask+0 
	CALL        _CheckTask+0, 0
	MOVF        R0, 1 
	BTFSC       STATUS+0, 2 
	GOTO        L_State7205
;FirmV_0_7_0.c,1067 :: 		{SetMotorSpeed(Motor1FullSpeed,1); M2isSlow=0;Logger("S7 M2 Speed UP");}
	MOVF        _Motor1FullSpeed+0, 0 
	MOVWF       FARG_SetMotorSpeed+0 
	MOVLW       1
	MOVWF       FARG_SetMotorSpeed+0 
	CALL        _SetMotorSpeed+0, 0
	CLRF        _M2isSlow+0 
	MOVLW       83
	MOVWF       ?lstr49_FirmV_0_7_0+0 
	MOVLW       55
	MOVWF       ?lstr49_FirmV_0_7_0+1 
	MOVLW       32
	MOVWF       ?lstr49_FirmV_0_7_0+2 
	MOVLW       77
	MOVWF       ?lstr49_FirmV_0_7_0+3 
	MOVLW       50
	MOVWF       ?lstr49_FirmV_0_7_0+4 
	MOVLW       32
	MOVWF       ?lstr49_FirmV_0_7_0+5 
	MOVLW       83
	MOVWF       ?lstr49_FirmV_0_7_0+6 
	MOVLW       112
	MOVWF       ?lstr49_FirmV_0_7_0+7 
	MOVLW       101
	MOVWF       ?lstr49_FirmV_0_7_0+8 
	MOVLW       101
	MOVWF       ?lstr49_FirmV_0_7_0+9 
	MOVLW       100
	MOVWF       ?lstr49_FirmV_0_7_0+10 
	MOVLW       32
	MOVWF       ?lstr49_FirmV_0_7_0+11 
	MOVLW       85
	MOVWF       ?lstr49_FirmV_0_7_0+12 
	MOVLW       80
	MOVWF       ?lstr49_FirmV_0_7_0+13 
	CLRF        ?lstr49_FirmV_0_7_0+14 
	MOVLW       ?lstr49_FirmV_0_7_0+0
	MOVWF       FARG_Logger_text+0 
	MOVLW       hi_addr(?lstr49_FirmV_0_7_0+0)
	MOVWF       FARG_Logger_text+1 
	CALL        _Logger+0, 0
L_State7205:
;FirmV_0_7_0.c,1069 :: 		if((CheckTask(3)||((OverloadCheckFlag1==1)&&(Events.Overload.b0==1)))&&(CloseDone.b0))
	MOVLW       3
	MOVWF       FARG_CheckTask+0 
	CALL        _CheckTask+0, 0
	MOVF        R0, 1 
	BTFSS       STATUS+0, 2 
	GOTO        L__State7694
	MOVF        _OverloadCheckFlag1+0, 0 
	XORLW       1
	BTFSS       STATUS+0, 2 
	GOTO        L__State7695
	BTFSS       _Events+5, 0 
	GOTO        L__State7695
	GOTO        L__State7694
L__State7695:
	GOTO        L_State7212
L__State7694:
	BTFSS       _CloseDone+0, 0 
	GOTO        L_State7212
L__State7693:
;FirmV_0_7_0.c,1070 :: 		{CloseDone.b0=0; StopMotor(1);Logger("S7 M1 Stoped");}
	BCF         _CloseDone+0, 0 
	MOVLW       1
	MOVWF       FARG_StopMotor+0 
	CALL        _StopMotor+0, 0
	MOVLW       83
	MOVWF       ?lstr50_FirmV_0_7_0+0 
	MOVLW       55
	MOVWF       ?lstr50_FirmV_0_7_0+1 
	MOVLW       32
	MOVWF       ?lstr50_FirmV_0_7_0+2 
	MOVLW       77
	MOVWF       ?lstr50_FirmV_0_7_0+3 
	MOVLW       49
	MOVWF       ?lstr50_FirmV_0_7_0+4 
	MOVLW       32
	MOVWF       ?lstr50_FirmV_0_7_0+5 
	MOVLW       83
	MOVWF       ?lstr50_FirmV_0_7_0+6 
	MOVLW       116
	MOVWF       ?lstr50_FirmV_0_7_0+7 
	MOVLW       111
	MOVWF       ?lstr50_FirmV_0_7_0+8 
	MOVLW       112
	MOVWF       ?lstr50_FirmV_0_7_0+9 
	MOVLW       101
	MOVWF       ?lstr50_FirmV_0_7_0+10 
	MOVLW       100
	MOVWF       ?lstr50_FirmV_0_7_0+11 
	CLRF        ?lstr50_FirmV_0_7_0+12 
	MOVLW       ?lstr50_FirmV_0_7_0+0
	MOVWF       FARG_Logger_text+0 
	MOVLW       hi_addr(?lstr50_FirmV_0_7_0+0)
	MOVWF       FARG_Logger_text+1 
	CALL        _Logger+0, 0
L_State7212:
;FirmV_0_7_0.c,1072 :: 		if((CheckTask(4)||((OverloadCheckFlag2==1)&&(Events.Overload.b1==1)))&&(CloseDone.b1))
	MOVLW       4
	MOVWF       FARG_CheckTask+0 
	CALL        _CheckTask+0, 0
	MOVF        R0, 1 
	BTFSS       STATUS+0, 2 
	GOTO        L__State7691
	MOVF        _OverloadCheckFlag2+0, 0 
	XORLW       1
	BTFSS       STATUS+0, 2 
	GOTO        L__State7692
	BTFSS       _Events+5, 1 
	GOTO        L__State7692
	GOTO        L__State7691
L__State7692:
	GOTO        L_State7219
L__State7691:
	BTFSS       _CloseDone+0, 1 
	GOTO        L_State7219
L__State7690:
;FirmV_0_7_0.c,1073 :: 		{CloseDone.b1=0; StopMotor(2);Logger("S7 M2 Stoped");}
	BCF         _CloseDone+0, 1 
	MOVLW       2
	MOVWF       FARG_StopMotor+0 
	CALL        _StopMotor+0, 0
	MOVLW       83
	MOVWF       ?lstr51_FirmV_0_7_0+0 
	MOVLW       55
	MOVWF       ?lstr51_FirmV_0_7_0+1 
	MOVLW       32
	MOVWF       ?lstr51_FirmV_0_7_0+2 
	MOVLW       77
	MOVWF       ?lstr51_FirmV_0_7_0+3 
	MOVLW       50
	MOVWF       ?lstr51_FirmV_0_7_0+4 
	MOVLW       32
	MOVWF       ?lstr51_FirmV_0_7_0+5 
	MOVLW       83
	MOVWF       ?lstr51_FirmV_0_7_0+6 
	MOVLW       116
	MOVWF       ?lstr51_FirmV_0_7_0+7 
	MOVLW       111
	MOVWF       ?lstr51_FirmV_0_7_0+8 
	MOVLW       112
	MOVWF       ?lstr51_FirmV_0_7_0+9 
	MOVLW       101
	MOVWF       ?lstr51_FirmV_0_7_0+10 
	MOVLW       100
	MOVWF       ?lstr51_FirmV_0_7_0+11 
	CLRF        ?lstr51_FirmV_0_7_0+12 
	MOVLW       ?lstr51_FirmV_0_7_0+0
	MOVWF       FARG_Logger_text+0 
	MOVLW       hi_addr(?lstr51_FirmV_0_7_0+0)
	MOVWF       FARG_Logger_text+1 
	CALL        _Logger+0, 0
L_State7219:
;FirmV_0_7_0.c,1075 :: 		if((Door2OpenTime==0)||(ActiveDoors==1))
	MOVF        _Door2OpenTime+0, 0 
	XORLW       0
	BTFSC       STATUS+0, 2 
	GOTO        L__State7689
	MOVF        _ActiveDoors+0, 0 
	XORLW       1
	BTFSC       STATUS+0, 2 
	GOTO        L__State7689
	GOTO        L_State7222
L__State7689:
;FirmV_0_7_0.c,1076 :: 		CloseDone.b1=0;
	BCF         _CloseDone+0, 1 
L_State7222:
;FirmV_0_7_0.c,1078 :: 		if((Events.Photocell.b0==1))
	BTFSS       _Events+6, 0 
	GOTO        L_State7223
;FirmV_0_7_0.c,1079 :: 		{StopMotor(1); StopMotor(2); OverloadCheckFlag1=0;OverloadCheckFlag2=0;State=6;PhotocellOpenFlag=1;Logger("S7 Photocell Int");ClearTasks(9);
	MOVLW       1
	MOVWF       FARG_StopMotor+0 
	CALL        _StopMotor+0, 0
	MOVLW       2
	MOVWF       FARG_StopMotor+0 
	CALL        _StopMotor+0, 0
	CLRF        _OverloadCheckFlag1+0 
	CLRF        _OverloadCheckFlag2+0 
	MOVLW       6
	MOVWF       _State+0 
	MOVLW       1
	MOVWF       _PhotocellOpenFlag+0 
	MOVLW       ?ICS?lstr52_FirmV_0_7_0+0
	MOVWF       TBLPTRL 
	MOVLW       hi_addr(?ICS?lstr52_FirmV_0_7_0+0)
	MOVWF       TBLPTRH 
	MOVLW       higher_addr(?ICS?lstr52_FirmV_0_7_0+0)
	MOVWF       TBLPTRU 
	MOVLW       ?lstr52_FirmV_0_7_0+0
	MOVWF       FSR1L 
	MOVLW       hi_addr(?lstr52_FirmV_0_7_0+0)
	MOVWF       FSR1H 
	MOVLW       17
	MOVWF       R0 
	MOVLW       1
	MOVWF       R1 
	CALL        ___CC2DW+0, 0
	MOVLW       ?lstr52_FirmV_0_7_0+0
	MOVWF       FARG_Logger_text+0 
	MOVLW       hi_addr(?lstr52_FirmV_0_7_0+0)
	MOVWF       FARG_Logger_text+1 
	CALL        _Logger+0, 0
	MOVLW       9
	MOVWF       FARG_ClearTasks+0 
	CALL        _ClearTasks+0, 0
;FirmV_0_7_0.c,1080 :: 		memcpy(LCDLine1,_stop,16);memcpy(LCDLine2,_ErrPhoto,16);LCDUpdateFlag=1;LCDLines=2;}
	MOVLW       _LCDLine1+0
	MOVWF       FARG_memcpy_d1+0 
	MOVLW       hi_addr(_LCDLine1+0)
	MOVWF       FARG_memcpy_d1+1 
	MOVLW       __stop+0
	MOVWF       FARG_memcpy_s1+0 
	MOVLW       hi_addr(__stop+0)
	MOVWF       FARG_memcpy_s1+1 
	MOVLW       16
	MOVWF       FARG_memcpy_n+0 
	MOVLW       0
	MOVWF       FARG_memcpy_n+1 
	CALL        _memcpy+0, 0
	MOVLW       _LCDLine2+0
	MOVWF       FARG_memcpy_d1+0 
	MOVLW       hi_addr(_LCDLine2+0)
	MOVWF       FARG_memcpy_d1+1 
	MOVLW       __errPhoto+0
	MOVWF       FARG_memcpy_s1+0 
	MOVLW       hi_addr(__errPhoto+0)
	MOVWF       FARG_memcpy_s1+1 
	MOVLW       16
	MOVWF       FARG_memcpy_n+0 
	MOVLW       0
	MOVWF       FARG_memcpy_n+1 
	CALL        _memcpy+0, 0
	MOVLW       1
	MOVWF       _LCDUpdateFlag+0 
	MOVLW       2
	MOVWF       _LCDLines+0 
L_State7223:
;FirmV_0_7_0.c,1082 :: 		if((Events.Remote!=0))
	MOVF        _Events+4, 0 
	XORLW       0
	BTFSC       STATUS+0, 2 
	GOTO        L_State7224
;FirmV_0_7_0.c,1083 :: 		{StopMotor(1); StopMotor(2); State=6;OverloadCheckFlag1=0;OverloadCheckFlag2=0;Logger("S7 Remote Pressed");ClearTasks(9);
	MOVLW       1
	MOVWF       FARG_StopMotor+0 
	CALL        _StopMotor+0, 0
	MOVLW       2
	MOVWF       FARG_StopMotor+0 
	CALL        _StopMotor+0, 0
	MOVLW       6
	MOVWF       _State+0 
	CLRF        _OverloadCheckFlag1+0 
	CLRF        _OverloadCheckFlag2+0 
	MOVLW       ?ICS?lstr53_FirmV_0_7_0+0
	MOVWF       TBLPTRL 
	MOVLW       hi_addr(?ICS?lstr53_FirmV_0_7_0+0)
	MOVWF       TBLPTRH 
	MOVLW       higher_addr(?ICS?lstr53_FirmV_0_7_0+0)
	MOVWF       TBLPTRU 
	MOVLW       ?lstr53_FirmV_0_7_0+0
	MOVWF       FSR1L 
	MOVLW       hi_addr(?lstr53_FirmV_0_7_0+0)
	MOVWF       FSR1H 
	MOVLW       18
	MOVWF       R0 
	MOVLW       1
	MOVWF       R1 
	CALL        ___CC2DW+0, 0
	MOVLW       ?lstr53_FirmV_0_7_0+0
	MOVWF       FARG_Logger_text+0 
	MOVLW       hi_addr(?lstr53_FirmV_0_7_0+0)
	MOVWF       FARG_Logger_text+1 
	CALL        _Logger+0, 0
	MOVLW       9
	MOVWF       FARG_ClearTasks+0 
	CALL        _ClearTasks+0, 0
;FirmV_0_7_0.c,1084 :: 		memcpy(LCDLine1,_stop,16);memcpy(LCDLine2,_ErrRemote,16);LCDUpdateFlag=1;LCDLines=2;}
	MOVLW       _LCDLine1+0
	MOVWF       FARG_memcpy_d1+0 
	MOVLW       hi_addr(_LCDLine1+0)
	MOVWF       FARG_memcpy_d1+1 
	MOVLW       __stop+0
	MOVWF       FARG_memcpy_s1+0 
	MOVLW       hi_addr(__stop+0)
	MOVWF       FARG_memcpy_s1+1 
	MOVLW       16
	MOVWF       FARG_memcpy_n+0 
	MOVLW       0
	MOVWF       FARG_memcpy_n+1 
	CALL        _memcpy+0, 0
	MOVLW       _LCDLine2+0
	MOVWF       FARG_memcpy_d1+0 
	MOVLW       hi_addr(_LCDLine2+0)
	MOVWF       FARG_memcpy_d1+1 
	MOVLW       __errRemote+0
	MOVWF       FARG_memcpy_s1+0 
	MOVLW       hi_addr(__errRemote+0)
	MOVWF       FARG_memcpy_s1+1 
	MOVLW       16
	MOVWF       FARG_memcpy_n+0 
	MOVLW       0
	MOVWF       FARG_memcpy_n+1 
	CALL        _memcpy+0, 0
	MOVLW       1
	MOVWF       _LCDUpdateFlag+0 
	MOVLW       2
	MOVWF       _LCDLines+0 
L_State7224:
;FirmV_0_7_0.c,1086 :: 		if((Events.Limiter==1)&&(LimiterEnable))
	MOVF        _Events+7, 0 
	XORLW       1
	BTFSS       STATUS+0, 2 
	GOTO        L_State7227
	MOVF        _LimiterEnable+0, 1 
	BTFSC       STATUS+0, 2 
	GOTO        L_State7227
L__State7688:
;FirmV_0_7_0.c,1087 :: 		{StopMotor(1); StopMotor(2); State=6;OverloadCheckFlag1=0;OverloadCheckFlag2=0;Logger("S7 Limit Switch Stop");ClearTasks(9);
	MOVLW       1
	MOVWF       FARG_StopMotor+0 
	CALL        _StopMotor+0, 0
	MOVLW       2
	MOVWF       FARG_StopMotor+0 
	CALL        _StopMotor+0, 0
	MOVLW       6
	MOVWF       _State+0 
	CLRF        _OverloadCheckFlag1+0 
	CLRF        _OverloadCheckFlag2+0 
	MOVLW       ?ICS?lstr54_FirmV_0_7_0+0
	MOVWF       TBLPTRL 
	MOVLW       hi_addr(?ICS?lstr54_FirmV_0_7_0+0)
	MOVWF       TBLPTRH 
	MOVLW       higher_addr(?ICS?lstr54_FirmV_0_7_0+0)
	MOVWF       TBLPTRU 
	MOVLW       ?lstr54_FirmV_0_7_0+0
	MOVWF       FSR1L 
	MOVLW       hi_addr(?lstr54_FirmV_0_7_0+0)
	MOVWF       FSR1H 
	MOVLW       21
	MOVWF       R0 
	MOVLW       1
	MOVWF       R1 
	CALL        ___CC2DW+0, 0
	MOVLW       ?lstr54_FirmV_0_7_0+0
	MOVWF       FARG_Logger_text+0 
	MOVLW       hi_addr(?lstr54_FirmV_0_7_0+0)
	MOVWF       FARG_Logger_text+1 
	CALL        _Logger+0, 0
	MOVLW       9
	MOVWF       FARG_ClearTasks+0 
	CALL        _ClearTasks+0, 0
;FirmV_0_7_0.c,1088 :: 		memcpy(LCDLine1,_stop,16);memcpy(LCDLine2,_ErrLimit,16);LCDUpdateFlag=1;LCDLines=2;}
	MOVLW       _LCDLine1+0
	MOVWF       FARG_memcpy_d1+0 
	MOVLW       hi_addr(_LCDLine1+0)
	MOVWF       FARG_memcpy_d1+1 
	MOVLW       __stop+0
	MOVWF       FARG_memcpy_s1+0 
	MOVLW       hi_addr(__stop+0)
	MOVWF       FARG_memcpy_s1+1 
	MOVLW       16
	MOVWF       FARG_memcpy_n+0 
	MOVLW       0
	MOVWF       FARG_memcpy_n+1 
	CALL        _memcpy+0, 0
	MOVLW       _LCDLine2+0
	MOVWF       FARG_memcpy_d1+0 
	MOVLW       hi_addr(_LCDLine2+0)
	MOVWF       FARG_memcpy_d1+1 
	MOVLW       __errLimit+0
	MOVWF       FARG_memcpy_s1+0 
	MOVLW       hi_addr(__errLimit+0)
	MOVWF       FARG_memcpy_s1+1 
	MOVLW       16
	MOVWF       FARG_memcpy_n+0 
	MOVLW       0
	MOVWF       FARG_memcpy_n+1 
	CALL        _memcpy+0, 0
	MOVLW       1
	MOVWF       _LCDUpdateFlag+0 
	MOVLW       2
	MOVWF       _LCDLines+0 
L_State7227:
;FirmV_0_7_0.c,1090 :: 		if(CloseDone==0)
	MOVF        _CloseDone+0, 0 
	XORLW       0
	BTFSS       STATUS+0, 2 
	GOTO        L_State7228
;FirmV_0_7_0.c,1091 :: 		{State=1; PassFlag=0;ClearTasks(9);memcpy(LCDLine1,_close,16);memcpy(LCDLine2,_Blank,16);LCDUpdateFlag=1;LCDLines=1;}
	MOVLW       1
	MOVWF       _State+0 
	CLRF        _PassFlag+0 
	MOVLW       9
	MOVWF       FARG_ClearTasks+0 
	CALL        _ClearTasks+0, 0
	MOVLW       _LCDLine1+0
	MOVWF       FARG_memcpy_d1+0 
	MOVLW       hi_addr(_LCDLine1+0)
	MOVWF       FARG_memcpy_d1+1 
	MOVLW       __close+0
	MOVWF       FARG_memcpy_s1+0 
	MOVLW       hi_addr(__close+0)
	MOVWF       FARG_memcpy_s1+1 
	MOVLW       16
	MOVWF       FARG_memcpy_n+0 
	MOVLW       0
	MOVWF       FARG_memcpy_n+1 
	CALL        _memcpy+0, 0
	MOVLW       _LCDLine2+0
	MOVWF       FARG_memcpy_d1+0 
	MOVLW       hi_addr(_LCDLine2+0)
	MOVWF       FARG_memcpy_d1+1 
	MOVLW       __Blank+0
	MOVWF       FARG_memcpy_s1+0 
	MOVLW       hi_addr(__Blank+0)
	MOVWF       FARG_memcpy_s1+1 
	MOVLW       16
	MOVWF       FARG_memcpy_n+0 
	MOVLW       0
	MOVWF       FARG_memcpy_n+1 
	CALL        _memcpy+0, 0
	MOVLW       1
	MOVWF       _LCDUpdateFlag+0 
	MOVLW       1
	MOVWF       _LCDLines+0 
L_State7228:
;FirmV_0_7_0.c,1093 :: 		if((State==5)||(State==6))
	MOVF        _State+0, 0 
	XORLW       5
	BTFSC       STATUS+0, 2 
	GOTO        L__State7687
	MOVF        _State+0, 0 
	XORLW       6
	BTFSC       STATUS+0, 2 
	GOTO        L__State7687
	GOTO        L_State7231
L__State7687:
;FirmV_0_7_0.c,1094 :: 		{ClearTasks(0);if(AutoCloseTime!=0){AddTask(ms500+AutoCloseTime,9);Logger("S7 Autoclose Renewed");memcpy(LCDLine2,_autoclose,16);LCDUpdateFlag=1;LCDLines=2;}}
	CLRF        FARG_ClearTasks+0 
	CALL        _ClearTasks+0, 0
	MOVLW       0
	XORWF       _AutoCloseTime+1, 0 
	BTFSS       STATUS+0, 2 
	GOTO        L__State7770
	MOVLW       0
	XORWF       _AutoCloseTime+0, 0 
L__State7770:
	BTFSC       STATUS+0, 2 
	GOTO        L_State7232
	MOVF        _AutoCloseTime+0, 0 
	ADDWF       _ms500+0, 0 
	MOVWF       FARG_AddTask+0 
	MOVF        _AutoCloseTime+1, 0 
	ADDWFC      _ms500+1, 0 
	MOVWF       FARG_AddTask+1 
	MOVLW       0
	ADDWFC      _ms500+2, 0 
	MOVWF       FARG_AddTask+2 
	MOVLW       0
	ADDWFC      _ms500+3, 0 
	MOVWF       FARG_AddTask+3 
	MOVLW       9
	MOVWF       FARG_AddTask+0 
	CALL        _AddTask+0, 0
	MOVLW       ?ICS?lstr55_FirmV_0_7_0+0
	MOVWF       TBLPTRL 
	MOVLW       hi_addr(?ICS?lstr55_FirmV_0_7_0+0)
	MOVWF       TBLPTRH 
	MOVLW       higher_addr(?ICS?lstr55_FirmV_0_7_0+0)
	MOVWF       TBLPTRU 
	MOVLW       ?lstr55_FirmV_0_7_0+0
	MOVWF       FSR1L 
	MOVLW       hi_addr(?lstr55_FirmV_0_7_0+0)
	MOVWF       FSR1H 
	MOVLW       21
	MOVWF       R0 
	MOVLW       1
	MOVWF       R1 
	CALL        ___CC2DW+0, 0
	MOVLW       ?lstr55_FirmV_0_7_0+0
	MOVWF       FARG_Logger_text+0 
	MOVLW       hi_addr(?lstr55_FirmV_0_7_0+0)
	MOVWF       FARG_Logger_text+1 
	CALL        _Logger+0, 0
	MOVLW       _LCDLine2+0
	MOVWF       FARG_memcpy_d1+0 
	MOVLW       hi_addr(_LCDLine2+0)
	MOVWF       FARG_memcpy_d1+1 
	MOVLW       __autoclose+0
	MOVWF       FARG_memcpy_s1+0 
	MOVLW       hi_addr(__autoclose+0)
	MOVWF       FARG_memcpy_s1+1 
	MOVLW       16
	MOVWF       FARG_memcpy_n+0 
	MOVLW       0
	MOVWF       FARG_memcpy_n+1 
	CALL        _memcpy+0, 0
	MOVLW       1
	MOVWF       _LCDUpdateFlag+0 
	MOVLW       2
	MOVWF       _LCDLines+0 
L_State7232:
L_State7231:
;FirmV_0_7_0.c,1097 :: 		}
	RETURN      0
; end of _State7

_State8:

;FirmV_0_7_0.c,1114 :: 		void State8()
;FirmV_0_7_0.c,1116 :: 		Flasher=1;
	BSF         PORTD+0, 7 
;FirmV_0_7_0.c,1118 :: 		if(CheckTask(1))
	MOVLW       1
	MOVWF       FARG_CheckTask+0 
	CALL        _CheckTask+0, 0
	MOVF        R0, 1 
	BTFSC       STATUS+0, 2 
	GOTO        L_State8233
;FirmV_0_7_0.c,1119 :: 		{StartMotor(1,_Open);Logger("S8 Motor1Start"); Lock=0;memcpy(LCDLine1,_opening,16);memcpy(LCDLine2,_Blank,16);LCDUpdateFlag=1;LCDLines=1;}
	MOVLW       1
	MOVWF       FARG_StartMotor+0 
	MOVLW       1
	MOVWF       FARG_StartMotor+0 
	CALL        _StartMotor+0, 0
	MOVLW       83
	MOVWF       ?lstr56_FirmV_0_7_0+0 
	MOVLW       56
	MOVWF       ?lstr56_FirmV_0_7_0+1 
	MOVLW       32
	MOVWF       ?lstr56_FirmV_0_7_0+2 
	MOVLW       77
	MOVWF       ?lstr56_FirmV_0_7_0+3 
	MOVLW       111
	MOVWF       ?lstr56_FirmV_0_7_0+4 
	MOVLW       116
	MOVWF       ?lstr56_FirmV_0_7_0+5 
	MOVLW       111
	MOVWF       ?lstr56_FirmV_0_7_0+6 
	MOVLW       114
	MOVWF       ?lstr56_FirmV_0_7_0+7 
	MOVLW       49
	MOVWF       ?lstr56_FirmV_0_7_0+8 
	MOVLW       83
	MOVWF       ?lstr56_FirmV_0_7_0+9 
	MOVLW       116
	MOVWF       ?lstr56_FirmV_0_7_0+10 
	MOVLW       97
	MOVWF       ?lstr56_FirmV_0_7_0+11 
	MOVLW       114
	MOVWF       ?lstr56_FirmV_0_7_0+12 
	MOVLW       116
	MOVWF       ?lstr56_FirmV_0_7_0+13 
	CLRF        ?lstr56_FirmV_0_7_0+14 
	MOVLW       ?lstr56_FirmV_0_7_0+0
	MOVWF       FARG_Logger_text+0 
	MOVLW       hi_addr(?lstr56_FirmV_0_7_0+0)
	MOVWF       FARG_Logger_text+1 
	CALL        _Logger+0, 0
	BCF         PORTD+0, 6 
	MOVLW       _LCDLine1+0
	MOVWF       FARG_memcpy_d1+0 
	MOVLW       hi_addr(_LCDLine1+0)
	MOVWF       FARG_memcpy_d1+1 
	MOVLW       __opening+0
	MOVWF       FARG_memcpy_s1+0 
	MOVLW       hi_addr(__opening+0)
	MOVWF       FARG_memcpy_s1+1 
	MOVLW       16
	MOVWF       FARG_memcpy_n+0 
	MOVLW       0
	MOVWF       FARG_memcpy_n+1 
	CALL        _memcpy+0, 0
	MOVLW       _LCDLine2+0
	MOVWF       FARG_memcpy_d1+0 
	MOVLW       hi_addr(_LCDLine2+0)
	MOVWF       FARG_memcpy_d1+1 
	MOVLW       __Blank+0
	MOVWF       FARG_memcpy_s1+0 
	MOVLW       hi_addr(__Blank+0)
	MOVWF       FARG_memcpy_s1+1 
	MOVLW       16
	MOVWF       FARG_memcpy_n+0 
	MOVLW       0
	MOVWF       FARG_memcpy_n+1 
	CALL        _memcpy+0, 0
	MOVLW       1
	MOVWF       _LCDUpdateFlag+0 
	MOVLW       1
	MOVWF       _LCDLines+0 
L_State8233:
;FirmV_0_7_0.c,1121 :: 		if(CheckTask(2))
	MOVLW       2
	MOVWF       FARG_CheckTask+0 
	CALL        _CheckTask+0, 0
	MOVF        R0, 1 
	BTFSC       STATUS+0, 2 
	GOTO        L_State8234
;FirmV_0_7_0.c,1122 :: 		{StartMotor(2,_Open);Logger("S8 Motor2Start"); Lock=0;}
	MOVLW       2
	MOVWF       FARG_StartMotor+0 
	MOVLW       1
	MOVWF       FARG_StartMotor+0 
	CALL        _StartMotor+0, 0
	MOVLW       83
	MOVWF       ?lstr57_FirmV_0_7_0+0 
	MOVLW       56
	MOVWF       ?lstr57_FirmV_0_7_0+1 
	MOVLW       32
	MOVWF       ?lstr57_FirmV_0_7_0+2 
	MOVLW       77
	MOVWF       ?lstr57_FirmV_0_7_0+3 
	MOVLW       111
	MOVWF       ?lstr57_FirmV_0_7_0+4 
	MOVLW       116
	MOVWF       ?lstr57_FirmV_0_7_0+5 
	MOVLW       111
	MOVWF       ?lstr57_FirmV_0_7_0+6 
	MOVLW       114
	MOVWF       ?lstr57_FirmV_0_7_0+7 
	MOVLW       50
	MOVWF       ?lstr57_FirmV_0_7_0+8 
	MOVLW       83
	MOVWF       ?lstr57_FirmV_0_7_0+9 
	MOVLW       116
	MOVWF       ?lstr57_FirmV_0_7_0+10 
	MOVLW       97
	MOVWF       ?lstr57_FirmV_0_7_0+11 
	MOVLW       114
	MOVWF       ?lstr57_FirmV_0_7_0+12 
	MOVLW       116
	MOVWF       ?lstr57_FirmV_0_7_0+13 
	CLRF        ?lstr57_FirmV_0_7_0+14 
	MOVLW       ?lstr57_FirmV_0_7_0+0
	MOVWF       FARG_Logger_text+0 
	MOVLW       hi_addr(?lstr57_FirmV_0_7_0+0)
	MOVWF       FARG_Logger_text+1 
	CALL        _Logger+0, 0
	BCF         PORTD+0, 6 
L_State8234:
;FirmV_0_7_0.c,1124 :: 		if(CheckTask(10))
	MOVLW       10
	MOVWF       FARG_CheckTask+0 
	CALL        _CheckTask+0, 0
	MOVF        R0, 1 
	BTFSC       STATUS+0, 2 
	GOTO        L_State8235
;FirmV_0_7_0.c,1125 :: 		{OverloadCheckFlag1=1; OverloadInit(1);Logger("S8 Overflow Flag1 Set");}
	MOVLW       1
	MOVWF       _OverloadCheckFlag1+0 
	MOVLW       1
	MOVWF       FARG_OverloadInit+0 
	CALL        _OverloadInit+0, 0
	MOVLW       ?ICS?lstr58_FirmV_0_7_0+0
	MOVWF       TBLPTRL 
	MOVLW       hi_addr(?ICS?lstr58_FirmV_0_7_0+0)
	MOVWF       TBLPTRH 
	MOVLW       higher_addr(?ICS?lstr58_FirmV_0_7_0+0)
	MOVWF       TBLPTRU 
	MOVLW       ?lstr58_FirmV_0_7_0+0
	MOVWF       FSR1L 
	MOVLW       hi_addr(?lstr58_FirmV_0_7_0+0)
	MOVWF       FSR1H 
	MOVLW       22
	MOVWF       R0 
	MOVLW       1
	MOVWF       R1 
	CALL        ___CC2DW+0, 0
	MOVLW       ?lstr58_FirmV_0_7_0+0
	MOVWF       FARG_Logger_text+0 
	MOVLW       hi_addr(?lstr58_FirmV_0_7_0+0)
	MOVWF       FARG_Logger_text+1 
	CALL        _Logger+0, 0
L_State8235:
;FirmV_0_7_0.c,1127 :: 		if(CheckTask(11))
	MOVLW       11
	MOVWF       FARG_CheckTask+0 
	CALL        _CheckTask+0, 0
	MOVF        R0, 1 
	BTFSC       STATUS+0, 2 
	GOTO        L_State8236
;FirmV_0_7_0.c,1128 :: 		{OverloadCheckFlag2=1; OverloadInit(2);Logger("S8 Overflow Flag2 Set");}
	MOVLW       1
	MOVWF       _OverloadCheckFlag2+0 
	MOVLW       2
	MOVWF       FARG_OverloadInit+0 
	CALL        _OverloadInit+0, 0
	MOVLW       ?ICS?lstr59_FirmV_0_7_0+0
	MOVWF       TBLPTRL 
	MOVLW       hi_addr(?ICS?lstr59_FirmV_0_7_0+0)
	MOVWF       TBLPTRH 
	MOVLW       higher_addr(?ICS?lstr59_FirmV_0_7_0+0)
	MOVWF       TBLPTRU 
	MOVLW       ?lstr59_FirmV_0_7_0+0
	MOVWF       FSR1L 
	MOVLW       hi_addr(?lstr59_FirmV_0_7_0+0)
	MOVWF       FSR1H 
	MOVLW       22
	MOVWF       R0 
	MOVLW       1
	MOVWF       R1 
	CALL        ___CC2DW+0, 0
	MOVLW       ?lstr59_FirmV_0_7_0+0
	MOVWF       FARG_Logger_text+0 
	MOVLW       hi_addr(?lstr59_FirmV_0_7_0+0)
	MOVWF       FARG_Logger_text+1 
	CALL        _Logger+0, 0
L_State8236:
;FirmV_0_7_0.c,1130 :: 		if(CheckTask(5))
	MOVLW       5
	MOVWF       FARG_CheckTask+0 
	CALL        _CheckTask+0, 0
	MOVF        R0, 1 
	BTFSC       STATUS+0, 2 
	GOTO        L_State8237
;FirmV_0_7_0.c,1131 :: 		{SetMotorSpeed(1,Motor2FullSpeed); M1isSlow=0;Logger("S8 Motor1 Fast");}
	MOVLW       1
	MOVWF       FARG_SetMotorSpeed+0 
	MOVF        _Motor2FullSpeed+0, 0 
	MOVWF       FARG_SetMotorSpeed+0 
	CALL        _SetMotorSpeed+0, 0
	CLRF        _M1isSlow+0 
	MOVLW       83
	MOVWF       ?lstr60_FirmV_0_7_0+0 
	MOVLW       56
	MOVWF       ?lstr60_FirmV_0_7_0+1 
	MOVLW       32
	MOVWF       ?lstr60_FirmV_0_7_0+2 
	MOVLW       77
	MOVWF       ?lstr60_FirmV_0_7_0+3 
	MOVLW       111
	MOVWF       ?lstr60_FirmV_0_7_0+4 
	MOVLW       116
	MOVWF       ?lstr60_FirmV_0_7_0+5 
	MOVLW       111
	MOVWF       ?lstr60_FirmV_0_7_0+6 
	MOVLW       114
	MOVWF       ?lstr60_FirmV_0_7_0+7 
	MOVLW       49
	MOVWF       ?lstr60_FirmV_0_7_0+8 
	MOVLW       32
	MOVWF       ?lstr60_FirmV_0_7_0+9 
	MOVLW       70
	MOVWF       ?lstr60_FirmV_0_7_0+10 
	MOVLW       97
	MOVWF       ?lstr60_FirmV_0_7_0+11 
	MOVLW       115
	MOVWF       ?lstr60_FirmV_0_7_0+12 
	MOVLW       116
	MOVWF       ?lstr60_FirmV_0_7_0+13 
	CLRF        ?lstr60_FirmV_0_7_0+14 
	MOVLW       ?lstr60_FirmV_0_7_0+0
	MOVWF       FARG_Logger_text+0 
	MOVLW       hi_addr(?lstr60_FirmV_0_7_0+0)
	MOVWF       FARG_Logger_text+1 
	CALL        _Logger+0, 0
L_State8237:
;FirmV_0_7_0.c,1133 :: 		if(CheckTask(6))
	MOVLW       6
	MOVWF       FARG_CheckTask+0 
	CALL        _CheckTask+0, 0
	MOVF        R0, 1 
	BTFSC       STATUS+0, 2 
	GOTO        L_State8238
;FirmV_0_7_0.c,1134 :: 		{SetMotorSpeed(Motor1FullSpeed,1); M2isSlow=0;Logger("S8 Motor2 Fast");}
	MOVF        _Motor1FullSpeed+0, 0 
	MOVWF       FARG_SetMotorSpeed+0 
	MOVLW       1
	MOVWF       FARG_SetMotorSpeed+0 
	CALL        _SetMotorSpeed+0, 0
	CLRF        _M2isSlow+0 
	MOVLW       83
	MOVWF       ?lstr61_FirmV_0_7_0+0 
	MOVLW       56
	MOVWF       ?lstr61_FirmV_0_7_0+1 
	MOVLW       32
	MOVWF       ?lstr61_FirmV_0_7_0+2 
	MOVLW       77
	MOVWF       ?lstr61_FirmV_0_7_0+3 
	MOVLW       111
	MOVWF       ?lstr61_FirmV_0_7_0+4 
	MOVLW       116
	MOVWF       ?lstr61_FirmV_0_7_0+5 
	MOVLW       111
	MOVWF       ?lstr61_FirmV_0_7_0+6 
	MOVLW       114
	MOVWF       ?lstr61_FirmV_0_7_0+7 
	MOVLW       50
	MOVWF       ?lstr61_FirmV_0_7_0+8 
	MOVLW       32
	MOVWF       ?lstr61_FirmV_0_7_0+9 
	MOVLW       70
	MOVWF       ?lstr61_FirmV_0_7_0+10 
	MOVLW       97
	MOVWF       ?lstr61_FirmV_0_7_0+11 
	MOVLW       115
	MOVWF       ?lstr61_FirmV_0_7_0+12 
	MOVLW       116
	MOVWF       ?lstr61_FirmV_0_7_0+13 
	CLRF        ?lstr61_FirmV_0_7_0+14 
	MOVLW       ?lstr61_FirmV_0_7_0+0
	MOVWF       FARG_Logger_text+0 
	MOVLW       hi_addr(?lstr61_FirmV_0_7_0+0)
	MOVWF       FARG_Logger_text+1 
	CALL        _Logger+0, 0
L_State8238:
;FirmV_0_7_0.c,1136 :: 		if((CheckTask(3)||((OverloadCheckFlag1==1)&&(Events.Overload.b0==1)))&&(OpenDone.b0))
	MOVLW       3
	MOVWF       FARG_CheckTask+0 
	CALL        _CheckTask+0, 0
	MOVF        R0, 1 
	BTFSS       STATUS+0, 2 
	GOTO        L__State8704
	MOVF        _OverloadCheckFlag1+0, 0 
	XORLW       1
	BTFSS       STATUS+0, 2 
	GOTO        L__State8705
	BTFSS       _Events+5, 0 
	GOTO        L__State8705
	GOTO        L__State8704
L__State8705:
	GOTO        L_State8245
L__State8704:
	BTFSS       _OpenDone+0, 0 
	GOTO        L_State8245
L__State8703:
;FirmV_0_7_0.c,1137 :: 		{OpenDone.b0=0; StopMotor(1);Logger("S8 Motor1 Stop");}
	BCF         _OpenDone+0, 0 
	MOVLW       1
	MOVWF       FARG_StopMotor+0 
	CALL        _StopMotor+0, 0
	MOVLW       83
	MOVWF       ?lstr62_FirmV_0_7_0+0 
	MOVLW       56
	MOVWF       ?lstr62_FirmV_0_7_0+1 
	MOVLW       32
	MOVWF       ?lstr62_FirmV_0_7_0+2 
	MOVLW       77
	MOVWF       ?lstr62_FirmV_0_7_0+3 
	MOVLW       111
	MOVWF       ?lstr62_FirmV_0_7_0+4 
	MOVLW       116
	MOVWF       ?lstr62_FirmV_0_7_0+5 
	MOVLW       111
	MOVWF       ?lstr62_FirmV_0_7_0+6 
	MOVLW       114
	MOVWF       ?lstr62_FirmV_0_7_0+7 
	MOVLW       49
	MOVWF       ?lstr62_FirmV_0_7_0+8 
	MOVLW       32
	MOVWF       ?lstr62_FirmV_0_7_0+9 
	MOVLW       83
	MOVWF       ?lstr62_FirmV_0_7_0+10 
	MOVLW       116
	MOVWF       ?lstr62_FirmV_0_7_0+11 
	MOVLW       111
	MOVWF       ?lstr62_FirmV_0_7_0+12 
	MOVLW       112
	MOVWF       ?lstr62_FirmV_0_7_0+13 
	CLRF        ?lstr62_FirmV_0_7_0+14 
	MOVLW       ?lstr62_FirmV_0_7_0+0
	MOVWF       FARG_Logger_text+0 
	MOVLW       hi_addr(?lstr62_FirmV_0_7_0+0)
	MOVWF       FARG_Logger_text+1 
	CALL        _Logger+0, 0
L_State8245:
;FirmV_0_7_0.c,1139 :: 		if((CheckTask(4)||((OverloadCheckFlag2==1)&&(Events.Overload.b1==1)))&&(OpenDone.b1))
	MOVLW       4
	MOVWF       FARG_CheckTask+0 
	CALL        _CheckTask+0, 0
	MOVF        R0, 1 
	BTFSS       STATUS+0, 2 
	GOTO        L__State8701
	MOVF        _OverloadCheckFlag2+0, 0 
	XORLW       1
	BTFSS       STATUS+0, 2 
	GOTO        L__State8702
	BTFSS       _Events+5, 1 
	GOTO        L__State8702
	GOTO        L__State8701
L__State8702:
	GOTO        L_State8252
L__State8701:
	BTFSS       _OpenDone+0, 1 
	GOTO        L_State8252
L__State8700:
;FirmV_0_7_0.c,1140 :: 		{OpenDone.b1=0; StopMotor(2);Logger("S8 Motor2 Stop");}
	BCF         _OpenDone+0, 1 
	MOVLW       2
	MOVWF       FARG_StopMotor+0 
	CALL        _StopMotor+0, 0
	MOVLW       83
	MOVWF       ?lstr63_FirmV_0_7_0+0 
	MOVLW       56
	MOVWF       ?lstr63_FirmV_0_7_0+1 
	MOVLW       32
	MOVWF       ?lstr63_FirmV_0_7_0+2 
	MOVLW       77
	MOVWF       ?lstr63_FirmV_0_7_0+3 
	MOVLW       111
	MOVWF       ?lstr63_FirmV_0_7_0+4 
	MOVLW       116
	MOVWF       ?lstr63_FirmV_0_7_0+5 
	MOVLW       111
	MOVWF       ?lstr63_FirmV_0_7_0+6 
	MOVLW       114
	MOVWF       ?lstr63_FirmV_0_7_0+7 
	MOVLW       50
	MOVWF       ?lstr63_FirmV_0_7_0+8 
	MOVLW       32
	MOVWF       ?lstr63_FirmV_0_7_0+9 
	MOVLW       83
	MOVWF       ?lstr63_FirmV_0_7_0+10 
	MOVLW       116
	MOVWF       ?lstr63_FirmV_0_7_0+11 
	MOVLW       111
	MOVWF       ?lstr63_FirmV_0_7_0+12 
	MOVLW       112
	MOVWF       ?lstr63_FirmV_0_7_0+13 
	CLRF        ?lstr63_FirmV_0_7_0+14 
	MOVLW       ?lstr63_FirmV_0_7_0+0
	MOVWF       FARG_Logger_text+0 
	MOVLW       hi_addr(?lstr63_FirmV_0_7_0+0)
	MOVWF       FARG_Logger_text+1 
	CALL        _Logger+0, 0
L_State8252:
;FirmV_0_7_0.c,1142 :: 		if(CheckTask(12))
	MOVLW       12
	MOVWF       FARG_CheckTask+0 
	CALL        _CheckTask+0, 0
	MOVF        R0, 1 
	BTFSC       STATUS+0, 2 
	GOTO        L_State8253
;FirmV_0_7_0.c,1143 :: 		{Lock=1;}
	BSF         PORTD+0, 6 
L_State8253:
;FirmV_0_7_0.c,1145 :: 		if((Door2OpenTime==0)||(ActiveDoors==1))
	MOVF        _Door2OpenTime+0, 0 
	XORLW       0
	BTFSC       STATUS+0, 2 
	GOTO        L__State8699
	MOVF        _ActiveDoors+0, 0 
	XORLW       1
	BTFSC       STATUS+0, 2 
	GOTO        L__State8699
	GOTO        L_State8256
L__State8699:
;FirmV_0_7_0.c,1146 :: 		OpenDone.b1=0;
	BCF         _OpenDone+0, 1 
L_State8256:
;FirmV_0_7_0.c,1148 :: 		if((Events.Photocell.b0==1)&&(OpenPhEnable))
	BTFSS       _Events+6, 0 
	GOTO        L_State8259
	MOVF        _OpenPhEnable+0, 1 
	BTFSC       STATUS+0, 2 
	GOTO        L_State8259
L__State8698:
;FirmV_0_7_0.c,1149 :: 		{StopMotor(1); StopMotor(2);OverloadCheckFlag1=0;OverloadCheckFlag2=0; State=5;Logger("S8 Photocell Int");ClearTasks(9);
	MOVLW       1
	MOVWF       FARG_StopMotor+0 
	CALL        _StopMotor+0, 0
	MOVLW       2
	MOVWF       FARG_StopMotor+0 
	CALL        _StopMotor+0, 0
	CLRF        _OverloadCheckFlag1+0 
	CLRF        _OverloadCheckFlag2+0 
	MOVLW       5
	MOVWF       _State+0 
	MOVLW       ?ICS?lstr64_FirmV_0_7_0+0
	MOVWF       TBLPTRL 
	MOVLW       hi_addr(?ICS?lstr64_FirmV_0_7_0+0)
	MOVWF       TBLPTRH 
	MOVLW       higher_addr(?ICS?lstr64_FirmV_0_7_0+0)
	MOVWF       TBLPTRU 
	MOVLW       ?lstr64_FirmV_0_7_0+0
	MOVWF       FSR1L 
	MOVLW       hi_addr(?lstr64_FirmV_0_7_0+0)
	MOVWF       FSR1H 
	MOVLW       17
	MOVWF       R0 
	MOVLW       1
	MOVWF       R1 
	CALL        ___CC2DW+0, 0
	MOVLW       ?lstr64_FirmV_0_7_0+0
	MOVWF       FARG_Logger_text+0 
	MOVLW       hi_addr(?lstr64_FirmV_0_7_0+0)
	MOVWF       FARG_Logger_text+1 
	CALL        _Logger+0, 0
	MOVLW       9
	MOVWF       FARG_ClearTasks+0 
	CALL        _ClearTasks+0, 0
;FirmV_0_7_0.c,1150 :: 		memcpy(LCDLine1,_stop,16);memcpy(LCDLine2,_ErrPhoto,16);LCDUpdateFlag=1;LCDLines=2;}
	MOVLW       _LCDLine1+0
	MOVWF       FARG_memcpy_d1+0 
	MOVLW       hi_addr(_LCDLine1+0)
	MOVWF       FARG_memcpy_d1+1 
	MOVLW       __stop+0
	MOVWF       FARG_memcpy_s1+0 
	MOVLW       hi_addr(__stop+0)
	MOVWF       FARG_memcpy_s1+1 
	MOVLW       16
	MOVWF       FARG_memcpy_n+0 
	MOVLW       0
	MOVWF       FARG_memcpy_n+1 
	CALL        _memcpy+0, 0
	MOVLW       _LCDLine2+0
	MOVWF       FARG_memcpy_d1+0 
	MOVLW       hi_addr(_LCDLine2+0)
	MOVWF       FARG_memcpy_d1+1 
	MOVLW       __errPhoto+0
	MOVWF       FARG_memcpy_s1+0 
	MOVLW       hi_addr(__errPhoto+0)
	MOVWF       FARG_memcpy_s1+1 
	MOVLW       16
	MOVWF       FARG_memcpy_n+0 
	MOVLW       0
	MOVWF       FARG_memcpy_n+1 
	CALL        _memcpy+0, 0
	MOVLW       1
	MOVWF       _LCDUpdateFlag+0 
	MOVLW       2
	MOVWF       _LCDLines+0 
L_State8259:
;FirmV_0_7_0.c,1152 :: 		if((Events.Remote!=0))
	MOVF        _Events+4, 0 
	XORLW       0
	BTFSC       STATUS+0, 2 
	GOTO        L_State8260
;FirmV_0_7_0.c,1153 :: 		{StopMotor(1); StopMotor(2); State=5;OverloadCheckFlag1=0;OverloadCheckFlag2=0; Logger("S8 Motors Stoped (Remote)");ClearTasks(9);
	MOVLW       1
	MOVWF       FARG_StopMotor+0 
	CALL        _StopMotor+0, 0
	MOVLW       2
	MOVWF       FARG_StopMotor+0 
	CALL        _StopMotor+0, 0
	MOVLW       5
	MOVWF       _State+0 
	CLRF        _OverloadCheckFlag1+0 
	CLRF        _OverloadCheckFlag2+0 
	MOVLW       ?ICS?lstr65_FirmV_0_7_0+0
	MOVWF       TBLPTRL 
	MOVLW       hi_addr(?ICS?lstr65_FirmV_0_7_0+0)
	MOVWF       TBLPTRH 
	MOVLW       higher_addr(?ICS?lstr65_FirmV_0_7_0+0)
	MOVWF       TBLPTRU 
	MOVLW       ?lstr65_FirmV_0_7_0+0
	MOVWF       FSR1L 
	MOVLW       hi_addr(?lstr65_FirmV_0_7_0+0)
	MOVWF       FSR1H 
	MOVLW       26
	MOVWF       R0 
	MOVLW       1
	MOVWF       R1 
	CALL        ___CC2DW+0, 0
	MOVLW       ?lstr65_FirmV_0_7_0+0
	MOVWF       FARG_Logger_text+0 
	MOVLW       hi_addr(?lstr65_FirmV_0_7_0+0)
	MOVWF       FARG_Logger_text+1 
	CALL        _Logger+0, 0
	MOVLW       9
	MOVWF       FARG_ClearTasks+0 
	CALL        _ClearTasks+0, 0
;FirmV_0_7_0.c,1154 :: 		memcpy(LCDLine1,_stop,16);memcpy(LCDLine2,_ErrRemote,16);LCDUpdateFlag=1;LCDLines=2;}
	MOVLW       _LCDLine1+0
	MOVWF       FARG_memcpy_d1+0 
	MOVLW       hi_addr(_LCDLine1+0)
	MOVWF       FARG_memcpy_d1+1 
	MOVLW       __stop+0
	MOVWF       FARG_memcpy_s1+0 
	MOVLW       hi_addr(__stop+0)
	MOVWF       FARG_memcpy_s1+1 
	MOVLW       16
	MOVWF       FARG_memcpy_n+0 
	MOVLW       0
	MOVWF       FARG_memcpy_n+1 
	CALL        _memcpy+0, 0
	MOVLW       _LCDLine2+0
	MOVWF       FARG_memcpy_d1+0 
	MOVLW       hi_addr(_LCDLine2+0)
	MOVWF       FARG_memcpy_d1+1 
	MOVLW       __errRemote+0
	MOVWF       FARG_memcpy_s1+0 
	MOVLW       hi_addr(__errRemote+0)
	MOVWF       FARG_memcpy_s1+1 
	MOVLW       16
	MOVWF       FARG_memcpy_n+0 
	MOVLW       0
	MOVWF       FARG_memcpy_n+1 
	CALL        _memcpy+0, 0
	MOVLW       1
	MOVWF       _LCDUpdateFlag+0 
	MOVLW       2
	MOVWF       _LCDLines+0 
L_State8260:
;FirmV_0_7_0.c,1156 :: 		if((Events.Limiter==1)&&(LimiterEnable))
	MOVF        _Events+7, 0 
	XORLW       1
	BTFSS       STATUS+0, 2 
	GOTO        L_State8263
	MOVF        _LimiterEnable+0, 1 
	BTFSC       STATUS+0, 2 
	GOTO        L_State8263
L__State8697:
;FirmV_0_7_0.c,1157 :: 		{StopMotor(1); StopMotor(2); State=5;OverloadCheckFlag1=0;OverloadCheckFlag2=0; Logger("S8 Limit Switch Stop");ClearTasks(9);
	MOVLW       1
	MOVWF       FARG_StopMotor+0 
	CALL        _StopMotor+0, 0
	MOVLW       2
	MOVWF       FARG_StopMotor+0 
	CALL        _StopMotor+0, 0
	MOVLW       5
	MOVWF       _State+0 
	CLRF        _OverloadCheckFlag1+0 
	CLRF        _OverloadCheckFlag2+0 
	MOVLW       ?ICS?lstr66_FirmV_0_7_0+0
	MOVWF       TBLPTRL 
	MOVLW       hi_addr(?ICS?lstr66_FirmV_0_7_0+0)
	MOVWF       TBLPTRH 
	MOVLW       higher_addr(?ICS?lstr66_FirmV_0_7_0+0)
	MOVWF       TBLPTRU 
	MOVLW       ?lstr66_FirmV_0_7_0+0
	MOVWF       FSR1L 
	MOVLW       hi_addr(?lstr66_FirmV_0_7_0+0)
	MOVWF       FSR1H 
	MOVLW       21
	MOVWF       R0 
	MOVLW       1
	MOVWF       R1 
	CALL        ___CC2DW+0, 0
	MOVLW       ?lstr66_FirmV_0_7_0+0
	MOVWF       FARG_Logger_text+0 
	MOVLW       hi_addr(?lstr66_FirmV_0_7_0+0)
	MOVWF       FARG_Logger_text+1 
	CALL        _Logger+0, 0
	MOVLW       9
	MOVWF       FARG_ClearTasks+0 
	CALL        _ClearTasks+0, 0
;FirmV_0_7_0.c,1158 :: 		memcpy(LCDLine1,_stop,16);memcpy(LCDLine2,_ErrLimit,16);LCDUpdateFlag=1;LCDLines=2;}
	MOVLW       _LCDLine1+0
	MOVWF       FARG_memcpy_d1+0 
	MOVLW       hi_addr(_LCDLine1+0)
	MOVWF       FARG_memcpy_d1+1 
	MOVLW       __stop+0
	MOVWF       FARG_memcpy_s1+0 
	MOVLW       hi_addr(__stop+0)
	MOVWF       FARG_memcpy_s1+1 
	MOVLW       16
	MOVWF       FARG_memcpy_n+0 
	MOVLW       0
	MOVWF       FARG_memcpy_n+1 
	CALL        _memcpy+0, 0
	MOVLW       _LCDLine2+0
	MOVWF       FARG_memcpy_d1+0 
	MOVLW       hi_addr(_LCDLine2+0)
	MOVWF       FARG_memcpy_d1+1 
	MOVLW       __errLimit+0
	MOVWF       FARG_memcpy_s1+0 
	MOVLW       hi_addr(__errLimit+0)
	MOVWF       FARG_memcpy_s1+1 
	MOVLW       16
	MOVWF       FARG_memcpy_n+0 
	MOVLW       0
	MOVWF       FARG_memcpy_n+1 
	CALL        _memcpy+0, 0
	MOVLW       1
	MOVWF       _LCDUpdateFlag+0 
	MOVLW       2
	MOVWF       _LCDLines+0 
L_State8263:
;FirmV_0_7_0.c,1160 :: 		if(OpenDone==0)
	MOVF        _OpenDone+0, 0 
	XORLW       0
	BTFSS       STATUS+0, 2 
	GOTO        L_State8264
;FirmV_0_7_0.c,1161 :: 		{State=2; PassFlag=0;ClearTasks(9);memcpy(LCDLine1,_open,16);memcpy(LCDLine2,_Blank,16);LCDUpdateFlag=1;LCDLines=1;}
	MOVLW       2
	MOVWF       _State+0 
	CLRF        _PassFlag+0 
	MOVLW       9
	MOVWF       FARG_ClearTasks+0 
	CALL        _ClearTasks+0, 0
	MOVLW       _LCDLine1+0
	MOVWF       FARG_memcpy_d1+0 
	MOVLW       hi_addr(_LCDLine1+0)
	MOVWF       FARG_memcpy_d1+1 
	MOVLW       __open+0
	MOVWF       FARG_memcpy_s1+0 
	MOVLW       hi_addr(__open+0)
	MOVWF       FARG_memcpy_s1+1 
	MOVLW       16
	MOVWF       FARG_memcpy_n+0 
	MOVLW       0
	MOVWF       FARG_memcpy_n+1 
	CALL        _memcpy+0, 0
	MOVLW       _LCDLine2+0
	MOVWF       FARG_memcpy_d1+0 
	MOVLW       hi_addr(_LCDLine2+0)
	MOVWF       FARG_memcpy_d1+1 
	MOVLW       __Blank+0
	MOVWF       FARG_memcpy_s1+0 
	MOVLW       hi_addr(__Blank+0)
	MOVWF       FARG_memcpy_s1+1 
	MOVLW       16
	MOVWF       FARG_memcpy_n+0 
	MOVLW       0
	MOVWF       FARG_memcpy_n+1 
	CALL        _memcpy+0, 0
	MOVLW       1
	MOVWF       _LCDUpdateFlag+0 
	MOVLW       1
	MOVWF       _LCDLines+0 
L_State8264:
;FirmV_0_7_0.c,1163 :: 		if((State==5)||(State==6))
	MOVF        _State+0, 0 
	XORLW       5
	BTFSC       STATUS+0, 2 
	GOTO        L__State8696
	MOVF        _State+0, 0 
	XORLW       6
	BTFSC       STATUS+0, 2 
	GOTO        L__State8696
	GOTO        L_State8267
L__State8696:
;FirmV_0_7_0.c,1164 :: 		{ClearTasks(0);if(AutoCloseTime!=0){AddTask(ms500+AutoCloseTime,9);Logger("S8 Autoclose Renewed");memcpy(LCDLine2,_autoclose,16);LCDUpdateFlag=1;LCDLines=2;}}
	CLRF        FARG_ClearTasks+0 
	CALL        _ClearTasks+0, 0
	MOVLW       0
	XORWF       _AutoCloseTime+1, 0 
	BTFSS       STATUS+0, 2 
	GOTO        L__State8771
	MOVLW       0
	XORWF       _AutoCloseTime+0, 0 
L__State8771:
	BTFSC       STATUS+0, 2 
	GOTO        L_State8268
	MOVF        _AutoCloseTime+0, 0 
	ADDWF       _ms500+0, 0 
	MOVWF       FARG_AddTask+0 
	MOVF        _AutoCloseTime+1, 0 
	ADDWFC      _ms500+1, 0 
	MOVWF       FARG_AddTask+1 
	MOVLW       0
	ADDWFC      _ms500+2, 0 
	MOVWF       FARG_AddTask+2 
	MOVLW       0
	ADDWFC      _ms500+3, 0 
	MOVWF       FARG_AddTask+3 
	MOVLW       9
	MOVWF       FARG_AddTask+0 
	CALL        _AddTask+0, 0
	MOVLW       ?ICS?lstr67_FirmV_0_7_0+0
	MOVWF       TBLPTRL 
	MOVLW       hi_addr(?ICS?lstr67_FirmV_0_7_0+0)
	MOVWF       TBLPTRH 
	MOVLW       higher_addr(?ICS?lstr67_FirmV_0_7_0+0)
	MOVWF       TBLPTRU 
	MOVLW       ?lstr67_FirmV_0_7_0+0
	MOVWF       FSR1L 
	MOVLW       hi_addr(?lstr67_FirmV_0_7_0+0)
	MOVWF       FSR1H 
	MOVLW       21
	MOVWF       R0 
	MOVLW       1
	MOVWF       R1 
	CALL        ___CC2DW+0, 0
	MOVLW       ?lstr67_FirmV_0_7_0+0
	MOVWF       FARG_Logger_text+0 
	MOVLW       hi_addr(?lstr67_FirmV_0_7_0+0)
	MOVWF       FARG_Logger_text+1 
	CALL        _Logger+0, 0
	MOVLW       _LCDLine2+0
	MOVWF       FARG_memcpy_d1+0 
	MOVLW       hi_addr(_LCDLine2+0)
	MOVWF       FARG_memcpy_d1+1 
	MOVLW       __autoclose+0
	MOVWF       FARG_memcpy_s1+0 
	MOVLW       hi_addr(__autoclose+0)
	MOVWF       FARG_memcpy_s1+1 
	MOVLW       16
	MOVWF       FARG_memcpy_n+0 
	MOVLW       0
	MOVWF       FARG_memcpy_n+1 
	CALL        _memcpy+0, 0
	MOVLW       1
	MOVWF       _LCDUpdateFlag+0 
	MOVLW       2
	MOVWF       _LCDLines+0 
L_State8268:
L_State8267:
;FirmV_0_7_0.c,1167 :: 		}
	RETURN      0
; end of _State8

_LCDUpdater:

;FirmV_0_7_0.c,1176 :: 		void LCDUpdater()
;FirmV_0_7_0.c,1181 :: 		if(LCDUpdateFlag==1)
	MOVF        _LCDUpdateFlag+0, 0 
	XORLW       1
	BTFSS       STATUS+0, 2 
	GOTO        L_LCDUpdater269
;FirmV_0_7_0.c,1183 :: 		if(LCDLines!=line)
	MOVF        _LCDLines+0, 0 
	XORWF       LCDUpdater_line_L0+0, 0 
	BTFSC       STATUS+0, 2 
	GOTO        L_LCDUpdater270
;FirmV_0_7_0.c,1185 :: 		line=LCDLines;
	MOVF        _LCDLines+0, 0 
	MOVWF       LCDUpdater_line_L0+0 
;FirmV_0_7_0.c,1186 :: 		LCD_init(LCDLines);
	MOVF        _LCDLines+0, 0 
	MOVWF       FARG_LCD_Init+0 
	CALL        _LCD_Init+0, 0
;FirmV_0_7_0.c,1187 :: 		delay_ms(50);
	MOVLW       3
	MOVWF       R11, 0
	MOVLW       138
	MOVWF       R12, 0
	MOVLW       85
	MOVWF       R13, 0
L_LCDUpdater271:
	DECFSZ      R13, 1, 0
	BRA         L_LCDUpdater271
	DECFSZ      R12, 1, 0
	BRA         L_LCDUpdater271
	DECFSZ      R11, 1, 0
	BRA         L_LCDUpdater271
	NOP
	NOP
;FirmV_0_7_0.c,1188 :: 		}
L_LCDUpdater270:
;FirmV_0_7_0.c,1189 :: 		lcd_out(1,0,LCDLine1);
	MOVLW       1
	MOVWF       FARG_LCD_out+0 
	CLRF        FARG_LCD_out+0 
	MOVLW       _LCDLine1+0
	MOVWF       FARG_LCD_out+0 
	MOVLW       hi_addr(_LCDLine1+0)
	MOVWF       FARG_LCD_out+1 
	CALL        _LCD_out+0, 0
;FirmV_0_7_0.c,1190 :: 		if(!LCDFlash)
	MOVF        _LCDFlash+0, 1 
	BTFSS       STATUS+0, 2 
	GOTO        L_LCDUpdater272
;FirmV_0_7_0.c,1191 :: 		lcd_out(2,0,LCDLine2);
	MOVLW       2
	MOVWF       FARG_LCD_out+0 
	CLRF        FARG_LCD_out+0 
	MOVLW       _LCDLine2+0
	MOVWF       FARG_LCD_out+0 
	MOVLW       hi_addr(_LCDLine2+0)
	MOVWF       FARG_LCD_out+1 
	CALL        _LCD_out+0, 0
L_LCDUpdater272:
;FirmV_0_7_0.c,1192 :: 		LCDUpdateFlag=0;
	CLRF        _LCDUpdateFlag+0 
;FirmV_0_7_0.c,1193 :: 		}
L_LCDUpdater269:
;FirmV_0_7_0.c,1195 :: 		if(LCDFlash)
	MOVF        _LCDFlash+0, 1 
	BTFSC       STATUS+0, 2 
	GOTO        L_LCDUpdater273
;FirmV_0_7_0.c,1197 :: 		if((LCDFlashFlag)&&(LastLCDFlashState==0))
	MOVF        _LCDFlashFlag+0, 1 
	BTFSC       STATUS+0, 2 
	GOTO        L_LCDUpdater276
	MOVF        LCDUpdater_LastLCDFlashState_L0+0, 0 
	XORLW       0
	BTFSS       STATUS+0, 2 
	GOTO        L_LCDUpdater276
L__LCDUpdater707:
;FirmV_0_7_0.c,1198 :: 		{memcpy(LCDLineTemp,LCDLine2,16);LCDLineTemp[0]='>';LCDLineTemp[1]='>';LCDLineTemp[2]='>';LCDLineTemp[13]='<';LCDLineTemp[14]='<';LCDLineTemp[15]='<';lcd_out(2,0,LCDLineTemp);LastLCDFlashState=1;}
	MOVLW       LCDUpdater_LCDLineTemp_L0+0
	MOVWF       FARG_memcpy_d1+0 
	MOVLW       hi_addr(LCDUpdater_LCDLineTemp_L0+0)
	MOVWF       FARG_memcpy_d1+1 
	MOVLW       _LCDLine2+0
	MOVWF       FARG_memcpy_s1+0 
	MOVLW       hi_addr(_LCDLine2+0)
	MOVWF       FARG_memcpy_s1+1 
	MOVLW       16
	MOVWF       FARG_memcpy_n+0 
	MOVLW       0
	MOVWF       FARG_memcpy_n+1 
	CALL        _memcpy+0, 0
	MOVLW       62
	MOVWF       LCDUpdater_LCDLineTemp_L0+0 
	MOVLW       62
	MOVWF       LCDUpdater_LCDLineTemp_L0+1 
	MOVLW       62
	MOVWF       LCDUpdater_LCDLineTemp_L0+2 
	MOVLW       60
	MOVWF       LCDUpdater_LCDLineTemp_L0+13 
	MOVLW       60
	MOVWF       LCDUpdater_LCDLineTemp_L0+14 
	MOVLW       60
	MOVWF       LCDUpdater_LCDLineTemp_L0+15 
	MOVLW       2
	MOVWF       FARG_LCD_out+0 
	CLRF        FARG_LCD_out+0 
	MOVLW       LCDUpdater_LCDLineTemp_L0+0
	MOVWF       FARG_LCD_out+0 
	MOVLW       hi_addr(LCDUpdater_LCDLineTemp_L0+0)
	MOVWF       FARG_LCD_out+1 
	CALL        _LCD_out+0, 0
	MOVLW       1
	MOVWF       LCDUpdater_LastLCDFlashState_L0+0 
L_LCDUpdater276:
;FirmV_0_7_0.c,1199 :: 		if((!LCDFlashFlag)&&(LastLCDFlashState!=0))
	MOVF        _LCDFlashFlag+0, 1 
	BTFSS       STATUS+0, 2 
	GOTO        L_LCDUpdater279
	MOVF        LCDUpdater_LastLCDFlashState_L0+0, 0 
	XORLW       0
	BTFSC       STATUS+0, 2 
	GOTO        L_LCDUpdater279
L__LCDUpdater706:
;FirmV_0_7_0.c,1200 :: 		{lcd_out(2,0,LCDLine2);LastLCDFlashState=0;}
	MOVLW       2
	MOVWF       FARG_LCD_out+0 
	CLRF        FARG_LCD_out+0 
	MOVLW       _LCDLine2+0
	MOVWF       FARG_LCD_out+0 
	MOVLW       hi_addr(_LCDLine2+0)
	MOVWF       FARG_LCD_out+1 
	CALL        _LCD_out+0, 0
	CLRF        LCDUpdater_LastLCDFlashState_L0+0 
L_LCDUpdater279:
;FirmV_0_7_0.c,1201 :: 		}
L_LCDUpdater273:
;FirmV_0_7_0.c,1204 :: 		}
	RETURN      0
; end of _LCDUpdater

_Init:

;FirmV_0_7_0.c,1224 :: 		void Init()
;FirmV_0_7_0.c,1226 :: 		char i=0;
	CLRF        Init_i_L0+0 
;FirmV_0_7_0.c,1228 :: 		porta=0;
	CLRF        PORTA+0 
;FirmV_0_7_0.c,1229 :: 		portb=0;
	CLRF        PORTB+0 
;FirmV_0_7_0.c,1230 :: 		portc=0;
	CLRF        PORTC+0 
;FirmV_0_7_0.c,1231 :: 		portd=0;
	CLRF        PORTD+0 
;FirmV_0_7_0.c,1232 :: 		porte=0;
	CLRF        PORTE+0 
;FirmV_0_7_0.c,1233 :: 		trisa=0b101111;
	MOVLW       47
	MOVWF       TRISA+0 
;FirmV_0_7_0.c,1234 :: 		trisb=0b10000111;
	MOVLW       135
	MOVWF       TRISB+0 
;FirmV_0_7_0.c,1235 :: 		trisc=0b10000100;
	MOVLW       132
	MOVWF       TRISC+0 
;FirmV_0_7_0.c,1236 :: 		trisd=0b00111111;
	MOVLW       63
	MOVWF       TRISD+0 
;FirmV_0_7_0.c,1237 :: 		trise=0b001;
	MOVLW       1
	MOVWF       TRISE+0 
;FirmV_0_7_0.c,1238 :: 		adcon1=0b0010;  // an6, an5 and an7 is digital
	MOVLW       2
	MOVWF       ADCON1+0 
;FirmV_0_7_0.c,1244 :: 		LCDBackLight=1;
	BSF         PORTA+0, 4 
;FirmV_0_7_0.c,1245 :: 		I2C1_init(100000);
	MOVLW       100
	MOVWF       SSPADD+0 
	CALL        _I2C1_Init+0, 0
;FirmV_0_7_0.c,1247 :: 		delay_ms(100);
	MOVLW       6
	MOVWF       R11, 0
	MOVLW       19
	MOVWF       R12, 0
	MOVLW       173
	MOVWF       R13, 0
L_Init280:
	DECFSZ      R13, 1, 0
	BRA         L_Init280
	DECFSZ      R12, 1, 0
	BRA         L_Init280
	DECFSZ      R11, 1, 0
	BRA         L_Init280
	NOP
	NOP
;FirmV_0_7_0.c,1249 :: 		LCD_init(1);
	MOVLW       1
	MOVWF       FARG_LCD_Init+0 
	CALL        _LCD_Init+0, 0
;FirmV_0_7_0.c,1250 :: 		LCDLines=1;
	MOVLW       1
	MOVWF       _LCDLines+0 
;FirmV_0_7_0.c,1251 :: 		delay_ms(300);
	MOVLW       16
	MOVWF       R11, 0
	MOVLW       57
	MOVWF       R12, 0
	MOVLW       13
	MOVWF       R13, 0
L_Init281:
	DECFSZ      R13, 1, 0
	BRA         L_Init281
	DECFSZ      R12, 1, 0
	BRA         L_Init281
	DECFSZ      R11, 1, 0
	BRA         L_Init281
	NOP
	NOP
;FirmV_0_7_0.c,1252 :: 		SetContrast(20);
	MOVLW       20
	MOVWF       FARG_SetContrast+0 
	CALL        _SetContrast+0, 0
;FirmV_0_7_0.c,1255 :: 		ms500=0;
	CLRF        _ms500+0 
	CLRF        _ms500+1 
	CLRF        _ms500+2 
	CLRF        _ms500+3 
;FirmV_0_7_0.c,1256 :: 		t0con=0b10000101; //enable tmr0 and prescalar
	MOVLW       133
	MOVWF       T0CON+0 
;FirmV_0_7_0.c,1257 :: 		intcon.b7=1;   //global int enable
	BSF         INTCON+0, 7 
;FirmV_0_7_0.c,1258 :: 		intcon.b5=1;  //tmr0 int enable
	BSF         INTCON+0, 5 
;FirmV_0_7_0.c,1259 :: 		intcon.b2=0; //tmr0 flag
	BCF         INTCON+0, 2 
;FirmV_0_7_0.c,1260 :: 		tmr0h=0xF3;
	MOVLW       243
	MOVWF       TMR0H+0 
;FirmV_0_7_0.c,1261 :: 		tmr0l=0xCA;
	MOVLW       202
	MOVWF       TMR0L+0 
;FirmV_0_7_0.c,1264 :: 		INT1IP_bit=1;
	BSF         INT1IP_bit+0, 6 
;FirmV_0_7_0.c,1265 :: 		INT1E_bit=1;
	BSF         INT1E_bit+0, 3 
;FirmV_0_7_0.c,1266 :: 		INT1F_bit=0;
	BCF         INT1F_bit+0, 0 
;FirmV_0_7_0.c,1267 :: 		INT2IP_bit=1;
	BSF         INT2IP_bit+0, 7 
;FirmV_0_7_0.c,1268 :: 		INT2E_bit=1;
	BSF         INT2E_bit+0, 4 
;FirmV_0_7_0.c,1269 :: 		INT2F_bit=0;
	BCF         INT2F_bit+0, 1 
;FirmV_0_7_0.c,1270 :: 		INTEDG1_bit=1;
	BSF         INTEDG1_bit+0, 5 
;FirmV_0_7_0.c,1271 :: 		INTEDG2_bit=1;
	BSF         INTEDG2_bit+0, 4 
;FirmV_0_7_0.c,1274 :: 		INT0F_bit=0;
	BCF         INT0F_bit+0, 1 
;FirmV_0_7_0.c,1275 :: 		INT0E_bit=0;
	BCF         INT0E_bit+0, 4 
;FirmV_0_7_0.c,1278 :: 		for(i=0;i<20;i++)
	CLRF        Init_i_L0+0 
L_Init282:
	MOVLW       20
	SUBWF       Init_i_L0+0, 0 
	BTFSC       STATUS+0, 0 
	GOTO        L_Init283
;FirmV_0_7_0.c,1279 :: 		Tasks[i].Expired=1;
	MOVF        Init_i_L0+0, 0 
	MOVWF       R0 
	MOVLW       0
	MOVWF       R1 
	MOVLW       7
	MOVWF       R4 
	MOVLW       0
	MOVWF       R5 
	CALL        _Mul_16x16_U+0, 0
	MOVLW       _Tasks+0
	ADDWF       R0, 1 
	MOVLW       hi_addr(_Tasks+0)
	ADDWFC      R1, 1 
	MOVLW       5
	ADDWF       R0, 0 
	MOVWF       FSR1L 
	MOVLW       0
	ADDWFC      R1, 0 
	MOVWF       FSR1H 
	MOVLW       1
	MOVWF       POSTINC1+0 
;FirmV_0_7_0.c,1278 :: 		for(i=0;i<20;i++)
	INCF        Init_i_L0+0, 1 
;FirmV_0_7_0.c,1279 :: 		Tasks[i].Expired=1;
	GOTO        L_Init282
L_Init283:
;FirmV_0_7_0.c,1282 :: 		Events.Keys=0;
	CLRF        _Events+0 
;FirmV_0_7_0.c,1283 :: 		Events.Task1=0;
	CLRF        _Events+1 
;FirmV_0_7_0.c,1284 :: 		Events.Task2=0;
	CLRF        _Events+2 
;FirmV_0_7_0.c,1285 :: 		Events.Task3=0;
	CLRF        _Events+3 
;FirmV_0_7_0.c,1286 :: 		Events.Remote=0;
	CLRF        _Events+4 
;FirmV_0_7_0.c,1287 :: 		Events.Overload=0;
	CLRF        _Events+5 
;FirmV_0_7_0.c,1288 :: 		Events.Photocell=0;
	CLRF        _Events+6 
;FirmV_0_7_0.c,1291 :: 		State=0;
	CLRF        _State+0 
;FirmV_0_7_0.c,1294 :: 		UART1_init(115200);
	MOVLW       21
	MOVWF       SPBRG+0 
	BSF         TXSTA+0, 2, 0
	CALL        _UART1_Init+0, 0
;FirmV_0_7_0.c,1297 :: 		LoadConfigs();
	CALL        _LoadConfigs+0, 0
;FirmV_0_7_0.c,1301 :: 		}
	RETURN      0
; end of _Init

_TaskManager:

;FirmV_0_7_0.c,1315 :: 		void TaskManager()
;FirmV_0_7_0.c,1317 :: 		char i=0;
	CLRF        TaskManager_i_L0+0 
;FirmV_0_7_0.c,1318 :: 		for(i=0;i<20;i++)
	CLRF        TaskManager_i_L0+0 
L_TaskManager285:
	MOVLW       20
	SUBWF       TaskManager_i_L0+0, 0 
	BTFSC       STATUS+0, 0 
	GOTO        L_TaskManager286
;FirmV_0_7_0.c,1319 :: 		if((Tasks[i].Expired==0)&&(Tasks[i].Time==ms500)&&(Tasks[i].Fired==0))
	MOVF        TaskManager_i_L0+0, 0 
	MOVWF       R0 
	MOVLW       0
	MOVWF       R1 
	MOVLW       7
	MOVWF       R4 
	MOVLW       0
	MOVWF       R5 
	CALL        _Mul_16x16_U+0, 0
	MOVLW       _Tasks+0
	ADDWF       R0, 1 
	MOVLW       hi_addr(_Tasks+0)
	ADDWFC      R1, 1 
	MOVLW       5
	ADDWF       R0, 0 
	MOVWF       FSR0L 
	MOVLW       0
	ADDWFC      R1, 0 
	MOVWF       FSR0H 
	MOVF        POSTINC0+0, 0 
	XORLW       0
	BTFSS       STATUS+0, 2 
	GOTO        L_TaskManager290
	MOVF        TaskManager_i_L0+0, 0 
	MOVWF       R0 
	MOVLW       0
	MOVWF       R1 
	MOVLW       7
	MOVWF       R4 
	MOVLW       0
	MOVWF       R5 
	CALL        _Mul_16x16_U+0, 0
	MOVLW       _Tasks+0
	ADDWF       R0, 1 
	MOVLW       hi_addr(_Tasks+0)
	ADDWFC      R1, 1 
	MOVLW       1
	ADDWF       R0, 0 
	MOVWF       FSR0L 
	MOVLW       0
	ADDWFC      R1, 0 
	MOVWF       FSR0H 
	MOVF        POSTINC0+0, 0 
	MOVWF       R1 
	MOVF        POSTINC0+0, 0 
	MOVWF       R2 
	MOVF        POSTINC0+0, 0 
	MOVWF       R3 
	MOVF        POSTINC0+0, 0 
	MOVWF       R4 
	MOVF        R4, 0 
	XORWF       _ms500+3, 0 
	BTFSS       STATUS+0, 2 
	GOTO        L__TaskManager772
	MOVF        R3, 0 
	XORWF       _ms500+2, 0 
	BTFSS       STATUS+0, 2 
	GOTO        L__TaskManager772
	MOVF        R2, 0 
	XORWF       _ms500+1, 0 
	BTFSS       STATUS+0, 2 
	GOTO        L__TaskManager772
	MOVF        R1, 0 
	XORWF       _ms500+0, 0 
L__TaskManager772:
	BTFSS       STATUS+0, 2 
	GOTO        L_TaskManager290
	MOVF        TaskManager_i_L0+0, 0 
	MOVWF       R0 
	MOVLW       0
	MOVWF       R1 
	MOVLW       7
	MOVWF       R4 
	MOVLW       0
	MOVWF       R5 
	CALL        _Mul_16x16_U+0, 0
	MOVLW       _Tasks+0
	ADDWF       R0, 1 
	MOVLW       hi_addr(_Tasks+0)
	ADDWFC      R1, 1 
	MOVLW       6
	ADDWF       R0, 0 
	MOVWF       FSR0L 
	MOVLW       0
	ADDWFC      R1, 0 
	MOVWF       FSR0H 
	MOVF        POSTINC0+0, 0 
	XORLW       0
	BTFSS       STATUS+0, 2 
	GOTO        L_TaskManager290
L__TaskManager708:
;FirmV_0_7_0.c,1320 :: 		Tasks[i].Fired=1;
	MOVF        TaskManager_i_L0+0, 0 
	MOVWF       R0 
	MOVLW       0
	MOVWF       R1 
	MOVLW       7
	MOVWF       R4 
	MOVLW       0
	MOVWF       R5 
	CALL        _Mul_16x16_U+0, 0
	MOVLW       _Tasks+0
	ADDWF       R0, 1 
	MOVLW       hi_addr(_Tasks+0)
	ADDWFC      R1, 1 
	MOVLW       6
	ADDWF       R0, 0 
	MOVWF       FSR1L 
	MOVLW       0
	ADDWFC      R1, 0 
	MOVWF       FSR1H 
	MOVLW       1
	MOVWF       POSTINC1+0 
L_TaskManager290:
;FirmV_0_7_0.c,1318 :: 		for(i=0;i<20;i++)
	INCF        TaskManager_i_L0+0, 1 
;FirmV_0_7_0.c,1320 :: 		Tasks[i].Fired=1;
	GOTO        L_TaskManager285
L_TaskManager286:
;FirmV_0_7_0.c,1321 :: 		}
	RETURN      0
; end of _TaskManager

_AddTask:

;FirmV_0_7_0.c,1333 :: 		void AddTask(unsigned long OccTime,char tcode)
;FirmV_0_7_0.c,1336 :: 		for(i=0;i<20;i++)
	CLRF        AddTask_i_L0+0 
L_AddTask291:
	MOVLW       20
	SUBWF       AddTask_i_L0+0, 0 
	BTFSC       STATUS+0, 0 
	GOTO        L_AddTask292
;FirmV_0_7_0.c,1337 :: 		if(Tasks[i].Expired==1)
	MOVF        AddTask_i_L0+0, 0 
	MOVWF       R0 
	MOVLW       0
	MOVWF       R1 
	MOVLW       7
	MOVWF       R4 
	MOVLW       0
	MOVWF       R5 
	CALL        _Mul_16x16_U+0, 0
	MOVLW       _Tasks+0
	ADDWF       R0, 1 
	MOVLW       hi_addr(_Tasks+0)
	ADDWFC      R1, 1 
	MOVLW       5
	ADDWF       R0, 0 
	MOVWF       FSR0L 
	MOVLW       0
	ADDWFC      R1, 0 
	MOVWF       FSR0H 
	MOVF        POSTINC0+0, 0 
	XORLW       1
	BTFSS       STATUS+0, 2 
	GOTO        L_AddTask294
;FirmV_0_7_0.c,1339 :: 		Tasks[i].TaskCode=tcode;
	MOVF        AddTask_i_L0+0, 0 
	MOVWF       R0 
	MOVLW       0
	MOVWF       R1 
	MOVLW       7
	MOVWF       R4 
	MOVLW       0
	MOVWF       R5 
	CALL        _Mul_16x16_U+0, 0
	MOVLW       _Tasks+0
	ADDWF       R0, 0 
	MOVWF       FSR1L 
	MOVLW       hi_addr(_Tasks+0)
	ADDWFC      R1, 0 
	MOVWF       FSR1H 
	MOVF        FARG_AddTask_tcode+0, 0 
	MOVWF       POSTINC1+0 
;FirmV_0_7_0.c,1340 :: 		Tasks[i].Time=OccTime;
	MOVF        AddTask_i_L0+0, 0 
	MOVWF       R0 
	MOVLW       0
	MOVWF       R1 
	MOVLW       7
	MOVWF       R4 
	MOVLW       0
	MOVWF       R5 
	CALL        _Mul_16x16_U+0, 0
	MOVLW       _Tasks+0
	ADDWF       R0, 1 
	MOVLW       hi_addr(_Tasks+0)
	ADDWFC      R1, 1 
	MOVLW       1
	ADDWF       R0, 0 
	MOVWF       FSR1L 
	MOVLW       0
	ADDWFC      R1, 0 
	MOVWF       FSR1H 
	MOVF        FARG_AddTask_OccTime+0, 0 
	MOVWF       POSTINC1+0 
	MOVF        FARG_AddTask_OccTime+1, 0 
	MOVWF       POSTINC1+0 
	MOVF        FARG_AddTask_OccTime+2, 0 
	MOVWF       POSTINC1+0 
	MOVF        FARG_AddTask_OccTime+3, 0 
	MOVWF       POSTINC1+0 
;FirmV_0_7_0.c,1341 :: 		Tasks[i].Expired=0;
	MOVF        AddTask_i_L0+0, 0 
	MOVWF       R0 
	MOVLW       0
	MOVWF       R1 
	MOVLW       7
	MOVWF       R4 
	MOVLW       0
	MOVWF       R5 
	CALL        _Mul_16x16_U+0, 0
	MOVLW       _Tasks+0
	ADDWF       R0, 1 
	MOVLW       hi_addr(_Tasks+0)
	ADDWFC      R1, 1 
	MOVLW       5
	ADDWF       R0, 0 
	MOVWF       FSR1L 
	MOVLW       0
	ADDWFC      R1, 0 
	MOVWF       FSR1H 
	CLRF        POSTINC1+0 
;FirmV_0_7_0.c,1342 :: 		Tasks[i].Fired=0;
	MOVF        AddTask_i_L0+0, 0 
	MOVWF       R0 
	MOVLW       0
	MOVWF       R1 
	MOVLW       7
	MOVWF       R4 
	MOVLW       0
	MOVWF       R5 
	CALL        _Mul_16x16_U+0, 0
	MOVLW       _Tasks+0
	ADDWF       R0, 1 
	MOVLW       hi_addr(_Tasks+0)
	ADDWFC      R1, 1 
	MOVLW       6
	ADDWF       R0, 0 
	MOVWF       FSR1L 
	MOVLW       0
	ADDWFC      R1, 0 
	MOVWF       FSR1H 
	CLRF        POSTINC1+0 
;FirmV_0_7_0.c,1343 :: 		break;
	GOTO        L_AddTask292
;FirmV_0_7_0.c,1344 :: 		}
L_AddTask294:
;FirmV_0_7_0.c,1336 :: 		for(i=0;i<20;i++)
	INCF        AddTask_i_L0+0, 1 
;FirmV_0_7_0.c,1344 :: 		}
	GOTO        L_AddTask291
L_AddTask292:
;FirmV_0_7_0.c,1345 :: 		}
	RETURN      0
; end of _AddTask

_EventHandler:

;FirmV_0_7_0.c,1355 :: 		void EventHandler()
;FirmV_0_7_0.c,1358 :: 		Events.ExternalKeys=GetExternalKeysState();
	CALL        _GetExternalKeysState+0, 0
	MOVF        R0, 0 
	MOVWF       _Events+8 
;FirmV_0_7_0.c,1359 :: 		Events.Limiter=GetLimitSwitchState();
	CALL        _GetLimitSwitchState+0, 0
	MOVF        R0, 0 
	MOVWF       _Events+7 
;FirmV_0_7_0.c,1360 :: 		Events.Keys=GetKeysState();
	CALL        _GetKeysState+0, 0
	MOVF        R0, 0 
	MOVWF       _Events+0 
;FirmV_0_7_0.c,1361 :: 		Events.Remote=GetRemoteState();
	CALL        _GetRemoteState+0, 0
	MOVF        R0, 0 
	MOVWF       _Events+4 
;FirmV_0_7_0.c,1362 :: 		Events.Overload=GetOverloadState();
	CALL        _GetOverloadState+0, 0
	MOVF        R0, 0 
	MOVWF       _Events+5 
;FirmV_0_7_0.c,1363 :: 		Events.Photocell=GetPhotocellState();
	CALL        _GetPhotocellState+0, 0
	MOVF        R0, 0 
	MOVWF       _Events+6 
;FirmV_0_7_0.c,1365 :: 		for(i=0;i<20;i++)
	CLRF        EventHandler_i_L0+0 
L_EventHandler295:
	MOVLW       20
	SUBWF       EventHandler_i_L0+0, 0 
	BTFSC       STATUS+0, 0 
	GOTO        L_EventHandler296
;FirmV_0_7_0.c,1366 :: 		if((Tasks[i].Expired==0)&&(Tasks[i].Fired==1))
	MOVF        EventHandler_i_L0+0, 0 
	MOVWF       R0 
	MOVLW       0
	MOVWF       R1 
	MOVLW       7
	MOVWF       R4 
	MOVLW       0
	MOVWF       R5 
	CALL        _Mul_16x16_U+0, 0
	MOVLW       _Tasks+0
	ADDWF       R0, 1 
	MOVLW       hi_addr(_Tasks+0)
	ADDWFC      R1, 1 
	MOVLW       5
	ADDWF       R0, 0 
	MOVWF       FSR0L 
	MOVLW       0
	ADDWFC      R1, 0 
	MOVWF       FSR0H 
	MOVF        POSTINC0+0, 0 
	XORLW       0
	BTFSS       STATUS+0, 2 
	GOTO        L_EventHandler300
	MOVF        EventHandler_i_L0+0, 0 
	MOVWF       R0 
	MOVLW       0
	MOVWF       R1 
	MOVLW       7
	MOVWF       R4 
	MOVLW       0
	MOVWF       R5 
	CALL        _Mul_16x16_U+0, 0
	MOVLW       _Tasks+0
	ADDWF       R0, 1 
	MOVLW       hi_addr(_Tasks+0)
	ADDWFC      R1, 1 
	MOVLW       6
	ADDWF       R0, 0 
	MOVWF       FSR0L 
	MOVLW       0
	ADDWFC      R1, 0 
	MOVWF       FSR0H 
	MOVF        POSTINC0+0, 0 
	XORLW       1
	BTFSS       STATUS+0, 2 
	GOTO        L_EventHandler300
L__EventHandler709:
;FirmV_0_7_0.c,1368 :: 		if(Events.Task1==0)
	MOVF        _Events+1, 0 
	XORLW       0
	BTFSS       STATUS+0, 2 
	GOTO        L_EventHandler301
;FirmV_0_7_0.c,1369 :: 		{Events.Task1=Tasks[i].TaskCode; Tasks[i].Expired=1;Tasks[i].Fired=0;}
	MOVF        EventHandler_i_L0+0, 0 
	MOVWF       R0 
	MOVLW       0
	MOVWF       R1 
	MOVLW       7
	MOVWF       R4 
	MOVLW       0
	MOVWF       R5 
	CALL        _Mul_16x16_U+0, 0
	MOVLW       _Tasks+0
	ADDWF       R0, 0 
	MOVWF       R2 
	MOVLW       hi_addr(_Tasks+0)
	ADDWFC      R1, 0 
	MOVWF       R3 
	MOVFF       R2, FSR0L
	MOVFF       R3, FSR0H
	MOVF        POSTINC0+0, 0 
	MOVWF       R0 
	MOVF        R0, 0 
	MOVWF       _Events+1 
	MOVLW       5
	ADDWF       R2, 0 
	MOVWF       FSR1L 
	MOVLW       0
	ADDWFC      R3, 0 
	MOVWF       FSR1H 
	MOVLW       1
	MOVWF       POSTINC1+0 
	MOVF        EventHandler_i_L0+0, 0 
	MOVWF       R0 
	MOVLW       0
	MOVWF       R1 
	MOVLW       7
	MOVWF       R4 
	MOVLW       0
	MOVWF       R5 
	CALL        _Mul_16x16_U+0, 0
	MOVLW       _Tasks+0
	ADDWF       R0, 1 
	MOVLW       hi_addr(_Tasks+0)
	ADDWFC      R1, 1 
	MOVLW       6
	ADDWF       R0, 0 
	MOVWF       FSR1L 
	MOVLW       0
	ADDWFC      R1, 0 
	MOVWF       FSR1H 
	CLRF        POSTINC1+0 
	GOTO        L_EventHandler302
L_EventHandler301:
;FirmV_0_7_0.c,1370 :: 		else if(Events.Task2==0)
	MOVF        _Events+2, 0 
	XORLW       0
	BTFSS       STATUS+0, 2 
	GOTO        L_EventHandler303
;FirmV_0_7_0.c,1371 :: 		{Events.Task2=Tasks[i].TaskCode;Tasks[i].Expired=1;Tasks[i].Fired=0;}
	MOVF        EventHandler_i_L0+0, 0 
	MOVWF       R0 
	MOVLW       0
	MOVWF       R1 
	MOVLW       7
	MOVWF       R4 
	MOVLW       0
	MOVWF       R5 
	CALL        _Mul_16x16_U+0, 0
	MOVLW       _Tasks+0
	ADDWF       R0, 0 
	MOVWF       R2 
	MOVLW       hi_addr(_Tasks+0)
	ADDWFC      R1, 0 
	MOVWF       R3 
	MOVFF       R2, FSR0L
	MOVFF       R3, FSR0H
	MOVF        POSTINC0+0, 0 
	MOVWF       R0 
	MOVF        R0, 0 
	MOVWF       _Events+2 
	MOVLW       5
	ADDWF       R2, 0 
	MOVWF       FSR1L 
	MOVLW       0
	ADDWFC      R3, 0 
	MOVWF       FSR1H 
	MOVLW       1
	MOVWF       POSTINC1+0 
	MOVF        EventHandler_i_L0+0, 0 
	MOVWF       R0 
	MOVLW       0
	MOVWF       R1 
	MOVLW       7
	MOVWF       R4 
	MOVLW       0
	MOVWF       R5 
	CALL        _Mul_16x16_U+0, 0
	MOVLW       _Tasks+0
	ADDWF       R0, 1 
	MOVLW       hi_addr(_Tasks+0)
	ADDWFC      R1, 1 
	MOVLW       6
	ADDWF       R0, 0 
	MOVWF       FSR1L 
	MOVLW       0
	ADDWFC      R1, 0 
	MOVWF       FSR1H 
	CLRF        POSTINC1+0 
	GOTO        L_EventHandler304
L_EventHandler303:
;FirmV_0_7_0.c,1372 :: 		else if(Events.Task3==0)
	MOVF        _Events+3, 0 
	XORLW       0
	BTFSS       STATUS+0, 2 
	GOTO        L_EventHandler305
;FirmV_0_7_0.c,1373 :: 		{Events.Task3=Tasks[i].TaskCode;Tasks[i].Expired=1;Tasks[i].Fired=0;}
	MOVF        EventHandler_i_L0+0, 0 
	MOVWF       R0 
	MOVLW       0
	MOVWF       R1 
	MOVLW       7
	MOVWF       R4 
	MOVLW       0
	MOVWF       R5 
	CALL        _Mul_16x16_U+0, 0
	MOVLW       _Tasks+0
	ADDWF       R0, 0 
	MOVWF       R2 
	MOVLW       hi_addr(_Tasks+0)
	ADDWFC      R1, 0 
	MOVWF       R3 
	MOVFF       R2, FSR0L
	MOVFF       R3, FSR0H
	MOVF        POSTINC0+0, 0 
	MOVWF       R0 
	MOVF        R0, 0 
	MOVWF       _Events+3 
	MOVLW       5
	ADDWF       R2, 0 
	MOVWF       FSR1L 
	MOVLW       0
	ADDWFC      R3, 0 
	MOVWF       FSR1H 
	MOVLW       1
	MOVWF       POSTINC1+0 
	MOVF        EventHandler_i_L0+0, 0 
	MOVWF       R0 
	MOVLW       0
	MOVWF       R1 
	MOVLW       7
	MOVWF       R4 
	MOVLW       0
	MOVWF       R5 
	CALL        _Mul_16x16_U+0, 0
	MOVLW       _Tasks+0
	ADDWF       R0, 1 
	MOVLW       hi_addr(_Tasks+0)
	ADDWFC      R1, 1 
	MOVLW       6
	ADDWF       R0, 0 
	MOVWF       FSR1L 
	MOVLW       0
	ADDWFC      R1, 0 
	MOVWF       FSR1H 
	CLRF        POSTINC1+0 
L_EventHandler305:
L_EventHandler304:
L_EventHandler302:
;FirmV_0_7_0.c,1374 :: 		}
L_EventHandler300:
;FirmV_0_7_0.c,1365 :: 		for(i=0;i<20;i++)
	INCF        EventHandler_i_L0+0, 1 
;FirmV_0_7_0.c,1374 :: 		}
	GOTO        L_EventHandler295
L_EventHandler296:
;FirmV_0_7_0.c,1375 :: 		}
	RETURN      0
; end of _EventHandler

_GetKeysState:

;FirmV_0_7_0.c,1385 :: 		char GetKeysState()
;FirmV_0_7_0.c,1387 :: 		unsigned res=0;
	CLRF        GetKeysState_res_L0+0 
	CLRF        GetKeysState_res_L0+1 
;FirmV_0_7_0.c,1391 :: 		char resch=0,fin;
	CLRF        GetKeysState_resch_L0+0 
;FirmV_0_7_0.c,1392 :: 		resch.b0=~KeyDown;
	BTFSC       PORTD+0, 5 
	GOTO        L__GetKeysState773
	BSF         GetKeysState_resch_L0+0, 0 
	GOTO        L__GetKeysState774
L__GetKeysState773:
	BCF         GetKeysState_resch_L0+0, 0 
L__GetKeysState774:
;FirmV_0_7_0.c,1393 :: 		resch.b1=~KeyMenu;
	BTFSC       PORTE+0, 0 
	GOTO        L__GetKeysState775
	BSF         GetKeysState_resch_L0+0, 1 
	GOTO        L__GetKeysState776
L__GetKeysState775:
	BCF         GetKeysState_resch_L0+0, 1 
L__GetKeysState776:
;FirmV_0_7_0.c,1394 :: 		resch.b2=~KeyUp;
	BTFSC       PORTD+0, 4 
	GOTO        L__GetKeysState777
	BSF         GetKeysState_resch_L0+0, 2 
	GOTO        L__GetKeysState778
L__GetKeysState777:
	BCF         GetKeysState_resch_L0+0, 2 
L__GetKeysState778:
;FirmV_0_7_0.c,1396 :: 		if((resch==0))
	MOVF        GetKeysState_resch_L0+0, 0 
	XORLW       0
	BTFSS       STATUS+0, 2 
	GOTO        L_GetKeysState306
;FirmV_0_7_0.c,1398 :: 		if(Pressed==0)
	MOVF        _Pressed+0, 0 
	XORLW       0
	BTFSS       STATUS+0, 2 
	GOTO        L_GetKeysState307
;FirmV_0_7_0.c,1399 :: 		{Repeat=0;RepeatCount=0;Pressed=0;fin=0;RepeatRate=0;}
	CLRF        GetKeysState_Repeat_L0+0 
	CLRF        GetKeysState_RepeatCount_L0+0 
	CLRF        _Pressed+0 
	CLRF        GetKeysState_fin_L0+0 
	CLRF        GetKeysState_RepeatRate_L0+0 
L_GetKeysState307:
;FirmV_0_7_0.c,1400 :: 		if(Pressed==1)
	MOVF        _Pressed+0, 0 
	XORLW       1
	BTFSS       STATUS+0, 2 
	GOTO        L_GetKeysState308
;FirmV_0_7_0.c,1401 :: 		if(DebouncingDelay>=DebouncingFix)
	MOVLW       5
	SUBWF       _DebouncingDelay+0, 0 
	BTFSS       STATUS+0, 0 
	GOTO        L_GetKeysState309
;FirmV_0_7_0.c,1402 :: 		{Repeat=0;RepeatCount=0;Pressed=0;fin=0;RepeatRate=0;}
	CLRF        GetKeysState_Repeat_L0+0 
	CLRF        GetKeysState_RepeatCount_L0+0 
	CLRF        _Pressed+0 
	CLRF        GetKeysState_fin_L0+0 
	CLRF        GetKeysState_RepeatRate_L0+0 
L_GetKeysState309:
L_GetKeysState308:
;FirmV_0_7_0.c,1403 :: 		}
L_GetKeysState306:
;FirmV_0_7_0.c,1406 :: 		if(RepeatCount<=6)
	MOVF        GetKeysState_RepeatCount_L0+0, 0 
	SUBLW       6
	BTFSS       STATUS+0, 0 
	GOTO        L_GetKeysState310
;FirmV_0_7_0.c,1407 :: 		{RepeatSpeed=20;}
	MOVLW       20
	MOVWF       GetKeysState_RepeatSpeed_L0+0 
L_GetKeysState310:
;FirmV_0_7_0.c,1408 :: 		if((RepeatCount>6)&&(RepeatCount<=20))
	MOVF        GetKeysState_RepeatCount_L0+0, 0 
	SUBLW       6
	BTFSC       STATUS+0, 0 
	GOTO        L_GetKeysState313
	MOVF        GetKeysState_RepeatCount_L0+0, 0 
	SUBLW       20
	BTFSS       STATUS+0, 0 
	GOTO        L_GetKeysState313
L__GetKeysState715:
;FirmV_0_7_0.c,1409 :: 		{RepeatSpeed=10;}
	MOVLW       10
	MOVWF       GetKeysState_RepeatSpeed_L0+0 
L_GetKeysState313:
;FirmV_0_7_0.c,1410 :: 		if(RepeatCount>20)
	MOVF        GetKeysState_RepeatCount_L0+0, 0 
	SUBLW       20
	BTFSC       STATUS+0, 0 
	GOTO        L_GetKeysState314
;FirmV_0_7_0.c,1411 :: 		{RepeatSpeed=5;}
	MOVLW       5
	MOVWF       GetKeysState_RepeatSpeed_L0+0 
	GOTO        L_GetKeysState315
L_GetKeysState314:
;FirmV_0_7_0.c,1414 :: 		{RepeatSpeed=10;}
	MOVLW       10
	MOVWF       GetKeysState_RepeatSpeed_L0+0 
L_GetKeysState315:
;FirmV_0_7_0.c,1417 :: 		if((Repeat==1)&&(KeyFlag>=RepeatSpeed))
	MOVF        GetKeysState_Repeat_L0+0, 0 
	XORLW       1
	BTFSS       STATUS+0, 2 
	GOTO        L_GetKeysState318
	MOVF        GetKeysState_RepeatSpeed_L0+0, 0 
	SUBWF       _KeyFlag+0, 0 
	BTFSS       STATUS+0, 0 
	GOTO        L_GetKeysState318
L__GetKeysState714:
;FirmV_0_7_0.c,1418 :: 		{RepeatRate=1;KeyFlag=0;if(RepeatCount<25)RepeatCount=RepeatCount+1;}
	MOVLW       1
	MOVWF       GetKeysState_RepeatRate_L0+0 
	CLRF        _KeyFlag+0 
	MOVLW       25
	SUBWF       GetKeysState_RepeatCount_L0+0, 0 
	BTFSC       STATUS+0, 0 
	GOTO        L_GetKeysState319
	INCF        GetKeysState_RepeatCount_L0+0, 1 
L_GetKeysState319:
L_GetKeysState318:
;FirmV_0_7_0.c,1422 :: 		if((resch!=0)&&(Pressed==1)&&(Repeat==0)&&(ms500==PressTime+KeyRepeatDelay))
	MOVF        GetKeysState_resch_L0+0, 0 
	XORLW       0
	BTFSC       STATUS+0, 2 
	GOTO        L_GetKeysState322
	MOVF        _Pressed+0, 0 
	XORLW       1
	BTFSS       STATUS+0, 2 
	GOTO        L_GetKeysState322
	MOVF        GetKeysState_Repeat_L0+0, 0 
	XORLW       0
	BTFSS       STATUS+0, 2 
	GOTO        L_GetKeysState322
	MOVLW       2
	ADDWF       GetKeysState_PressTime_L0+0, 0 
	MOVWF       R1 
	MOVLW       0
	ADDWFC      GetKeysState_PressTime_L0+1, 0 
	MOVWF       R2 
	MOVLW       0
	ADDWFC      GetKeysState_PressTime_L0+2, 0 
	MOVWF       R3 
	MOVLW       0
	ADDWFC      GetKeysState_PressTime_L0+3, 0 
	MOVWF       R4 
	MOVF        _ms500+3, 0 
	XORWF       R4, 0 
	BTFSS       STATUS+0, 2 
	GOTO        L__GetKeysState779
	MOVF        _ms500+2, 0 
	XORWF       R3, 0 
	BTFSS       STATUS+0, 2 
	GOTO        L__GetKeysState779
	MOVF        _ms500+1, 0 
	XORWF       R2, 0 
	BTFSS       STATUS+0, 2 
	GOTO        L__GetKeysState779
	MOVF        _ms500+0, 0 
	XORWF       R1, 0 
L__GetKeysState779:
	BTFSS       STATUS+0, 2 
	GOTO        L_GetKeysState322
L__GetKeysState713:
;FirmV_0_7_0.c,1423 :: 		{Repeat=1;KeyFlag=0;}
	MOVLW       1
	MOVWF       GetKeysState_Repeat_L0+0 
	CLRF        _KeyFlag+0 
L_GetKeysState322:
;FirmV_0_7_0.c,1425 :: 		if((resch!=0)&&(Pressed==1)&&(Repeat==0))
	MOVF        GetKeysState_resch_L0+0, 0 
	XORLW       0
	BTFSC       STATUS+0, 2 
	GOTO        L_GetKeysState325
	MOVF        _Pressed+0, 0 
	XORLW       1
	BTFSS       STATUS+0, 2 
	GOTO        L_GetKeysState325
	MOVF        GetKeysState_Repeat_L0+0, 0 
	XORLW       0
	BTFSS       STATUS+0, 2 
	GOTO        L_GetKeysState325
L__GetKeysState712:
;FirmV_0_7_0.c,1426 :: 		fin=0;
	CLRF        GetKeysState_fin_L0+0 
L_GetKeysState325:
;FirmV_0_7_0.c,1428 :: 		if((resch!=0)&&(Pressed==1)&&(Repeat==1))
	MOVF        GetKeysState_resch_L0+0, 0 
	XORLW       0
	BTFSC       STATUS+0, 2 
	GOTO        L_GetKeysState328
	MOVF        _Pressed+0, 0 
	XORLW       1
	BTFSS       STATUS+0, 2 
	GOTO        L_GetKeysState328
	MOVF        GetKeysState_Repeat_L0+0, 0 
	XORLW       1
	BTFSS       STATUS+0, 2 
	GOTO        L_GetKeysState328
L__GetKeysState711:
;FirmV_0_7_0.c,1429 :: 		{fin=resch*RepeatRate;RepeatRate=0;}
	MOVF        GetKeysState_resch_L0+0, 0 
	MULWF       GetKeysState_RepeatRate_L0+0 
	MOVF        PRODL+0, 0 
	MOVWF       GetKeysState_fin_L0+0 
	CLRF        GetKeysState_RepeatRate_L0+0 
L_GetKeysState328:
;FirmV_0_7_0.c,1432 :: 		if((resch!=0)&&(Pressed==0))
	MOVF        GetKeysState_resch_L0+0, 0 
	XORLW       0
	BTFSC       STATUS+0, 2 
	GOTO        L_GetKeysState331
	MOVF        _Pressed+0, 0 
	XORLW       0
	BTFSS       STATUS+0, 2 
	GOTO        L_GetKeysState331
L__GetKeysState710:
;FirmV_0_7_0.c,1433 :: 		{fin=resch; Pressed=1;PressTime=ms500;DebouncingDelay=0;}
	MOVF        GetKeysState_resch_L0+0, 0 
	MOVWF       GetKeysState_fin_L0+0 
	MOVLW       1
	MOVWF       _Pressed+0 
	MOVF        _ms500+0, 0 
	MOVWF       GetKeysState_PressTime_L0+0 
	MOVF        _ms500+1, 0 
	MOVWF       GetKeysState_PressTime_L0+1 
	MOVF        _ms500+2, 0 
	MOVWF       GetKeysState_PressTime_L0+2 
	MOVF        _ms500+3, 0 
	MOVWF       GetKeysState_PressTime_L0+3 
	CLRF        _DebouncingDelay+0 
L_GetKeysState331:
;FirmV_0_7_0.c,1437 :: 		return fin;
	MOVF        GetKeysState_fin_L0+0, 0 
	MOVWF       R0 
;FirmV_0_7_0.c,1438 :: 		}
	RETURN      0
; end of _GetKeysState

_GetExternalKeysState:

;FirmV_0_7_0.c,1448 :: 		char GetExternalKeysState()
;FirmV_0_7_0.c,1450 :: 		char out=0;
	CLRF        GetExternalKeysState_out_L0+0 
;FirmV_0_7_0.c,1451 :: 		if(KeyUp==0)
	BTFSC       PORTD+0, 4 
	GOTO        L_GetExternalKeysState332
;FirmV_0_7_0.c,1452 :: 		out.b0=1;
	BSF         GetExternalKeysState_out_L0+0, 0 
L_GetExternalKeysState332:
;FirmV_0_7_0.c,1453 :: 		if(KeyDown==0)
	BTFSC       PORTD+0, 5 
	GOTO        L_GetExternalKeysState333
;FirmV_0_7_0.c,1454 :: 		out.b1=1;
	BSF         GetExternalKeysState_out_L0+0, 1 
L_GetExternalKeysState333:
;FirmV_0_7_0.c,1455 :: 		return out;
	MOVF        GetExternalKeysState_out_L0+0, 0 
	MOVWF       R0 
;FirmV_0_7_0.c,1456 :: 		}
	RETURN      0
; end of _GetExternalKeysState

_GetLimitSwitchState:

;FirmV_0_7_0.c,1469 :: 		char GetLimitSwitchState()
;FirmV_0_7_0.c,1471 :: 		if((Limit1==0)||(Limit2==0))
	BTFSS       PORTD+0, 0 
	GOTO        L__GetLimitSwitchState716
	BTFSS       PORTD+0, 1 
	GOTO        L__GetLimitSwitchState716
	GOTO        L_GetLimitSwitchState336
L__GetLimitSwitchState716:
;FirmV_0_7_0.c,1472 :: 		return 1;
	MOVLW       1
	MOVWF       R0 
	RETURN      0
L_GetLimitSwitchState336:
;FirmV_0_7_0.c,1474 :: 		return 0;
	CLRF        R0 
;FirmV_0_7_0.c,1475 :: 		}
	RETURN      0
; end of _GetLimitSwitchState

_GetRemoteState:

;FirmV_0_7_0.c,1484 :: 		char GetRemoteState()
;FirmV_0_7_0.c,1486 :: 		char res=0;
	CLRF        GetRemoteState_res_L0+0 
;FirmV_0_7_0.c,1487 :: 		res.b0=RemoteAFlag.b0;
	BTFSC       _RemoteAFlag+0, 0 
	GOTO        L__GetRemoteState780
	BCF         GetRemoteState_res_L0+0, 0 
	GOTO        L__GetRemoteState781
L__GetRemoteState780:
	BSF         GetRemoteState_res_L0+0, 0 
L__GetRemoteState781:
;FirmV_0_7_0.c,1488 :: 		res.b1=RemoteBFlag.b0;
	BTFSC       _RemoteBFlag+0, 0 
	GOTO        L__GetRemoteState782
	BCF         GetRemoteState_res_L0+0, 1 
	GOTO        L__GetRemoteState783
L__GetRemoteState782:
	BSF         GetRemoteState_res_L0+0, 1 
L__GetRemoteState783:
;FirmV_0_7_0.c,1489 :: 		RemoteAFlag=0;
	CLRF        _RemoteAFlag+0 
;FirmV_0_7_0.c,1490 :: 		RemoteBFlag=0;
	CLRF        _RemoteBFlag+0 
;FirmV_0_7_0.c,1491 :: 		res.b0=res.b0;//|(~KeyUp);
;FirmV_0_7_0.c,1492 :: 		res.b1=res.b1;//|(~KeyDown);
;FirmV_0_7_0.c,1493 :: 		return res;
	MOVF        GetRemoteState_res_L0+0, 0 
	MOVWF       R0 
;FirmV_0_7_0.c,1494 :: 		}
	RETURN      0
; end of _GetRemoteState

_GetOverloadState:

;FirmV_0_7_0.c,1504 :: 		char GetOverloadState()
;FirmV_0_7_0.c,1506 :: 		char res=0;
	CLRF        GetOverloadState_res_L0+0 
;FirmV_0_7_0.c,1509 :: 		VCapM1=ADC_Read(0);
	CLRF        FARG_ADC_Read_channel+0 
	CALL        _ADC_Read+0, 0
	MOVF        R0, 0 
	MOVWF       GetOverloadState_VCapM1_L0+0 
	MOVF        R1, 0 
	MOVWF       GetOverloadState_VCapM1_L0+1 
;FirmV_0_7_0.c,1510 :: 		VCapM2=ADC_Read(1);
	MOVLW       1
	MOVWF       FARG_ADC_Read_channel+0 
	CALL        _ADC_Read+0, 0
	MOVF        R0, 0 
	MOVWF       GetOverloadState_VCapM2_L0+0 
	MOVF        R1, 0 
	MOVWF       GetOverloadState_VCapM2_L0+1 
;FirmV_0_7_0.c,1514 :: 		LCDUpdateFlag=1;
	MOVLW       1
	MOVWF       _LCDUpdateFlag+0 
;FirmV_0_7_0.c,1516 :: 		if(Motor1FullSpeed!=0)
	MOVF        _Motor1FullSpeed+0, 0 
	XORLW       0
	BTFSC       STATUS+0, 2 
	GOTO        L_GetOverloadState338
;FirmV_0_7_0.c,1518 :: 		if(VCapM1<OverloadTreshold)
	MOVF        _OverloadTreshold+1, 0 
	SUBWF       GetOverloadState_VCapM1_L0+1, 0 
	BTFSS       STATUS+0, 2 
	GOTO        L__GetOverloadState784
	MOVF        _OverloadTreshold+0, 0 
	SUBWF       GetOverloadState_VCapM1_L0+0, 0 
L__GetOverloadState784:
	BTFSC       STATUS+0, 0 
	GOTO        L_GetOverloadState339
;FirmV_0_7_0.c,1520 :: 		if(OverloadCounter1<255)
	MOVLW       255
	SUBWF       _OverloadCounter1+0, 0 
	BTFSC       STATUS+0, 0 
	GOTO        L_GetOverloadState340
;FirmV_0_7_0.c,1521 :: 		OverloadCounter1=OverloadCounter1+1;
	INCF        _OverloadCounter1+0, 1 
L_GetOverloadState340:
;FirmV_0_7_0.c,1522 :: 		}
	GOTO        L_GetOverloadState341
L_GetOverloadState339:
;FirmV_0_7_0.c,1525 :: 		if(OverloadCounter1>0)
	MOVF        _OverloadCounter1+0, 0 
	SUBLW       0
	BTFSC       STATUS+0, 0 
	GOTO        L_GetOverloadState342
;FirmV_0_7_0.c,1526 :: 		OverloadCounter1=OverloadCounter1-1;
	DECF        _OverloadCounter1+0, 1 
L_GetOverloadState342:
;FirmV_0_7_0.c,1527 :: 		}
L_GetOverloadState341:
;FirmV_0_7_0.c,1528 :: 		}
	GOTO        L_GetOverloadState343
L_GetOverloadState338:
;FirmV_0_7_0.c,1530 :: 		{OverloadCounter1=0;}
	CLRF        _OverloadCounter1+0 
L_GetOverloadState343:
;FirmV_0_7_0.c,1532 :: 		if (OverloadCounter1>OverloadDuration)
	MOVF        _OverloadCounter1+0, 0 
	SUBWF       _OverloadDuration+0, 0 
	BTFSC       STATUS+0, 0 
	GOTO        L_GetOverloadState344
;FirmV_0_7_0.c,1533 :: 		res.b0=1;
	BSF         GetOverloadState_res_L0+0, 0 
L_GetOverloadState344:
;FirmV_0_7_0.c,1538 :: 		if(Motor2FullSpeed!=0)
	MOVF        _Motor2FullSpeed+0, 0 
	XORLW       0
	BTFSC       STATUS+0, 2 
	GOTO        L_GetOverloadState345
;FirmV_0_7_0.c,1540 :: 		if(VCapM2<OverloadTreshold)
	MOVF        _OverloadTreshold+1, 0 
	SUBWF       GetOverloadState_VCapM2_L0+1, 0 
	BTFSS       STATUS+0, 2 
	GOTO        L__GetOverloadState785
	MOVF        _OverloadTreshold+0, 0 
	SUBWF       GetOverloadState_VCapM2_L0+0, 0 
L__GetOverloadState785:
	BTFSC       STATUS+0, 0 
	GOTO        L_GetOverloadState346
;FirmV_0_7_0.c,1542 :: 		if(OverloadCounter2<255)
	MOVLW       255
	SUBWF       _OverloadCounter2+0, 0 
	BTFSC       STATUS+0, 0 
	GOTO        L_GetOverloadState347
;FirmV_0_7_0.c,1543 :: 		OverloadCounter2=OverloadCounter2+1;
	INCF        _OverloadCounter2+0, 1 
L_GetOverloadState347:
;FirmV_0_7_0.c,1544 :: 		}
	GOTO        L_GetOverloadState348
L_GetOverloadState346:
;FirmV_0_7_0.c,1547 :: 		if(OverloadCounter2>0)
	MOVF        _OverloadCounter2+0, 0 
	SUBLW       0
	BTFSC       STATUS+0, 0 
	GOTO        L_GetOverloadState349
;FirmV_0_7_0.c,1548 :: 		OverloadCounter2=OverloadCounter2-1;
	DECF        _OverloadCounter2+0, 1 
L_GetOverloadState349:
;FirmV_0_7_0.c,1549 :: 		}
L_GetOverloadState348:
;FirmV_0_7_0.c,1550 :: 		}
	GOTO        L_GetOverloadState350
L_GetOverloadState345:
;FirmV_0_7_0.c,1552 :: 		{OverloadCounter2=0;}
	CLRF        _OverloadCounter2+0 
L_GetOverloadState350:
;FirmV_0_7_0.c,1555 :: 		if (OverloadCounter2>OverloadDuration)
	MOVF        _OverloadCounter2+0, 0 
	SUBWF       _OverloadDuration+0, 0 
	BTFSC       STATUS+0, 0 
	GOTO        L_GetOverloadState351
;FirmV_0_7_0.c,1556 :: 		res.b1=1;
	BSF         GetOverloadState_res_L0+0, 1 
L_GetOverloadState351:
;FirmV_0_7_0.c,1558 :: 		return res;
	MOVF        GetOverloadState_res_L0+0, 0 
	MOVWF       R0 
;FirmV_0_7_0.c,1559 :: 		}
	RETURN      0
; end of _GetOverloadState

_GetPhotocellState:

;FirmV_0_7_0.c,1572 :: 		char GetPhotocellState()
;FirmV_0_7_0.c,1574 :: 		if(Phcell1==0)
	BTFSC       PORTD+0, 3 
	GOTO        L_GetPhotocellState352
;FirmV_0_7_0.c,1575 :: 		{if(PhotocellCount<=20)PhotocellCount=PhotocellCount+1;}
	MOVF        _PhotocellCount+0, 0 
	SUBLW       20
	BTFSS       STATUS+0, 0 
	GOTO        L_GetPhotocellState353
	INCF        _PhotocellCount+0, 1 
L_GetPhotocellState353:
	GOTO        L_GetPhotocellState354
L_GetPhotocellState352:
;FirmV_0_7_0.c,1577 :: 		{PhotocellCount=0;}
	CLRF        _PhotocellCount+0 
L_GetPhotocellState354:
;FirmV_0_7_0.c,1578 :: 		if(PhotocellCount>=20)
	MOVLW       20
	SUBWF       _PhotocellCount+0, 0 
	BTFSS       STATUS+0, 0 
	GOTO        L_GetPhotocellState355
;FirmV_0_7_0.c,1579 :: 		return 1;
	MOVLW       1
	MOVWF       R0 
	RETURN      0
L_GetPhotocellState355:
;FirmV_0_7_0.c,1581 :: 		return 0;
	CLRF        R0 
;FirmV_0_7_0.c,1582 :: 		}
	RETURN      0
; end of _GetPhotocellState

_SetMotorSpeed:

;FirmV_0_7_0.c,1594 :: 		void SetMotorSpeed(char M1FullSpeed,char M2FullSpeed)
;FirmV_0_7_0.c,1596 :: 		if((M1FullSpeed==0)||(M2FullSpeed==0))
	MOVF        FARG_SetMotorSpeed_M1FullSpeed+0, 0 
	XORLW       0
	BTFSC       STATUS+0, 2 
	GOTO        L__SetMotorSpeed717
	MOVF        FARG_SetMotorSpeed_M2FullSpeed+0, 0 
	XORLW       0
	BTFSC       STATUS+0, 2 
	GOTO        L__SetMotorSpeed717
	GOTO        L_SetMotorSpeed359
L__SetMotorSpeed717:
;FirmV_0_7_0.c,1597 :: 		INT0E_bit=1;
	BSF         INT0E_bit+0, 4 
	GOTO        L_SetMotorSpeed360
L_SetMotorSpeed359:
;FirmV_0_7_0.c,1599 :: 		INT0E_bit=0;
	BCF         INT0E_bit+0, 4 
L_SetMotorSpeed360:
;FirmV_0_7_0.c,1601 :: 		Motor1FullSpeed=M1FullSpeed;
	MOVF        FARG_SetMotorSpeed_M1FullSpeed+0, 0 
	MOVWF       _Motor1FullSpeed+0 
;FirmV_0_7_0.c,1602 :: 		Motor2FullSpeed=M2FullSpeed;
	MOVF        FARG_SetMotorSpeed_M2FullSpeed+0, 0 
	MOVWF       _Motor2FullSpeed+0 
;FirmV_0_7_0.c,1603 :: 		}
	RETURN      0
; end of _SetMotorSpeed

_OverloadInit:

;FirmV_0_7_0.c,1614 :: 		void OverloadInit(char ch)
;FirmV_0_7_0.c,1616 :: 		if(ch==1)
	MOVF        FARG_OverloadInit_ch+0, 0 
	XORLW       1
	BTFSS       STATUS+0, 2 
	GOTO        L_OverloadInit361
;FirmV_0_7_0.c,1618 :: 		OverloadCounter1=0;
	CLRF        _OverloadCounter1+0 
;FirmV_0_7_0.c,1619 :: 		Events.Overload.b0=0;
	BCF         _Events+5, 0 
;FirmV_0_7_0.c,1620 :: 		}
L_OverloadInit361:
;FirmV_0_7_0.c,1622 :: 		if(ch==2)
	MOVF        FARG_OverloadInit_ch+0, 0 
	XORLW       2
	BTFSS       STATUS+0, 2 
	GOTO        L_OverloadInit362
;FirmV_0_7_0.c,1624 :: 		OverloadCounter2=0;
	CLRF        _OverloadCounter2+0 
;FirmV_0_7_0.c,1625 :: 		Events.Overload.b1=0;
	BCF         _Events+5, 1 
;FirmV_0_7_0.c,1626 :: 		}
L_OverloadInit362:
;FirmV_0_7_0.c,1627 :: 		}
	RETURN      0
; end of _OverloadInit

_SaveConfigs:

;FirmV_0_7_0.c,1638 :: 		void SaveConfigs()
;FirmV_0_7_0.c,1641 :: 		EEPROM_Write(1,Door1OpenTime);
	MOVLW       1
	MOVWF       FARG_EEPROM_Write_address+0 
	MOVF        _Door1OpenTime+0, 0 
	MOVWF       FARG_EEPROM_Write_data_+0 
	CALL        _EEPROM_Write+0, 0
;FirmV_0_7_0.c,1642 :: 		EEPROM_Write(2,Door2OpenTime);
	MOVLW       2
	MOVWF       FARG_EEPROM_Write_address+0 
	MOVF        _Door2OpenTime+0, 0 
	MOVWF       FARG_EEPROM_Write_data_+0 
	CALL        _EEPROM_Write+0, 0
;FirmV_0_7_0.c,1643 :: 		EEPROM_Write(3,Door1CloseTime);
	MOVLW       3
	MOVWF       FARG_EEPROM_Write_address+0 
	MOVF        _Door1CloseTime+0, 0 
	MOVWF       FARG_EEPROM_Write_data_+0 
	CALL        _EEPROM_Write+0, 0
;FirmV_0_7_0.c,1644 :: 		EEPROM_Write(4,Door2CloseTime);
	MOVLW       4
	MOVWF       FARG_EEPROM_Write_address+0 
	MOVF        _Door2CloseTime+0, 0 
	MOVWF       FARG_EEPROM_Write_data_+0 
	CALL        _EEPROM_Write+0, 0
;FirmV_0_7_0.c,1645 :: 		EEPROM_Write(5,ActionTimeDiff);
	MOVLW       5
	MOVWF       FARG_EEPROM_Write_address+0 
	MOVF        _ActionTimeDiff+0, 0 
	MOVWF       FARG_EEPROM_Write_data_+0 
	CALL        _EEPROM_Write+0, 0
;FirmV_0_7_0.c,1646 :: 		EEPROM_Write(6,OpenSoftStartTime);
	MOVLW       6
	MOVWF       FARG_EEPROM_Write_address+0 
	MOVF        _OpenSoftStartTime+0, 0 
	MOVWF       FARG_EEPROM_Write_data_+0 
	CALL        _EEPROM_Write+0, 0
;FirmV_0_7_0.c,1647 :: 		EEPROM_Write(7,OpenSoftStopTime);
	MOVLW       7
	MOVWF       FARG_EEPROM_Write_address+0 
	MOVF        _OpenSoftStopTime+0, 0 
	MOVWF       FARG_EEPROM_Write_data_+0 
	CALL        _EEPROM_Write+0, 0
;FirmV_0_7_0.c,1648 :: 		EEPROM_Write(8,CloseSoftStartTime);
	MOVLW       8
	MOVWF       FARG_EEPROM_Write_address+0 
	MOVF        _CloseSoftStartTime+0, 0 
	MOVWF       FARG_EEPROM_Write_data_+0 
	CALL        _EEPROM_Write+0, 0
;FirmV_0_7_0.c,1649 :: 		EEPROM_Write(9,CloseSoftStopTime);
	MOVLW       9
	MOVWF       FARG_EEPROM_Write_address+0 
	MOVF        _CloseSoftStopTime+0, 0 
	MOVWF       FARG_EEPROM_Write_data_+0 
	CALL        _EEPROM_Write+0, 0
;FirmV_0_7_0.c,1650 :: 		EEPROM_Write(10,Hi(AutoCloseTime));
	MOVLW       10
	MOVWF       FARG_EEPROM_Write_address+0 
	MOVF        _AutoCloseTime+1, 0 
	MOVWF       FARG_EEPROM_Write_data_+0 
	CALL        _EEPROM_Write+0, 0
;FirmV_0_7_0.c,1651 :: 		EEPROM_Write(11,Lo(AutoCloseTime));
	MOVLW       11
	MOVWF       FARG_EEPROM_Write_address+0 
	MOVF        _AutoCloseTime+0, 0 
	MOVWF       FARG_EEPROM_Write_data_+0 
	CALL        _EEPROM_Write+0, 0
;FirmV_0_7_0.c,1652 :: 		EEPROM_Write(12,OverloadSens);
	MOVLW       12
	MOVWF       FARG_EEPROM_Write_address+0 
	MOVF        _OverloadSens+0, 0 
	MOVWF       FARG_EEPROM_Write_data_+0 
	CALL        _EEPROM_Write+0, 0
;FirmV_0_7_0.c,1653 :: 		SetOverloadParams(9-OverloadSens);
	MOVF        _OverloadSens+0, 0 
	SUBLW       9
	MOVWF       FARG_SetOverloadParams+0 
	CALL        _SetOverloadParams+0, 0
;FirmV_0_7_0.c,1654 :: 		EEPROM_Write(13,CloseAfterPass);
	MOVLW       13
	MOVWF       FARG_EEPROM_Write_address+0 
	MOVF        _CloseAfterPass+0, 0 
	MOVWF       FARG_EEPROM_Write_data_+0 
	CALL        _EEPROM_Write+0, 0
;FirmV_0_7_0.c,1655 :: 		EEPROM_Write(14,LockForce);
	MOVLW       14
	MOVWF       FARG_EEPROM_Write_address+0 
	MOVF        _LockForce+0, 0 
	MOVWF       FARG_EEPROM_Write_data_+0 
	CALL        _EEPROM_Write+0, 0
;FirmV_0_7_0.c,1656 :: 		EEPROM_Write(15,OpenPhEnable);
	MOVLW       15
	MOVWF       FARG_EEPROM_Write_address+0 
	MOVF        _OpenPhEnable+0, 0 
	MOVWF       FARG_EEPROM_Write_data_+0 
	CALL        _EEPROM_Write+0, 0
;FirmV_0_7_0.c,1657 :: 		EEPROM_Write(16,LimiterEnable);
	MOVLW       16
	MOVWF       FARG_EEPROM_Write_address+0 
	MOVF        _LimiterEnable+0, 0 
	MOVWF       FARG_EEPROM_Write_data_+0 
	CALL        _EEPROM_Write+0, 0
;FirmV_0_7_0.c,1659 :: 		}
	RETURN      0
; end of _SaveConfigs

_LoadConfigs:

;FirmV_0_7_0.c,1672 :: 		void LoadConfigs()
;FirmV_0_7_0.c,1674 :: 		Door1OpenTime=EEPROM_Read(1);
	MOVLW       1
	MOVWF       FARG_EEPROM_Read_address+0 
	CALL        _EEPROM_Read+0, 0
	MOVF        R0, 0 
	MOVWF       _Door1OpenTime+0 
;FirmV_0_7_0.c,1675 :: 		Door2OpenTime=EEPROM_Read(2);
	MOVLW       2
	MOVWF       FARG_EEPROM_Read_address+0 
	CALL        _EEPROM_Read+0, 0
	MOVF        R0, 0 
	MOVWF       _Door2OpenTime+0 
;FirmV_0_7_0.c,1676 :: 		Door1CloseTime=EEPROM_Read(3);
	MOVLW       3
	MOVWF       FARG_EEPROM_Read_address+0 
	CALL        _EEPROM_Read+0, 0
	MOVF        R0, 0 
	MOVWF       _Door1CloseTime+0 
;FirmV_0_7_0.c,1677 :: 		Door2CloseTime=EEPROM_Read(4);
	MOVLW       4
	MOVWF       FARG_EEPROM_Read_address+0 
	CALL        _EEPROM_Read+0, 0
	MOVF        R0, 0 
	MOVWF       _Door2CloseTime+0 
;FirmV_0_7_0.c,1678 :: 		ActionTimeDiff=EEPROM_Read(5);
	MOVLW       5
	MOVWF       FARG_EEPROM_Read_address+0 
	CALL        _EEPROM_Read+0, 0
	MOVF        R0, 0 
	MOVWF       _ActionTimeDiff+0 
;FirmV_0_7_0.c,1679 :: 		OpenSoftStartTime=EEPROM_Read(6);
	MOVLW       6
	MOVWF       FARG_EEPROM_Read_address+0 
	CALL        _EEPROM_Read+0, 0
	MOVF        R0, 0 
	MOVWF       _OpenSoftStartTime+0 
;FirmV_0_7_0.c,1680 :: 		OpenSoftStopTime=EEPROM_Read(7);
	MOVLW       7
	MOVWF       FARG_EEPROM_Read_address+0 
	CALL        _EEPROM_Read+0, 0
	MOVF        R0, 0 
	MOVWF       _OpenSoftStopTime+0 
;FirmV_0_7_0.c,1681 :: 		CloseSoftStartTime=EEPROM_Read(8);
	MOVLW       8
	MOVWF       FARG_EEPROM_Read_address+0 
	CALL        _EEPROM_Read+0, 0
	MOVF        R0, 0 
	MOVWF       _CloseSoftStartTime+0 
;FirmV_0_7_0.c,1682 :: 		CloseSoftStopTime=EEPROM_Read(9);
	MOVLW       9
	MOVWF       FARG_EEPROM_Read_address+0 
	CALL        _EEPROM_Read+0, 0
	MOVF        R0, 0 
	MOVWF       _CloseSoftStopTime+0 
;FirmV_0_7_0.c,1683 :: 		AutoCloseTime=EEPROM_Read(10);
	MOVLW       10
	MOVWF       FARG_EEPROM_Read_address+0 
	CALL        _EEPROM_Read+0, 0
	MOVF        R0, 0 
	MOVWF       _AutoCloseTime+0 
	MOVLW       0
	MOVWF       _AutoCloseTime+1 
;FirmV_0_7_0.c,1684 :: 		AutoCloseTime=AutoCloseTime<<8;
	MOVF        _AutoCloseTime+0, 0 
	MOVWF       _AutoCloseTime+1 
	CLRF        _AutoCloseTime+0 
;FirmV_0_7_0.c,1685 :: 		AutoCloseTime=AutocloseTime|EEPROM_Read(11);
	MOVLW       11
	MOVWF       FARG_EEPROM_Read_address+0 
	CALL        _EEPROM_Read+0, 0
	MOVF        R0, 0 
	IORWF       _AutoCloseTime+0, 1 
	MOVLW       0
	IORWF       _AutoCloseTime+1, 1 
;FirmV_0_7_0.c,1686 :: 		OverloadSens=EEPROM_Read(12);
	MOVLW       12
	MOVWF       FARG_EEPROM_Read_address+0 
	CALL        _EEPROM_Read+0, 0
	MOVF        R0, 0 
	MOVWF       _OverloadSens+0 
;FirmV_0_7_0.c,1687 :: 		SetOverloadParams(9-OverloadSens);
	MOVF        R0, 0 
	SUBLW       9
	MOVWF       FARG_SetOverloadParams+0 
	CALL        _SetOverloadParams+0, 0
;FirmV_0_7_0.c,1688 :: 		CloseAfterPass=EEPROM_Read(13);
	MOVLW       13
	MOVWF       FARG_EEPROM_Read_address+0 
	CALL        _EEPROM_Read+0, 0
	MOVF        R0, 0 
	MOVWF       _CloseAfterPass+0 
;FirmV_0_7_0.c,1689 :: 		LockForce=EEPROM_Read(14);
	MOVLW       14
	MOVWF       FARG_EEPROM_Read_address+0 
	CALL        _EEPROM_Read+0, 0
	MOVF        R0, 0 
	MOVWF       _LockForce+0 
;FirmV_0_7_0.c,1690 :: 		OpenPhEnable=EEPROM_Read(15);
	MOVLW       15
	MOVWF       FARG_EEPROM_Read_address+0 
	CALL        _EEPROM_Read+0, 0
	MOVF        R0, 0 
	MOVWF       _OpenPhEnable+0 
;FirmV_0_7_0.c,1691 :: 		LimiterEnable=EEPROM_Read(16);
	MOVLW       16
	MOVWF       FARG_EEPROM_Read_address+0 
	CALL        _EEPROM_Read+0, 0
	MOVF        R0, 0 
	MOVWF       _LimiterEnable+0 
;FirmV_0_7_0.c,1693 :: 		}
	RETURN      0
; end of _LoadConfigs

_FactorySettings:

;FirmV_0_7_0.c,1706 :: 		void FactorySettings()
;FirmV_0_7_0.c,1708 :: 		Door1OpenTime=20;
	MOVLW       20
	MOVWF       _Door1OpenTime+0 
;FirmV_0_7_0.c,1709 :: 		Door1CloseTime=20;
	MOVLW       20
	MOVWF       _Door1CloseTime+0 
;FirmV_0_7_0.c,1710 :: 		Door2OpenTime=20;
	MOVLW       20
	MOVWF       _Door2OpenTime+0 
;FirmV_0_7_0.c,1711 :: 		Door2CloseTime=20;
	MOVLW       20
	MOVWF       _Door2CloseTime+0 
;FirmV_0_7_0.c,1712 :: 		OverloadSens=5;
	MOVLW       5
	MOVWF       _OverloadSens+0 
;FirmV_0_7_0.c,1713 :: 		SetOverloadParams(4);  //9-5
	MOVLW       4
	MOVWF       FARG_SetOverloadParams+0 
	CALL        _SetOverloadParams+0, 0
;FirmV_0_7_0.c,1714 :: 		OpenSoftStopTime=10;
	MOVLW       10
	MOVWF       _OpenSoftStopTime+0 
;FirmV_0_7_0.c,1715 :: 		OpenSoftStartTime=4;
	MOVLW       4
	MOVWF       _OpenSoftStartTime+0 
;FirmV_0_7_0.c,1716 :: 		CloseSoftStopTime=10;
	MOVLW       10
	MOVWF       _CloseSoftStopTime+0 
;FirmV_0_7_0.c,1717 :: 		CloseSoftStartTime=4;
	MOVLW       4
	MOVWF       _CloseSoftStartTime+0 
;FirmV_0_7_0.c,1718 :: 		ActionTimeDiff=12;
	MOVLW       12
	MOVWF       _ActionTimeDiff+0 
;FirmV_0_7_0.c,1719 :: 		AutoCloseTime=0;
	CLRF        _AutoCloseTime+0 
	CLRF        _AutoCloseTime+1 
;FirmV_0_7_0.c,1720 :: 		LockForce=0;
	CLRF        _LockForce+0 
;FirmV_0_7_0.c,1721 :: 		OpenPhEnable=0;
	CLRF        _OpenPhEnable+0 
;FirmV_0_7_0.c,1722 :: 		LimiterEnable=0;
	CLRF        _LimiterEnable+0 
;FirmV_0_7_0.c,1723 :: 		CloseAfterPass=0;
	CLRF        _CloseAfterPass+0 
;FirmV_0_7_0.c,1725 :: 		SaveConfigs();
	CALL        _SaveConfigs+0, 0
;FirmV_0_7_0.c,1726 :: 		}
	RETURN      0
; end of _FactorySettings

_StartMotor:

;FirmV_0_7_0.c,1732 :: 		void StartMotor(char Mx,char Dir)
;FirmV_0_7_0.c,1734 :: 		if(Mx==1)
	MOVF        FARG_StartMotor_Mx+0, 0 
	XORLW       1
	BTFSS       STATUS+0, 2 
	GOTO        L_StartMotor363
;FirmV_0_7_0.c,1736 :: 		Motor1Dir=Dir;
	BTFSC       FARG_StartMotor_Dir+0, 0 
	GOTO        L__StartMotor786
	BCF         PORTC+0, 1 
	GOTO        L__StartMotor787
L__StartMotor786:
	BSF         PORTC+0, 1 
L__StartMotor787:
;FirmV_0_7_0.c,1737 :: 		delay_ms(100);
	MOVLW       6
	MOVWF       R11, 0
	MOVLW       19
	MOVWF       R12, 0
	MOVLW       173
	MOVWF       R13, 0
L_StartMotor364:
	DECFSZ      R13, 1, 0
	BRA         L_StartMotor364
	DECFSZ      R12, 1, 0
	BRA         L_StartMotor364
	DECFSZ      R11, 1, 0
	BRA         L_StartMotor364
	NOP
	NOP
;FirmV_0_7_0.c,1738 :: 		Motor1Start=1;
	MOVLW       1
	MOVWF       _Motor1Start+0 
;FirmV_0_7_0.c,1739 :: 		Motor1=1;
	BSF         PORTB+0, 3 
;FirmV_0_7_0.c,1740 :: 		}
L_StartMotor363:
;FirmV_0_7_0.c,1742 :: 		if(Mx==2)
	MOVF        FARG_StartMotor_Mx+0, 0 
	XORLW       2
	BTFSS       STATUS+0, 2 
	GOTO        L_StartMotor365
;FirmV_0_7_0.c,1744 :: 		Motor2Dir=Dir;
	BTFSC       FARG_StartMotor_Dir+0, 0 
	GOTO        L__StartMotor788
	BCF         PORTC+0, 0 
	GOTO        L__StartMotor789
L__StartMotor788:
	BSF         PORTC+0, 0 
L__StartMotor789:
;FirmV_0_7_0.c,1745 :: 		delay_ms(100);
	MOVLW       6
	MOVWF       R11, 0
	MOVLW       19
	MOVWF       R12, 0
	MOVLW       173
	MOVWF       R13, 0
L_StartMotor366:
	DECFSZ      R13, 1, 0
	BRA         L_StartMotor366
	DECFSZ      R12, 1, 0
	BRA         L_StartMotor366
	DECFSZ      R11, 1, 0
	BRA         L_StartMotor366
	NOP
	NOP
;FirmV_0_7_0.c,1746 :: 		Motor2Start=1;
	MOVLW       1
	MOVWF       _Motor2Start+0 
;FirmV_0_7_0.c,1747 :: 		Motor2=1;
	BSF         PORTB+0, 4 
;FirmV_0_7_0.c,1748 :: 		}
L_StartMotor365:
;FirmV_0_7_0.c,1749 :: 		}
	RETURN      0
; end of _StartMotor

_StopMotor:

;FirmV_0_7_0.c,1752 :: 		void StopMotor(char Mx)
;FirmV_0_7_0.c,1754 :: 		if(Mx==1)
	MOVF        FARG_StopMotor_Mx+0, 0 
	XORLW       1
	BTFSS       STATUS+0, 2 
	GOTO        L_StopMotor367
;FirmV_0_7_0.c,1756 :: 		Motor1Start=0;
	CLRF        _Motor1Start+0 
;FirmV_0_7_0.c,1757 :: 		Motor1=0;
	BCF         PORTB+0, 3 
;FirmV_0_7_0.c,1758 :: 		}
L_StopMotor367:
;FirmV_0_7_0.c,1760 :: 		if(Mx==2)
	MOVF        FARG_StopMotor_Mx+0, 0 
	XORLW       2
	BTFSS       STATUS+0, 2 
	GOTO        L_StopMotor368
;FirmV_0_7_0.c,1762 :: 		Motor2Start=0;
	CLRF        _Motor2Start+0 
;FirmV_0_7_0.c,1763 :: 		Motor2=0;
	BCF         PORTB+0, 4 
;FirmV_0_7_0.c,1764 :: 		}
L_StopMotor368:
;FirmV_0_7_0.c,1765 :: 		}
	RETURN      0
; end of _StopMotor

_CheckTask:

;FirmV_0_7_0.c,1777 :: 		char CheckTask(char TaskCode)
;FirmV_0_7_0.c,1779 :: 		if(Events.Task1==TaskCode)
	MOVF        _Events+1, 0 
	XORWF       FARG_CheckTask_TaskCode+0, 0 
	BTFSS       STATUS+0, 2 
	GOTO        L_CheckTask369
;FirmV_0_7_0.c,1780 :: 		{Events.Task1=0; return 1;}
	CLRF        _Events+1 
	MOVLW       1
	MOVWF       R0 
	RETURN      0
L_CheckTask369:
;FirmV_0_7_0.c,1782 :: 		if(Events.Task2==TaskCode)
	MOVF        _Events+2, 0 
	XORWF       FARG_CheckTask_TaskCode+0, 0 
	BTFSS       STATUS+0, 2 
	GOTO        L_CheckTask370
;FirmV_0_7_0.c,1783 :: 		{Events.Task2=0; return 1;}
	CLRF        _Events+2 
	MOVLW       1
	MOVWF       R0 
	RETURN      0
L_CheckTask370:
;FirmV_0_7_0.c,1785 :: 		if(Events.Task3==TaskCode)
	MOVF        _Events+3, 0 
	XORWF       FARG_CheckTask_TaskCode+0, 0 
	BTFSS       STATUS+0, 2 
	GOTO        L_CheckTask371
;FirmV_0_7_0.c,1786 :: 		{Events.Task3=0; return 1;}
	CLRF        _Events+3 
	MOVLW       1
	MOVWF       R0 
	RETURN      0
L_CheckTask371:
;FirmV_0_7_0.c,1788 :: 		return 0;
	CLRF        R0 
;FirmV_0_7_0.c,1790 :: 		}
	RETURN      0
; end of _CheckTask

_GetAutocloseTime:

;FirmV_0_7_0.c,1798 :: 		char GetAutocloseTime()
;FirmV_0_7_0.c,1802 :: 		for(i=0;i<20;i++)
	CLRF        GetAutocloseTime_i_L0+0 
L_GetAutocloseTime372:
	MOVLW       20
	SUBWF       GetAutocloseTime_i_L0+0, 0 
	BTFSC       STATUS+0, 0 
	GOTO        L_GetAutocloseTime373
;FirmV_0_7_0.c,1804 :: 		if((Tasks[i].Expired==0)&&(Tasks[i].TaskCode==9))
	MOVF        GetAutocloseTime_i_L0+0, 0 
	MOVWF       R0 
	MOVLW       0
	MOVWF       R1 
	MOVLW       7
	MOVWF       R4 
	MOVLW       0
	MOVWF       R5 
	CALL        _Mul_16x16_U+0, 0
	MOVLW       _Tasks+0
	ADDWF       R0, 1 
	MOVLW       hi_addr(_Tasks+0)
	ADDWFC      R1, 1 
	MOVLW       5
	ADDWF       R0, 0 
	MOVWF       FSR0L 
	MOVLW       0
	ADDWFC      R1, 0 
	MOVWF       FSR0H 
	MOVF        POSTINC0+0, 0 
	XORLW       0
	BTFSS       STATUS+0, 2 
	GOTO        L_GetAutocloseTime377
	MOVF        GetAutocloseTime_i_L0+0, 0 
	MOVWF       R0 
	MOVLW       0
	MOVWF       R1 
	MOVLW       7
	MOVWF       R4 
	MOVLW       0
	MOVWF       R5 
	CALL        _Mul_16x16_U+0, 0
	MOVLW       _Tasks+0
	ADDWF       R0, 0 
	MOVWF       FSR0L 
	MOVLW       hi_addr(_Tasks+0)
	ADDWFC      R1, 0 
	MOVWF       FSR0H 
	MOVF        POSTINC0+0, 0 
	MOVWF       R1 
	MOVF        R1, 0 
	XORLW       9
	BTFSS       STATUS+0, 2 
	GOTO        L_GetAutocloseTime377
L__GetAutocloseTime718:
;FirmV_0_7_0.c,1805 :: 		t=Tasks[i].Time;
	MOVF        GetAutocloseTime_i_L0+0, 0 
	MOVWF       R0 
	MOVLW       0
	MOVWF       R1 
	MOVLW       7
	MOVWF       R4 
	MOVLW       0
	MOVWF       R5 
	CALL        _Mul_16x16_U+0, 0
	MOVLW       _Tasks+0
	ADDWF       R0, 1 
	MOVLW       hi_addr(_Tasks+0)
	ADDWFC      R1, 1 
	MOVLW       1
	ADDWF       R0, 0 
	MOVWF       FSR0L 
	MOVLW       0
	ADDWFC      R1, 0 
	MOVWF       FSR0H 
	MOVF        POSTINC0+0, 0 
	MOVWF       GetAutocloseTime_t_L0+0 
	MOVF        POSTINC0+0, 0 
	MOVWF       GetAutocloseTime_t_L0+1 
	MOVF        POSTINC0+0, 0 
	MOVWF       GetAutocloseTime_t_L0+2 
	MOVF        POSTINC0+0, 0 
	MOVWF       GetAutocloseTime_t_L0+3 
L_GetAutocloseTime377:
;FirmV_0_7_0.c,1806 :: 		Tasks[i].Expired=1;
	MOVF        GetAutocloseTime_i_L0+0, 0 
	MOVWF       R0 
	MOVLW       0
	MOVWF       R1 
	MOVLW       7
	MOVWF       R4 
	MOVLW       0
	MOVWF       R5 
	CALL        _Mul_16x16_U+0, 0
	MOVLW       _Tasks+0
	ADDWF       R0, 1 
	MOVLW       hi_addr(_Tasks+0)
	ADDWFC      R1, 1 
	MOVLW       5
	ADDWF       R0, 0 
	MOVWF       FSR1L 
	MOVLW       0
	ADDWFC      R1, 0 
	MOVWF       FSR1H 
	MOVLW       1
	MOVWF       POSTINC1+0 
;FirmV_0_7_0.c,1802 :: 		for(i=0;i<20;i++)
	INCF        GetAutocloseTime_i_L0+0, 1 
;FirmV_0_7_0.c,1807 :: 		}
	GOTO        L_GetAutocloseTime372
L_GetAutocloseTime373:
;FirmV_0_7_0.c,1808 :: 		i=t-ms500;
	MOVF        _ms500+0, 0 
	SUBWF       GetAutocloseTime_t_L0+0, 0 
	MOVWF       R0 
	MOVF        R0, 0 
	MOVWF       GetAutocloseTime_i_L0+0 
;FirmV_0_7_0.c,1809 :: 		return i;
;FirmV_0_7_0.c,1810 :: 		}
	RETURN      0
; end of _GetAutocloseTime

_ClearTasks:

;FirmV_0_7_0.c,1827 :: 		void ClearTasks(char except)
;FirmV_0_7_0.c,1830 :: 		for(i=0;i<20;i++)
	CLRF        ClearTasks_i_L0+0 
L_ClearTasks378:
	MOVLW       20
	SUBWF       ClearTasks_i_L0+0, 0 
	BTFSC       STATUS+0, 0 
	GOTO        L_ClearTasks379
;FirmV_0_7_0.c,1831 :: 		if((Tasks[i].Expired==0)&&(Tasks[i].TaskCode!=except))
	MOVF        ClearTasks_i_L0+0, 0 
	MOVWF       R0 
	MOVLW       0
	MOVWF       R1 
	MOVLW       7
	MOVWF       R4 
	MOVLW       0
	MOVWF       R5 
	CALL        _Mul_16x16_U+0, 0
	MOVLW       _Tasks+0
	ADDWF       R0, 1 
	MOVLW       hi_addr(_Tasks+0)
	ADDWFC      R1, 1 
	MOVLW       5
	ADDWF       R0, 0 
	MOVWF       FSR0L 
	MOVLW       0
	ADDWFC      R1, 0 
	MOVWF       FSR0H 
	MOVF        POSTINC0+0, 0 
	XORLW       0
	BTFSS       STATUS+0, 2 
	GOTO        L_ClearTasks383
	MOVF        ClearTasks_i_L0+0, 0 
	MOVWF       R0 
	MOVLW       0
	MOVWF       R1 
	MOVLW       7
	MOVWF       R4 
	MOVLW       0
	MOVWF       R5 
	CALL        _Mul_16x16_U+0, 0
	MOVLW       _Tasks+0
	ADDWF       R0, 0 
	MOVWF       FSR0L 
	MOVLW       hi_addr(_Tasks+0)
	ADDWFC      R1, 0 
	MOVWF       FSR0H 
	MOVF        POSTINC0+0, 0 
	MOVWF       R1 
	MOVF        R1, 0 
	XORWF       FARG_ClearTasks_except+0, 0 
	BTFSC       STATUS+0, 2 
	GOTO        L_ClearTasks383
L__ClearTasks719:
;FirmV_0_7_0.c,1832 :: 		Tasks[i].Expired=1;
	MOVF        ClearTasks_i_L0+0, 0 
	MOVWF       R0 
	MOVLW       0
	MOVWF       R1 
	MOVLW       7
	MOVWF       R4 
	MOVLW       0
	MOVWF       R5 
	CALL        _Mul_16x16_U+0, 0
	MOVLW       _Tasks+0
	ADDWF       R0, 1 
	MOVLW       hi_addr(_Tasks+0)
	ADDWFC      R1, 1 
	MOVLW       5
	ADDWF       R0, 0 
	MOVWF       FSR1L 
	MOVLW       0
	ADDWFC      R1, 0 
	MOVWF       FSR1H 
	MOVLW       1
	MOVWF       POSTINC1+0 
L_ClearTasks383:
;FirmV_0_7_0.c,1830 :: 		for(i=0;i<20;i++)
	INCF        ClearTasks_i_L0+0, 1 
;FirmV_0_7_0.c,1832 :: 		Tasks[i].Expired=1;
	GOTO        L_ClearTasks378
L_ClearTasks379:
;FirmV_0_7_0.c,1833 :: 		}
	RETURN      0
; end of _ClearTasks

_Menu0:

;FirmV_0_7_0.c,1848 :: 		void Menu0()
;FirmV_0_7_0.c,1850 :: 		LCDLines=2;
	MOVLW       2
	MOVWF       _LCDLines+0 
;FirmV_0_7_0.c,1851 :: 		memcpy(LCDLine2,"                ",16);
	MOVLW       _LCDLine2+0
	MOVWF       FARG_memcpy_d1+0 
	MOVLW       hi_addr(_LCDLine2+0)
	MOVWF       FARG_memcpy_d1+1 
	MOVLW       ?ICS?lstr68_FirmV_0_7_0+0
	MOVWF       TBLPTRL 
	MOVLW       hi_addr(?ICS?lstr68_FirmV_0_7_0+0)
	MOVWF       TBLPTRH 
	MOVLW       higher_addr(?ICS?lstr68_FirmV_0_7_0+0)
	MOVWF       TBLPTRU 
	MOVLW       ?lstr68_FirmV_0_7_0+0
	MOVWF       FSR1L 
	MOVLW       hi_addr(?lstr68_FirmV_0_7_0+0)
	MOVWF       FSR1H 
	MOVLW       17
	MOVWF       R0 
	MOVLW       1
	MOVWF       R1 
	CALL        ___CC2DW+0, 0
	MOVLW       ?lstr68_FirmV_0_7_0+0
	MOVWF       FARG_memcpy_s1+0 
	MOVLW       hi_addr(?lstr68_FirmV_0_7_0+0)
	MOVWF       FARG_memcpy_s1+1 
	MOVLW       16
	MOVWF       FARG_memcpy_n+0 
	MOVLW       0
	MOVWF       FARG_memcpy_n+1 
	CALL        _memcpy+0, 0
;FirmV_0_7_0.c,1853 :: 		if(MenuPointer==0)
	MOVF        _MenuPointer+0, 0 
	XORLW       0
	BTFSS       STATUS+0, 2 
	GOTO        L_Menu0384
;FirmV_0_7_0.c,1854 :: 		{memcpy(LCDLine1,"00 Learning Mode",16);LCDUpdateFlag=1;
	MOVLW       _LCDLine1+0
	MOVWF       FARG_memcpy_d1+0 
	MOVLW       hi_addr(_LCDLine1+0)
	MOVWF       FARG_memcpy_d1+1 
	MOVLW       ?ICS?lstr69_FirmV_0_7_0+0
	MOVWF       TBLPTRL 
	MOVLW       hi_addr(?ICS?lstr69_FirmV_0_7_0+0)
	MOVWF       TBLPTRH 
	MOVLW       higher_addr(?ICS?lstr69_FirmV_0_7_0+0)
	MOVWF       TBLPTRU 
	MOVLW       ?lstr69_FirmV_0_7_0+0
	MOVWF       FSR1L 
	MOVLW       hi_addr(?lstr69_FirmV_0_7_0+0)
	MOVWF       FSR1H 
	MOVLW       17
	MOVWF       R0 
	MOVLW       1
	MOVWF       R1 
	CALL        ___CC2DW+0, 0
	MOVLW       ?lstr69_FirmV_0_7_0+0
	MOVWF       FARG_memcpy_s1+0 
	MOVLW       hi_addr(?lstr69_FirmV_0_7_0+0)
	MOVWF       FARG_memcpy_s1+1 
	MOVLW       16
	MOVWF       FARG_memcpy_n+0 
	MOVLW       0
	MOVWF       FARG_memcpy_n+1 
	CALL        _memcpy+0, 0
	MOVLW       1
	MOVWF       _LCDUpdateFlag+0 
;FirmV_0_7_0.c,1855 :: 		if(LearningMode==0)memcpy(LCDLine2,"      Auto      ",16);
	MOVF        _LearningMode+0, 0 
	XORLW       0
	BTFSS       STATUS+0, 2 
	GOTO        L_Menu0385
	MOVLW       _LCDLine2+0
	MOVWF       FARG_memcpy_d1+0 
	MOVLW       hi_addr(_LCDLine2+0)
	MOVWF       FARG_memcpy_d1+1 
	MOVLW       ?ICS?lstr70_FirmV_0_7_0+0
	MOVWF       TBLPTRL 
	MOVLW       hi_addr(?ICS?lstr70_FirmV_0_7_0+0)
	MOVWF       TBLPTRH 
	MOVLW       higher_addr(?ICS?lstr70_FirmV_0_7_0+0)
	MOVWF       TBLPTRU 
	MOVLW       ?lstr70_FirmV_0_7_0+0
	MOVWF       FSR1L 
	MOVLW       hi_addr(?lstr70_FirmV_0_7_0+0)
	MOVWF       FSR1H 
	MOVLW       17
	MOVWF       R0 
	MOVLW       1
	MOVWF       R1 
	CALL        ___CC2DW+0, 0
	MOVLW       ?lstr70_FirmV_0_7_0+0
	MOVWF       FARG_memcpy_s1+0 
	MOVLW       hi_addr(?lstr70_FirmV_0_7_0+0)
	MOVWF       FARG_memcpy_s1+1 
	MOVLW       16
	MOVWF       FARG_memcpy_n+0 
	MOVLW       0
	MOVWF       FARG_memcpy_n+1 
	CALL        _memcpy+0, 0
L_Menu0385:
;FirmV_0_7_0.c,1856 :: 		if(LearningMode==1)memcpy(LCDLine2,"     Manual     ",16);}
	MOVF        _LearningMode+0, 0 
	XORLW       1
	BTFSS       STATUS+0, 2 
	GOTO        L_Menu0386
	MOVLW       _LCDLine2+0
	MOVWF       FARG_memcpy_d1+0 
	MOVLW       hi_addr(_LCDLine2+0)
	MOVWF       FARG_memcpy_d1+1 
	MOVLW       ?ICS?lstr71_FirmV_0_7_0+0
	MOVWF       TBLPTRL 
	MOVLW       hi_addr(?ICS?lstr71_FirmV_0_7_0+0)
	MOVWF       TBLPTRH 
	MOVLW       higher_addr(?ICS?lstr71_FirmV_0_7_0+0)
	MOVWF       TBLPTRU 
	MOVLW       ?lstr71_FirmV_0_7_0+0
	MOVWF       FSR1L 
	MOVLW       hi_addr(?lstr71_FirmV_0_7_0+0)
	MOVWF       FSR1H 
	MOVLW       17
	MOVWF       R0 
	MOVLW       1
	MOVWF       R1 
	CALL        ___CC2DW+0, 0
	MOVLW       ?lstr71_FirmV_0_7_0+0
	MOVWF       FARG_memcpy_s1+0 
	MOVLW       hi_addr(?lstr71_FirmV_0_7_0+0)
	MOVWF       FARG_memcpy_s1+1 
	MOVLW       16
	MOVWF       FARG_memcpy_n+0 
	MOVLW       0
	MOVWF       FARG_memcpy_n+1 
	CALL        _memcpy+0, 0
L_Menu0386:
L_Menu0384:
;FirmV_0_7_0.c,1858 :: 		if(MenuPointer==1)
	MOVF        _MenuPointer+0, 0 
	XORLW       1
	BTFSS       STATUS+0, 2 
	GOTO        L_Menu0387
;FirmV_0_7_0.c,1859 :: 		{memcpy(LCDLine1,"01 D1 Open Time ",16);LCDUpdateFlag=1;
	MOVLW       _LCDLine1+0
	MOVWF       FARG_memcpy_d1+0 
	MOVLW       hi_addr(_LCDLine1+0)
	MOVWF       FARG_memcpy_d1+1 
	MOVLW       ?ICS?lstr72_FirmV_0_7_0+0
	MOVWF       TBLPTRL 
	MOVLW       hi_addr(?ICS?lstr72_FirmV_0_7_0+0)
	MOVWF       TBLPTRH 
	MOVLW       higher_addr(?ICS?lstr72_FirmV_0_7_0+0)
	MOVWF       TBLPTRU 
	MOVLW       ?lstr72_FirmV_0_7_0+0
	MOVWF       FSR1L 
	MOVLW       hi_addr(?lstr72_FirmV_0_7_0+0)
	MOVWF       FSR1H 
	MOVLW       17
	MOVWF       R0 
	MOVLW       1
	MOVWF       R1 
	CALL        ___CC2DW+0, 0
	MOVLW       ?lstr72_FirmV_0_7_0+0
	MOVWF       FARG_memcpy_s1+0 
	MOVLW       hi_addr(?lstr72_FirmV_0_7_0+0)
	MOVWF       FARG_memcpy_s1+1 
	MOVLW       16
	MOVWF       FARG_memcpy_n+0 
	MOVLW       0
	MOVWF       FARG_memcpy_n+1 
	CALL        _memcpy+0, 0
	MOVLW       1
	MOVWF       _LCDUpdateFlag+0 
;FirmV_0_7_0.c,1860 :: 		charValueToStr(Door1OpenTime,LCDLine2+6);}
	MOVF        _Door1OpenTime+0, 0 
	MOVWF       FARG_charValueToStr+0 
	MOVLW       _LCDLine2+6
	MOVWF       FARG_charValueToStr+0 
	MOVLW       hi_addr(_LCDLine2+6)
	MOVWF       FARG_charValueToStr+1 
	CALL        _charValueToStr+0, 0
L_Menu0387:
;FirmV_0_7_0.c,1862 :: 		if(MenuPointer==2)
	MOVF        _MenuPointer+0, 0 
	XORLW       2
	BTFSS       STATUS+0, 2 
	GOTO        L_Menu0388
;FirmV_0_7_0.c,1863 :: 		{memcpy(LCDLine1,"02 D2 Open Time ",16);LCDUpdateFlag=1;
	MOVLW       _LCDLine1+0
	MOVWF       FARG_memcpy_d1+0 
	MOVLW       hi_addr(_LCDLine1+0)
	MOVWF       FARG_memcpy_d1+1 
	MOVLW       ?ICS?lstr73_FirmV_0_7_0+0
	MOVWF       TBLPTRL 
	MOVLW       hi_addr(?ICS?lstr73_FirmV_0_7_0+0)
	MOVWF       TBLPTRH 
	MOVLW       higher_addr(?ICS?lstr73_FirmV_0_7_0+0)
	MOVWF       TBLPTRU 
	MOVLW       ?lstr73_FirmV_0_7_0+0
	MOVWF       FSR1L 
	MOVLW       hi_addr(?lstr73_FirmV_0_7_0+0)
	MOVWF       FSR1H 
	MOVLW       17
	MOVWF       R0 
	MOVLW       1
	MOVWF       R1 
	CALL        ___CC2DW+0, 0
	MOVLW       ?lstr73_FirmV_0_7_0+0
	MOVWF       FARG_memcpy_s1+0 
	MOVLW       hi_addr(?lstr73_FirmV_0_7_0+0)
	MOVWF       FARG_memcpy_s1+1 
	MOVLW       16
	MOVWF       FARG_memcpy_n+0 
	MOVLW       0
	MOVWF       FARG_memcpy_n+1 
	CALL        _memcpy+0, 0
	MOVLW       1
	MOVWF       _LCDUpdateFlag+0 
;FirmV_0_7_0.c,1864 :: 		charValueToStr(Door2OpenTime,LCDLine2+6);}
	MOVF        _Door2OpenTime+0, 0 
	MOVWF       FARG_charValueToStr+0 
	MOVLW       _LCDLine2+6
	MOVWF       FARG_charValueToStr+0 
	MOVLW       hi_addr(_LCDLine2+6)
	MOVWF       FARG_charValueToStr+1 
	CALL        _charValueToStr+0, 0
L_Menu0388:
;FirmV_0_7_0.c,1866 :: 		if(MenuPointer==3)
	MOVF        _MenuPointer+0, 0 
	XORLW       3
	BTFSS       STATUS+0, 2 
	GOTO        L_Menu0389
;FirmV_0_7_0.c,1867 :: 		{memcpy(LCDLine1,"03 D1 Close Time",16);LCDUpdateFlag=1;
	MOVLW       _LCDLine1+0
	MOVWF       FARG_memcpy_d1+0 
	MOVLW       hi_addr(_LCDLine1+0)
	MOVWF       FARG_memcpy_d1+1 
	MOVLW       ?ICS?lstr74_FirmV_0_7_0+0
	MOVWF       TBLPTRL 
	MOVLW       hi_addr(?ICS?lstr74_FirmV_0_7_0+0)
	MOVWF       TBLPTRH 
	MOVLW       higher_addr(?ICS?lstr74_FirmV_0_7_0+0)
	MOVWF       TBLPTRU 
	MOVLW       ?lstr74_FirmV_0_7_0+0
	MOVWF       FSR1L 
	MOVLW       hi_addr(?lstr74_FirmV_0_7_0+0)
	MOVWF       FSR1H 
	MOVLW       17
	MOVWF       R0 
	MOVLW       1
	MOVWF       R1 
	CALL        ___CC2DW+0, 0
	MOVLW       ?lstr74_FirmV_0_7_0+0
	MOVWF       FARG_memcpy_s1+0 
	MOVLW       hi_addr(?lstr74_FirmV_0_7_0+0)
	MOVWF       FARG_memcpy_s1+1 
	MOVLW       16
	MOVWF       FARG_memcpy_n+0 
	MOVLW       0
	MOVWF       FARG_memcpy_n+1 
	CALL        _memcpy+0, 0
	MOVLW       1
	MOVWF       _LCDUpdateFlag+0 
;FirmV_0_7_0.c,1868 :: 		charValueToStr(Door1CloseTime,LCDLine2+6);}
	MOVF        _Door1CloseTime+0, 0 
	MOVWF       FARG_charValueToStr+0 
	MOVLW       _LCDLine2+6
	MOVWF       FARG_charValueToStr+0 
	MOVLW       hi_addr(_LCDLine2+6)
	MOVWF       FARG_charValueToStr+1 
	CALL        _charValueToStr+0, 0
L_Menu0389:
;FirmV_0_7_0.c,1870 :: 		if(MenuPointer==4)
	MOVF        _MenuPointer+0, 0 
	XORLW       4
	BTFSS       STATUS+0, 2 
	GOTO        L_Menu0390
;FirmV_0_7_0.c,1871 :: 		{memcpy(LCDLine1,"04 D2 Close Time",16);LCDUpdateFlag=1;
	MOVLW       _LCDLine1+0
	MOVWF       FARG_memcpy_d1+0 
	MOVLW       hi_addr(_LCDLine1+0)
	MOVWF       FARG_memcpy_d1+1 
	MOVLW       ?ICS?lstr75_FirmV_0_7_0+0
	MOVWF       TBLPTRL 
	MOVLW       hi_addr(?ICS?lstr75_FirmV_0_7_0+0)
	MOVWF       TBLPTRH 
	MOVLW       higher_addr(?ICS?lstr75_FirmV_0_7_0+0)
	MOVWF       TBLPTRU 
	MOVLW       ?lstr75_FirmV_0_7_0+0
	MOVWF       FSR1L 
	MOVLW       hi_addr(?lstr75_FirmV_0_7_0+0)
	MOVWF       FSR1H 
	MOVLW       17
	MOVWF       R0 
	MOVLW       1
	MOVWF       R1 
	CALL        ___CC2DW+0, 0
	MOVLW       ?lstr75_FirmV_0_7_0+0
	MOVWF       FARG_memcpy_s1+0 
	MOVLW       hi_addr(?lstr75_FirmV_0_7_0+0)
	MOVWF       FARG_memcpy_s1+1 
	MOVLW       16
	MOVWF       FARG_memcpy_n+0 
	MOVLW       0
	MOVWF       FARG_memcpy_n+1 
	CALL        _memcpy+0, 0
	MOVLW       1
	MOVWF       _LCDUpdateFlag+0 
;FirmV_0_7_0.c,1872 :: 		charValueToStr(Door2CloseTime,LCDLine2+6);}
	MOVF        _Door2CloseTime+0, 0 
	MOVWF       FARG_charValueToStr+0 
	MOVLW       _LCDLine2+6
	MOVWF       FARG_charValueToStr+0 
	MOVLW       hi_addr(_LCDLine2+6)
	MOVWF       FARG_charValueToStr+1 
	CALL        _charValueToStr+0, 0
L_Menu0390:
;FirmV_0_7_0.c,1874 :: 		if(MenuPointer==5)
	MOVF        _MenuPointer+0, 0 
	XORLW       5
	BTFSS       STATUS+0, 2 
	GOTO        L_Menu0391
;FirmV_0_7_0.c,1875 :: 		{memcpy(LCDLine1,"05 Op Soft Start",16);LCDUpdateFlag=1;
	MOVLW       _LCDLine1+0
	MOVWF       FARG_memcpy_d1+0 
	MOVLW       hi_addr(_LCDLine1+0)
	MOVWF       FARG_memcpy_d1+1 
	MOVLW       ?ICS?lstr76_FirmV_0_7_0+0
	MOVWF       TBLPTRL 
	MOVLW       hi_addr(?ICS?lstr76_FirmV_0_7_0+0)
	MOVWF       TBLPTRH 
	MOVLW       higher_addr(?ICS?lstr76_FirmV_0_7_0+0)
	MOVWF       TBLPTRU 
	MOVLW       ?lstr76_FirmV_0_7_0+0
	MOVWF       FSR1L 
	MOVLW       hi_addr(?lstr76_FirmV_0_7_0+0)
	MOVWF       FSR1H 
	MOVLW       17
	MOVWF       R0 
	MOVLW       1
	MOVWF       R1 
	CALL        ___CC2DW+0, 0
	MOVLW       ?lstr76_FirmV_0_7_0+0
	MOVWF       FARG_memcpy_s1+0 
	MOVLW       hi_addr(?lstr76_FirmV_0_7_0+0)
	MOVWF       FARG_memcpy_s1+1 
	MOVLW       16
	MOVWF       FARG_memcpy_n+0 
	MOVLW       0
	MOVWF       FARG_memcpy_n+1 
	CALL        _memcpy+0, 0
	MOVLW       1
	MOVWF       _LCDUpdateFlag+0 
;FirmV_0_7_0.c,1876 :: 		charValueToStr(OpenSoftStartTime,LCDLine2+6);}
	MOVF        _OpenSoftStartTime+0, 0 
	MOVWF       FARG_charValueToStr+0 
	MOVLW       _LCDLine2+6
	MOVWF       FARG_charValueToStr+0 
	MOVLW       hi_addr(_LCDLine2+6)
	MOVWF       FARG_charValueToStr+1 
	CALL        _charValueToStr+0, 0
L_Menu0391:
;FirmV_0_7_0.c,1878 :: 		if(MenuPointer==6)
	MOVF        _MenuPointer+0, 0 
	XORLW       6
	BTFSS       STATUS+0, 2 
	GOTO        L_Menu0392
;FirmV_0_7_0.c,1879 :: 		{memcpy(LCDLine1,"06 Op Soft Stop ",16);LCDUpdateFlag=1;
	MOVLW       _LCDLine1+0
	MOVWF       FARG_memcpy_d1+0 
	MOVLW       hi_addr(_LCDLine1+0)
	MOVWF       FARG_memcpy_d1+1 
	MOVLW       ?ICS?lstr77_FirmV_0_7_0+0
	MOVWF       TBLPTRL 
	MOVLW       hi_addr(?ICS?lstr77_FirmV_0_7_0+0)
	MOVWF       TBLPTRH 
	MOVLW       higher_addr(?ICS?lstr77_FirmV_0_7_0+0)
	MOVWF       TBLPTRU 
	MOVLW       ?lstr77_FirmV_0_7_0+0
	MOVWF       FSR1L 
	MOVLW       hi_addr(?lstr77_FirmV_0_7_0+0)
	MOVWF       FSR1H 
	MOVLW       17
	MOVWF       R0 
	MOVLW       1
	MOVWF       R1 
	CALL        ___CC2DW+0, 0
	MOVLW       ?lstr77_FirmV_0_7_0+0
	MOVWF       FARG_memcpy_s1+0 
	MOVLW       hi_addr(?lstr77_FirmV_0_7_0+0)
	MOVWF       FARG_memcpy_s1+1 
	MOVLW       16
	MOVWF       FARG_memcpy_n+0 
	MOVLW       0
	MOVWF       FARG_memcpy_n+1 
	CALL        _memcpy+0, 0
	MOVLW       1
	MOVWF       _LCDUpdateFlag+0 
;FirmV_0_7_0.c,1880 :: 		charValueToStr(OpenSoftStopTime,LCDLine2+6);}
	MOVF        _OpenSoftStopTime+0, 0 
	MOVWF       FARG_charValueToStr+0 
	MOVLW       _LCDLine2+6
	MOVWF       FARG_charValueToStr+0 
	MOVLW       hi_addr(_LCDLine2+6)
	MOVWF       FARG_charValueToStr+1 
	CALL        _charValueToStr+0, 0
L_Menu0392:
;FirmV_0_7_0.c,1882 :: 		if(MenuPointer==7)
	MOVF        _MenuPointer+0, 0 
	XORLW       7
	BTFSS       STATUS+0, 2 
	GOTO        L_Menu0393
;FirmV_0_7_0.c,1883 :: 		{memcpy(LCDLine1,"07 Cl Soft Start",16);LCDUpdateFlag=1;
	MOVLW       _LCDLine1+0
	MOVWF       FARG_memcpy_d1+0 
	MOVLW       hi_addr(_LCDLine1+0)
	MOVWF       FARG_memcpy_d1+1 
	MOVLW       ?ICS?lstr78_FirmV_0_7_0+0
	MOVWF       TBLPTRL 
	MOVLW       hi_addr(?ICS?lstr78_FirmV_0_7_0+0)
	MOVWF       TBLPTRH 
	MOVLW       higher_addr(?ICS?lstr78_FirmV_0_7_0+0)
	MOVWF       TBLPTRU 
	MOVLW       ?lstr78_FirmV_0_7_0+0
	MOVWF       FSR1L 
	MOVLW       hi_addr(?lstr78_FirmV_0_7_0+0)
	MOVWF       FSR1H 
	MOVLW       17
	MOVWF       R0 
	MOVLW       1
	MOVWF       R1 
	CALL        ___CC2DW+0, 0
	MOVLW       ?lstr78_FirmV_0_7_0+0
	MOVWF       FARG_memcpy_s1+0 
	MOVLW       hi_addr(?lstr78_FirmV_0_7_0+0)
	MOVWF       FARG_memcpy_s1+1 
	MOVLW       16
	MOVWF       FARG_memcpy_n+0 
	MOVLW       0
	MOVWF       FARG_memcpy_n+1 
	CALL        _memcpy+0, 0
	MOVLW       1
	MOVWF       _LCDUpdateFlag+0 
;FirmV_0_7_0.c,1884 :: 		charValueToStr(CloseSoftStartTime,LCDLine2+6);}
	MOVF        _CloseSoftStartTime+0, 0 
	MOVWF       FARG_charValueToStr+0 
	MOVLW       _LCDLine2+6
	MOVWF       FARG_charValueToStr+0 
	MOVLW       hi_addr(_LCDLine2+6)
	MOVWF       FARG_charValueToStr+1 
	CALL        _charValueToStr+0, 0
L_Menu0393:
;FirmV_0_7_0.c,1886 :: 		if(MenuPointer==8)
	MOVF        _MenuPointer+0, 0 
	XORLW       8
	BTFSS       STATUS+0, 2 
	GOTO        L_Menu0394
;FirmV_0_7_0.c,1887 :: 		{memcpy(LCDLine1,"08 Cl Soft Stop ",16);LCDUpdateFlag=1;
	MOVLW       _LCDLine1+0
	MOVWF       FARG_memcpy_d1+0 
	MOVLW       hi_addr(_LCDLine1+0)
	MOVWF       FARG_memcpy_d1+1 
	MOVLW       ?ICS?lstr79_FirmV_0_7_0+0
	MOVWF       TBLPTRL 
	MOVLW       hi_addr(?ICS?lstr79_FirmV_0_7_0+0)
	MOVWF       TBLPTRH 
	MOVLW       higher_addr(?ICS?lstr79_FirmV_0_7_0+0)
	MOVWF       TBLPTRU 
	MOVLW       ?lstr79_FirmV_0_7_0+0
	MOVWF       FSR1L 
	MOVLW       hi_addr(?lstr79_FirmV_0_7_0+0)
	MOVWF       FSR1H 
	MOVLW       17
	MOVWF       R0 
	MOVLW       1
	MOVWF       R1 
	CALL        ___CC2DW+0, 0
	MOVLW       ?lstr79_FirmV_0_7_0+0
	MOVWF       FARG_memcpy_s1+0 
	MOVLW       hi_addr(?lstr79_FirmV_0_7_0+0)
	MOVWF       FARG_memcpy_s1+1 
	MOVLW       16
	MOVWF       FARG_memcpy_n+0 
	MOVLW       0
	MOVWF       FARG_memcpy_n+1 
	CALL        _memcpy+0, 0
	MOVLW       1
	MOVWF       _LCDUpdateFlag+0 
;FirmV_0_7_0.c,1888 :: 		charValueToStr(CloseSoftStopTime,LCDLine2+6);}
	MOVF        _CloseSoftStopTime+0, 0 
	MOVWF       FARG_charValueToStr+0 
	MOVLW       _LCDLine2+6
	MOVWF       FARG_charValueToStr+0 
	MOVLW       hi_addr(_LCDLine2+6)
	MOVWF       FARG_charValueToStr+1 
	CALL        _charValueToStr+0, 0
L_Menu0394:
;FirmV_0_7_0.c,1890 :: 		if(MenuPointer==9)
	MOVF        _MenuPointer+0, 0 
	XORLW       9
	BTFSS       STATUS+0, 2 
	GOTO        L_Menu0395
;FirmV_0_7_0.c,1891 :: 		{memcpy(LCDLine1,"09 Power        ",16);LCDUpdateFlag=1;
	MOVLW       _LCDLine1+0
	MOVWF       FARG_memcpy_d1+0 
	MOVLW       hi_addr(_LCDLine1+0)
	MOVWF       FARG_memcpy_d1+1 
	MOVLW       ?ICS?lstr80_FirmV_0_7_0+0
	MOVWF       TBLPTRL 
	MOVLW       hi_addr(?ICS?lstr80_FirmV_0_7_0+0)
	MOVWF       TBLPTRH 
	MOVLW       higher_addr(?ICS?lstr80_FirmV_0_7_0+0)
	MOVWF       TBLPTRU 
	MOVLW       ?lstr80_FirmV_0_7_0+0
	MOVWF       FSR1L 
	MOVLW       hi_addr(?lstr80_FirmV_0_7_0+0)
	MOVWF       FSR1H 
	MOVLW       17
	MOVWF       R0 
	MOVLW       1
	MOVWF       R1 
	CALL        ___CC2DW+0, 0
	MOVLW       ?lstr80_FirmV_0_7_0+0
	MOVWF       FARG_memcpy_s1+0 
	MOVLW       hi_addr(?lstr80_FirmV_0_7_0+0)
	MOVWF       FARG_memcpy_s1+1 
	MOVLW       16
	MOVWF       FARG_memcpy_n+0 
	MOVLW       0
	MOVWF       FARG_memcpy_n+1 
	CALL        _memcpy+0, 0
	MOVLW       1
	MOVWF       _LCDUpdateFlag+0 
;FirmV_0_7_0.c,1892 :: 		bytetostr(OverloadSens,LCDLine2+6);LCDLine2[9]=' ';}
	MOVF        _OverloadSens+0, 0 
	MOVWF       FARG_ByteToStr_input+0 
	MOVLW       _LCDLine2+6
	MOVWF       FARG_ByteToStr_output+0 
	MOVLW       hi_addr(_LCDLine2+6)
	MOVWF       FARG_ByteToStr_output+1 
	CALL        _ByteToStr+0, 0
	MOVLW       32
	MOVWF       _LCDLine2+9 
L_Menu0395:
;FirmV_0_7_0.c,1894 :: 		if(MenuPointer==10)
	MOVF        _MenuPointer+0, 0 
	XORLW       10
	BTFSS       STATUS+0, 2 
	GOTO        L_Menu0396
;FirmV_0_7_0.c,1895 :: 		{memcpy(LCDLine1,"10 Interval Time",16);LCDUpdateFlag=1;
	MOVLW       _LCDLine1+0
	MOVWF       FARG_memcpy_d1+0 
	MOVLW       hi_addr(_LCDLine1+0)
	MOVWF       FARG_memcpy_d1+1 
	MOVLW       ?ICS?lstr81_FirmV_0_7_0+0
	MOVWF       TBLPTRL 
	MOVLW       hi_addr(?ICS?lstr81_FirmV_0_7_0+0)
	MOVWF       TBLPTRH 
	MOVLW       higher_addr(?ICS?lstr81_FirmV_0_7_0+0)
	MOVWF       TBLPTRU 
	MOVLW       ?lstr81_FirmV_0_7_0+0
	MOVWF       FSR1L 
	MOVLW       hi_addr(?lstr81_FirmV_0_7_0+0)
	MOVWF       FSR1H 
	MOVLW       17
	MOVWF       R0 
	MOVLW       1
	MOVWF       R1 
	CALL        ___CC2DW+0, 0
	MOVLW       ?lstr81_FirmV_0_7_0+0
	MOVWF       FARG_memcpy_s1+0 
	MOVLW       hi_addr(?lstr81_FirmV_0_7_0+0)
	MOVWF       FARG_memcpy_s1+1 
	MOVLW       16
	MOVWF       FARG_memcpy_n+0 
	MOVLW       0
	MOVWF       FARG_memcpy_n+1 
	CALL        _memcpy+0, 0
	MOVLW       1
	MOVWF       _LCDUpdateFlag+0 
;FirmV_0_7_0.c,1896 :: 		charValueToStr(ActionTimeDiff,LCDLine2+6);}
	MOVF        _ActionTimeDiff+0, 0 
	MOVWF       FARG_charValueToStr+0 
	MOVLW       _LCDLine2+6
	MOVWF       FARG_charValueToStr+0 
	MOVLW       hi_addr(_LCDLine2+6)
	MOVWF       FARG_charValueToStr+1 
	CALL        _charValueToStr+0, 0
L_Menu0396:
;FirmV_0_7_0.c,1898 :: 		if(MenuPointer==11)
	MOVF        _MenuPointer+0, 0 
	XORLW       11
	BTFSS       STATUS+0, 2 
	GOTO        L_Menu0397
;FirmV_0_7_0.c,1899 :: 		{memcpy(LCDLine1,"11 Auto-close T ",16);LCDUpdateFlag=1;
	MOVLW       _LCDLine1+0
	MOVWF       FARG_memcpy_d1+0 
	MOVLW       hi_addr(_LCDLine1+0)
	MOVWF       FARG_memcpy_d1+1 
	MOVLW       ?ICS?lstr82_FirmV_0_7_0+0
	MOVWF       TBLPTRL 
	MOVLW       hi_addr(?ICS?lstr82_FirmV_0_7_0+0)
	MOVWF       TBLPTRH 
	MOVLW       higher_addr(?ICS?lstr82_FirmV_0_7_0+0)
	MOVWF       TBLPTRU 
	MOVLW       ?lstr82_FirmV_0_7_0+0
	MOVWF       FSR1L 
	MOVLW       hi_addr(?lstr82_FirmV_0_7_0+0)
	MOVWF       FSR1H 
	MOVLW       17
	MOVWF       R0 
	MOVLW       1
	MOVWF       R1 
	CALL        ___CC2DW+0, 0
	MOVLW       ?lstr82_FirmV_0_7_0+0
	MOVWF       FARG_memcpy_s1+0 
	MOVLW       hi_addr(?lstr82_FirmV_0_7_0+0)
	MOVWF       FARG_memcpy_s1+1 
	MOVLW       16
	MOVWF       FARG_memcpy_n+0 
	MOVLW       0
	MOVWF       FARG_memcpy_n+1 
	CALL        _memcpy+0, 0
	MOVLW       1
	MOVWF       _LCDUpdateFlag+0 
;FirmV_0_7_0.c,1900 :: 		intValueToStr(AutoCloseTime,LCDLine2+4);}
	MOVF        _AutoCloseTime+0, 0 
	MOVWF       FARG_intValueToStr+0 
	MOVF        _AutoCloseTime+1, 0 
	MOVWF       FARG_intValueToStr+1 
	MOVLW       _LCDLine2+4
	MOVWF       FARG_intValueToStr+0 
	MOVLW       hi_addr(_LCDLine2+4)
	MOVWF       FARG_intValueToStr+1 
	CALL        _intValueToStr+0, 0
L_Menu0397:
;FirmV_0_7_0.c,1902 :: 		if(MenuPointer==12)
	MOVF        _MenuPointer+0, 0 
	XORLW       12
	BTFSS       STATUS+0, 2 
	GOTO        L_Menu0398
;FirmV_0_7_0.c,1903 :: 		{memcpy(LCDLine1,"12 Factory Reset",16);LCDUpdateFlag=1;}
	MOVLW       _LCDLine1+0
	MOVWF       FARG_memcpy_d1+0 
	MOVLW       hi_addr(_LCDLine1+0)
	MOVWF       FARG_memcpy_d1+1 
	MOVLW       ?ICS?lstr83_FirmV_0_7_0+0
	MOVWF       TBLPTRL 
	MOVLW       hi_addr(?ICS?lstr83_FirmV_0_7_0+0)
	MOVWF       TBLPTRH 
	MOVLW       higher_addr(?ICS?lstr83_FirmV_0_7_0+0)
	MOVWF       TBLPTRU 
	MOVLW       ?lstr83_FirmV_0_7_0+0
	MOVWF       FSR1L 
	MOVLW       hi_addr(?lstr83_FirmV_0_7_0+0)
	MOVWF       FSR1H 
	MOVLW       17
	MOVWF       R0 
	MOVLW       1
	MOVWF       R1 
	CALL        ___CC2DW+0, 0
	MOVLW       ?lstr83_FirmV_0_7_0+0
	MOVWF       FARG_memcpy_s1+0 
	MOVLW       hi_addr(?lstr83_FirmV_0_7_0+0)
	MOVWF       FARG_memcpy_s1+1 
	MOVLW       16
	MOVWF       FARG_memcpy_n+0 
	MOVLW       0
	MOVWF       FARG_memcpy_n+1 
	CALL        _memcpy+0, 0
	MOVLW       1
	MOVWF       _LCDUpdateFlag+0 
L_Menu0398:
;FirmV_0_7_0.c,1905 :: 		if(MenuPointer==13)
	MOVF        _MenuPointer+0, 0 
	XORLW       13
	BTFSS       STATUS+0, 2 
	GOTO        L_Menu0399
;FirmV_0_7_0.c,1906 :: 		{memcpy(LCDLine1,"13 Open Photo En",16);LCDUpdateFlag=1;
	MOVLW       _LCDLine1+0
	MOVWF       FARG_memcpy_d1+0 
	MOVLW       hi_addr(_LCDLine1+0)
	MOVWF       FARG_memcpy_d1+1 
	MOVLW       ?ICS?lstr84_FirmV_0_7_0+0
	MOVWF       TBLPTRL 
	MOVLW       hi_addr(?ICS?lstr84_FirmV_0_7_0+0)
	MOVWF       TBLPTRH 
	MOVLW       higher_addr(?ICS?lstr84_FirmV_0_7_0+0)
	MOVWF       TBLPTRU 
	MOVLW       ?lstr84_FirmV_0_7_0+0
	MOVWF       FSR1L 
	MOVLW       hi_addr(?lstr84_FirmV_0_7_0+0)
	MOVWF       FSR1H 
	MOVLW       17
	MOVWF       R0 
	MOVLW       1
	MOVWF       R1 
	CALL        ___CC2DW+0, 0
	MOVLW       ?lstr84_FirmV_0_7_0+0
	MOVWF       FARG_memcpy_s1+0 
	MOVLW       hi_addr(?lstr84_FirmV_0_7_0+0)
	MOVWF       FARG_memcpy_s1+1 
	MOVLW       16
	MOVWF       FARG_memcpy_n+0 
	MOVLW       0
	MOVWF       FARG_memcpy_n+1 
	CALL        _memcpy+0, 0
	MOVLW       1
	MOVWF       _LCDUpdateFlag+0 
;FirmV_0_7_0.c,1907 :: 		if(OpenPhEnable==0) memcpy(LCDLine2+6,"No     ",7);else memcpy(LCDLine2+6,"Yes     ",8);}
	MOVF        _OpenPhEnable+0, 0 
	XORLW       0
	BTFSS       STATUS+0, 2 
	GOTO        L_Menu0400
	MOVLW       _LCDLine2+6
	MOVWF       FARG_memcpy_d1+0 
	MOVLW       hi_addr(_LCDLine2+6)
	MOVWF       FARG_memcpy_d1+1 
	MOVLW       78
	MOVWF       ?lstr85_FirmV_0_7_0+0 
	MOVLW       111
	MOVWF       ?lstr85_FirmV_0_7_0+1 
	MOVLW       32
	MOVWF       ?lstr85_FirmV_0_7_0+2 
	MOVLW       32
	MOVWF       ?lstr85_FirmV_0_7_0+3 
	MOVLW       32
	MOVWF       ?lstr85_FirmV_0_7_0+4 
	MOVLW       32
	MOVWF       ?lstr85_FirmV_0_7_0+5 
	MOVLW       32
	MOVWF       ?lstr85_FirmV_0_7_0+6 
	CLRF        ?lstr85_FirmV_0_7_0+7 
	MOVLW       ?lstr85_FirmV_0_7_0+0
	MOVWF       FARG_memcpy_s1+0 
	MOVLW       hi_addr(?lstr85_FirmV_0_7_0+0)
	MOVWF       FARG_memcpy_s1+1 
	MOVLW       7
	MOVWF       FARG_memcpy_n+0 
	MOVLW       0
	MOVWF       FARG_memcpy_n+1 
	CALL        _memcpy+0, 0
	GOTO        L_Menu0401
L_Menu0400:
	MOVLW       _LCDLine2+6
	MOVWF       FARG_memcpy_d1+0 
	MOVLW       hi_addr(_LCDLine2+6)
	MOVWF       FARG_memcpy_d1+1 
	MOVLW       89
	MOVWF       ?lstr86_FirmV_0_7_0+0 
	MOVLW       101
	MOVWF       ?lstr86_FirmV_0_7_0+1 
	MOVLW       115
	MOVWF       ?lstr86_FirmV_0_7_0+2 
	MOVLW       32
	MOVWF       ?lstr86_FirmV_0_7_0+3 
	MOVLW       32
	MOVWF       ?lstr86_FirmV_0_7_0+4 
	MOVLW       32
	MOVWF       ?lstr86_FirmV_0_7_0+5 
	MOVLW       32
	MOVWF       ?lstr86_FirmV_0_7_0+6 
	MOVLW       32
	MOVWF       ?lstr86_FirmV_0_7_0+7 
	CLRF        ?lstr86_FirmV_0_7_0+8 
	MOVLW       ?lstr86_FirmV_0_7_0+0
	MOVWF       FARG_memcpy_s1+0 
	MOVLW       hi_addr(?lstr86_FirmV_0_7_0+0)
	MOVWF       FARG_memcpy_s1+1 
	MOVLW       8
	MOVWF       FARG_memcpy_n+0 
	MOVLW       0
	MOVWF       FARG_memcpy_n+1 
	CALL        _memcpy+0, 0
L_Menu0401:
L_Menu0399:
;FirmV_0_7_0.c,1909 :: 		if(MenuPointer==14)
	MOVF        _MenuPointer+0, 0 
	XORLW       14
	BTFSS       STATUS+0, 2 
	GOTO        L_Menu0402
;FirmV_0_7_0.c,1910 :: 		{memcpy(LCDLine1,"14 Limit Enable ",16);LCDUpdateFlag=1;
	MOVLW       _LCDLine1+0
	MOVWF       FARG_memcpy_d1+0 
	MOVLW       hi_addr(_LCDLine1+0)
	MOVWF       FARG_memcpy_d1+1 
	MOVLW       ?ICS?lstr87_FirmV_0_7_0+0
	MOVWF       TBLPTRL 
	MOVLW       hi_addr(?ICS?lstr87_FirmV_0_7_0+0)
	MOVWF       TBLPTRH 
	MOVLW       higher_addr(?ICS?lstr87_FirmV_0_7_0+0)
	MOVWF       TBLPTRU 
	MOVLW       ?lstr87_FirmV_0_7_0+0
	MOVWF       FSR1L 
	MOVLW       hi_addr(?lstr87_FirmV_0_7_0+0)
	MOVWF       FSR1H 
	MOVLW       17
	MOVWF       R0 
	MOVLW       1
	MOVWF       R1 
	CALL        ___CC2DW+0, 0
	MOVLW       ?lstr87_FirmV_0_7_0+0
	MOVWF       FARG_memcpy_s1+0 
	MOVLW       hi_addr(?lstr87_FirmV_0_7_0+0)
	MOVWF       FARG_memcpy_s1+1 
	MOVLW       16
	MOVWF       FARG_memcpy_n+0 
	MOVLW       0
	MOVWF       FARG_memcpy_n+1 
	CALL        _memcpy+0, 0
	MOVLW       1
	MOVWF       _LCDUpdateFlag+0 
;FirmV_0_7_0.c,1911 :: 		if(LimiterEnable==0) memcpy(LCDLine2+6,"No     ",7);else memcpy(LCDLine2+6,"Yes     ",8);}
	MOVF        _LimiterEnable+0, 0 
	XORLW       0
	BTFSS       STATUS+0, 2 
	GOTO        L_Menu0403
	MOVLW       _LCDLine2+6
	MOVWF       FARG_memcpy_d1+0 
	MOVLW       hi_addr(_LCDLine2+6)
	MOVWF       FARG_memcpy_d1+1 
	MOVLW       78
	MOVWF       ?lstr88_FirmV_0_7_0+0 
	MOVLW       111
	MOVWF       ?lstr88_FirmV_0_7_0+1 
	MOVLW       32
	MOVWF       ?lstr88_FirmV_0_7_0+2 
	MOVLW       32
	MOVWF       ?lstr88_FirmV_0_7_0+3 
	MOVLW       32
	MOVWF       ?lstr88_FirmV_0_7_0+4 
	MOVLW       32
	MOVWF       ?lstr88_FirmV_0_7_0+5 
	MOVLW       32
	MOVWF       ?lstr88_FirmV_0_7_0+6 
	CLRF        ?lstr88_FirmV_0_7_0+7 
	MOVLW       ?lstr88_FirmV_0_7_0+0
	MOVWF       FARG_memcpy_s1+0 
	MOVLW       hi_addr(?lstr88_FirmV_0_7_0+0)
	MOVWF       FARG_memcpy_s1+1 
	MOVLW       7
	MOVWF       FARG_memcpy_n+0 
	MOVLW       0
	MOVWF       FARG_memcpy_n+1 
	CALL        _memcpy+0, 0
	GOTO        L_Menu0404
L_Menu0403:
	MOVLW       _LCDLine2+6
	MOVWF       FARG_memcpy_d1+0 
	MOVLW       hi_addr(_LCDLine2+6)
	MOVWF       FARG_memcpy_d1+1 
	MOVLW       89
	MOVWF       ?lstr89_FirmV_0_7_0+0 
	MOVLW       101
	MOVWF       ?lstr89_FirmV_0_7_0+1 
	MOVLW       115
	MOVWF       ?lstr89_FirmV_0_7_0+2 
	MOVLW       32
	MOVWF       ?lstr89_FirmV_0_7_0+3 
	MOVLW       32
	MOVWF       ?lstr89_FirmV_0_7_0+4 
	MOVLW       32
	MOVWF       ?lstr89_FirmV_0_7_0+5 
	MOVLW       32
	MOVWF       ?lstr89_FirmV_0_7_0+6 
	MOVLW       32
	MOVWF       ?lstr89_FirmV_0_7_0+7 
	CLRF        ?lstr89_FirmV_0_7_0+8 
	MOVLW       ?lstr89_FirmV_0_7_0+0
	MOVWF       FARG_memcpy_s1+0 
	MOVLW       hi_addr(?lstr89_FirmV_0_7_0+0)
	MOVWF       FARG_memcpy_s1+1 
	MOVLW       8
	MOVWF       FARG_memcpy_n+0 
	MOVLW       0
	MOVWF       FARG_memcpy_n+1 
	CALL        _memcpy+0, 0
L_Menu0404:
L_Menu0402:
;FirmV_0_7_0.c,1913 :: 		if(MenuPointer==15)
	MOVF        _MenuPointer+0, 0 
	XORLW       15
	BTFSS       STATUS+0, 2 
	GOTO        L_Menu0405
;FirmV_0_7_0.c,1914 :: 		{memcpy(LCDLine1,"15 Lock Force   ",16);LCDUpdateFlag=1;
	MOVLW       _LCDLine1+0
	MOVWF       FARG_memcpy_d1+0 
	MOVLW       hi_addr(_LCDLine1+0)
	MOVWF       FARG_memcpy_d1+1 
	MOVLW       ?ICS?lstr90_FirmV_0_7_0+0
	MOVWF       TBLPTRL 
	MOVLW       hi_addr(?ICS?lstr90_FirmV_0_7_0+0)
	MOVWF       TBLPTRH 
	MOVLW       higher_addr(?ICS?lstr90_FirmV_0_7_0+0)
	MOVWF       TBLPTRU 
	MOVLW       ?lstr90_FirmV_0_7_0+0
	MOVWF       FSR1L 
	MOVLW       hi_addr(?lstr90_FirmV_0_7_0+0)
	MOVWF       FSR1H 
	MOVLW       17
	MOVWF       R0 
	MOVLW       1
	MOVWF       R1 
	CALL        ___CC2DW+0, 0
	MOVLW       ?lstr90_FirmV_0_7_0+0
	MOVWF       FARG_memcpy_s1+0 
	MOVLW       hi_addr(?lstr90_FirmV_0_7_0+0)
	MOVWF       FARG_memcpy_s1+1 
	MOVLW       16
	MOVWF       FARG_memcpy_n+0 
	MOVLW       0
	MOVWF       FARG_memcpy_n+1 
	CALL        _memcpy+0, 0
	MOVLW       1
	MOVWF       _LCDUpdateFlag+0 
;FirmV_0_7_0.c,1915 :: 		if(LockForce==0) memcpy(LCDLine2+6,"No     ",7);else memcpy(LCDLine2+6,"Yes     ",8);}
	MOVF        _LockForce+0, 0 
	XORLW       0
	BTFSS       STATUS+0, 2 
	GOTO        L_Menu0406
	MOVLW       _LCDLine2+6
	MOVWF       FARG_memcpy_d1+0 
	MOVLW       hi_addr(_LCDLine2+6)
	MOVWF       FARG_memcpy_d1+1 
	MOVLW       78
	MOVWF       ?lstr91_FirmV_0_7_0+0 
	MOVLW       111
	MOVWF       ?lstr91_FirmV_0_7_0+1 
	MOVLW       32
	MOVWF       ?lstr91_FirmV_0_7_0+2 
	MOVLW       32
	MOVWF       ?lstr91_FirmV_0_7_0+3 
	MOVLW       32
	MOVWF       ?lstr91_FirmV_0_7_0+4 
	MOVLW       32
	MOVWF       ?lstr91_FirmV_0_7_0+5 
	MOVLW       32
	MOVWF       ?lstr91_FirmV_0_7_0+6 
	CLRF        ?lstr91_FirmV_0_7_0+7 
	MOVLW       ?lstr91_FirmV_0_7_0+0
	MOVWF       FARG_memcpy_s1+0 
	MOVLW       hi_addr(?lstr91_FirmV_0_7_0+0)
	MOVWF       FARG_memcpy_s1+1 
	MOVLW       7
	MOVWF       FARG_memcpy_n+0 
	MOVLW       0
	MOVWF       FARG_memcpy_n+1 
	CALL        _memcpy+0, 0
	GOTO        L_Menu0407
L_Menu0406:
	MOVLW       _LCDLine2+6
	MOVWF       FARG_memcpy_d1+0 
	MOVLW       hi_addr(_LCDLine2+6)
	MOVWF       FARG_memcpy_d1+1 
	MOVLW       89
	MOVWF       ?lstr92_FirmV_0_7_0+0 
	MOVLW       101
	MOVWF       ?lstr92_FirmV_0_7_0+1 
	MOVLW       115
	MOVWF       ?lstr92_FirmV_0_7_0+2 
	MOVLW       32
	MOVWF       ?lstr92_FirmV_0_7_0+3 
	MOVLW       32
	MOVWF       ?lstr92_FirmV_0_7_0+4 
	MOVLW       32
	MOVWF       ?lstr92_FirmV_0_7_0+5 
	MOVLW       32
	MOVWF       ?lstr92_FirmV_0_7_0+6 
	MOVLW       32
	MOVWF       ?lstr92_FirmV_0_7_0+7 
	CLRF        ?lstr92_FirmV_0_7_0+8 
	MOVLW       ?lstr92_FirmV_0_7_0+0
	MOVWF       FARG_memcpy_s1+0 
	MOVLW       hi_addr(?lstr92_FirmV_0_7_0+0)
	MOVWF       FARG_memcpy_s1+1 
	MOVLW       8
	MOVWF       FARG_memcpy_n+0 
	MOVLW       0
	MOVWF       FARG_memcpy_n+1 
	CALL        _memcpy+0, 0
L_Menu0407:
L_Menu0405:
;FirmV_0_7_0.c,1917 :: 		if(MenuPointer==16)
	MOVF        _MenuPointer+0, 0 
	XORLW       16
	BTFSS       STATUS+0, 2 
	GOTO        L_Menu0408
;FirmV_0_7_0.c,1918 :: 		{memcpy(LCDLine1,"16 Au-Cl Pass   ",16);LCDUpdateFlag=1;
	MOVLW       _LCDLine1+0
	MOVWF       FARG_memcpy_d1+0 
	MOVLW       hi_addr(_LCDLine1+0)
	MOVWF       FARG_memcpy_d1+1 
	MOVLW       ?ICS?lstr93_FirmV_0_7_0+0
	MOVWF       TBLPTRL 
	MOVLW       hi_addr(?ICS?lstr93_FirmV_0_7_0+0)
	MOVWF       TBLPTRH 
	MOVLW       higher_addr(?ICS?lstr93_FirmV_0_7_0+0)
	MOVWF       TBLPTRU 
	MOVLW       ?lstr93_FirmV_0_7_0+0
	MOVWF       FSR1L 
	MOVLW       hi_addr(?lstr93_FirmV_0_7_0+0)
	MOVWF       FSR1H 
	MOVLW       17
	MOVWF       R0 
	MOVLW       1
	MOVWF       R1 
	CALL        ___CC2DW+0, 0
	MOVLW       ?lstr93_FirmV_0_7_0+0
	MOVWF       FARG_memcpy_s1+0 
	MOVLW       hi_addr(?lstr93_FirmV_0_7_0+0)
	MOVWF       FARG_memcpy_s1+1 
	MOVLW       16
	MOVWF       FARG_memcpy_n+0 
	MOVLW       0
	MOVWF       FARG_memcpy_n+1 
	CALL        _memcpy+0, 0
	MOVLW       1
	MOVWF       _LCDUpdateFlag+0 
;FirmV_0_7_0.c,1919 :: 		charValueToStr(CloseAfterPass,LCDLine2+6);}
	MOVF        _CloseAfterPass+0, 0 
	MOVWF       FARG_charValueToStr+0 
	MOVLW       _LCDLine2+6
	MOVWF       FARG_charValueToStr+0 
	MOVLW       hi_addr(_LCDLine2+6)
	MOVWF       FARG_charValueToStr+1 
	CALL        _charValueToStr+0, 0
L_Menu0408:
;FirmV_0_7_0.c,1921 :: 		if(MenuPointer==17)
	MOVF        _MenuPointer+0, 0 
	XORLW       17
	BTFSS       STATUS+0, 2 
	GOTO        L_Menu0409
;FirmV_0_7_0.c,1922 :: 		{memcpy(LCDLine1,"17 Save Changes ",16);LCDUpdateFlag=1;}
	MOVLW       _LCDLine1+0
	MOVWF       FARG_memcpy_d1+0 
	MOVLW       hi_addr(_LCDLine1+0)
	MOVWF       FARG_memcpy_d1+1 
	MOVLW       ?ICS?lstr94_FirmV_0_7_0+0
	MOVWF       TBLPTRL 
	MOVLW       hi_addr(?ICS?lstr94_FirmV_0_7_0+0)
	MOVWF       TBLPTRH 
	MOVLW       higher_addr(?ICS?lstr94_FirmV_0_7_0+0)
	MOVWF       TBLPTRU 
	MOVLW       ?lstr94_FirmV_0_7_0+0
	MOVWF       FSR1L 
	MOVLW       hi_addr(?lstr94_FirmV_0_7_0+0)
	MOVWF       FSR1H 
	MOVLW       17
	MOVWF       R0 
	MOVLW       1
	MOVWF       R1 
	CALL        ___CC2DW+0, 0
	MOVLW       ?lstr94_FirmV_0_7_0+0
	MOVWF       FARG_memcpy_s1+0 
	MOVLW       hi_addr(?lstr94_FirmV_0_7_0+0)
	MOVWF       FARG_memcpy_s1+1 
	MOVLW       16
	MOVWF       FARG_memcpy_n+0 
	MOVLW       0
	MOVWF       FARG_memcpy_n+1 
	CALL        _memcpy+0, 0
	MOVLW       1
	MOVWF       _LCDUpdateFlag+0 
L_Menu0409:
;FirmV_0_7_0.c,1924 :: 		if(MenuPointer==18)
	MOVF        _MenuPointer+0, 0 
	XORLW       18
	BTFSS       STATUS+0, 2 
	GOTO        L_Menu0410
;FirmV_0_7_0.c,1925 :: 		{memcpy(LCDLine1,"18 Discard Exit ",16);LCDUpdateFlag=1;}
	MOVLW       _LCDLine1+0
	MOVWF       FARG_memcpy_d1+0 
	MOVLW       hi_addr(_LCDLine1+0)
	MOVWF       FARG_memcpy_d1+1 
	MOVLW       ?ICS?lstr95_FirmV_0_7_0+0
	MOVWF       TBLPTRL 
	MOVLW       hi_addr(?ICS?lstr95_FirmV_0_7_0+0)
	MOVWF       TBLPTRH 
	MOVLW       higher_addr(?ICS?lstr95_FirmV_0_7_0+0)
	MOVWF       TBLPTRU 
	MOVLW       ?lstr95_FirmV_0_7_0+0
	MOVWF       FSR1L 
	MOVLW       hi_addr(?lstr95_FirmV_0_7_0+0)
	MOVWF       FSR1H 
	MOVLW       17
	MOVWF       R0 
	MOVLW       1
	MOVWF       R1 
	CALL        ___CC2DW+0, 0
	MOVLW       ?lstr95_FirmV_0_7_0+0
	MOVWF       FARG_memcpy_s1+0 
	MOVLW       hi_addr(?lstr95_FirmV_0_7_0+0)
	MOVWF       FARG_memcpy_s1+1 
	MOVLW       16
	MOVWF       FARG_memcpy_n+0 
	MOVLW       0
	MOVWF       FARG_memcpy_n+1 
	CALL        _memcpy+0, 0
	MOVLW       1
	MOVWF       _LCDUpdateFlag+0 
L_Menu0410:
;FirmV_0_7_0.c,1928 :: 		State=101;
	MOVLW       101
	MOVWF       _State+0 
;FirmV_0_7_0.c,1929 :: 		}
	RETURN      0
; end of _Menu0

_About:

;FirmV_0_7_0.c,1937 :: 		void About()
;FirmV_0_7_0.c,1939 :: 		if((Events.Keys.b1==1))
	BTFSS       _Events+0, 1 
	GOTO        L_About411
;FirmV_0_7_0.c,1940 :: 		AboutCounter=AboutCounter+1;
	INCF        _AboutCounter+0, 1 
L_About411:
;FirmV_0_7_0.c,1942 :: 		if(AboutCounter==1)
	MOVF        _AboutCounter+0, 0 
	XORLW       1
	BTFSS       STATUS+0, 2 
	GOTO        L_About412
;FirmV_0_7_0.c,1943 :: 		{memcpy(LCDLine1,Crypto[2],16);
	MOVLW       _LCDLine1+0
	MOVWF       FARG_memcpy_d1+0 
	MOVLW       hi_addr(_LCDLine1+0)
	MOVWF       FARG_memcpy_d1+1 
	MOVLW       _crypto+32
	MOVWF       FARG_memcpy_s1+0 
	MOVLW       hi_addr(_crypto+32)
	MOVWF       FARG_memcpy_s1+1 
	MOVLW       16
	MOVWF       FARG_memcpy_n+0 
	MOVLW       0
	MOVWF       FARG_memcpy_n+1 
	CALL        _memcpy+0, 0
;FirmV_0_7_0.c,1944 :: 		memcpy(LCDLine2,Crypto[3],16);
	MOVLW       _LCDLine2+0
	MOVWF       FARG_memcpy_d1+0 
	MOVLW       hi_addr(_LCDLine2+0)
	MOVWF       FARG_memcpy_d1+1 
	MOVLW       _crypto+48
	MOVWF       FARG_memcpy_s1+0 
	MOVLW       hi_addr(_crypto+48)
	MOVWF       FARG_memcpy_s1+1 
	MOVLW       16
	MOVWF       FARG_memcpy_n+0 
	MOVLW       0
	MOVWF       FARG_memcpy_n+1 
	CALL        _memcpy+0, 0
;FirmV_0_7_0.c,1945 :: 		LCDUpdateFlag=1;
	MOVLW       1
	MOVWF       _LCDUpdateFlag+0 
;FirmV_0_7_0.c,1946 :: 		}
L_About412:
;FirmV_0_7_0.c,1948 :: 		if(AboutCounter==2)
	MOVF        _AboutCounter+0, 0 
	XORLW       2
	BTFSS       STATUS+0, 2 
	GOTO        L_About413
;FirmV_0_7_0.c,1949 :: 		{memcpy(LCDLine1,Crypto[4],16);
	MOVLW       _LCDLine1+0
	MOVWF       FARG_memcpy_d1+0 
	MOVLW       hi_addr(_LCDLine1+0)
	MOVWF       FARG_memcpy_d1+1 
	MOVLW       _crypto+64
	MOVWF       FARG_memcpy_s1+0 
	MOVLW       hi_addr(_crypto+64)
	MOVWF       FARG_memcpy_s1+1 
	MOVLW       16
	MOVWF       FARG_memcpy_n+0 
	MOVLW       0
	MOVWF       FARG_memcpy_n+1 
	CALL        _memcpy+0, 0
;FirmV_0_7_0.c,1950 :: 		memcpy(LCDLine2,Crypto[5],16);
	MOVLW       _LCDLine2+0
	MOVWF       FARG_memcpy_d1+0 
	MOVLW       hi_addr(_LCDLine2+0)
	MOVWF       FARG_memcpy_d1+1 
	MOVLW       _crypto+80
	MOVWF       FARG_memcpy_s1+0 
	MOVLW       hi_addr(_crypto+80)
	MOVWF       FARG_memcpy_s1+1 
	MOVLW       16
	MOVWF       FARG_memcpy_n+0 
	MOVLW       0
	MOVWF       FARG_memcpy_n+1 
	CALL        _memcpy+0, 0
;FirmV_0_7_0.c,1951 :: 		LCDUpdateFlag=1;
	MOVLW       1
	MOVWF       _LCDUpdateFlag+0 
;FirmV_0_7_0.c,1952 :: 		}
L_About413:
;FirmV_0_7_0.c,1954 :: 		if(AboutCounter==3)
	MOVF        _AboutCounter+0, 0 
	XORLW       3
	BTFSS       STATUS+0, 2 
	GOTO        L_About414
;FirmV_0_7_0.c,1955 :: 		{State=100;}
	MOVLW       100
	MOVWF       _State+0 
L_About414:
;FirmV_0_7_0.c,1956 :: 		}
	RETURN      0
; end of _About

_Menu1:

;FirmV_0_7_0.c,1965 :: 		void Menu1()
;FirmV_0_7_0.c,1968 :: 		if((Events.Keys.b0==1))
	BTFSS       _Events+0, 0 
	GOTO        L_Menu1415
;FirmV_0_7_0.c,1969 :: 		{if(MenuPointer==0){MenuPointer=18;}else{MenuPointer=MenuPointer-1;}State=100;}
	MOVF        _MenuPointer+0, 0 
	XORLW       0
	BTFSS       STATUS+0, 2 
	GOTO        L_Menu1416
	MOVLW       18
	MOVWF       _MenuPointer+0 
	GOTO        L_Menu1417
L_Menu1416:
	DECF        _MenuPointer+0, 1 
L_Menu1417:
	MOVLW       100
	MOVWF       _State+0 
L_Menu1415:
;FirmV_0_7_0.c,1971 :: 		if((Events.Keys.b2==1))
	BTFSS       _Events+0, 2 
	GOTO        L_Menu1418
;FirmV_0_7_0.c,1972 :: 		{if(MenuPointer==18){MenuPointer=0;}else{MenuPointer=MenuPointer+1;}State=100;}
	MOVF        _MenuPointer+0, 0 
	XORLW       18
	BTFSS       STATUS+0, 2 
	GOTO        L_Menu1419
	CLRF        _MenuPointer+0 
	GOTO        L_Menu1420
L_Menu1419:
	INCF        _MenuPointer+0, 1 
L_Menu1420:
	MOVLW       100
	MOVWF       _State+0 
L_Menu1418:
;FirmV_0_7_0.c,1974 :: 		if((Events.Keys.b1==1))
	BTFSS       _Events+0, 1 
	GOTO        L_Menu1421
;FirmV_0_7_0.c,1975 :: 		{State=102;}
	MOVLW       102
	MOVWF       _State+0 
L_Menu1421:
;FirmV_0_7_0.c,1977 :: 		if(Events.Keys==0b101)
	MOVF        _Events+0, 0 
	XORLW       5
	BTFSS       STATUS+0, 2 
	GOTO        L_Menu1422
;FirmV_0_7_0.c,1978 :: 		{memcpy(LCDLine1,Crypto[0],16);AboutCounter=0;memcpy(LCDLine2,Crypto[1],16);LCDLines=2;LCDUpdateFlag=1;State=250;}
	MOVLW       _LCDLine1+0
	MOVWF       FARG_memcpy_d1+0 
	MOVLW       hi_addr(_LCDLine1+0)
	MOVWF       FARG_memcpy_d1+1 
	MOVLW       _crypto+0
	MOVWF       FARG_memcpy_s1+0 
	MOVLW       hi_addr(_crypto+0)
	MOVWF       FARG_memcpy_s1+1 
	MOVLW       16
	MOVWF       FARG_memcpy_n+0 
	MOVLW       0
	MOVWF       FARG_memcpy_n+1 
	CALL        _memcpy+0, 0
	CLRF        _AboutCounter+0 
	MOVLW       _LCDLine2+0
	MOVWF       FARG_memcpy_d1+0 
	MOVLW       hi_addr(_LCDLine2+0)
	MOVWF       FARG_memcpy_d1+1 
	MOVLW       _crypto+16
	MOVWF       FARG_memcpy_s1+0 
	MOVLW       hi_addr(_crypto+16)
	MOVWF       FARG_memcpy_s1+1 
	MOVLW       16
	MOVWF       FARG_memcpy_n+0 
	MOVLW       0
	MOVWF       FARG_memcpy_n+1 
	CALL        _memcpy+0, 0
	MOVLW       2
	MOVWF       _LCDLines+0 
	MOVLW       1
	MOVWF       _LCDUpdateFlag+0 
	MOVLW       250
	MOVWF       _State+0 
L_Menu1422:
;FirmV_0_7_0.c,1981 :: 		}
	RETURN      0
; end of _Menu1

_Menu2:

;FirmV_0_7_0.c,1989 :: 		void Menu2()
;FirmV_0_7_0.c,1992 :: 		LCDFlash=1;
	MOVLW       1
	MOVWF       _LCDFlash+0 
;FirmV_0_7_0.c,1994 :: 		if(Events.Keys.b1==1)
	BTFSS       _Events+0, 1 
	GOTO        L_Menu2423
;FirmV_0_7_0.c,1996 :: 		LCDFlash=0;LCDFlashFlag=0;State=101;
	CLRF        _LCDFlash+0 
	CLRF        _LCDFlashFlag+0 
	MOVLW       101
	MOVWF       _State+0 
;FirmV_0_7_0.c,1997 :: 		if(MenuPointer==0)
	MOVF        _MenuPointer+0, 0 
	XORLW       0
	BTFSS       STATUS+0, 2 
	GOTO        L_Menu2424
;FirmV_0_7_0.c,1999 :: 		LearnPhase=0;
	CLRF        _LearnPhase+0 
;FirmV_0_7_0.c,2000 :: 		if(LearningMode==0)
	MOVF        _LearningMode+0, 0 
	XORLW       0
	BTFSS       STATUS+0, 2 
	GOTO        L_Menu2425
;FirmV_0_7_0.c,2001 :: 		State=200;
	MOVLW       200
	MOVWF       _State+0 
L_Menu2425:
;FirmV_0_7_0.c,2002 :: 		if(LearningMode==1)
	MOVF        _LearningMode+0, 0 
	XORLW       1
	BTFSS       STATUS+0, 2 
	GOTO        L_Menu2426
;FirmV_0_7_0.c,2003 :: 		State=201;
	MOVLW       201
	MOVWF       _State+0 
L_Menu2426:
;FirmV_0_7_0.c,2004 :: 		}
L_Menu2424:
;FirmV_0_7_0.c,2005 :: 		}
L_Menu2423:
;FirmV_0_7_0.c,2008 :: 		if(MenuPointer==0)
	MOVF        _MenuPointer+0, 0 
	XORLW       0
	BTFSS       STATUS+0, 2 
	GOTO        L_Menu2427
;FirmV_0_7_0.c,2009 :: 		{ if((Events.Keys.b0==1)&&(LearningMode>0))
	BTFSS       _Events+0, 0 
	GOTO        L_Menu2430
	MOVF        _LearningMode+0, 0 
	SUBLW       0
	BTFSC       STATUS+0, 0 
	GOTO        L_Menu2430
L__Menu2751:
;FirmV_0_7_0.c,2010 :: 		{LearningMode=LearningMode-1;Menu0();State=102;}
	DECF        _LearningMode+0, 1 
	CALL        _Menu0+0, 0
	MOVLW       102
	MOVWF       _State+0 
L_Menu2430:
;FirmV_0_7_0.c,2011 :: 		if((Events.Keys.b2==1)&&(LearningMode<1))
	BTFSS       _Events+0, 2 
	GOTO        L_Menu2433
	MOVLW       1
	SUBWF       _LearningMode+0, 0 
	BTFSC       STATUS+0, 0 
	GOTO        L_Menu2433
L__Menu2750:
;FirmV_0_7_0.c,2012 :: 		{LearningMode=LearningMode+1;Menu0();State=102;}
	INCF        _LearningMode+0, 1 
	CALL        _Menu0+0, 0
	MOVLW       102
	MOVWF       _State+0 
L_Menu2433:
;FirmV_0_7_0.c,2013 :: 		}
L_Menu2427:
;FirmV_0_7_0.c,2017 :: 		if(MenuPointer==1)
	MOVF        _MenuPointer+0, 0 
	XORLW       1
	BTFSS       STATUS+0, 2 
	GOTO        L_Menu2434
;FirmV_0_7_0.c,2018 :: 		{ if((Events.Keys.b0==1)&&(Door1OpenTime>0))
	BTFSS       _Events+0, 0 
	GOTO        L_Menu2437
	MOVF        _Door1OpenTime+0, 0 
	SUBLW       0
	BTFSC       STATUS+0, 0 
	GOTO        L_Menu2437
L__Menu2749:
;FirmV_0_7_0.c,2019 :: 		{Door1OpenTime=Door1OpenTime-1;Menu0();State=102;}
	DECF        _Door1OpenTime+0, 1 
	CALL        _Menu0+0, 0
	MOVLW       102
	MOVWF       _State+0 
L_Menu2437:
;FirmV_0_7_0.c,2020 :: 		if((Events.Keys.b2==1)&&(Door1OpenTime<255))
	BTFSS       _Events+0, 2 
	GOTO        L_Menu2440
	MOVLW       255
	SUBWF       _Door1OpenTime+0, 0 
	BTFSC       STATUS+0, 0 
	GOTO        L_Menu2440
L__Menu2748:
;FirmV_0_7_0.c,2021 :: 		{Door1OpenTime=Door1OpenTime+1;Menu0();State=102;}
	INCF        _Door1OpenTime+0, 1 
	CALL        _Menu0+0, 0
	MOVLW       102
	MOVWF       _State+0 
L_Menu2440:
;FirmV_0_7_0.c,2022 :: 		}
L_Menu2434:
;FirmV_0_7_0.c,2026 :: 		if(MenuPointer==2)
	MOVF        _MenuPointer+0, 0 
	XORLW       2
	BTFSS       STATUS+0, 2 
	GOTO        L_Menu2441
;FirmV_0_7_0.c,2027 :: 		{ if((Events.Keys.b0==1)&&(Door2OpenTime>0))
	BTFSS       _Events+0, 0 
	GOTO        L_Menu2444
	MOVF        _Door2OpenTime+0, 0 
	SUBLW       0
	BTFSC       STATUS+0, 0 
	GOTO        L_Menu2444
L__Menu2747:
;FirmV_0_7_0.c,2028 :: 		{Door2OpenTime=Door2OpenTime-1;Menu0();State=102;}
	DECF        _Door2OpenTime+0, 1 
	CALL        _Menu0+0, 0
	MOVLW       102
	MOVWF       _State+0 
L_Menu2444:
;FirmV_0_7_0.c,2029 :: 		if((Events.Keys.b2==1)&&(Door2OpenTime<255))
	BTFSS       _Events+0, 2 
	GOTO        L_Menu2447
	MOVLW       255
	SUBWF       _Door2OpenTime+0, 0 
	BTFSC       STATUS+0, 0 
	GOTO        L_Menu2447
L__Menu2746:
;FirmV_0_7_0.c,2030 :: 		{Door2OpenTime=Door2OpenTime+1;Menu0();State=102;}
	INCF        _Door2OpenTime+0, 1 
	CALL        _Menu0+0, 0
	MOVLW       102
	MOVWF       _State+0 
L_Menu2447:
;FirmV_0_7_0.c,2031 :: 		}
L_Menu2441:
;FirmV_0_7_0.c,2034 :: 		if(MenuPointer==3)
	MOVF        _MenuPointer+0, 0 
	XORLW       3
	BTFSS       STATUS+0, 2 
	GOTO        L_Menu2448
;FirmV_0_7_0.c,2035 :: 		{ if((Events.Keys.b0==1)&&(Door1CloseTime>0))
	BTFSS       _Events+0, 0 
	GOTO        L_Menu2451
	MOVF        _Door1CloseTime+0, 0 
	SUBLW       0
	BTFSC       STATUS+0, 0 
	GOTO        L_Menu2451
L__Menu2745:
;FirmV_0_7_0.c,2036 :: 		{Door1CloseTime=Door1CloseTime-1;Menu0();State=102;}
	DECF        _Door1CloseTime+0, 1 
	CALL        _Menu0+0, 0
	MOVLW       102
	MOVWF       _State+0 
L_Menu2451:
;FirmV_0_7_0.c,2037 :: 		if((Events.Keys.b2==1)&&(Door1CloseTime<255))
	BTFSS       _Events+0, 2 
	GOTO        L_Menu2454
	MOVLW       255
	SUBWF       _Door1CloseTime+0, 0 
	BTFSC       STATUS+0, 0 
	GOTO        L_Menu2454
L__Menu2744:
;FirmV_0_7_0.c,2038 :: 		{Door1CloseTime=Door1CloseTime+1;Menu0();State=102;}
	INCF        _Door1CloseTime+0, 1 
	CALL        _Menu0+0, 0
	MOVLW       102
	MOVWF       _State+0 
L_Menu2454:
;FirmV_0_7_0.c,2039 :: 		}
L_Menu2448:
;FirmV_0_7_0.c,2042 :: 		if(MenuPointer==4)
	MOVF        _MenuPointer+0, 0 
	XORLW       4
	BTFSS       STATUS+0, 2 
	GOTO        L_Menu2455
;FirmV_0_7_0.c,2043 :: 		{ if((Events.Keys.b0==1)&&(Door2CloseTime>0))
	BTFSS       _Events+0, 0 
	GOTO        L_Menu2458
	MOVF        _Door2CloseTime+0, 0 
	SUBLW       0
	BTFSC       STATUS+0, 0 
	GOTO        L_Menu2458
L__Menu2743:
;FirmV_0_7_0.c,2044 :: 		{Door2CloseTime=Door2CloseTime-1;Menu0();State=102;}
	DECF        _Door2CloseTime+0, 1 
	CALL        _Menu0+0, 0
	MOVLW       102
	MOVWF       _State+0 
L_Menu2458:
;FirmV_0_7_0.c,2045 :: 		if((Events.Keys.b2==1)&&(Door2CloseTime<255))
	BTFSS       _Events+0, 2 
	GOTO        L_Menu2461
	MOVLW       255
	SUBWF       _Door2CloseTime+0, 0 
	BTFSC       STATUS+0, 0 
	GOTO        L_Menu2461
L__Menu2742:
;FirmV_0_7_0.c,2046 :: 		{Door2CloseTime=Door2CloseTime+1;Menu0();State=102;}
	INCF        _Door2CloseTime+0, 1 
	CALL        _Menu0+0, 0
	MOVLW       102
	MOVWF       _State+0 
L_Menu2461:
;FirmV_0_7_0.c,2047 :: 		}
L_Menu2455:
;FirmV_0_7_0.c,2051 :: 		if(MenuPointer==5)
	MOVF        _MenuPointer+0, 0 
	XORLW       5
	BTFSS       STATUS+0, 2 
	GOTO        L_Menu2462
;FirmV_0_7_0.c,2052 :: 		{ if((Events.Keys.b0==1)&&(OpenSoftStartTime>0))
	BTFSS       _Events+0, 0 
	GOTO        L_Menu2465
	MOVF        _OpenSoftStartTime+0, 0 
	SUBLW       0
	BTFSC       STATUS+0, 0 
	GOTO        L_Menu2465
L__Menu2741:
;FirmV_0_7_0.c,2053 :: 		{OpenSoftStartTime=OpenSoftStartTime-1;Menu0();State=102;}
	DECF        _OpenSoftStartTime+0, 1 
	CALL        _Menu0+0, 0
	MOVLW       102
	MOVWF       _State+0 
L_Menu2465:
;FirmV_0_7_0.c,2054 :: 		if((Events.Keys.b2==1)&&(OpenSoftStartTime<255))
	BTFSS       _Events+0, 2 
	GOTO        L_Menu2468
	MOVLW       255
	SUBWF       _OpenSoftStartTime+0, 0 
	BTFSC       STATUS+0, 0 
	GOTO        L_Menu2468
L__Menu2740:
;FirmV_0_7_0.c,2055 :: 		{OpenSoftStartTime=OpenSoftStartTime+1;Menu0();State=102;}
	INCF        _OpenSoftStartTime+0, 1 
	CALL        _Menu0+0, 0
	MOVLW       102
	MOVWF       _State+0 
L_Menu2468:
;FirmV_0_7_0.c,2056 :: 		}
L_Menu2462:
;FirmV_0_7_0.c,2059 :: 		if(MenuPointer==6)
	MOVF        _MenuPointer+0, 0 
	XORLW       6
	BTFSS       STATUS+0, 2 
	GOTO        L_Menu2469
;FirmV_0_7_0.c,2060 :: 		{ if((Events.Keys.b0==1)&&(OpenSoftStopTime>0))
	BTFSS       _Events+0, 0 
	GOTO        L_Menu2472
	MOVF        _OpenSoftStopTime+0, 0 
	SUBLW       0
	BTFSC       STATUS+0, 0 
	GOTO        L_Menu2472
L__Menu2739:
;FirmV_0_7_0.c,2061 :: 		{OpenSoftStopTime=OpenSoftStopTime-1;Menu0();State=102;}
	DECF        _OpenSoftStopTime+0, 1 
	CALL        _Menu0+0, 0
	MOVLW       102
	MOVWF       _State+0 
L_Menu2472:
;FirmV_0_7_0.c,2062 :: 		if((Events.Keys.b2==1)&&(OpenSoftStopTime<255))
	BTFSS       _Events+0, 2 
	GOTO        L_Menu2475
	MOVLW       255
	SUBWF       _OpenSoftStopTime+0, 0 
	BTFSC       STATUS+0, 0 
	GOTO        L_Menu2475
L__Menu2738:
;FirmV_0_7_0.c,2063 :: 		{OpenSoftStopTime=OpenSoftStopTime+1;Menu0();State=102;}
	INCF        _OpenSoftStopTime+0, 1 
	CALL        _Menu0+0, 0
	MOVLW       102
	MOVWF       _State+0 
L_Menu2475:
;FirmV_0_7_0.c,2064 :: 		}
L_Menu2469:
;FirmV_0_7_0.c,2067 :: 		if(MenuPointer==7)
	MOVF        _MenuPointer+0, 0 
	XORLW       7
	BTFSS       STATUS+0, 2 
	GOTO        L_Menu2476
;FirmV_0_7_0.c,2068 :: 		{ if((Events.Keys.b0==1)&&(CloseSoftStartTime>0))
	BTFSS       _Events+0, 0 
	GOTO        L_Menu2479
	MOVF        _CloseSoftStartTime+0, 0 
	SUBLW       0
	BTFSC       STATUS+0, 0 
	GOTO        L_Menu2479
L__Menu2737:
;FirmV_0_7_0.c,2069 :: 		{CloseSoftStartTime=CloseSoftStartTime-1;Menu0();State=102;}
	DECF        _CloseSoftStartTime+0, 1 
	CALL        _Menu0+0, 0
	MOVLW       102
	MOVWF       _State+0 
L_Menu2479:
;FirmV_0_7_0.c,2070 :: 		if((Events.Keys.b2==1)&&(CloseSoftStartTime<255))
	BTFSS       _Events+0, 2 
	GOTO        L_Menu2482
	MOVLW       255
	SUBWF       _CloseSoftStartTime+0, 0 
	BTFSC       STATUS+0, 0 
	GOTO        L_Menu2482
L__Menu2736:
;FirmV_0_7_0.c,2071 :: 		{CloseSoftStartTime=CloseSoftStartTime+1;Menu0();State=102;}
	INCF        _CloseSoftStartTime+0, 1 
	CALL        _Menu0+0, 0
	MOVLW       102
	MOVWF       _State+0 
L_Menu2482:
;FirmV_0_7_0.c,2072 :: 		}
L_Menu2476:
;FirmV_0_7_0.c,2075 :: 		if(MenuPointer==8)
	MOVF        _MenuPointer+0, 0 
	XORLW       8
	BTFSS       STATUS+0, 2 
	GOTO        L_Menu2483
;FirmV_0_7_0.c,2076 :: 		{ if((Events.Keys.b0==1)&&(CloseSoftStopTime>0))
	BTFSS       _Events+0, 0 
	GOTO        L_Menu2486
	MOVF        _CloseSoftStopTime+0, 0 
	SUBLW       0
	BTFSC       STATUS+0, 0 
	GOTO        L_Menu2486
L__Menu2735:
;FirmV_0_7_0.c,2077 :: 		{CloseSoftStopTime=CloseSoftStopTime-1;Menu0();State=102;}
	DECF        _CloseSoftStopTime+0, 1 
	CALL        _Menu0+0, 0
	MOVLW       102
	MOVWF       _State+0 
L_Menu2486:
;FirmV_0_7_0.c,2078 :: 		if((Events.Keys.b2==1)&&(CloseSoftStopTime<255))
	BTFSS       _Events+0, 2 
	GOTO        L_Menu2489
	MOVLW       255
	SUBWF       _CloseSoftStopTime+0, 0 
	BTFSC       STATUS+0, 0 
	GOTO        L_Menu2489
L__Menu2734:
;FirmV_0_7_0.c,2079 :: 		{CloseSoftStopTime=CloseSoftStopTime+1;Menu0();State=102;}
	INCF        _CloseSoftStopTime+0, 1 
	CALL        _Menu0+0, 0
	MOVLW       102
	MOVWF       _State+0 
L_Menu2489:
;FirmV_0_7_0.c,2080 :: 		}
L_Menu2483:
;FirmV_0_7_0.c,2084 :: 		if(MenuPointer==9)
	MOVF        _MenuPointer+0, 0 
	XORLW       9
	BTFSS       STATUS+0, 2 
	GOTO        L_Menu2490
;FirmV_0_7_0.c,2085 :: 		{ if((Events.Keys.b0==1)&&(OverloadSens>0))
	BTFSS       _Events+0, 0 
	GOTO        L_Menu2493
	MOVF        _OverloadSens+0, 0 
	SUBLW       0
	BTFSC       STATUS+0, 0 
	GOTO        L_Menu2493
L__Menu2733:
;FirmV_0_7_0.c,2086 :: 		{OverloadSens=OverloadSens-1;Menu0();State=102;}
	DECF        _OverloadSens+0, 1 
	CALL        _Menu0+0, 0
	MOVLW       102
	MOVWF       _State+0 
L_Menu2493:
;FirmV_0_7_0.c,2087 :: 		if((Events.Keys.b2==1)&&(OverloadSens<9))
	BTFSS       _Events+0, 2 
	GOTO        L_Menu2496
	MOVLW       9
	SUBWF       _OverloadSens+0, 0 
	BTFSC       STATUS+0, 0 
	GOTO        L_Menu2496
L__Menu2732:
;FirmV_0_7_0.c,2088 :: 		{OverloadSens=OverloadSens+1;Menu0();State=102;}
	INCF        _OverloadSens+0, 1 
	CALL        _Menu0+0, 0
	MOVLW       102
	MOVWF       _State+0 
L_Menu2496:
;FirmV_0_7_0.c,2089 :: 		}
L_Menu2490:
;FirmV_0_7_0.c,2092 :: 		if(MenuPointer==10)
	MOVF        _MenuPointer+0, 0 
	XORLW       10
	BTFSS       STATUS+0, 2 
	GOTO        L_Menu2497
;FirmV_0_7_0.c,2093 :: 		{ if((Events.Keys.b0==1)&&(ActionTimeDiff>0))
	BTFSS       _Events+0, 0 
	GOTO        L_Menu2500
	MOVF        _ActionTimeDiff+0, 0 
	SUBLW       0
	BTFSC       STATUS+0, 0 
	GOTO        L_Menu2500
L__Menu2731:
;FirmV_0_7_0.c,2094 :: 		{ActionTimeDiff=ActionTimeDiff-1;Menu0();State=102;}
	DECF        _ActionTimeDiff+0, 1 
	CALL        _Menu0+0, 0
	MOVLW       102
	MOVWF       _State+0 
L_Menu2500:
;FirmV_0_7_0.c,2095 :: 		if((Events.Keys.b2==1)&&(ActionTimeDiff<255))
	BTFSS       _Events+0, 2 
	GOTO        L_Menu2503
	MOVLW       255
	SUBWF       _ActionTimeDiff+0, 0 
	BTFSC       STATUS+0, 0 
	GOTO        L_Menu2503
L__Menu2730:
;FirmV_0_7_0.c,2096 :: 		{ActionTimeDiff=ActionTimeDiff+1;Menu0();State=102;}
	INCF        _ActionTimeDiff+0, 1 
	CALL        _Menu0+0, 0
	MOVLW       102
	MOVWF       _State+0 
L_Menu2503:
;FirmV_0_7_0.c,2097 :: 		}
L_Menu2497:
;FirmV_0_7_0.c,2100 :: 		if(MenuPointer==11)
	MOVF        _MenuPointer+0, 0 
	XORLW       11
	BTFSS       STATUS+0, 2 
	GOTO        L_Menu2504
;FirmV_0_7_0.c,2101 :: 		{ if((Events.Keys.b0==1)&&(AutoCloseTime>0))
	BTFSS       _Events+0, 0 
	GOTO        L_Menu2507
	MOVLW       0
	MOVWF       R0 
	MOVF        _AutoCloseTime+1, 0 
	SUBWF       R0, 0 
	BTFSS       STATUS+0, 2 
	GOTO        L__Menu2790
	MOVF        _AutoCloseTime+0, 0 
	SUBLW       0
L__Menu2790:
	BTFSC       STATUS+0, 0 
	GOTO        L_Menu2507
L__Menu2729:
;FirmV_0_7_0.c,2102 :: 		{AutoCloseTime=AutoCloseTime-1;Menu0();State=102;}
	MOVLW       1
	SUBWF       _AutoCloseTime+0, 1 
	MOVLW       0
	SUBWFB      _AutoCloseTime+1, 1 
	CALL        _Menu0+0, 0
	MOVLW       102
	MOVWF       _State+0 
L_Menu2507:
;FirmV_0_7_0.c,2103 :: 		if((Events.Keys.b2==1)&&(AutoCloseTime<65000))
	BTFSS       _Events+0, 2 
	GOTO        L_Menu2510
	MOVLW       253
	SUBWF       _AutoCloseTime+1, 0 
	BTFSS       STATUS+0, 2 
	GOTO        L__Menu2791
	MOVLW       232
	SUBWF       _AutoCloseTime+0, 0 
L__Menu2791:
	BTFSC       STATUS+0, 0 
	GOTO        L_Menu2510
L__Menu2728:
;FirmV_0_7_0.c,2104 :: 		{AutoCloseTime=AutoCloseTime+1;Menu0();State=102;}
	INFSNZ      _AutoCloseTime+0, 1 
	INCF        _AutoCloseTime+1, 1 
	CALL        _Menu0+0, 0
	MOVLW       102
	MOVWF       _State+0 
L_Menu2510:
;FirmV_0_7_0.c,2105 :: 		}
L_Menu2504:
;FirmV_0_7_0.c,2108 :: 		if(MenuPointer==12)
	MOVF        _MenuPointer+0, 0 
	XORLW       12
	BTFSS       STATUS+0, 2 
	GOTO        L_Menu2511
;FirmV_0_7_0.c,2110 :: 		State=0;
	CLRF        _State+0 
;FirmV_0_7_0.c,2111 :: 		memcpy(LCDLine1,Sipher,16);
	MOVLW       _LCDLine1+0
	MOVWF       FARG_memcpy_d1+0 
	MOVLW       hi_addr(_LCDLine1+0)
	MOVWF       FARG_memcpy_d1+1 
	MOVLW       _Sipher+0
	MOVWF       FARG_memcpy_s1+0 
	MOVLW       hi_addr(_Sipher+0)
	MOVWF       FARG_memcpy_s1+1 
	MOVLW       16
	MOVWF       FARG_memcpy_n+0 
	MOVLW       0
	MOVWF       FARG_memcpy_n+1 
	CALL        _memcpy+0, 0
;FirmV_0_7_0.c,2112 :: 		LCDLines=1;
	MOVLW       1
	MOVWF       _LCDLines+0 
;FirmV_0_7_0.c,2113 :: 		LCDFlash=0; LCDFlashFlag=0;
	CLRF        _LCDFlash+0 
	CLRF        _LCDFlashFlag+0 
;FirmV_0_7_0.c,2114 :: 		LCDUpdateFlag=1;
	MOVLW       1
	MOVWF       _LCDUpdateFlag+0 
;FirmV_0_7_0.c,2115 :: 		FactorySettings();
	CALL        _FactorySettings+0, 0
;FirmV_0_7_0.c,2116 :: 		SaveConfigs();
	CALL        _SaveConfigs+0, 0
;FirmV_0_7_0.c,2117 :: 		}
L_Menu2511:
;FirmV_0_7_0.c,2120 :: 		if(MenuPointer==13)
	MOVF        _MenuPointer+0, 0 
	XORLW       13
	BTFSS       STATUS+0, 2 
	GOTO        L_Menu2512
;FirmV_0_7_0.c,2121 :: 		{ if((Events.Keys.b0==1)&&(OpenPhEnable>0))
	BTFSS       _Events+0, 0 
	GOTO        L_Menu2515
	MOVF        _OpenPhEnable+0, 0 
	SUBLW       0
	BTFSC       STATUS+0, 0 
	GOTO        L_Menu2515
L__Menu2727:
;FirmV_0_7_0.c,2122 :: 		{OpenPhEnable=OpenPhEnable-1;Menu0();State=102;}
	DECF        _OpenPhEnable+0, 1 
	CALL        _Menu0+0, 0
	MOVLW       102
	MOVWF       _State+0 
L_Menu2515:
;FirmV_0_7_0.c,2123 :: 		if((Events.Keys.b2==1)&&(OpenPhEnable<1))
	BTFSS       _Events+0, 2 
	GOTO        L_Menu2518
	MOVLW       1
	SUBWF       _OpenPhEnable+0, 0 
	BTFSC       STATUS+0, 0 
	GOTO        L_Menu2518
L__Menu2726:
;FirmV_0_7_0.c,2124 :: 		{OpenPhEnable=OpenPhEnable+1;Menu0();State=102;}
	INCF        _OpenPhEnable+0, 1 
	CALL        _Menu0+0, 0
	MOVLW       102
	MOVWF       _State+0 
L_Menu2518:
;FirmV_0_7_0.c,2125 :: 		}
L_Menu2512:
;FirmV_0_7_0.c,2129 :: 		if(MenuPointer==14)
	MOVF        _MenuPointer+0, 0 
	XORLW       14
	BTFSS       STATUS+0, 2 
	GOTO        L_Menu2519
;FirmV_0_7_0.c,2130 :: 		{ if((Events.Keys.b0==1)&&(LimiterEnable>0))
	BTFSS       _Events+0, 0 
	GOTO        L_Menu2522
	MOVF        _LimiterEnable+0, 0 
	SUBLW       0
	BTFSC       STATUS+0, 0 
	GOTO        L_Menu2522
L__Menu2725:
;FirmV_0_7_0.c,2131 :: 		{LimiterEnable=LimiterEnable-1;Menu0();State=102;}
	DECF        _LimiterEnable+0, 1 
	CALL        _Menu0+0, 0
	MOVLW       102
	MOVWF       _State+0 
L_Menu2522:
;FirmV_0_7_0.c,2132 :: 		if((Events.Keys.b2==1)&&(LimiterEnable<1))
	BTFSS       _Events+0, 2 
	GOTO        L_Menu2525
	MOVLW       1
	SUBWF       _LimiterEnable+0, 0 
	BTFSC       STATUS+0, 0 
	GOTO        L_Menu2525
L__Menu2724:
;FirmV_0_7_0.c,2133 :: 		{LimiterEnable=LimiterEnable+1;Menu0();State=102;}
	INCF        _LimiterEnable+0, 1 
	CALL        _Menu0+0, 0
	MOVLW       102
	MOVWF       _State+0 
L_Menu2525:
;FirmV_0_7_0.c,2134 :: 		}
L_Menu2519:
;FirmV_0_7_0.c,2137 :: 		if(MenuPointer==15)
	MOVF        _MenuPointer+0, 0 
	XORLW       15
	BTFSS       STATUS+0, 2 
	GOTO        L_Menu2526
;FirmV_0_7_0.c,2138 :: 		{ if((Events.Keys.b0==1)&&(LockForce>0))
	BTFSS       _Events+0, 0 
	GOTO        L_Menu2529
	MOVF        _LockForce+0, 0 
	SUBLW       0
	BTFSC       STATUS+0, 0 
	GOTO        L_Menu2529
L__Menu2723:
;FirmV_0_7_0.c,2139 :: 		{LockForce=LockForce-1;Menu0();State=102;}
	DECF        _LockForce+0, 1 
	CALL        _Menu0+0, 0
	MOVLW       102
	MOVWF       _State+0 
L_Menu2529:
;FirmV_0_7_0.c,2140 :: 		if((Events.Keys.b2==1)&&(LockForce<1))
	BTFSS       _Events+0, 2 
	GOTO        L_Menu2532
	MOVLW       1
	SUBWF       _LockForce+0, 0 
	BTFSC       STATUS+0, 0 
	GOTO        L_Menu2532
L__Menu2722:
;FirmV_0_7_0.c,2141 :: 		{LockForce=LockForce+1;Menu0();State=102;}
	INCF        _LockForce+0, 1 
	CALL        _Menu0+0, 0
	MOVLW       102
	MOVWF       _State+0 
L_Menu2532:
;FirmV_0_7_0.c,2142 :: 		}
L_Menu2526:
;FirmV_0_7_0.c,2145 :: 		if(MenuPointer==16)
	MOVF        _MenuPointer+0, 0 
	XORLW       16
	BTFSS       STATUS+0, 2 
	GOTO        L_Menu2533
;FirmV_0_7_0.c,2146 :: 		{ if((Events.Keys.b0==1)&&(CloseAfterPass>0))
	BTFSS       _Events+0, 0 
	GOTO        L_Menu2536
	MOVF        _CloseAfterPass+0, 0 
	SUBLW       0
	BTFSC       STATUS+0, 0 
	GOTO        L_Menu2536
L__Menu2721:
;FirmV_0_7_0.c,2147 :: 		{CloseAfterPass=CloseAfterPass-1;if(CloseAfterPass==9) CloseAfterPass=0;Menu0();State=102;}
	DECF        _CloseAfterPass+0, 1 
	MOVF        _CloseAfterPass+0, 0 
	XORLW       9
	BTFSS       STATUS+0, 2 
	GOTO        L_Menu2537
	CLRF        _CloseAfterPass+0 
L_Menu2537:
	CALL        _Menu0+0, 0
	MOVLW       102
	MOVWF       _State+0 
L_Menu2536:
;FirmV_0_7_0.c,2148 :: 		if((Events.Keys.b2==1)&&(CloseAfterPass<255))
	BTFSS       _Events+0, 2 
	GOTO        L_Menu2540
	MOVLW       255
	SUBWF       _CloseAfterPass+0, 0 
	BTFSC       STATUS+0, 0 
	GOTO        L_Menu2540
L__Menu2720:
;FirmV_0_7_0.c,2149 :: 		{CloseAfterPass=CloseAfterPass+1;if(CloseAfterPass==1) CloseAfterPass=10;Menu0();State=102;}
	INCF        _CloseAfterPass+0, 1 
	MOVF        _CloseAfterPass+0, 0 
	XORLW       1
	BTFSS       STATUS+0, 2 
	GOTO        L_Menu2541
	MOVLW       10
	MOVWF       _CloseAfterPass+0 
L_Menu2541:
	CALL        _Menu0+0, 0
	MOVLW       102
	MOVWF       _State+0 
L_Menu2540:
;FirmV_0_7_0.c,2150 :: 		}
L_Menu2533:
;FirmV_0_7_0.c,2153 :: 		if(MenuPointer==17)
	MOVF        _MenuPointer+0, 0 
	XORLW       17
	BTFSS       STATUS+0, 2 
	GOTO        L_Menu2542
;FirmV_0_7_0.c,2155 :: 		State=103;
	MOVLW       103
	MOVWF       _State+0 
;FirmV_0_7_0.c,2156 :: 		memcpy(LCDLine1,Sipher,16);
	MOVLW       _LCDLine1+0
	MOVWF       FARG_memcpy_d1+0 
	MOVLW       hi_addr(_LCDLine1+0)
	MOVWF       FARG_memcpy_d1+1 
	MOVLW       _Sipher+0
	MOVWF       FARG_memcpy_s1+0 
	MOVLW       hi_addr(_Sipher+0)
	MOVWF       FARG_memcpy_s1+1 
	MOVLW       16
	MOVWF       FARG_memcpy_n+0 
	MOVLW       0
	MOVWF       FARG_memcpy_n+1 
	CALL        _memcpy+0, 0
;FirmV_0_7_0.c,2157 :: 		LCDFlash=0;
	CLRF        _LCDFlash+0 
;FirmV_0_7_0.c,2158 :: 		LCDLines=1;
	MOVLW       1
	MOVWF       _LCDLines+0 
;FirmV_0_7_0.c,2159 :: 		LCDUpdateFlag=1;
	MOVLW       1
	MOVWF       _LCDUpdateFlag+0 
;FirmV_0_7_0.c,2160 :: 		}
L_Menu2542:
;FirmV_0_7_0.c,2163 :: 		if(MenuPointer==18)
	MOVF        _MenuPointer+0, 0 
	XORLW       18
	BTFSS       STATUS+0, 2 
	GOTO        L_Menu2543
;FirmV_0_7_0.c,2165 :: 		State=0;
	CLRF        _State+0 
;FirmV_0_7_0.c,2166 :: 		memcpy(LCDLine1,Sipher,16);
	MOVLW       _LCDLine1+0
	MOVWF       FARG_memcpy_d1+0 
	MOVLW       hi_addr(_LCDLine1+0)
	MOVWF       FARG_memcpy_d1+1 
	MOVLW       _Sipher+0
	MOVWF       FARG_memcpy_s1+0 
	MOVLW       hi_addr(_Sipher+0)
	MOVWF       FARG_memcpy_s1+1 
	MOVLW       16
	MOVWF       FARG_memcpy_n+0 
	MOVLW       0
	MOVWF       FARG_memcpy_n+1 
	CALL        _memcpy+0, 0
;FirmV_0_7_0.c,2167 :: 		LCDFlash=0;
	CLRF        _LCDFlash+0 
;FirmV_0_7_0.c,2168 :: 		LCDLines=1;
	MOVLW       1
	MOVWF       _LCDLines+0 
;FirmV_0_7_0.c,2169 :: 		LCDUpdateFlag=1;
	MOVLW       1
	MOVWF       _LCDUpdateFlag+0 
;FirmV_0_7_0.c,2170 :: 		LoadConfigs();
	CALL        _LoadConfigs+0, 0
;FirmV_0_7_0.c,2171 :: 		}
L_Menu2543:
;FirmV_0_7_0.c,2172 :: 		}
	RETURN      0
; end of _Menu2

_Menu3:

;FirmV_0_7_0.c,2184 :: 		void Menu3()
;FirmV_0_7_0.c,2186 :: 		SaveConfigs();
	CALL        _SaveConfigs+0, 0
;FirmV_0_7_0.c,2187 :: 		State=0;
	CLRF        _State+0 
;FirmV_0_7_0.c,2188 :: 		}
	RETURN      0
; end of _Menu3

_LearnAuto:

;FirmV_0_7_0.c,2202 :: 		void LearnAuto()
;FirmV_0_7_0.c,2208 :: 		switch(LearnPhase)
	GOTO        L_LearnAuto544
;FirmV_0_7_0.c,2210 :: 		case 0:
L_LearnAuto546:
;FirmV_0_7_0.c,2211 :: 		Flasher=1;
	BSF         PORTD+0, 7 
;FirmV_0_7_0.c,2212 :: 		if(Events.Remote.b0==1) {DoorNo=2; LearnPhase=LearnPhase+1;} if(Events.Remote.b1==1) {DoorNo=1;LearnPhase=3;}
	BTFSS       _Events+4, 0 
	GOTO        L_LearnAuto547
	MOVLW       2
	MOVWF       LearnAuto_DoorNo_L0+0 
	INCF        _LearnPhase+0, 1 
L_LearnAuto547:
	BTFSS       _Events+4, 1 
	GOTO        L_LearnAuto548
	MOVLW       1
	MOVWF       LearnAuto_DoorNo_L0+0 
	MOVLW       3
	MOVWF       _LearnPhase+0 
L_LearnAuto548:
;FirmV_0_7_0.c,2213 :: 		OverloadCheckFlag1=0;OverloadCheckFlag2=0;
	CLRF        _OverloadCheckFlag1+0 
	CLRF        _OverloadCheckFlag2+0 
;FirmV_0_7_0.c,2214 :: 		break;
	GOTO        L_LearnAuto545
;FirmV_0_7_0.c,2216 :: 		case 1: //Start D2 and enable overload sensing after 1s
L_LearnAuto549:
;FirmV_0_7_0.c,2217 :: 		StartMotor(2,_Close);AddTask(ms500+4,21);LearnPhase=LearnPhase+1;
	MOVLW       2
	MOVWF       FARG_StartMotor_Mx+0 
	CLRF        FARG_StartMotor_Dir+0 
	CALL        _StartMotor+0, 0
	MOVLW       4
	ADDWF       _ms500+0, 0 
	MOVWF       FARG_AddTask_OccTime+0 
	MOVLW       0
	ADDWFC      _ms500+1, 0 
	MOVWF       FARG_AddTask_OccTime+1 
	MOVLW       0
	ADDWFC      _ms500+2, 0 
	MOVWF       FARG_AddTask_OccTime+2 
	MOVLW       0
	ADDWFC      _ms500+3, 0 
	MOVWF       FARG_AddTask_OccTime+3 
	MOVLW       21
	MOVWF       FARG_AddTask_tcode+0 
	CALL        _AddTask+0, 0
	INCF        _LearnPhase+0, 1 
;FirmV_0_7_0.c,2218 :: 		break;
	GOTO        L_LearnAuto545
;FirmV_0_7_0.c,2220 :: 		case 2: //Check if D2 reaches end of its course
L_LearnAuto550:
;FirmV_0_7_0.c,2221 :: 		if((Events.Overload.b1==1)&&(OverloadCheckFlag2==1)){OverloadCheckFlag2=0;StopMotor(2);LearnPhase=LearnPhase+1;}
	BTFSS       _Events+5, 1 
	GOTO        L_LearnAuto553
	MOVF        _OverloadCheckFlag2+0, 0 
	XORLW       1
	BTFSS       STATUS+0, 2 
	GOTO        L_LearnAuto553
L__LearnAuto757:
	CLRF        _OverloadCheckFlag2+0 
	MOVLW       2
	MOVWF       FARG_StopMotor_Mx+0 
	CALL        _StopMotor+0, 0
	INCF        _LearnPhase+0, 1 
L_LearnAuto553:
;FirmV_0_7_0.c,2222 :: 		if(CheckTask(21))OverloadCheckFlag2=1;
	MOVLW       21
	MOVWF       FARG_CheckTask_TaskCode+0 
	CALL        _CheckTask+0, 0
	MOVF        R0, 1 
	BTFSC       STATUS+0, 2 
	GOTO        L_LearnAuto554
	MOVLW       1
	MOVWF       _OverloadCheckFlag2+0 
L_LearnAuto554:
;FirmV_0_7_0.c,2223 :: 		break;
	GOTO        L_LearnAuto545
;FirmV_0_7_0.c,2225 :: 		case 3: //Start D1 and enable overload sensin after 1 s
L_LearnAuto555:
;FirmV_0_7_0.c,2226 :: 		StartMotor(1,_Close);AddTask(ms500+4,20);LearnPhase=LearnPhase+1;;
	MOVLW       1
	MOVWF       FARG_StartMotor_Mx+0 
	CLRF        FARG_StartMotor_Dir+0 
	CALL        _StartMotor+0, 0
	MOVLW       4
	ADDWF       _ms500+0, 0 
	MOVWF       FARG_AddTask_OccTime+0 
	MOVLW       0
	ADDWFC      _ms500+1, 0 
	MOVWF       FARG_AddTask_OccTime+1 
	MOVLW       0
	ADDWFC      _ms500+2, 0 
	MOVWF       FARG_AddTask_OccTime+2 
	MOVLW       0
	ADDWFC      _ms500+3, 0 
	MOVWF       FARG_AddTask_OccTime+3 
	MOVLW       20
	MOVWF       FARG_AddTask_tcode+0 
	CALL        _AddTask+0, 0
	INCF        _LearnPhase+0, 1 
;FirmV_0_7_0.c,2228 :: 		case 4: //Check if D1 reaches end of its course
L_LearnAuto556:
;FirmV_0_7_0.c,2229 :: 		if((Events.Overload.b0==1)&&(OverloadCheckFlag1==1)){OverloadCheckFlag1=0;StopMotor(1);LearnPhase=LearnPhase+1;}
	BTFSS       _Events+5, 0 
	GOTO        L_LearnAuto559
	MOVF        _OverloadCheckFlag1+0, 0 
	XORLW       1
	BTFSS       STATUS+0, 2 
	GOTO        L_LearnAuto559
L__LearnAuto756:
	CLRF        _OverloadCheckFlag1+0 
	MOVLW       1
	MOVWF       FARG_StopMotor_Mx+0 
	CALL        _StopMotor+0, 0
	INCF        _LearnPhase+0, 1 
L_LearnAuto559:
;FirmV_0_7_0.c,2230 :: 		if(CheckTask(20))OverloadCheckFlag1=1;
	MOVLW       20
	MOVWF       FARG_CheckTask_TaskCode+0 
	CALL        _CheckTask+0, 0
	MOVF        R0, 1 
	BTFSC       STATUS+0, 2 
	GOTO        L_LearnAuto560
	MOVLW       1
	MOVWF       _OverloadCheckFlag1+0 
L_LearnAuto560:
;FirmV_0_7_0.c,2231 :: 		break;
	GOTO        L_LearnAuto545
;FirmV_0_7_0.c,2233 :: 		case 5: //Start D1 for opening and save start time and enable overload sensing after 1s
L_LearnAuto561:
;FirmV_0_7_0.c,2234 :: 		startT=ms500;StartMotor(1,_Open);AddTask(ms500+4,20);LearnPhase=LearnPhase+1;
	MOVF        _ms500+0, 0 
	MOVWF       LearnAuto_startT_L0+0 
	MOVF        _ms500+1, 0 
	MOVWF       LearnAuto_startT_L0+1 
	MOVF        _ms500+2, 0 
	MOVWF       LearnAuto_startT_L0+2 
	MOVF        _ms500+3, 0 
	MOVWF       LearnAuto_startT_L0+3 
	MOVLW       1
	MOVWF       FARG_StartMotor_Mx+0 
	MOVLW       1
	MOVWF       FARG_StartMotor_Dir+0 
	CALL        _StartMotor+0, 0
	MOVLW       4
	ADDWF       _ms500+0, 0 
	MOVWF       FARG_AddTask_OccTime+0 
	MOVLW       0
	ADDWFC      _ms500+1, 0 
	MOVWF       FARG_AddTask_OccTime+1 
	MOVLW       0
	ADDWFC      _ms500+2, 0 
	MOVWF       FARG_AddTask_OccTime+2 
	MOVLW       0
	ADDWFC      _ms500+3, 0 
	MOVWF       FARG_AddTask_OccTime+3 
	MOVLW       20
	MOVWF       FARG_AddTask_tcode+0 
	CALL        _AddTask+0, 0
	INCF        _LearnPhase+0, 1 
;FirmV_0_7_0.c,2235 :: 		break;
	GOTO        L_LearnAuto545
;FirmV_0_7_0.c,2237 :: 		case 6: //Check if D1 reaches end of its course and save the stop time
L_LearnAuto562:
;FirmV_0_7_0.c,2238 :: 		if((Events.Overload.b0==1)&&(OverloadCheckFlag1==1)){OverloadCheckFlag1=0;StopMotor(1);if(DoorNo==1)LearnPhase=11;else LearnPhase=LearnPhase+1;stopT=ms500;RawData.D1OpenTime=(char)(stopT-startT);}
	BTFSS       _Events+5, 0 
	GOTO        L_LearnAuto565
	MOVF        _OverloadCheckFlag1+0, 0 
	XORLW       1
	BTFSS       STATUS+0, 2 
	GOTO        L_LearnAuto565
L__LearnAuto755:
	CLRF        _OverloadCheckFlag1+0 
	MOVLW       1
	MOVWF       FARG_StopMotor_Mx+0 
	CALL        _StopMotor+0, 0
	MOVF        LearnAuto_DoorNo_L0+0, 0 
	XORLW       1
	BTFSS       STATUS+0, 2 
	GOTO        L_LearnAuto566
	MOVLW       11
	MOVWF       _LearnPhase+0 
	GOTO        L_LearnAuto567
L_LearnAuto566:
	INCF        _LearnPhase+0, 1 
L_LearnAuto567:
	MOVF        LearnAuto_startT_L0+0, 0 
	SUBWF       _ms500+0, 0 
	MOVWF       R0 
	MOVF        R0, 0 
	MOVWF       LearnAuto_RawData_L0+1 
L_LearnAuto565:
;FirmV_0_7_0.c,2239 :: 		if(CheckTask(20))OverloadCheckFlag1=1;
	MOVLW       20
	MOVWF       FARG_CheckTask_TaskCode+0 
	CALL        _CheckTask+0, 0
	MOVF        R0, 1 
	BTFSC       STATUS+0, 2 
	GOTO        L_LearnAuto568
	MOVLW       1
	MOVWF       _OverloadCheckFlag1+0 
L_LearnAuto568:
;FirmV_0_7_0.c,2240 :: 		break;
	GOTO        L_LearnAuto545
;FirmV_0_7_0.c,2242 :: 		case 7: //Start D2 for opening and save start time and enable overload sensing after 1s
L_LearnAuto569:
;FirmV_0_7_0.c,2243 :: 		startT=ms500;StartMotor(2,_Open);AddTask(ms500+4,21);LearnPhase=LearnPhase+1;
	MOVF        _ms500+0, 0 
	MOVWF       LearnAuto_startT_L0+0 
	MOVF        _ms500+1, 0 
	MOVWF       LearnAuto_startT_L0+1 
	MOVF        _ms500+2, 0 
	MOVWF       LearnAuto_startT_L0+2 
	MOVF        _ms500+3, 0 
	MOVWF       LearnAuto_startT_L0+3 
	MOVLW       2
	MOVWF       FARG_StartMotor_Mx+0 
	MOVLW       1
	MOVWF       FARG_StartMotor_Dir+0 
	CALL        _StartMotor+0, 0
	MOVLW       4
	ADDWF       _ms500+0, 0 
	MOVWF       FARG_AddTask_OccTime+0 
	MOVLW       0
	ADDWFC      _ms500+1, 0 
	MOVWF       FARG_AddTask_OccTime+1 
	MOVLW       0
	ADDWFC      _ms500+2, 0 
	MOVWF       FARG_AddTask_OccTime+2 
	MOVLW       0
	ADDWFC      _ms500+3, 0 
	MOVWF       FARG_AddTask_OccTime+3 
	MOVLW       21
	MOVWF       FARG_AddTask_tcode+0 
	CALL        _AddTask+0, 0
	INCF        _LearnPhase+0, 1 
;FirmV_0_7_0.c,2244 :: 		break;
	GOTO        L_LearnAuto545
;FirmV_0_7_0.c,2246 :: 		case 8: //Check if D2 reaches end of its course and save the stop time
L_LearnAuto570:
;FirmV_0_7_0.c,2247 :: 		if((Events.Overload.b1==1)&&(OverloadCheckFlag2==1)){OverloadCheckFlag2=0;StopMotor(2);LearnPhase=LearnPhase+1;stopT=ms500;RawData.D2OpenTime=(char)(stopT-startT);}
	BTFSS       _Events+5, 1 
	GOTO        L_LearnAuto573
	MOVF        _OverloadCheckFlag2+0, 0 
	XORLW       1
	BTFSS       STATUS+0, 2 
	GOTO        L_LearnAuto573
L__LearnAuto754:
	CLRF        _OverloadCheckFlag2+0 
	MOVLW       2
	MOVWF       FARG_StopMotor_Mx+0 
	CALL        _StopMotor+0, 0
	INCF        _LearnPhase+0, 1 
	MOVF        LearnAuto_startT_L0+0, 0 
	SUBWF       _ms500+0, 0 
	MOVWF       R0 
	MOVF        R0, 0 
	MOVWF       LearnAuto_RawData_L0+3 
L_LearnAuto573:
;FirmV_0_7_0.c,2248 :: 		if(CheckTask(21))OverloadCheckFlag2=1;
	MOVLW       21
	MOVWF       FARG_CheckTask_TaskCode+0 
	CALL        _CheckTask+0, 0
	MOVF        R0, 1 
	BTFSC       STATUS+0, 2 
	GOTO        L_LearnAuto574
	MOVLW       1
	MOVWF       _OverloadCheckFlag2+0 
L_LearnAuto574:
;FirmV_0_7_0.c,2249 :: 		break;
	GOTO        L_LearnAuto545
;FirmV_0_7_0.c,2251 :: 		case 9: //Start D2 for closing and save start time and enable overload sensing after 1s
L_LearnAuto575:
;FirmV_0_7_0.c,2252 :: 		startT=ms500;StartMotor(2,_Close);AddTask(ms500+4,21);LearnPhase=LearnPhase+1;
	MOVF        _ms500+0, 0 
	MOVWF       LearnAuto_startT_L0+0 
	MOVF        _ms500+1, 0 
	MOVWF       LearnAuto_startT_L0+1 
	MOVF        _ms500+2, 0 
	MOVWF       LearnAuto_startT_L0+2 
	MOVF        _ms500+3, 0 
	MOVWF       LearnAuto_startT_L0+3 
	MOVLW       2
	MOVWF       FARG_StartMotor_Mx+0 
	CLRF        FARG_StartMotor_Dir+0 
	CALL        _StartMotor+0, 0
	MOVLW       4
	ADDWF       _ms500+0, 0 
	MOVWF       FARG_AddTask_OccTime+0 
	MOVLW       0
	ADDWFC      _ms500+1, 0 
	MOVWF       FARG_AddTask_OccTime+1 
	MOVLW       0
	ADDWFC      _ms500+2, 0 
	MOVWF       FARG_AddTask_OccTime+2 
	MOVLW       0
	ADDWFC      _ms500+3, 0 
	MOVWF       FARG_AddTask_OccTime+3 
	MOVLW       21
	MOVWF       FARG_AddTask_tcode+0 
	CALL        _AddTask+0, 0
	INCF        _LearnPhase+0, 1 
;FirmV_0_7_0.c,2253 :: 		break;
	GOTO        L_LearnAuto545
;FirmV_0_7_0.c,2255 :: 		case 10: //Check if D2 reaches end of its course and save the stop time
L_LearnAuto576:
;FirmV_0_7_0.c,2256 :: 		if((Events.Overload.b1==1)&&(OverloadCheckFlag2==1)){OverloadCheckFlag2=0;StopMotor(2);LearnPhase=LearnPhase+1;stopT=ms500;RawData.D2CloseTime=(char)(stopT-startT);}
	BTFSS       _Events+5, 1 
	GOTO        L_LearnAuto579
	MOVF        _OverloadCheckFlag2+0, 0 
	XORLW       1
	BTFSS       STATUS+0, 2 
	GOTO        L_LearnAuto579
L__LearnAuto753:
	CLRF        _OverloadCheckFlag2+0 
	MOVLW       2
	MOVWF       FARG_StopMotor_Mx+0 
	CALL        _StopMotor+0, 0
	INCF        _LearnPhase+0, 1 
	MOVF        LearnAuto_startT_L0+0, 0 
	SUBWF       _ms500+0, 0 
	MOVWF       R0 
	MOVF        R0, 0 
	MOVWF       LearnAuto_RawData_L0+2 
L_LearnAuto579:
;FirmV_0_7_0.c,2257 :: 		if(CheckTask(21))OverloadCheckFlag2=1;
	MOVLW       21
	MOVWF       FARG_CheckTask_TaskCode+0 
	CALL        _CheckTask+0, 0
	MOVF        R0, 1 
	BTFSC       STATUS+0, 2 
	GOTO        L_LearnAuto580
	MOVLW       1
	MOVWF       _OverloadCheckFlag2+0 
L_LearnAuto580:
;FirmV_0_7_0.c,2258 :: 		break;
	GOTO        L_LearnAuto545
;FirmV_0_7_0.c,2260 :: 		case 11: //Start D1 for closing and save start time and enable overload sensing after 1s
L_LearnAuto581:
;FirmV_0_7_0.c,2261 :: 		startT=ms500;StartMotor(1,_Close);AddTask(ms500+4,20);LearnPhase=LearnPhase+1;
	MOVF        _ms500+0, 0 
	MOVWF       LearnAuto_startT_L0+0 
	MOVF        _ms500+1, 0 
	MOVWF       LearnAuto_startT_L0+1 
	MOVF        _ms500+2, 0 
	MOVWF       LearnAuto_startT_L0+2 
	MOVF        _ms500+3, 0 
	MOVWF       LearnAuto_startT_L0+3 
	MOVLW       1
	MOVWF       FARG_StartMotor_Mx+0 
	CLRF        FARG_StartMotor_Dir+0 
	CALL        _StartMotor+0, 0
	MOVLW       4
	ADDWF       _ms500+0, 0 
	MOVWF       FARG_AddTask_OccTime+0 
	MOVLW       0
	ADDWFC      _ms500+1, 0 
	MOVWF       FARG_AddTask_OccTime+1 
	MOVLW       0
	ADDWFC      _ms500+2, 0 
	MOVWF       FARG_AddTask_OccTime+2 
	MOVLW       0
	ADDWFC      _ms500+3, 0 
	MOVWF       FARG_AddTask_OccTime+3 
	MOVLW       20
	MOVWF       FARG_AddTask_tcode+0 
	CALL        _AddTask+0, 0
	INCF        _LearnPhase+0, 1 
;FirmV_0_7_0.c,2262 :: 		break;
	GOTO        L_LearnAuto545
;FirmV_0_7_0.c,2264 :: 		case 12: //Check if D1 reaches end of its course and save the stop time
L_LearnAuto582:
;FirmV_0_7_0.c,2265 :: 		if((Events.Overload.b0==1)&&(OverloadCheckFlag1==1)){OverloadCheckFlag1=0;StopMotor(1);LearnPhase=LearnPhase+1;stopT=ms500;RawData.D1CloseTime=(char)(stopT-startT);}
	BTFSS       _Events+5, 0 
	GOTO        L_LearnAuto585
	MOVF        _OverloadCheckFlag1+0, 0 
	XORLW       1
	BTFSS       STATUS+0, 2 
	GOTO        L_LearnAuto585
L__LearnAuto752:
	CLRF        _OverloadCheckFlag1+0 
	MOVLW       1
	MOVWF       FARG_StopMotor_Mx+0 
	CALL        _StopMotor+0, 0
	INCF        _LearnPhase+0, 1 
	MOVF        LearnAuto_startT_L0+0, 0 
	SUBWF       _ms500+0, 0 
	MOVWF       R0 
	MOVF        R0, 0 
	MOVWF       LearnAuto_RawData_L0+0 
L_LearnAuto585:
;FirmV_0_7_0.c,2266 :: 		if(CheckTask(20))OverloadCheckFlag1=1;
	MOVLW       20
	MOVWF       FARG_CheckTask_TaskCode+0 
	CALL        _CheckTask+0, 0
	MOVF        R0, 1 
	BTFSC       STATUS+0, 2 
	GOTO        L_LearnAuto586
	MOVLW       1
	MOVWF       _OverloadCheckFlag1+0 
L_LearnAuto586:
;FirmV_0_7_0.c,2267 :: 		break;
	GOTO        L_LearnAuto545
;FirmV_0_7_0.c,2269 :: 		case 13:
L_LearnAuto587:
;FirmV_0_7_0.c,2270 :: 		AutoLearnCalculator(&RawData);
	MOVLW       LearnAuto_RawData_L0+0
	MOVWF       FARG_AutoLearnCalculator+0 
	MOVLW       hi_addr(LearnAuto_RawData_L0+0)
	MOVWF       FARG_AutoLearnCalculator+1 
	CALL        _AutoLearnCalculator+0, 0
;FirmV_0_7_0.c,2271 :: 		SaveLearnData(&RawData,DoorNo);
	MOVLW       LearnAuto_RawData_L0+0
	MOVWF       FARG_SaveLearnData+0 
	MOVLW       hi_addr(LearnAuto_RawData_L0+0)
	MOVWF       FARG_SaveLearnData+1 
	MOVF        LearnAuto_DoorNo_L0+0, 0 
	MOVWF       FARG_SaveLearnData+0 
	CALL        _SaveLearnData+0, 0
;FirmV_0_7_0.c,2272 :: 		memcpy(LCDLine1," Learn Complete ",16);
	MOVLW       _LCDLine1+0
	MOVWF       FARG_memcpy_d1+0 
	MOVLW       hi_addr(_LCDLine1+0)
	MOVWF       FARG_memcpy_d1+1 
	MOVLW       ?ICS?lstr96_FirmV_0_7_0+0
	MOVWF       TBLPTRL 
	MOVLW       hi_addr(?ICS?lstr96_FirmV_0_7_0+0)
	MOVWF       TBLPTRH 
	MOVLW       higher_addr(?ICS?lstr96_FirmV_0_7_0+0)
	MOVWF       TBLPTRU 
	MOVLW       ?lstr96_FirmV_0_7_0+0
	MOVWF       FSR1L 
	MOVLW       hi_addr(?lstr96_FirmV_0_7_0+0)
	MOVWF       FSR1H 
	MOVLW       17
	MOVWF       R0 
	MOVLW       1
	MOVWF       R1 
	CALL        ___CC2DW+0, 0
	MOVLW       ?lstr96_FirmV_0_7_0+0
	MOVWF       FARG_memcpy_s1+0 
	MOVLW       hi_addr(?lstr96_FirmV_0_7_0+0)
	MOVWF       FARG_memcpy_s1+1 
	MOVLW       16
	MOVWF       FARG_memcpy_n+0 
	MOVLW       0
	MOVWF       FARG_memcpy_n+1 
	CALL        _memcpy+0, 0
;FirmV_0_7_0.c,2273 :: 		memcpy(LCDLine2,"     Ready      ",16);
	MOVLW       _LCDLine2+0
	MOVWF       FARG_memcpy_d1+0 
	MOVLW       hi_addr(_LCDLine2+0)
	MOVWF       FARG_memcpy_d1+1 
	MOVLW       ?ICS?lstr97_FirmV_0_7_0+0
	MOVWF       TBLPTRL 
	MOVLW       hi_addr(?ICS?lstr97_FirmV_0_7_0+0)
	MOVWF       TBLPTRH 
	MOVLW       higher_addr(?ICS?lstr97_FirmV_0_7_0+0)
	MOVWF       TBLPTRU 
	MOVLW       ?lstr97_FirmV_0_7_0+0
	MOVWF       FSR1L 
	MOVLW       hi_addr(?lstr97_FirmV_0_7_0+0)
	MOVWF       FSR1H 
	MOVLW       17
	MOVWF       R0 
	MOVLW       1
	MOVWF       R1 
	CALL        ___CC2DW+0, 0
	MOVLW       ?lstr97_FirmV_0_7_0+0
	MOVWF       FARG_memcpy_s1+0 
	MOVLW       hi_addr(?lstr97_FirmV_0_7_0+0)
	MOVWF       FARG_memcpy_s1+1 
	MOVLW       16
	MOVWF       FARG_memcpy_n+0 
	MOVLW       0
	MOVWF       FARG_memcpy_n+1 
	CALL        _memcpy+0, 0
;FirmV_0_7_0.c,2274 :: 		LCDLines=2;
	MOVLW       2
	MOVWF       _LCDLines+0 
;FirmV_0_7_0.c,2275 :: 		LCDUpdateFlag=1;
	MOVLW       1
	MOVWF       _LCDUpdateFlag+0 
;FirmV_0_7_0.c,2276 :: 		Flasher=0;
	BCF         PORTD+0, 7 
;FirmV_0_7_0.c,2277 :: 		State=0;
	CLRF        _State+0 
;FirmV_0_7_0.c,2278 :: 		break;
	GOTO        L_LearnAuto545
;FirmV_0_7_0.c,2281 :: 		}
L_LearnAuto544:
	MOVF        _LearnPhase+0, 0 
	XORLW       0
	BTFSC       STATUS+0, 2 
	GOTO        L_LearnAuto546
	MOVF        _LearnPhase+0, 0 
	XORLW       1
	BTFSC       STATUS+0, 2 
	GOTO        L_LearnAuto549
	MOVF        _LearnPhase+0, 0 
	XORLW       2
	BTFSC       STATUS+0, 2 
	GOTO        L_LearnAuto550
	MOVF        _LearnPhase+0, 0 
	XORLW       3
	BTFSC       STATUS+0, 2 
	GOTO        L_LearnAuto555
	MOVF        _LearnPhase+0, 0 
	XORLW       4
	BTFSC       STATUS+0, 2 
	GOTO        L_LearnAuto556
	MOVF        _LearnPhase+0, 0 
	XORLW       5
	BTFSC       STATUS+0, 2 
	GOTO        L_LearnAuto561
	MOVF        _LearnPhase+0, 0 
	XORLW       6
	BTFSC       STATUS+0, 2 
	GOTO        L_LearnAuto562
	MOVF        _LearnPhase+0, 0 
	XORLW       7
	BTFSC       STATUS+0, 2 
	GOTO        L_LearnAuto569
	MOVF        _LearnPhase+0, 0 
	XORLW       8
	BTFSC       STATUS+0, 2 
	GOTO        L_LearnAuto570
	MOVF        _LearnPhase+0, 0 
	XORLW       9
	BTFSC       STATUS+0, 2 
	GOTO        L_LearnAuto575
	MOVF        _LearnPhase+0, 0 
	XORLW       10
	BTFSC       STATUS+0, 2 
	GOTO        L_LearnAuto576
	MOVF        _LearnPhase+0, 0 
	XORLW       11
	BTFSC       STATUS+0, 2 
	GOTO        L_LearnAuto581
	MOVF        _LearnPhase+0, 0 
	XORLW       12
	BTFSC       STATUS+0, 2 
	GOTO        L_LearnAuto582
	MOVF        _LearnPhase+0, 0 
	XORLW       13
	BTFSC       STATUS+0, 2 
	GOTO        L_LearnAuto587
L_LearnAuto545:
;FirmV_0_7_0.c,2285 :: 		}
	RETURN      0
; end of _LearnAuto

_AutoLearnCalculator:

;FirmV_0_7_0.c,2305 :: 		void AutoLearnCalculator(Learn *raw)
;FirmV_0_7_0.c,2308 :: 		(*raw).D1OpenTime=(*raw).D1OpenTime+10;
	MOVLW       1
	ADDWF       FARG_AutoLearnCalculator_raw+0, 0 
	MOVWF       R1 
	MOVLW       0
	ADDWFC      FARG_AutoLearnCalculator_raw+1, 0 
	MOVWF       R2 
	MOVFF       R1, FSR0L
	MOVFF       R2, FSR0H
	MOVLW       10
	ADDWF       POSTINC0+0, 0 
	MOVWF       R0 
	MOVFF       R1, FSR1L
	MOVFF       R2, FSR1H
	MOVF        R0, 0 
	MOVWF       POSTINC1+0 
;FirmV_0_7_0.c,2309 :: 		(*raw).D2OpenTime=(*raw).D2OpenTime+10;
	MOVLW       3
	ADDWF       FARG_AutoLearnCalculator_raw+0, 0 
	MOVWF       R1 
	MOVLW       0
	ADDWFC      FARG_AutoLearnCalculator_raw+1, 0 
	MOVWF       R2 
	MOVFF       R1, FSR0L
	MOVFF       R2, FSR0H
	MOVLW       10
	ADDWF       POSTINC0+0, 0 
	MOVWF       R0 
	MOVFF       R1, FSR1L
	MOVFF       R2, FSR1H
	MOVF        R0, 0 
	MOVWF       POSTINC1+0 
;FirmV_0_7_0.c,2310 :: 		(*raw).D1CloseTime=(*raw).D1CloseTime+10;
	MOVFF       FARG_AutoLearnCalculator_raw+0, FSR0L
	MOVFF       FARG_AutoLearnCalculator_raw+1, FSR0H
	MOVF        POSTINC0+0, 0 
	MOVWF       R0 
	MOVFF       FARG_AutoLearnCalculator_raw+0, FSR1L
	MOVFF       FARG_AutoLearnCalculator_raw+1, FSR1H
	MOVLW       10
	ADDWF       R0, 0 
	MOVWF       POSTINC1+0 
;FirmV_0_7_0.c,2311 :: 		(*raw).D2CloseTime=(*raw).D2CloseTime+10;
	MOVLW       2
	ADDWF       FARG_AutoLearnCalculator_raw+0, 0 
	MOVWF       R1 
	MOVLW       0
	ADDWFC      FARG_AutoLearnCalculator_raw+1, 0 
	MOVWF       R2 
	MOVFF       R1, FSR0L
	MOVFF       R2, FSR0H
	MOVLW       10
	ADDWF       POSTINC0+0, 0 
	MOVWF       R0 
	MOVFF       R1, FSR1L
	MOVFF       R2, FSR1H
	MOVF        R0, 0 
	MOVWF       POSTINC1+0 
;FirmV_0_7_0.c,2313 :: 		(*raw).D1OpenSoftStart=4;
	MOVLW       4
	ADDWF       FARG_AutoLearnCalculator_raw+0, 0 
	MOVWF       FSR1L 
	MOVLW       0
	ADDWFC      FARG_AutoLearnCalculator_raw+1, 0 
	MOVWF       FSR1H 
	MOVLW       4
	MOVWF       POSTINC1+0 
;FirmV_0_7_0.c,2314 :: 		(*raw).D1CloseSoftStart=4;
	MOVLW       6
	ADDWF       FARG_AutoLearnCalculator_raw+0, 0 
	MOVWF       FSR1L 
	MOVLW       0
	ADDWFC      FARG_AutoLearnCalculator_raw+1, 0 
	MOVWF       FSR1H 
	MOVLW       4
	MOVWF       POSTINC1+0 
;FirmV_0_7_0.c,2315 :: 		(*raw).D2OpenSoftStart=4;
	MOVLW       8
	ADDWF       FARG_AutoLearnCalculator_raw+0, 0 
	MOVWF       FSR1L 
	MOVLW       0
	ADDWFC      FARG_AutoLearnCalculator_raw+1, 0 
	MOVWF       FSR1H 
	MOVLW       4
	MOVWF       POSTINC1+0 
;FirmV_0_7_0.c,2316 :: 		(*raw).D2CloseSoftStart=4;
	MOVLW       10
	ADDWF       FARG_AutoLearnCalculator_raw+0, 0 
	MOVWF       FSR1L 
	MOVLW       0
	ADDWFC      FARG_AutoLearnCalculator_raw+1, 0 
	MOVWF       FSR1H 
	MOVLW       4
	MOVWF       POSTINC1+0 
;FirmV_0_7_0.c,2318 :: 		(*raw).D1OpenSoftStop=10;
	MOVLW       5
	ADDWF       FARG_AutoLearnCalculator_raw+0, 0 
	MOVWF       FSR1L 
	MOVLW       0
	ADDWFC      FARG_AutoLearnCalculator_raw+1, 0 
	MOVWF       FSR1H 
	MOVLW       10
	MOVWF       POSTINC1+0 
;FirmV_0_7_0.c,2319 :: 		(*raw).D2OpenSoftStop=10;
	MOVLW       9
	ADDWF       FARG_AutoLearnCalculator_raw+0, 0 
	MOVWF       FSR1L 
	MOVLW       0
	ADDWFC      FARG_AutoLearnCalculator_raw+1, 0 
	MOVWF       FSR1H 
	MOVLW       10
	MOVWF       POSTINC1+0 
;FirmV_0_7_0.c,2320 :: 		(*raw).D1CloseSoftStop=10;
	MOVLW       7
	ADDWF       FARG_AutoLearnCalculator_raw+0, 0 
	MOVWF       FSR1L 
	MOVLW       0
	ADDWFC      FARG_AutoLearnCalculator_raw+1, 0 
	MOVWF       FSR1H 
	MOVLW       10
	MOVWF       POSTINC1+0 
;FirmV_0_7_0.c,2321 :: 		(*raw).D2CloseSoftStop=10;
	MOVLW       11
	ADDWF       FARG_AutoLearnCalculator_raw+0, 0 
	MOVWF       FSR1L 
	MOVLW       0
	ADDWFC      FARG_AutoLearnCalculator_raw+1, 0 
	MOVWF       FSR1H 
	MOVLW       10
	MOVWF       POSTINC1+0 
;FirmV_0_7_0.c,2323 :: 		}
	RETURN      0
; end of _AutoLearnCalculator

_SaveLearnData:

;FirmV_0_7_0.c,2335 :: 		void SaveLearnData(Learn *d,char DCount)
;FirmV_0_7_0.c,2337 :: 		Door1OpenTime=(*d).D1OpenTime;
	MOVLW       1
	ADDWF       FARG_SaveLearnData_d+0, 0 
	MOVWF       FSR0L 
	MOVLW       0
	ADDWFC      FARG_SaveLearnData_d+1, 0 
	MOVWF       FSR0H 
	MOVF        POSTINC0+0, 0 
	MOVWF       _Door1OpenTime+0 
;FirmV_0_7_0.c,2338 :: 		Door1CloseTime=(*d).D1CloseTime;
	MOVFF       FARG_SaveLearnData_d+0, FSR0L
	MOVFF       FARG_SaveLearnData_d+1, FSR0H
	MOVF        POSTINC0+0, 0 
	MOVWF       _Door1CloseTime+0 
;FirmV_0_7_0.c,2339 :: 		if(DCount==2)
	MOVF        FARG_SaveLearnData_DCount+0, 0 
	XORLW       2
	BTFSS       STATUS+0, 2 
	GOTO        L_SaveLearnData588
;FirmV_0_7_0.c,2341 :: 		Door2OpenTime=(*d).D2OpenTime;
	MOVLW       3
	ADDWF       FARG_SaveLearnData_d+0, 0 
	MOVWF       FSR0L 
	MOVLW       0
	ADDWFC      FARG_SaveLearnData_d+1, 0 
	MOVWF       FSR0H 
	MOVF        POSTINC0+0, 0 
	MOVWF       _Door2OpenTime+0 
;FirmV_0_7_0.c,2342 :: 		Door2CloseTime=(*d).D2CloseTime;
	MOVLW       2
	ADDWF       FARG_SaveLearnData_d+0, 0 
	MOVWF       FSR0L 
	MOVLW       0
	ADDWFC      FARG_SaveLearnData_d+1, 0 
	MOVWF       FSR0H 
	MOVF        POSTINC0+0, 0 
	MOVWF       _Door2CloseTime+0 
;FirmV_0_7_0.c,2343 :: 		OpenSoftStartTime=((*d).D1OpenSoftStart+(*d).D2OpenSoftStart)/2;
	MOVLW       4
	ADDWF       FARG_SaveLearnData_d+0, 0 
	MOVWF       FSR0L 
	MOVLW       0
	ADDWFC      FARG_SaveLearnData_d+1, 0 
	MOVWF       FSR0H 
	MOVLW       8
	ADDWF       FARG_SaveLearnData_d+0, 0 
	MOVWF       FSR2L 
	MOVLW       0
	ADDWFC      FARG_SaveLearnData_d+1, 0 
	MOVWF       FSR2H 
	MOVF        POSTINC2+0, 0 
	ADDWF       POSTINC0+0, 0 
	MOVWF       R3 
	CLRF        R4 
	MOVLW       0
	ADDWFC      R4, 1 
	MOVF        R3, 0 
	MOVWF       R0 
	MOVF        R4, 0 
	MOVWF       R1 
	RRCF        R1, 1 
	RRCF        R0, 1 
	BCF         R1, 7 
	BTFSC       R1, 6 
	BSF         R1, 7 
	MOVF        R0, 0 
	MOVWF       _OpenSoftStartTime+0 
;FirmV_0_7_0.c,2344 :: 		OpenSoftStopTime=((*d).D1OpenSoftStop+(*d).D2OpenSoftStop)/2;
	MOVLW       5
	ADDWF       FARG_SaveLearnData_d+0, 0 
	MOVWF       FSR0L 
	MOVLW       0
	ADDWFC      FARG_SaveLearnData_d+1, 0 
	MOVWF       FSR0H 
	MOVLW       9
	ADDWF       FARG_SaveLearnData_d+0, 0 
	MOVWF       FSR2L 
	MOVLW       0
	ADDWFC      FARG_SaveLearnData_d+1, 0 
	MOVWF       FSR2H 
	MOVF        POSTINC2+0, 0 
	ADDWF       POSTINC0+0, 0 
	MOVWF       R3 
	CLRF        R4 
	MOVLW       0
	ADDWFC      R4, 1 
	MOVF        R3, 0 
	MOVWF       R0 
	MOVF        R4, 0 
	MOVWF       R1 
	RRCF        R1, 1 
	RRCF        R0, 1 
	BCF         R1, 7 
	BTFSC       R1, 6 
	BSF         R1, 7 
	MOVF        R0, 0 
	MOVWF       _OpenSoftStopTime+0 
;FirmV_0_7_0.c,2345 :: 		CloseSoftStartTime=((*d).D1CloseSoftStart+(*d).D2CloseSoftStart)/2;
	MOVLW       6
	ADDWF       FARG_SaveLearnData_d+0, 0 
	MOVWF       FSR0L 
	MOVLW       0
	ADDWFC      FARG_SaveLearnData_d+1, 0 
	MOVWF       FSR0H 
	MOVLW       10
	ADDWF       FARG_SaveLearnData_d+0, 0 
	MOVWF       FSR2L 
	MOVLW       0
	ADDWFC      FARG_SaveLearnData_d+1, 0 
	MOVWF       FSR2H 
	MOVF        POSTINC2+0, 0 
	ADDWF       POSTINC0+0, 0 
	MOVWF       R3 
	CLRF        R4 
	MOVLW       0
	ADDWFC      R4, 1 
	MOVF        R3, 0 
	MOVWF       R0 
	MOVF        R4, 0 
	MOVWF       R1 
	RRCF        R1, 1 
	RRCF        R0, 1 
	BCF         R1, 7 
	BTFSC       R1, 6 
	BSF         R1, 7 
	MOVF        R0, 0 
	MOVWF       _CloseSoftStartTime+0 
;FirmV_0_7_0.c,2346 :: 		CloseSoftStopTime=((*d).D1CloseSoftStop+(*d).D2CloseSoftStop)/2;
	MOVLW       7
	ADDWF       FARG_SaveLearnData_d+0, 0 
	MOVWF       FSR0L 
	MOVLW       0
	ADDWFC      FARG_SaveLearnData_d+1, 0 
	MOVWF       FSR0H 
	MOVLW       11
	ADDWF       FARG_SaveLearnData_d+0, 0 
	MOVWF       FSR2L 
	MOVLW       0
	ADDWFC      FARG_SaveLearnData_d+1, 0 
	MOVWF       FSR2H 
	MOVF        POSTINC2+0, 0 
	ADDWF       POSTINC0+0, 0 
	MOVWF       R3 
	CLRF        R4 
	MOVLW       0
	ADDWFC      R4, 1 
	MOVF        R3, 0 
	MOVWF       R0 
	MOVF        R4, 0 
	MOVWF       R1 
	RRCF        R1, 1 
	RRCF        R0, 1 
	BCF         R1, 7 
	BTFSC       R1, 6 
	BSF         R1, 7 
	MOVF        R0, 0 
	MOVWF       _CloseSoftStopTime+0 
;FirmV_0_7_0.c,2347 :: 		}
	GOTO        L_SaveLearnData589
L_SaveLearnData588:
;FirmV_0_7_0.c,2350 :: 		Door2OpenTime=0;
	CLRF        _Door2OpenTime+0 
;FirmV_0_7_0.c,2351 :: 		Door2CloseTime=0;
	CLRF        _Door2CloseTime+0 
;FirmV_0_7_0.c,2352 :: 		OpenSoftStartTime=(*d).D1OpenSoftStart;
	MOVLW       4
	ADDWF       FARG_SaveLearnData_d+0, 0 
	MOVWF       FSR0L 
	MOVLW       0
	ADDWFC      FARG_SaveLearnData_d+1, 0 
	MOVWF       FSR0H 
	MOVF        POSTINC0+0, 0 
	MOVWF       _OpenSoftStartTime+0 
;FirmV_0_7_0.c,2353 :: 		OpenSoftStopTime=(*d).D1OpenSoftStop;
	MOVLW       5
	ADDWF       FARG_SaveLearnData_d+0, 0 
	MOVWF       FSR0L 
	MOVLW       0
	ADDWFC      FARG_SaveLearnData_d+1, 0 
	MOVWF       FSR0H 
	MOVF        POSTINC0+0, 0 
	MOVWF       _OpenSoftStopTime+0 
;FirmV_0_7_0.c,2354 :: 		CloseSoftStartTime=(*d).D1CloseSoftStart;
	MOVLW       6
	ADDWF       FARG_SaveLearnData_d+0, 0 
	MOVWF       FSR0L 
	MOVLW       0
	ADDWFC      FARG_SaveLearnData_d+1, 0 
	MOVWF       FSR0H 
	MOVF        POSTINC0+0, 0 
	MOVWF       _CloseSoftStartTime+0 
;FirmV_0_7_0.c,2355 :: 		CloseSoftStopTime=(*d).D1CloseSoftStop;
	MOVLW       7
	ADDWF       FARG_SaveLearnData_d+0, 0 
	MOVWF       FSR0L 
	MOVLW       0
	ADDWFC      FARG_SaveLearnData_d+1, 0 
	MOVWF       FSR0H 
	MOVF        POSTINC0+0, 0 
	MOVWF       _CloseSoftStopTime+0 
;FirmV_0_7_0.c,2356 :: 		}
L_SaveLearnData589:
;FirmV_0_7_0.c,2358 :: 		SaveConfigs();
	CALL        _SaveConfigs+0, 0
;FirmV_0_7_0.c,2359 :: 		}
	RETURN      0
; end of _SaveLearnData

_LearnManual:

;FirmV_0_7_0.c,2374 :: 		void LearnManual()
;FirmV_0_7_0.c,2382 :: 		switch(LearnPhase)
	GOTO        L_LearnManual590
;FirmV_0_7_0.c,2384 :: 		case 0:
L_LearnManual592:
;FirmV_0_7_0.c,2385 :: 		Flasher=1;
	BSF         PORTD+0, 7 
;FirmV_0_7_0.c,2386 :: 		if(Events.Remote.b0==1){LearnPhase=LearnPhase+1; DoorNo=2;}if(Events.Remote.b1==1){LearnPhase=3; DoorNo=1;}
	BTFSS       _Events+4, 0 
	GOTO        L_LearnManual593
	INCF        _LearnPhase+0, 1 
	MOVLW       2
	MOVWF       LearnManual_DoorNo_L0+0 
L_LearnManual593:
	BTFSS       _Events+4, 1 
	GOTO        L_LearnManual594
	MOVLW       3
	MOVWF       _LearnPhase+0 
	MOVLW       1
	MOVWF       LearnManual_DoorNo_L0+0 
L_LearnManual594:
;FirmV_0_7_0.c,2387 :: 		break;
	GOTO        L_LearnManual591
;FirmV_0_7_0.c,2389 :: 		case 1: //Start D2 and enable overload sensing after 1s
L_LearnManual595:
;FirmV_0_7_0.c,2390 :: 		StartMotor(2,_Close);AddTask(ms500+4,21);LearnPhase=LearnPhase+1;OverloadCheckFlag2=0;
	MOVLW       2
	MOVWF       FARG_StartMotor_Mx+0 
	CLRF        FARG_StartMotor_Dir+0 
	CALL        _StartMotor+0, 0
	MOVLW       4
	ADDWF       _ms500+0, 0 
	MOVWF       FARG_AddTask_OccTime+0 
	MOVLW       0
	ADDWFC      _ms500+1, 0 
	MOVWF       FARG_AddTask_OccTime+1 
	MOVLW       0
	ADDWFC      _ms500+2, 0 
	MOVWF       FARG_AddTask_OccTime+2 
	MOVLW       0
	ADDWFC      _ms500+3, 0 
	MOVWF       FARG_AddTask_OccTime+3 
	MOVLW       21
	MOVWF       FARG_AddTask_tcode+0 
	CALL        _AddTask+0, 0
	INCF        _LearnPhase+0, 1 
	CLRF        _OverloadCheckFlag2+0 
;FirmV_0_7_0.c,2391 :: 		break;
	GOTO        L_LearnManual591
;FirmV_0_7_0.c,2393 :: 		case 2: //Check if D2 reaches end of its course
L_LearnManual596:
;FirmV_0_7_0.c,2394 :: 		if((Events.Overload.b1==1)&&(OverloadCheckFlag2==1)){OverloadCheckFlag2=0;StopMotor(2);LearnPhase=LearnPhase+1;}
	BTFSS       _Events+5, 1 
	GOTO        L_LearnManual599
	MOVF        _OverloadCheckFlag2+0, 0 
	XORLW       1
	BTFSS       STATUS+0, 2 
	GOTO        L_LearnManual599
L__LearnManual759:
	CLRF        _OverloadCheckFlag2+0 
	MOVLW       2
	MOVWF       FARG_StopMotor_Mx+0 
	CALL        _StopMotor+0, 0
	INCF        _LearnPhase+0, 1 
L_LearnManual599:
;FirmV_0_7_0.c,2395 :: 		if(CheckTask(21))OverloadCheckFlag2=1;
	MOVLW       21
	MOVWF       FARG_CheckTask_TaskCode+0 
	CALL        _CheckTask+0, 0
	MOVF        R0, 1 
	BTFSC       STATUS+0, 2 
	GOTO        L_LearnManual600
	MOVLW       1
	MOVWF       _OverloadCheckFlag2+0 
L_LearnManual600:
;FirmV_0_7_0.c,2396 :: 		break;
	GOTO        L_LearnManual591
;FirmV_0_7_0.c,2398 :: 		case 3: //Start D1 and enable overload sensin after 1 s
L_LearnManual601:
;FirmV_0_7_0.c,2399 :: 		StartMotor(1,_Close);AddTask(ms500+4,20);LearnPhase=LearnPhase+1;;OverloadCheckFlag1=0;
	MOVLW       1
	MOVWF       FARG_StartMotor_Mx+0 
	CLRF        FARG_StartMotor_Dir+0 
	CALL        _StartMotor+0, 0
	MOVLW       4
	ADDWF       _ms500+0, 0 
	MOVWF       FARG_AddTask_OccTime+0 
	MOVLW       0
	ADDWFC      _ms500+1, 0 
	MOVWF       FARG_AddTask_OccTime+1 
	MOVLW       0
	ADDWFC      _ms500+2, 0 
	MOVWF       FARG_AddTask_OccTime+2 
	MOVLW       0
	ADDWFC      _ms500+3, 0 
	MOVWF       FARG_AddTask_OccTime+3 
	MOVLW       20
	MOVWF       FARG_AddTask_tcode+0 
	CALL        _AddTask+0, 0
	INCF        _LearnPhase+0, 1 
	CLRF        _OverloadCheckFlag1+0 
;FirmV_0_7_0.c,2401 :: 		case 4: //Check if D1 reaches end of its course
L_LearnManual602:
;FirmV_0_7_0.c,2402 :: 		if((Events.Overload.b0==1)&&(OverloadCheckFlag1==1)){OverloadCheckFlag1=0;StopMotor(1);LearnPhase=LearnPhase+1;}
	BTFSS       _Events+5, 0 
	GOTO        L_LearnManual605
	MOVF        _OverloadCheckFlag1+0, 0 
	XORLW       1
	BTFSS       STATUS+0, 2 
	GOTO        L_LearnManual605
L__LearnManual758:
	CLRF        _OverloadCheckFlag1+0 
	MOVLW       1
	MOVWF       FARG_StopMotor_Mx+0 
	CALL        _StopMotor+0, 0
	INCF        _LearnPhase+0, 1 
L_LearnManual605:
;FirmV_0_7_0.c,2403 :: 		if(CheckTask(20))OverloadCheckFlag1=1;
	MOVLW       20
	MOVWF       FARG_CheckTask_TaskCode+0 
	CALL        _CheckTask+0, 0
	MOVF        R0, 1 
	BTFSC       STATUS+0, 2 
	GOTO        L_LearnManual606
	MOVLW       1
	MOVWF       _OverloadCheckFlag1+0 
L_LearnManual606:
;FirmV_0_7_0.c,2404 :: 		break;
	GOTO        L_LearnManual591
;FirmV_0_7_0.c,2406 :: 		case 5: //Wait for remote to start D1 and slow down
L_LearnManual607:
;FirmV_0_7_0.c,2407 :: 		if(Events.Remote!=0){t1=ms500;StartMotor(1,_Open);SetMotorSpeed(0,Motor2FullSpeed);M1isSlow=1;LearnPhase=LearnPhase+1;}
	MOVF        _Events+4, 0 
	XORLW       0
	BTFSC       STATUS+0, 2 
	GOTO        L_LearnManual608
	MOVF        _ms500+0, 0 
	MOVWF       LearnManual_t1_L0+0 
	MOVF        _ms500+1, 0 
	MOVWF       LearnManual_t1_L0+1 
	MOVF        _ms500+2, 0 
	MOVWF       LearnManual_t1_L0+2 
	MOVF        _ms500+3, 0 
	MOVWF       LearnManual_t1_L0+3 
	MOVLW       1
	MOVWF       FARG_StartMotor_Mx+0 
	MOVLW       1
	MOVWF       FARG_StartMotor_Dir+0 
	CALL        _StartMotor+0, 0
	CLRF        FARG_SetMotorSpeed_M1FullSpeed+0 
	MOVF        _Motor2FullSpeed+0, 0 
	MOVWF       FARG_SetMotorSpeed_M2FullSpeed+0 
	CALL        _SetMotorSpeed+0, 0
	MOVLW       1
	MOVWF       _M1isSlow+0 
	INCF        _LearnPhase+0, 1 
L_LearnManual608:
;FirmV_0_7_0.c,2408 :: 		break;
	GOTO        L_LearnManual591
;FirmV_0_7_0.c,2410 :: 		case 6: //check for Remote press and fast up
L_LearnManual609:
;FirmV_0_7_0.c,2411 :: 		if(Events.Remote!=0){LearnPhase=LearnPhase+1;t2=ms500;SetMotorSpeed(1,Motor2FullSpeed);M1isSlow=0;}
	MOVF        _Events+4, 0 
	XORLW       0
	BTFSC       STATUS+0, 2 
	GOTO        L_LearnManual610
	INCF        _LearnPhase+0, 1 
	MOVF        _ms500+0, 0 
	MOVWF       LearnManual_t2_L0+0 
	MOVF        _ms500+1, 0 
	MOVWF       LearnManual_t2_L0+1 
	MOVF        _ms500+2, 0 
	MOVWF       LearnManual_t2_L0+2 
	MOVF        _ms500+3, 0 
	MOVWF       LearnManual_t2_L0+3 
	MOVLW       1
	MOVWF       FARG_SetMotorSpeed_M1FullSpeed+0 
	MOVF        _Motor2FullSpeed+0, 0 
	MOVWF       FARG_SetMotorSpeed_M2FullSpeed+0 
	CALL        _SetMotorSpeed+0, 0
	CLRF        _M1isSlow+0 
L_LearnManual610:
;FirmV_0_7_0.c,2412 :: 		break;
	GOTO        L_LearnManual591
;FirmV_0_7_0.c,2414 :: 		case 7: //check for Remote press and slow down
L_LearnManual611:
;FirmV_0_7_0.c,2415 :: 		if(Events.Remote!=0){LearnPhase=LearnPhase+1;t3=ms500;SetMotorSpeed(0,Motor2FullSpeed);M1isSlow=1;}
	MOVF        _Events+4, 0 
	XORLW       0
	BTFSC       STATUS+0, 2 
	GOTO        L_LearnManual612
	INCF        _LearnPhase+0, 1 
	MOVF        _ms500+0, 0 
	MOVWF       LearnManual_t3_L0+0 
	MOVF        _ms500+1, 0 
	MOVWF       LearnManual_t3_L0+1 
	MOVF        _ms500+2, 0 
	MOVWF       LearnManual_t3_L0+2 
	MOVF        _ms500+3, 0 
	MOVWF       LearnManual_t3_L0+3 
	CLRF        FARG_SetMotorSpeed_M1FullSpeed+0 
	MOVF        _Motor2FullSpeed+0, 0 
	MOVWF       FARG_SetMotorSpeed_M2FullSpeed+0 
	CALL        _SetMotorSpeed+0, 0
	MOVLW       1
	MOVWF       _M1isSlow+0 
L_LearnManual612:
;FirmV_0_7_0.c,2416 :: 		break;
	GOTO        L_LearnManual591
;FirmV_0_7_0.c,2418 :: 		case 8: //check for Remote press and stop
L_LearnManual613:
;FirmV_0_7_0.c,2419 :: 		if(Events.Remote!=0){if(DoorNo==2)LearnPhase=LearnPhase+1;else LearnPhase=17;t4=ms500;StopMotor(1);
	MOVF        _Events+4, 0 
	XORLW       0
	BTFSC       STATUS+0, 2 
	GOTO        L_LearnManual614
	MOVF        LearnManual_DoorNo_L0+0, 0 
	XORLW       2
	BTFSS       STATUS+0, 2 
	GOTO        L_LearnManual615
	INCF        _LearnPhase+0, 1 
	GOTO        L_LearnManual616
L_LearnManual615:
	MOVLW       17
	MOVWF       _LearnPhase+0 
L_LearnManual616:
	MOVF        _ms500+0, 0 
	MOVWF       LearnManual_t4_L0+0 
	MOVF        _ms500+1, 0 
	MOVWF       LearnManual_t4_L0+1 
	MOVF        _ms500+2, 0 
	MOVWF       LearnManual_t4_L0+2 
	MOVF        _ms500+3, 0 
	MOVWF       LearnManual_t4_L0+3 
	MOVLW       1
	MOVWF       FARG_StopMotor_Mx+0 
	CALL        _StopMotor+0, 0
;FirmV_0_7_0.c,2420 :: 		RawData.D1OpenTime=(char)(t4-t1);
	MOVF        LearnManual_t1_L0+0, 0 
	SUBWF       LearnManual_t4_L0+0, 0 
	MOVWF       R0 
	MOVF        R0, 0 
	MOVWF       LearnManual_RawData_L0+1 
;FirmV_0_7_0.c,2421 :: 		RawData.D1OpenSoftStart=(char)(t2-t1);
	MOVF        LearnManual_t1_L0+0, 0 
	SUBWF       LearnManual_t2_L0+0, 0 
	MOVWF       R0 
	MOVF        R0, 0 
	MOVWF       LearnManual_RawData_L0+4 
;FirmV_0_7_0.c,2422 :: 		RawData.D1OpenSoftStop=(char)(t4-t3);
	MOVF        LearnManual_t3_L0+0, 0 
	SUBWF       LearnManual_t4_L0+0, 0 
	MOVWF       R0 
	MOVF        R0, 0 
	MOVWF       LearnManual_RawData_L0+5 
;FirmV_0_7_0.c,2423 :: 		}
L_LearnManual614:
;FirmV_0_7_0.c,2424 :: 		break;
	GOTO        L_LearnManual591
;FirmV_0_7_0.c,2426 :: 		case 9: //Wait for remote to start D2 and slow down
L_LearnManual617:
;FirmV_0_7_0.c,2427 :: 		if(Events.Remote!=0){t1=ms500;StartMotor(2,_Open);SetMotorSpeed(Motor1FullSpeed,0);M2isSlow=1;LearnPhase=LearnPhase+1;}
	MOVF        _Events+4, 0 
	XORLW       0
	BTFSC       STATUS+0, 2 
	GOTO        L_LearnManual618
	MOVF        _ms500+0, 0 
	MOVWF       LearnManual_t1_L0+0 
	MOVF        _ms500+1, 0 
	MOVWF       LearnManual_t1_L0+1 
	MOVF        _ms500+2, 0 
	MOVWF       LearnManual_t1_L0+2 
	MOVF        _ms500+3, 0 
	MOVWF       LearnManual_t1_L0+3 
	MOVLW       2
	MOVWF       FARG_StartMotor_Mx+0 
	MOVLW       1
	MOVWF       FARG_StartMotor_Dir+0 
	CALL        _StartMotor+0, 0
	MOVF        _Motor1FullSpeed+0, 0 
	MOVWF       FARG_SetMotorSpeed_M1FullSpeed+0 
	CLRF        FARG_SetMotorSpeed_M2FullSpeed+0 
	CALL        _SetMotorSpeed+0, 0
	MOVLW       1
	MOVWF       _M2isSlow+0 
	INCF        _LearnPhase+0, 1 
L_LearnManual618:
;FirmV_0_7_0.c,2428 :: 		break;
	GOTO        L_LearnManual591
;FirmV_0_7_0.c,2430 :: 		case 10: //check for Remote press and fast up
L_LearnManual619:
;FirmV_0_7_0.c,2431 :: 		if(Events.Remote!=0){LearnPhase=LearnPhase+1;t2=ms500;SetMotorSpeed(Motor1FullSpeed,1);M2isSlow=0;}
	MOVF        _Events+4, 0 
	XORLW       0
	BTFSC       STATUS+0, 2 
	GOTO        L_LearnManual620
	INCF        _LearnPhase+0, 1 
	MOVF        _ms500+0, 0 
	MOVWF       LearnManual_t2_L0+0 
	MOVF        _ms500+1, 0 
	MOVWF       LearnManual_t2_L0+1 
	MOVF        _ms500+2, 0 
	MOVWF       LearnManual_t2_L0+2 
	MOVF        _ms500+3, 0 
	MOVWF       LearnManual_t2_L0+3 
	MOVF        _Motor1FullSpeed+0, 0 
	MOVWF       FARG_SetMotorSpeed_M1FullSpeed+0 
	MOVLW       1
	MOVWF       FARG_SetMotorSpeed_M2FullSpeed+0 
	CALL        _SetMotorSpeed+0, 0
	CLRF        _M2isSlow+0 
L_LearnManual620:
;FirmV_0_7_0.c,2432 :: 		break;
	GOTO        L_LearnManual591
;FirmV_0_7_0.c,2434 :: 		case 11: //check for Remote press and slow down
L_LearnManual621:
;FirmV_0_7_0.c,2435 :: 		if(Events.Remote!=0){LearnPhase=LearnPhase+1;t3=ms500;SetMotorSpeed(Motor1FullSpeed,0);M2isSlow=1;}
	MOVF        _Events+4, 0 
	XORLW       0
	BTFSC       STATUS+0, 2 
	GOTO        L_LearnManual622
	INCF        _LearnPhase+0, 1 
	MOVF        _ms500+0, 0 
	MOVWF       LearnManual_t3_L0+0 
	MOVF        _ms500+1, 0 
	MOVWF       LearnManual_t3_L0+1 
	MOVF        _ms500+2, 0 
	MOVWF       LearnManual_t3_L0+2 
	MOVF        _ms500+3, 0 
	MOVWF       LearnManual_t3_L0+3 
	MOVF        _Motor1FullSpeed+0, 0 
	MOVWF       FARG_SetMotorSpeed_M1FullSpeed+0 
	CLRF        FARG_SetMotorSpeed_M2FullSpeed+0 
	CALL        _SetMotorSpeed+0, 0
	MOVLW       1
	MOVWF       _M2isSlow+0 
L_LearnManual622:
;FirmV_0_7_0.c,2436 :: 		break;
	GOTO        L_LearnManual591
;FirmV_0_7_0.c,2438 :: 		case 12: //check for Remote press and stop
L_LearnManual623:
;FirmV_0_7_0.c,2439 :: 		if(Events.Remote!=0){LearnPhase=LearnPhase+1;t4=ms500;StopMotor(2);
	MOVF        _Events+4, 0 
	XORLW       0
	BTFSC       STATUS+0, 2 
	GOTO        L_LearnManual624
	INCF        _LearnPhase+0, 1 
	MOVF        _ms500+0, 0 
	MOVWF       LearnManual_t4_L0+0 
	MOVF        _ms500+1, 0 
	MOVWF       LearnManual_t4_L0+1 
	MOVF        _ms500+2, 0 
	MOVWF       LearnManual_t4_L0+2 
	MOVF        _ms500+3, 0 
	MOVWF       LearnManual_t4_L0+3 
	MOVLW       2
	MOVWF       FARG_StopMotor_Mx+0 
	CALL        _StopMotor+0, 0
;FirmV_0_7_0.c,2440 :: 		RawData.D2OpenTime=(char)(t4-t1);
	MOVF        LearnManual_t1_L0+0, 0 
	SUBWF       LearnManual_t4_L0+0, 0 
	MOVWF       R0 
	MOVF        R0, 0 
	MOVWF       LearnManual_RawData_L0+3 
;FirmV_0_7_0.c,2441 :: 		RawData.D2OpenSoftStart=(char)(t2-t1);
	MOVF        LearnManual_t1_L0+0, 0 
	SUBWF       LearnManual_t2_L0+0, 0 
	MOVWF       R0 
	MOVF        R0, 0 
	MOVWF       LearnManual_RawData_L0+8 
;FirmV_0_7_0.c,2442 :: 		RawData.D2OpenSoftStop=(char)(t4-t3);
	MOVF        LearnManual_t3_L0+0, 0 
	SUBWF       LearnManual_t4_L0+0, 0 
	MOVWF       R0 
	MOVF        R0, 0 
	MOVWF       LearnManual_RawData_L0+9 
;FirmV_0_7_0.c,2443 :: 		}
L_LearnManual624:
;FirmV_0_7_0.c,2444 :: 		break;
	GOTO        L_LearnManual591
;FirmV_0_7_0.c,2446 :: 		case 13: //Wait for remote to start D2 and slow down
L_LearnManual625:
;FirmV_0_7_0.c,2447 :: 		if(Events.Remote!=0){t1=ms500;StartMotor(2,_Close);SetMotorSpeed(Motor1FullSpeed,0);M2isSlow=1;LearnPhase=LearnPhase+1;}
	MOVF        _Events+4, 0 
	XORLW       0
	BTFSC       STATUS+0, 2 
	GOTO        L_LearnManual626
	MOVF        _ms500+0, 0 
	MOVWF       LearnManual_t1_L0+0 
	MOVF        _ms500+1, 0 
	MOVWF       LearnManual_t1_L0+1 
	MOVF        _ms500+2, 0 
	MOVWF       LearnManual_t1_L0+2 
	MOVF        _ms500+3, 0 
	MOVWF       LearnManual_t1_L0+3 
	MOVLW       2
	MOVWF       FARG_StartMotor_Mx+0 
	CLRF        FARG_StartMotor_Dir+0 
	CALL        _StartMotor+0, 0
	MOVF        _Motor1FullSpeed+0, 0 
	MOVWF       FARG_SetMotorSpeed_M1FullSpeed+0 
	CLRF        FARG_SetMotorSpeed_M2FullSpeed+0 
	CALL        _SetMotorSpeed+0, 0
	MOVLW       1
	MOVWF       _M2isSlow+0 
	INCF        _LearnPhase+0, 1 
L_LearnManual626:
;FirmV_0_7_0.c,2448 :: 		break;
	GOTO        L_LearnManual591
;FirmV_0_7_0.c,2450 :: 		case 14: //check for Remote press and fast up
L_LearnManual627:
;FirmV_0_7_0.c,2451 :: 		if(Events.Remote!=0){LearnPhase=LearnPhase+1;t2=ms500;SetMotorSpeed(Motor1FullSpeed,1);M2isSlow=0;}
	MOVF        _Events+4, 0 
	XORLW       0
	BTFSC       STATUS+0, 2 
	GOTO        L_LearnManual628
	INCF        _LearnPhase+0, 1 
	MOVF        _ms500+0, 0 
	MOVWF       LearnManual_t2_L0+0 
	MOVF        _ms500+1, 0 
	MOVWF       LearnManual_t2_L0+1 
	MOVF        _ms500+2, 0 
	MOVWF       LearnManual_t2_L0+2 
	MOVF        _ms500+3, 0 
	MOVWF       LearnManual_t2_L0+3 
	MOVF        _Motor1FullSpeed+0, 0 
	MOVWF       FARG_SetMotorSpeed_M1FullSpeed+0 
	MOVLW       1
	MOVWF       FARG_SetMotorSpeed_M2FullSpeed+0 
	CALL        _SetMotorSpeed+0, 0
	CLRF        _M2isSlow+0 
L_LearnManual628:
;FirmV_0_7_0.c,2452 :: 		break;
	GOTO        L_LearnManual591
;FirmV_0_7_0.c,2454 :: 		case 15: //check for Remote press and slow down
L_LearnManual629:
;FirmV_0_7_0.c,2455 :: 		if(Events.Remote!=0){LearnPhase=LearnPhase+1;t3=ms500;SetMotorSpeed(Motor1FullSpeed,0);M2isSlow=1;}
	MOVF        _Events+4, 0 
	XORLW       0
	BTFSC       STATUS+0, 2 
	GOTO        L_LearnManual630
	INCF        _LearnPhase+0, 1 
	MOVF        _ms500+0, 0 
	MOVWF       LearnManual_t3_L0+0 
	MOVF        _ms500+1, 0 
	MOVWF       LearnManual_t3_L0+1 
	MOVF        _ms500+2, 0 
	MOVWF       LearnManual_t3_L0+2 
	MOVF        _ms500+3, 0 
	MOVWF       LearnManual_t3_L0+3 
	MOVF        _Motor1FullSpeed+0, 0 
	MOVWF       FARG_SetMotorSpeed_M1FullSpeed+0 
	CLRF        FARG_SetMotorSpeed_M2FullSpeed+0 
	CALL        _SetMotorSpeed+0, 0
	MOVLW       1
	MOVWF       _M2isSlow+0 
L_LearnManual630:
;FirmV_0_7_0.c,2456 :: 		break;
	GOTO        L_LearnManual591
;FirmV_0_7_0.c,2458 :: 		case 16: //check for Remote press and stop
L_LearnManual631:
;FirmV_0_7_0.c,2459 :: 		if(Events.Remote!=0){LearnPhase=LearnPhase+1;t4=ms500;StopMotor(2);
	MOVF        _Events+4, 0 
	XORLW       0
	BTFSC       STATUS+0, 2 
	GOTO        L_LearnManual632
	INCF        _LearnPhase+0, 1 
	MOVF        _ms500+0, 0 
	MOVWF       LearnManual_t4_L0+0 
	MOVF        _ms500+1, 0 
	MOVWF       LearnManual_t4_L0+1 
	MOVF        _ms500+2, 0 
	MOVWF       LearnManual_t4_L0+2 
	MOVF        _ms500+3, 0 
	MOVWF       LearnManual_t4_L0+3 
	MOVLW       2
	MOVWF       FARG_StopMotor_Mx+0 
	CALL        _StopMotor+0, 0
;FirmV_0_7_0.c,2460 :: 		RawData.D2CloseTime=(char)(t4-t1);
	MOVF        LearnManual_t1_L0+0, 0 
	SUBWF       LearnManual_t4_L0+0, 0 
	MOVWF       R0 
	MOVF        R0, 0 
	MOVWF       LearnManual_RawData_L0+2 
;FirmV_0_7_0.c,2461 :: 		RawData.D2CloseSoftStart=(char)(t2-t1);
	MOVF        LearnManual_t1_L0+0, 0 
	SUBWF       LearnManual_t2_L0+0, 0 
	MOVWF       R0 
	MOVF        R0, 0 
	MOVWF       LearnManual_RawData_L0+10 
;FirmV_0_7_0.c,2462 :: 		RawData.D2CloseSoftStop=(char)(t4-t3);
	MOVF        LearnManual_t3_L0+0, 0 
	SUBWF       LearnManual_t4_L0+0, 0 
	MOVWF       R0 
	MOVF        R0, 0 
	MOVWF       LearnManual_RawData_L0+11 
;FirmV_0_7_0.c,2463 :: 		}
L_LearnManual632:
;FirmV_0_7_0.c,2464 :: 		break;
	GOTO        L_LearnManual591
;FirmV_0_7_0.c,2466 :: 		case 17: //Wait for remote to start D1 and slow down
L_LearnManual633:
;FirmV_0_7_0.c,2467 :: 		if(Events.Remote!=0){t1=ms500;StartMotor(1,_Close);SetMotorSpeed(0,Motor2FullSpeed);M1isSlow=1;LearnPhase=LearnPhase+1;}
	MOVF        _Events+4, 0 
	XORLW       0
	BTFSC       STATUS+0, 2 
	GOTO        L_LearnManual634
	MOVF        _ms500+0, 0 
	MOVWF       LearnManual_t1_L0+0 
	MOVF        _ms500+1, 0 
	MOVWF       LearnManual_t1_L0+1 
	MOVF        _ms500+2, 0 
	MOVWF       LearnManual_t1_L0+2 
	MOVF        _ms500+3, 0 
	MOVWF       LearnManual_t1_L0+3 
	MOVLW       1
	MOVWF       FARG_StartMotor_Mx+0 
	CLRF        FARG_StartMotor_Dir+0 
	CALL        _StartMotor+0, 0
	CLRF        FARG_SetMotorSpeed_M1FullSpeed+0 
	MOVF        _Motor2FullSpeed+0, 0 
	MOVWF       FARG_SetMotorSpeed_M2FullSpeed+0 
	CALL        _SetMotorSpeed+0, 0
	MOVLW       1
	MOVWF       _M1isSlow+0 
	INCF        _LearnPhase+0, 1 
L_LearnManual634:
;FirmV_0_7_0.c,2468 :: 		break;
	GOTO        L_LearnManual591
;FirmV_0_7_0.c,2470 :: 		case 18: //check for Remote press and fast up
L_LearnManual635:
;FirmV_0_7_0.c,2471 :: 		if(Events.Remote!=0){LearnPhase=LearnPhase+1;t2=ms500;SetMotorSpeed(1,Motor2FullSpeed);M1isSlow=0;}
	MOVF        _Events+4, 0 
	XORLW       0
	BTFSC       STATUS+0, 2 
	GOTO        L_LearnManual636
	INCF        _LearnPhase+0, 1 
	MOVF        _ms500+0, 0 
	MOVWF       LearnManual_t2_L0+0 
	MOVF        _ms500+1, 0 
	MOVWF       LearnManual_t2_L0+1 
	MOVF        _ms500+2, 0 
	MOVWF       LearnManual_t2_L0+2 
	MOVF        _ms500+3, 0 
	MOVWF       LearnManual_t2_L0+3 
	MOVLW       1
	MOVWF       FARG_SetMotorSpeed_M1FullSpeed+0 
	MOVF        _Motor2FullSpeed+0, 0 
	MOVWF       FARG_SetMotorSpeed_M2FullSpeed+0 
	CALL        _SetMotorSpeed+0, 0
	CLRF        _M1isSlow+0 
L_LearnManual636:
;FirmV_0_7_0.c,2472 :: 		break;
	GOTO        L_LearnManual591
;FirmV_0_7_0.c,2474 :: 		case 19: //check for Remote press and slow down
L_LearnManual637:
;FirmV_0_7_0.c,2475 :: 		if(Events.Remote!=0){LearnPhase=LearnPhase+1;t3=ms500;SetMotorSpeed(0,Motor2FullSpeed);M1isSlow=1;}
	MOVF        _Events+4, 0 
	XORLW       0
	BTFSC       STATUS+0, 2 
	GOTO        L_LearnManual638
	INCF        _LearnPhase+0, 1 
	MOVF        _ms500+0, 0 
	MOVWF       LearnManual_t3_L0+0 
	MOVF        _ms500+1, 0 
	MOVWF       LearnManual_t3_L0+1 
	MOVF        _ms500+2, 0 
	MOVWF       LearnManual_t3_L0+2 
	MOVF        _ms500+3, 0 
	MOVWF       LearnManual_t3_L0+3 
	CLRF        FARG_SetMotorSpeed_M1FullSpeed+0 
	MOVF        _Motor2FullSpeed+0, 0 
	MOVWF       FARG_SetMotorSpeed_M2FullSpeed+0 
	CALL        _SetMotorSpeed+0, 0
	MOVLW       1
	MOVWF       _M1isSlow+0 
L_LearnManual638:
;FirmV_0_7_0.c,2476 :: 		break;
	GOTO        L_LearnManual591
;FirmV_0_7_0.c,2478 :: 		case 20: //check for Remote press and stop
L_LearnManual639:
;FirmV_0_7_0.c,2479 :: 		if(Events.Remote!=0){LearnPhase=LearnPhase+1;t4=ms500;StopMotor(1);
	MOVF        _Events+4, 0 
	XORLW       0
	BTFSC       STATUS+0, 2 
	GOTO        L_LearnManual640
	INCF        _LearnPhase+0, 1 
	MOVF        _ms500+0, 0 
	MOVWF       LearnManual_t4_L0+0 
	MOVF        _ms500+1, 0 
	MOVWF       LearnManual_t4_L0+1 
	MOVF        _ms500+2, 0 
	MOVWF       LearnManual_t4_L0+2 
	MOVF        _ms500+3, 0 
	MOVWF       LearnManual_t4_L0+3 
	MOVLW       1
	MOVWF       FARG_StopMotor_Mx+0 
	CALL        _StopMotor+0, 0
;FirmV_0_7_0.c,2480 :: 		RawData.D1CloseTime=(char)(t4-t1);
	MOVF        LearnManual_t1_L0+0, 0 
	SUBWF       LearnManual_t4_L0+0, 0 
	MOVWF       R0 
	MOVF        R0, 0 
	MOVWF       LearnManual_RawData_L0+0 
;FirmV_0_7_0.c,2481 :: 		RawData.D1CloseSoftStart=(char)(t2-t1);
	MOVF        LearnManual_t1_L0+0, 0 
	SUBWF       LearnManual_t2_L0+0, 0 
	MOVWF       R0 
	MOVF        R0, 0 
	MOVWF       LearnManual_RawData_L0+6 
;FirmV_0_7_0.c,2482 :: 		RawData.D1CloseSoftStop=(char)(t4-t3);
	MOVF        LearnManual_t3_L0+0, 0 
	SUBWF       LearnManual_t4_L0+0, 0 
	MOVWF       R0 
	MOVF        R0, 0 
	MOVWF       LearnManual_RawData_L0+7 
;FirmV_0_7_0.c,2483 :: 		}
L_LearnManual640:
;FirmV_0_7_0.c,2484 :: 		break;
	GOTO        L_LearnManual591
;FirmV_0_7_0.c,2486 :: 		case 21:
L_LearnManual641:
;FirmV_0_7_0.c,2487 :: 		SaveLearnData(&RawData,DoorNo);
	MOVLW       LearnManual_RawData_L0+0
	MOVWF       FARG_SaveLearnData_d+0 
	MOVLW       hi_addr(LearnManual_RawData_L0+0)
	MOVWF       FARG_SaveLearnData_d+1 
	MOVF        LearnManual_DoorNo_L0+0, 0 
	MOVWF       FARG_SaveLearnData_DCount+0 
	CALL        _SaveLearnData+0, 0
;FirmV_0_7_0.c,2488 :: 		memcpy(LCDLine1," Learn Complete ",16);
	MOVLW       _LCDLine1+0
	MOVWF       FARG_memcpy_d1+0 
	MOVLW       hi_addr(_LCDLine1+0)
	MOVWF       FARG_memcpy_d1+1 
	MOVLW       ?ICS?lstr98_FirmV_0_7_0+0
	MOVWF       TBLPTRL 
	MOVLW       hi_addr(?ICS?lstr98_FirmV_0_7_0+0)
	MOVWF       TBLPTRH 
	MOVLW       higher_addr(?ICS?lstr98_FirmV_0_7_0+0)
	MOVWF       TBLPTRU 
	MOVLW       ?lstr98_FirmV_0_7_0+0
	MOVWF       FSR1L 
	MOVLW       hi_addr(?lstr98_FirmV_0_7_0+0)
	MOVWF       FSR1H 
	MOVLW       17
	MOVWF       R0 
	MOVLW       1
	MOVWF       R1 
	CALL        ___CC2DW+0, 0
	MOVLW       ?lstr98_FirmV_0_7_0+0
	MOVWF       FARG_memcpy_s1+0 
	MOVLW       hi_addr(?lstr98_FirmV_0_7_0+0)
	MOVWF       FARG_memcpy_s1+1 
	MOVLW       16
	MOVWF       FARG_memcpy_n+0 
	MOVLW       0
	MOVWF       FARG_memcpy_n+1 
	CALL        _memcpy+0, 0
;FirmV_0_7_0.c,2489 :: 		memcpy(LCDLine2,"     Ready      ",16);
	MOVLW       _LCDLine2+0
	MOVWF       FARG_memcpy_d1+0 
	MOVLW       hi_addr(_LCDLine2+0)
	MOVWF       FARG_memcpy_d1+1 
	MOVLW       ?ICS?lstr99_FirmV_0_7_0+0
	MOVWF       TBLPTRL 
	MOVLW       hi_addr(?ICS?lstr99_FirmV_0_7_0+0)
	MOVWF       TBLPTRH 
	MOVLW       higher_addr(?ICS?lstr99_FirmV_0_7_0+0)
	MOVWF       TBLPTRU 
	MOVLW       ?lstr99_FirmV_0_7_0+0
	MOVWF       FSR1L 
	MOVLW       hi_addr(?lstr99_FirmV_0_7_0+0)
	MOVWF       FSR1H 
	MOVLW       17
	MOVWF       R0 
	MOVLW       1
	MOVWF       R1 
	CALL        ___CC2DW+0, 0
	MOVLW       ?lstr99_FirmV_0_7_0+0
	MOVWF       FARG_memcpy_s1+0 
	MOVLW       hi_addr(?lstr99_FirmV_0_7_0+0)
	MOVWF       FARG_memcpy_s1+1 
	MOVLW       16
	MOVWF       FARG_memcpy_n+0 
	MOVLW       0
	MOVWF       FARG_memcpy_n+1 
	CALL        _memcpy+0, 0
;FirmV_0_7_0.c,2490 :: 		LCDLines=2;
	MOVLW       2
	MOVWF       _LCDLines+0 
;FirmV_0_7_0.c,2491 :: 		LCDUpdateFlag=1;
	MOVLW       1
	MOVWF       _LCDUpdateFlag+0 
;FirmV_0_7_0.c,2492 :: 		Flasher=0;
	BCF         PORTD+0, 7 
;FirmV_0_7_0.c,2493 :: 		State=0;
	CLRF        _State+0 
;FirmV_0_7_0.c,2494 :: 		break;
	GOTO        L_LearnManual591
;FirmV_0_7_0.c,2495 :: 		}
L_LearnManual590:
	MOVF        _LearnPhase+0, 0 
	XORLW       0
	BTFSC       STATUS+0, 2 
	GOTO        L_LearnManual592
	MOVF        _LearnPhase+0, 0 
	XORLW       1
	BTFSC       STATUS+0, 2 
	GOTO        L_LearnManual595
	MOVF        _LearnPhase+0, 0 
	XORLW       2
	BTFSC       STATUS+0, 2 
	GOTO        L_LearnManual596
	MOVF        _LearnPhase+0, 0 
	XORLW       3
	BTFSC       STATUS+0, 2 
	GOTO        L_LearnManual601
	MOVF        _LearnPhase+0, 0 
	XORLW       4
	BTFSC       STATUS+0, 2 
	GOTO        L_LearnManual602
	MOVF        _LearnPhase+0, 0 
	XORLW       5
	BTFSC       STATUS+0, 2 
	GOTO        L_LearnManual607
	MOVF        _LearnPhase+0, 0 
	XORLW       6
	BTFSC       STATUS+0, 2 
	GOTO        L_LearnManual609
	MOVF        _LearnPhase+0, 0 
	XORLW       7
	BTFSC       STATUS+0, 2 
	GOTO        L_LearnManual611
	MOVF        _LearnPhase+0, 0 
	XORLW       8
	BTFSC       STATUS+0, 2 
	GOTO        L_LearnManual613
	MOVF        _LearnPhase+0, 0 
	XORLW       9
	BTFSC       STATUS+0, 2 
	GOTO        L_LearnManual617
	MOVF        _LearnPhase+0, 0 
	XORLW       10
	BTFSC       STATUS+0, 2 
	GOTO        L_LearnManual619
	MOVF        _LearnPhase+0, 0 
	XORLW       11
	BTFSC       STATUS+0, 2 
	GOTO        L_LearnManual621
	MOVF        _LearnPhase+0, 0 
	XORLW       12
	BTFSC       STATUS+0, 2 
	GOTO        L_LearnManual623
	MOVF        _LearnPhase+0, 0 
	XORLW       13
	BTFSC       STATUS+0, 2 
	GOTO        L_LearnManual625
	MOVF        _LearnPhase+0, 0 
	XORLW       14
	BTFSC       STATUS+0, 2 
	GOTO        L_LearnManual627
	MOVF        _LearnPhase+0, 0 
	XORLW       15
	BTFSC       STATUS+0, 2 
	GOTO        L_LearnManual629
	MOVF        _LearnPhase+0, 0 
	XORLW       16
	BTFSC       STATUS+0, 2 
	GOTO        L_LearnManual631
	MOVF        _LearnPhase+0, 0 
	XORLW       17
	BTFSC       STATUS+0, 2 
	GOTO        L_LearnManual633
	MOVF        _LearnPhase+0, 0 
	XORLW       18
	BTFSC       STATUS+0, 2 
	GOTO        L_LearnManual635
	MOVF        _LearnPhase+0, 0 
	XORLW       19
	BTFSC       STATUS+0, 2 
	GOTO        L_LearnManual637
	MOVF        _LearnPhase+0, 0 
	XORLW       20
	BTFSC       STATUS+0, 2 
	GOTO        L_LearnManual639
	MOVF        _LearnPhase+0, 0 
	XORLW       21
	BTFSC       STATUS+0, 2 
	GOTO        L_LearnManual641
L_LearnManual591:
;FirmV_0_7_0.c,2496 :: 		}
	RETURN      0
; end of _LearnManual

_charValueToStr:

;FirmV_0_7_0.c,2517 :: 		void charValueToStr(char val, char * string)
;FirmV_0_7_0.c,2519 :: 		bytetostr(val>>1,string);
	MOVF        FARG_charValueToStr_val+0, 0 
	MOVWF       FARG_ByteToStr_input+0 
	RRCF        FARG_ByteToStr_input+0, 1 
	BCF         FARG_ByteToStr_input+0, 7 
	MOVF        FARG_charValueToStr_string+0, 0 
	MOVWF       FARG_ByteToStr_output+0 
	MOVF        FARG_charValueToStr_string+1, 0 
	MOVWF       FARG_ByteToStr_output+1 
	CALL        _ByteToStr+0, 0
;FirmV_0_7_0.c,2520 :: 		if((val%2)==1)
	MOVLW       1
	ANDWF       FARG_charValueToStr_val+0, 0 
	MOVWF       R1 
	MOVF        R1, 0 
	XORLW       1
	BTFSS       STATUS+0, 2 
	GOTO        L_charValueToStr642
;FirmV_0_7_0.c,2521 :: 		memcpy(string+3,".5s",4);
	MOVLW       3
	ADDWF       FARG_charValueToStr_string+0, 0 
	MOVWF       FARG_memcpy_d1+0 
	MOVLW       0
	ADDWFC      FARG_charValueToStr_string+1, 0 
	MOVWF       FARG_memcpy_d1+1 
	MOVLW       46
	MOVWF       ?lstr100_FirmV_0_7_0+0 
	MOVLW       53
	MOVWF       ?lstr100_FirmV_0_7_0+1 
	MOVLW       115
	MOVWF       ?lstr100_FirmV_0_7_0+2 
	CLRF        ?lstr100_FirmV_0_7_0+3 
	MOVLW       ?lstr100_FirmV_0_7_0+0
	MOVWF       FARG_memcpy_s1+0 
	MOVLW       hi_addr(?lstr100_FirmV_0_7_0+0)
	MOVWF       FARG_memcpy_s1+1 
	MOVLW       4
	MOVWF       FARG_memcpy_n+0 
	MOVLW       0
	MOVWF       FARG_memcpy_n+1 
	CALL        _memcpy+0, 0
	GOTO        L_charValueToStr643
L_charValueToStr642:
;FirmV_0_7_0.c,2523 :: 		memcpy(string+3,"s  ",4);
	MOVLW       3
	ADDWF       FARG_charValueToStr_string+0, 0 
	MOVWF       FARG_memcpy_d1+0 
	MOVLW       0
	ADDWFC      FARG_charValueToStr_string+1, 0 
	MOVWF       FARG_memcpy_d1+1 
	MOVLW       115
	MOVWF       ?lstr101_FirmV_0_7_0+0 
	MOVLW       32
	MOVWF       ?lstr101_FirmV_0_7_0+1 
	MOVLW       32
	MOVWF       ?lstr101_FirmV_0_7_0+2 
	CLRF        ?lstr101_FirmV_0_7_0+3 
	MOVLW       ?lstr101_FirmV_0_7_0+0
	MOVWF       FARG_memcpy_s1+0 
	MOVLW       hi_addr(?lstr101_FirmV_0_7_0+0)
	MOVWF       FARG_memcpy_s1+1 
	MOVLW       4
	MOVWF       FARG_memcpy_n+0 
	MOVLW       0
	MOVWF       FARG_memcpy_n+1 
	CALL        _memcpy+0, 0
L_charValueToStr643:
;FirmV_0_7_0.c,2524 :: 		}
	RETURN      0
; end of _charValueToStr

_intValueToStr:

;FirmV_0_7_0.c,2537 :: 		void intValueToStr(unsigned val, char * string)
;FirmV_0_7_0.c,2539 :: 		wordtostr(val>>1,string);
	MOVF        FARG_intValueToStr_val+0, 0 
	MOVWF       FARG_WordToStr_input+0 
	MOVF        FARG_intValueToStr_val+1, 0 
	MOVWF       FARG_WordToStr_input+1 
	RRCF        FARG_WordToStr_input+1, 1 
	RRCF        FARG_WordToStr_input+0, 1 
	BCF         FARG_WordToStr_input+1, 7 
	MOVF        FARG_intValueToStr_string+0, 0 
	MOVWF       FARG_WordToStr_output+0 
	MOVF        FARG_intValueToStr_string+1, 0 
	MOVWF       FARG_WordToStr_output+1 
	CALL        _WordToStr+0, 0
;FirmV_0_7_0.c,2540 :: 		if((val%2)==1)
	MOVLW       1
	ANDWF       FARG_intValueToStr_val+0, 0 
	MOVWF       R1 
	MOVF        FARG_intValueToStr_val+1, 0 
	MOVWF       R2 
	MOVLW       0
	ANDWF       R2, 1 
	MOVLW       0
	XORWF       R2, 0 
	BTFSS       STATUS+0, 2 
	GOTO        L__intValueToStr792
	MOVLW       1
	XORWF       R1, 0 
L__intValueToStr792:
	BTFSS       STATUS+0, 2 
	GOTO        L_intValueToStr644
;FirmV_0_7_0.c,2541 :: 		memcpy(string+5,".5s",4);
	MOVLW       5
	ADDWF       FARG_intValueToStr_string+0, 0 
	MOVWF       FARG_memcpy_d1+0 
	MOVLW       0
	ADDWFC      FARG_intValueToStr_string+1, 0 
	MOVWF       FARG_memcpy_d1+1 
	MOVLW       46
	MOVWF       ?lstr102_FirmV_0_7_0+0 
	MOVLW       53
	MOVWF       ?lstr102_FirmV_0_7_0+1 
	MOVLW       115
	MOVWF       ?lstr102_FirmV_0_7_0+2 
	CLRF        ?lstr102_FirmV_0_7_0+3 
	MOVLW       ?lstr102_FirmV_0_7_0+0
	MOVWF       FARG_memcpy_s1+0 
	MOVLW       hi_addr(?lstr102_FirmV_0_7_0+0)
	MOVWF       FARG_memcpy_s1+1 
	MOVLW       4
	MOVWF       FARG_memcpy_n+0 
	MOVLW       0
	MOVWF       FARG_memcpy_n+1 
	CALL        _memcpy+0, 0
	GOTO        L_intValueToStr645
L_intValueToStr644:
;FirmV_0_7_0.c,2543 :: 		memcpy(string+5,"s  ",4);
	MOVLW       5
	ADDWF       FARG_intValueToStr_string+0, 0 
	MOVWF       FARG_memcpy_d1+0 
	MOVLW       0
	ADDWFC      FARG_intValueToStr_string+1, 0 
	MOVWF       FARG_memcpy_d1+1 
	MOVLW       115
	MOVWF       ?lstr103_FirmV_0_7_0+0 
	MOVLW       32
	MOVWF       ?lstr103_FirmV_0_7_0+1 
	MOVLW       32
	MOVWF       ?lstr103_FirmV_0_7_0+2 
	CLRF        ?lstr103_FirmV_0_7_0+3 
	MOVLW       ?lstr103_FirmV_0_7_0+0
	MOVWF       FARG_memcpy_s1+0 
	MOVLW       hi_addr(?lstr103_FirmV_0_7_0+0)
	MOVWF       FARG_memcpy_s1+1 
	MOVLW       4
	MOVWF       FARG_memcpy_n+0 
	MOVLW       0
	MOVWF       FARG_memcpy_n+1 
	CALL        _memcpy+0, 0
L_intValueToStr645:
;FirmV_0_7_0.c,2544 :: 		}
	RETURN      0
; end of _intValueToStr

_SetOverloadParams:

;FirmV_0_7_0.c,2556 :: 		void SetOverloadParams(char p)
;FirmV_0_7_0.c,2559 :: 		switch(p)
	GOTO        L_SetOverloadParams646
;FirmV_0_7_0.c,2561 :: 		case 0: OverloadTreshold=0;OverloadDuration=255; break;
L_SetOverloadParams648:
	CLRF        _OverloadTreshold+0 
	CLRF        _OverloadTreshold+1 
	MOVLW       255
	MOVWF       _OverloadDuration+0 
	GOTO        L_SetOverloadParams647
;FirmV_0_7_0.c,2563 :: 		case 1: OverloadTreshold=580;OverloadDuration=200; break;
L_SetOverloadParams649:
	MOVLW       68
	MOVWF       _OverloadTreshold+0 
	MOVLW       2
	MOVWF       _OverloadTreshold+1 
	MOVLW       200
	MOVWF       _OverloadDuration+0 
	GOTO        L_SetOverloadParams647
;FirmV_0_7_0.c,2565 :: 		case 2: OverloadTreshold=600;OverloadDuration=150; break;
L_SetOverloadParams650:
	MOVLW       88
	MOVWF       _OverloadTreshold+0 
	MOVLW       2
	MOVWF       _OverloadTreshold+1 
	MOVLW       150
	MOVWF       _OverloadDuration+0 
	GOTO        L_SetOverloadParams647
;FirmV_0_7_0.c,2567 :: 		case 3: OverloadTreshold=650;OverloadDuration=100; break;
L_SetOverloadParams651:
	MOVLW       138
	MOVWF       _OverloadTreshold+0 
	MOVLW       2
	MOVWF       _OverloadTreshold+1 
	MOVLW       100
	MOVWF       _OverloadDuration+0 
	GOTO        L_SetOverloadParams647
;FirmV_0_7_0.c,2569 :: 		case 4: OverloadTreshold=650;OverloadDuration=80; break;
L_SetOverloadParams652:
	MOVLW       138
	MOVWF       _OverloadTreshold+0 
	MOVLW       2
	MOVWF       _OverloadTreshold+1 
	MOVLW       80
	MOVWF       _OverloadDuration+0 
	GOTO        L_SetOverloadParams647
;FirmV_0_7_0.c,2571 :: 		case 5: OverloadTreshold=680;OverloadDuration=150; break;
L_SetOverloadParams653:
	MOVLW       168
	MOVWF       _OverloadTreshold+0 
	MOVLW       2
	MOVWF       _OverloadTreshold+1 
	MOVLW       150
	MOVWF       _OverloadDuration+0 
	GOTO        L_SetOverloadParams647
;FirmV_0_7_0.c,2573 :: 		case 6: OverloadTreshold=680;OverloadDuration=100; break;
L_SetOverloadParams654:
	MOVLW       168
	MOVWF       _OverloadTreshold+0 
	MOVLW       2
	MOVWF       _OverloadTreshold+1 
	MOVLW       100
	MOVWF       _OverloadDuration+0 
	GOTO        L_SetOverloadParams647
;FirmV_0_7_0.c,2575 :: 		case 7: OverloadTreshold=680;OverloadDuration=50; break;
L_SetOverloadParams655:
	MOVLW       168
	MOVWF       _OverloadTreshold+0 
	MOVLW       2
	MOVWF       _OverloadTreshold+1 
	MOVLW       50
	MOVWF       _OverloadDuration+0 
	GOTO        L_SetOverloadParams647
;FirmV_0_7_0.c,2577 :: 		case 8: OverloadTreshold=720;OverloadDuration=100; break;
L_SetOverloadParams656:
	MOVLW       208
	MOVWF       _OverloadTreshold+0 
	MOVLW       2
	MOVWF       _OverloadTreshold+1 
	MOVLW       100
	MOVWF       _OverloadDuration+0 
	GOTO        L_SetOverloadParams647
;FirmV_0_7_0.c,2579 :: 		case 9: OverloadTreshold=750;OverloadDuration=50; break;
L_SetOverloadParams657:
	MOVLW       238
	MOVWF       _OverloadTreshold+0 
	MOVLW       2
	MOVWF       _OverloadTreshold+1 
	MOVLW       50
	MOVWF       _OverloadDuration+0 
	GOTO        L_SetOverloadParams647
;FirmV_0_7_0.c,2581 :: 		}
L_SetOverloadParams646:
	MOVF        FARG_SetOverloadParams_p+0, 0 
	XORLW       0
	BTFSC       STATUS+0, 2 
	GOTO        L_SetOverloadParams648
	MOVF        FARG_SetOverloadParams_p+0, 0 
	XORLW       1
	BTFSC       STATUS+0, 2 
	GOTO        L_SetOverloadParams649
	MOVF        FARG_SetOverloadParams_p+0, 0 
	XORLW       2
	BTFSC       STATUS+0, 2 
	GOTO        L_SetOverloadParams650
	MOVF        FARG_SetOverloadParams_p+0, 0 
	XORLW       3
	BTFSC       STATUS+0, 2 
	GOTO        L_SetOverloadParams651
	MOVF        FARG_SetOverloadParams_p+0, 0 
	XORLW       4
	BTFSC       STATUS+0, 2 
	GOTO        L_SetOverloadParams652
	MOVF        FARG_SetOverloadParams_p+0, 0 
	XORLW       5
	BTFSC       STATUS+0, 2 
	GOTO        L_SetOverloadParams653
	MOVF        FARG_SetOverloadParams_p+0, 0 
	XORLW       6
	BTFSC       STATUS+0, 2 
	GOTO        L_SetOverloadParams654
	MOVF        FARG_SetOverloadParams_p+0, 0 
	XORLW       7
	BTFSC       STATUS+0, 2 
	GOTO        L_SetOverloadParams655
	MOVF        FARG_SetOverloadParams_p+0, 0 
	XORLW       8
	BTFSC       STATUS+0, 2 
	GOTO        L_SetOverloadParams656
	MOVF        FARG_SetOverloadParams_p+0, 0 
	XORLW       9
	BTFSC       STATUS+0, 2 
	GOTO        L_SetOverloadParams657
L_SetOverloadParams647:
;FirmV_0_7_0.c,2582 :: 		}
	RETURN      0
; end of _SetOverloadParams
